; Listing generated by Microsoft (R) Optimizing Compiler Version 16.00.40219.01 

	TITLE	C:\Users\kmadsen\Google Drive\OpenGL_Projects\Starter\Starter\AnimatingSurface.cpp
	.686P
	.XMM
	include listing.inc
	.model	flat

INCLUDELIB MSVCRTD
INCLUDELIB OLDNAMES

PUBLIC	?value@?$integral_constant@_N$0A@@tr1@std@@2_NB	; std::tr1::integral_constant<bool,0>::value
PUBLIC	?value@?$integral_constant@_N$00@tr1@std@@2_NB	; std::tr1::integral_constant<bool,1>::value
PUBLIC	?value@?$integral_constant@I$0A@@tr1@std@@2IB	; std::tr1::integral_constant<unsigned int,0>::value
PUBLIC	?_Rank@?$_Arithmetic_traits@_N@std@@2HB		; std::_Arithmetic_traits<bool>::_Rank
PUBLIC	?_Rank@?$_Arithmetic_traits@D@std@@2HB		; std::_Arithmetic_traits<char>::_Rank
PUBLIC	?_Rank@?$_Arithmetic_traits@C@std@@2HB		; std::_Arithmetic_traits<signed char>::_Rank
PUBLIC	?_Rank@?$_Arithmetic_traits@E@std@@2HB		; std::_Arithmetic_traits<unsigned char>::_Rank
PUBLIC	?_Rank@?$_Arithmetic_traits@F@std@@2HB		; std::_Arithmetic_traits<short>::_Rank
PUBLIC	?_Rank@?$_Arithmetic_traits@G@std@@2HB		; std::_Arithmetic_traits<unsigned short>::_Rank
PUBLIC	?_Rank@?$_Arithmetic_traits@H@std@@2HB		; std::_Arithmetic_traits<int>::_Rank
PUBLIC	?_Rank@?$_Arithmetic_traits@I@std@@2HB		; std::_Arithmetic_traits<unsigned int>::_Rank
PUBLIC	?_Rank@?$_Arithmetic_traits@J@std@@2HB		; std::_Arithmetic_traits<long>::_Rank
PUBLIC	?_Rank@?$_Arithmetic_traits@K@std@@2HB		; std::_Arithmetic_traits<unsigned long>::_Rank
PUBLIC	?_Rank@?$_Arithmetic_traits@_J@std@@2HB		; std::_Arithmetic_traits<__int64>::_Rank
PUBLIC	?_Rank@?$_Arithmetic_traits@_K@std@@2HB		; std::_Arithmetic_traits<unsigned __int64>::_Rank
PUBLIC	?_Rank@?$_Arithmetic_traits@M@std@@2HB		; std::_Arithmetic_traits<float>::_Rank
PUBLIC	?_Rank@?$_Arithmetic_traits@N@std@@2HB		; std::_Arithmetic_traits<double>::_Rank
PUBLIC	?_Rank@?$_Arithmetic_traits@O@std@@2HB		; std::_Arithmetic_traits<long double>::_Rank
PUBLIC	?collate@?$_Locbase@H@std@@2HB			; std::_Locbase<int>::collate
PUBLIC	?ctype@?$_Locbase@H@std@@2HB			; std::_Locbase<int>::ctype
PUBLIC	?monetary@?$_Locbase@H@std@@2HB			; std::_Locbase<int>::monetary
PUBLIC	?numeric@?$_Locbase@H@std@@2HB			; std::_Locbase<int>::numeric
PUBLIC	?time@?$_Locbase@H@std@@2HB			; std::_Locbase<int>::time
PUBLIC	?messages@?$_Locbase@H@std@@2HB			; std::_Locbase<int>::messages
PUBLIC	?all@?$_Locbase@H@std@@2HB			; std::_Locbase<int>::all
PUBLIC	?none@?$_Locbase@H@std@@2HB			; std::_Locbase<int>::none
PUBLIC	?skipws@?$_Iosb@H@std@@2W4_Fmtflags@12@B	; std::_Iosb<int>::skipws
PUBLIC	?unitbuf@?$_Iosb@H@std@@2W4_Fmtflags@12@B	; std::_Iosb<int>::unitbuf
PUBLIC	?uppercase@?$_Iosb@H@std@@2W4_Fmtflags@12@B	; std::_Iosb<int>::uppercase
PUBLIC	?showbase@?$_Iosb@H@std@@2W4_Fmtflags@12@B	; std::_Iosb<int>::showbase
PUBLIC	?showpoint@?$_Iosb@H@std@@2W4_Fmtflags@12@B	; std::_Iosb<int>::showpoint
PUBLIC	?showpos@?$_Iosb@H@std@@2W4_Fmtflags@12@B	; std::_Iosb<int>::showpos
PUBLIC	?left@?$_Iosb@H@std@@2W4_Fmtflags@12@B		; std::_Iosb<int>::left
PUBLIC	?right@?$_Iosb@H@std@@2W4_Fmtflags@12@B		; std::_Iosb<int>::right
PUBLIC	?internal@?$_Iosb@H@std@@2W4_Fmtflags@12@B	; std::_Iosb<int>::internal
PUBLIC	?dec@?$_Iosb@H@std@@2W4_Fmtflags@12@B		; std::_Iosb<int>::dec
PUBLIC	?oct@?$_Iosb@H@std@@2W4_Fmtflags@12@B		; std::_Iosb<int>::oct
PUBLIC	?hex@?$_Iosb@H@std@@2W4_Fmtflags@12@B		; std::_Iosb<int>::hex
PUBLIC	?scientific@?$_Iosb@H@std@@2W4_Fmtflags@12@B	; std::_Iosb<int>::scientific
PUBLIC	?fixed@?$_Iosb@H@std@@2W4_Fmtflags@12@B		; std::_Iosb<int>::fixed
PUBLIC	?hexfloat@?$_Iosb@H@std@@2W4_Fmtflags@12@B	; std::_Iosb<int>::hexfloat
PUBLIC	?boolalpha@?$_Iosb@H@std@@2W4_Fmtflags@12@B	; std::_Iosb<int>::boolalpha
PUBLIC	?_Stdio@?$_Iosb@H@std@@2W4_Fmtflags@12@B	; std::_Iosb<int>::_Stdio
PUBLIC	?adjustfield@?$_Iosb@H@std@@2W4_Fmtflags@12@B	; std::_Iosb<int>::adjustfield
PUBLIC	?basefield@?$_Iosb@H@std@@2W4_Fmtflags@12@B	; std::_Iosb<int>::basefield
PUBLIC	?floatfield@?$_Iosb@H@std@@2W4_Fmtflags@12@B	; std::_Iosb<int>::floatfield
PUBLIC	?goodbit@?$_Iosb@H@std@@2W4_Iostate@12@B	; std::_Iosb<int>::goodbit
PUBLIC	?eofbit@?$_Iosb@H@std@@2W4_Iostate@12@B		; std::_Iosb<int>::eofbit
PUBLIC	?failbit@?$_Iosb@H@std@@2W4_Iostate@12@B	; std::_Iosb<int>::failbit
PUBLIC	?badbit@?$_Iosb@H@std@@2W4_Iostate@12@B		; std::_Iosb<int>::badbit
PUBLIC	?_Hardfail@?$_Iosb@H@std@@2W4_Iostate@12@B	; std::_Iosb<int>::_Hardfail
PUBLIC	?in@?$_Iosb@H@std@@2W4_Openmode@12@B		; std::_Iosb<int>::in
PUBLIC	?out@?$_Iosb@H@std@@2W4_Openmode@12@B		; std::_Iosb<int>::out
PUBLIC	?ate@?$_Iosb@H@std@@2W4_Openmode@12@B		; std::_Iosb<int>::ate
PUBLIC	?app@?$_Iosb@H@std@@2W4_Openmode@12@B		; std::_Iosb<int>::app
PUBLIC	?trunc@?$_Iosb@H@std@@2W4_Openmode@12@B		; std::_Iosb<int>::trunc
PUBLIC	?_Nocreate@?$_Iosb@H@std@@2W4_Openmode@12@B	; std::_Iosb<int>::_Nocreate
PUBLIC	?_Noreplace@?$_Iosb@H@std@@2W4_Openmode@12@B	; std::_Iosb<int>::_Noreplace
PUBLIC	?binary@?$_Iosb@H@std@@2W4_Openmode@12@B	; std::_Iosb<int>::binary
PUBLIC	?beg@?$_Iosb@H@std@@2W4_Seekdir@12@B		; std::_Iosb<int>::beg
PUBLIC	?cur@?$_Iosb@H@std@@2W4_Seekdir@12@B		; std::_Iosb<int>::cur
PUBLIC	?end@?$_Iosb@H@std@@2W4_Seekdir@12@B		; std::_Iosb<int>::end
CONST	SEGMENT
_FOV	DD	0420c0000r			; 35
_NEAR	DD	03f800000r			; 1
_FAR	DD	043800000r			; 256
CONST	ENDS
;	COMDAT ?end@?$_Iosb@H@std@@2W4_Seekdir@12@B
CONST	SEGMENT
?end@?$_Iosb@H@std@@2W4_Seekdir@12@B DD 02H		; std::_Iosb<int>::end
CONST	ENDS
;	COMDAT ?cur@?$_Iosb@H@std@@2W4_Seekdir@12@B
CONST	SEGMENT
?cur@?$_Iosb@H@std@@2W4_Seekdir@12@B DD 01H		; std::_Iosb<int>::cur
CONST	ENDS
;	COMDAT ?beg@?$_Iosb@H@std@@2W4_Seekdir@12@B
CONST	SEGMENT
?beg@?$_Iosb@H@std@@2W4_Seekdir@12@B DD 00H		; std::_Iosb<int>::beg
CONST	ENDS
;	COMDAT ?binary@?$_Iosb@H@std@@2W4_Openmode@12@B
CONST	SEGMENT
?binary@?$_Iosb@H@std@@2W4_Openmode@12@B DD 020H	; std::_Iosb<int>::binary
CONST	ENDS
;	COMDAT ?_Noreplace@?$_Iosb@H@std@@2W4_Openmode@12@B
CONST	SEGMENT
?_Noreplace@?$_Iosb@H@std@@2W4_Openmode@12@B DD 080H	; std::_Iosb<int>::_Noreplace
CONST	ENDS
;	COMDAT ?_Nocreate@?$_Iosb@H@std@@2W4_Openmode@12@B
CONST	SEGMENT
?_Nocreate@?$_Iosb@H@std@@2W4_Openmode@12@B DD 040H	; std::_Iosb<int>::_Nocreate
CONST	ENDS
;	COMDAT ?trunc@?$_Iosb@H@std@@2W4_Openmode@12@B
CONST	SEGMENT
?trunc@?$_Iosb@H@std@@2W4_Openmode@12@B DD 010H		; std::_Iosb<int>::trunc
CONST	ENDS
;	COMDAT ?app@?$_Iosb@H@std@@2W4_Openmode@12@B
CONST	SEGMENT
?app@?$_Iosb@H@std@@2W4_Openmode@12@B DD 08H		; std::_Iosb<int>::app
CONST	ENDS
;	COMDAT ?ate@?$_Iosb@H@std@@2W4_Openmode@12@B
CONST	SEGMENT
?ate@?$_Iosb@H@std@@2W4_Openmode@12@B DD 04H		; std::_Iosb<int>::ate
CONST	ENDS
;	COMDAT ?out@?$_Iosb@H@std@@2W4_Openmode@12@B
CONST	SEGMENT
?out@?$_Iosb@H@std@@2W4_Openmode@12@B DD 02H		; std::_Iosb<int>::out
CONST	ENDS
;	COMDAT ?in@?$_Iosb@H@std@@2W4_Openmode@12@B
CONST	SEGMENT
?in@?$_Iosb@H@std@@2W4_Openmode@12@B DD 01H		; std::_Iosb<int>::in
CONST	ENDS
;	COMDAT ?_Hardfail@?$_Iosb@H@std@@2W4_Iostate@12@B
CONST	SEGMENT
?_Hardfail@?$_Iosb@H@std@@2W4_Iostate@12@B DD 010H	; std::_Iosb<int>::_Hardfail
CONST	ENDS
;	COMDAT ?badbit@?$_Iosb@H@std@@2W4_Iostate@12@B
CONST	SEGMENT
?badbit@?$_Iosb@H@std@@2W4_Iostate@12@B DD 04H		; std::_Iosb<int>::badbit
CONST	ENDS
;	COMDAT ?failbit@?$_Iosb@H@std@@2W4_Iostate@12@B
CONST	SEGMENT
?failbit@?$_Iosb@H@std@@2W4_Iostate@12@B DD 02H		; std::_Iosb<int>::failbit
CONST	ENDS
;	COMDAT ?eofbit@?$_Iosb@H@std@@2W4_Iostate@12@B
CONST	SEGMENT
?eofbit@?$_Iosb@H@std@@2W4_Iostate@12@B DD 01H		; std::_Iosb<int>::eofbit
CONST	ENDS
;	COMDAT ?goodbit@?$_Iosb@H@std@@2W4_Iostate@12@B
CONST	SEGMENT
?goodbit@?$_Iosb@H@std@@2W4_Iostate@12@B DD 00H		; std::_Iosb<int>::goodbit
CONST	ENDS
;	COMDAT ?floatfield@?$_Iosb@H@std@@2W4_Fmtflags@12@B
CONST	SEGMENT
?floatfield@?$_Iosb@H@std@@2W4_Fmtflags@12@B DD 03000H	; std::_Iosb<int>::floatfield
CONST	ENDS
;	COMDAT ?basefield@?$_Iosb@H@std@@2W4_Fmtflags@12@B
CONST	SEGMENT
?basefield@?$_Iosb@H@std@@2W4_Fmtflags@12@B DD 0e00H	; std::_Iosb<int>::basefield
CONST	ENDS
;	COMDAT ?adjustfield@?$_Iosb@H@std@@2W4_Fmtflags@12@B
CONST	SEGMENT
?adjustfield@?$_Iosb@H@std@@2W4_Fmtflags@12@B DD 01c0H	; std::_Iosb<int>::adjustfield
CONST	ENDS
;	COMDAT ?_Stdio@?$_Iosb@H@std@@2W4_Fmtflags@12@B
CONST	SEGMENT
?_Stdio@?$_Iosb@H@std@@2W4_Fmtflags@12@B DD 08000H	; std::_Iosb<int>::_Stdio
CONST	ENDS
;	COMDAT ?boolalpha@?$_Iosb@H@std@@2W4_Fmtflags@12@B
CONST	SEGMENT
?boolalpha@?$_Iosb@H@std@@2W4_Fmtflags@12@B DD 04000H	; std::_Iosb<int>::boolalpha
CONST	ENDS
;	COMDAT ?hexfloat@?$_Iosb@H@std@@2W4_Fmtflags@12@B
CONST	SEGMENT
?hexfloat@?$_Iosb@H@std@@2W4_Fmtflags@12@B DD 03000H	; std::_Iosb<int>::hexfloat
CONST	ENDS
;	COMDAT ?fixed@?$_Iosb@H@std@@2W4_Fmtflags@12@B
CONST	SEGMENT
?fixed@?$_Iosb@H@std@@2W4_Fmtflags@12@B DD 02000H	; std::_Iosb<int>::fixed
CONST	ENDS
;	COMDAT ?scientific@?$_Iosb@H@std@@2W4_Fmtflags@12@B
CONST	SEGMENT
?scientific@?$_Iosb@H@std@@2W4_Fmtflags@12@B DD 01000H	; std::_Iosb<int>::scientific
CONST	ENDS
;	COMDAT ?hex@?$_Iosb@H@std@@2W4_Fmtflags@12@B
CONST	SEGMENT
?hex@?$_Iosb@H@std@@2W4_Fmtflags@12@B DD 0800H		; std::_Iosb<int>::hex
CONST	ENDS
;	COMDAT ?oct@?$_Iosb@H@std@@2W4_Fmtflags@12@B
CONST	SEGMENT
?oct@?$_Iosb@H@std@@2W4_Fmtflags@12@B DD 0400H		; std::_Iosb<int>::oct
CONST	ENDS
;	COMDAT ?dec@?$_Iosb@H@std@@2W4_Fmtflags@12@B
CONST	SEGMENT
?dec@?$_Iosb@H@std@@2W4_Fmtflags@12@B DD 0200H		; std::_Iosb<int>::dec
CONST	ENDS
;	COMDAT ?internal@?$_Iosb@H@std@@2W4_Fmtflags@12@B
CONST	SEGMENT
?internal@?$_Iosb@H@std@@2W4_Fmtflags@12@B DD 0100H	; std::_Iosb<int>::internal
CONST	ENDS
;	COMDAT ?right@?$_Iosb@H@std@@2W4_Fmtflags@12@B
CONST	SEGMENT
?right@?$_Iosb@H@std@@2W4_Fmtflags@12@B DD 080H		; std::_Iosb<int>::right
CONST	ENDS
;	COMDAT ?left@?$_Iosb@H@std@@2W4_Fmtflags@12@B
CONST	SEGMENT
?left@?$_Iosb@H@std@@2W4_Fmtflags@12@B DD 040H		; std::_Iosb<int>::left
CONST	ENDS
;	COMDAT ?showpos@?$_Iosb@H@std@@2W4_Fmtflags@12@B
CONST	SEGMENT
?showpos@?$_Iosb@H@std@@2W4_Fmtflags@12@B DD 020H	; std::_Iosb<int>::showpos
CONST	ENDS
;	COMDAT ?showpoint@?$_Iosb@H@std@@2W4_Fmtflags@12@B
CONST	SEGMENT
?showpoint@?$_Iosb@H@std@@2W4_Fmtflags@12@B DD 010H	; std::_Iosb<int>::showpoint
CONST	ENDS
;	COMDAT ?showbase@?$_Iosb@H@std@@2W4_Fmtflags@12@B
CONST	SEGMENT
?showbase@?$_Iosb@H@std@@2W4_Fmtflags@12@B DD 08H	; std::_Iosb<int>::showbase
CONST	ENDS
;	COMDAT ?uppercase@?$_Iosb@H@std@@2W4_Fmtflags@12@B
CONST	SEGMENT
?uppercase@?$_Iosb@H@std@@2W4_Fmtflags@12@B DD 04H	; std::_Iosb<int>::uppercase
CONST	ENDS
;	COMDAT ?unitbuf@?$_Iosb@H@std@@2W4_Fmtflags@12@B
CONST	SEGMENT
?unitbuf@?$_Iosb@H@std@@2W4_Fmtflags@12@B DD 02H	; std::_Iosb<int>::unitbuf
CONST	ENDS
;	COMDAT ?skipws@?$_Iosb@H@std@@2W4_Fmtflags@12@B
CONST	SEGMENT
?skipws@?$_Iosb@H@std@@2W4_Fmtflags@12@B DD 01H		; std::_Iosb<int>::skipws
CONST	ENDS
;	COMDAT ?none@?$_Locbase@H@std@@2HB
CONST	SEGMENT
?none@?$_Locbase@H@std@@2HB DD 00H			; std::_Locbase<int>::none
CONST	ENDS
;	COMDAT ?all@?$_Locbase@H@std@@2HB
CONST	SEGMENT
?all@?$_Locbase@H@std@@2HB DD 03fH			; std::_Locbase<int>::all
CONST	ENDS
;	COMDAT ?messages@?$_Locbase@H@std@@2HB
CONST	SEGMENT
?messages@?$_Locbase@H@std@@2HB DD 020H			; std::_Locbase<int>::messages
CONST	ENDS
;	COMDAT ?time@?$_Locbase@H@std@@2HB
CONST	SEGMENT
?time@?$_Locbase@H@std@@2HB DD 010H			; std::_Locbase<int>::time
CONST	ENDS
;	COMDAT ?numeric@?$_Locbase@H@std@@2HB
CONST	SEGMENT
?numeric@?$_Locbase@H@std@@2HB DD 08H			; std::_Locbase<int>::numeric
CONST	ENDS
;	COMDAT ?monetary@?$_Locbase@H@std@@2HB
CONST	SEGMENT
?monetary@?$_Locbase@H@std@@2HB DD 04H			; std::_Locbase<int>::monetary
CONST	ENDS
;	COMDAT ?ctype@?$_Locbase@H@std@@2HB
CONST	SEGMENT
?ctype@?$_Locbase@H@std@@2HB DD 02H			; std::_Locbase<int>::ctype
CONST	ENDS
;	COMDAT ?collate@?$_Locbase@H@std@@2HB
CONST	SEGMENT
?collate@?$_Locbase@H@std@@2HB DD 01H			; std::_Locbase<int>::collate
CONST	ENDS
;	COMDAT ?_Rank@?$_Arithmetic_traits@O@std@@2HB
CONST	SEGMENT
?_Rank@?$_Arithmetic_traits@O@std@@2HB DD 09H		; std::_Arithmetic_traits<long double>::_Rank
CONST	ENDS
;	COMDAT ?_Rank@?$_Arithmetic_traits@N@std@@2HB
CONST	SEGMENT
?_Rank@?$_Arithmetic_traits@N@std@@2HB DD 08H		; std::_Arithmetic_traits<double>::_Rank
CONST	ENDS
;	COMDAT ?_Rank@?$_Arithmetic_traits@M@std@@2HB
CONST	SEGMENT
?_Rank@?$_Arithmetic_traits@M@std@@2HB DD 07H		; std::_Arithmetic_traits<float>::_Rank
CONST	ENDS
;	COMDAT ?_Rank@?$_Arithmetic_traits@_K@std@@2HB
CONST	SEGMENT
?_Rank@?$_Arithmetic_traits@_K@std@@2HB DD 06H		; std::_Arithmetic_traits<unsigned __int64>::_Rank
CONST	ENDS
;	COMDAT ?_Rank@?$_Arithmetic_traits@_J@std@@2HB
CONST	SEGMENT
?_Rank@?$_Arithmetic_traits@_J@std@@2HB DD 06H		; std::_Arithmetic_traits<__int64>::_Rank
CONST	ENDS
;	COMDAT ?_Rank@?$_Arithmetic_traits@K@std@@2HB
CONST	SEGMENT
?_Rank@?$_Arithmetic_traits@K@std@@2HB DD 05H		; std::_Arithmetic_traits<unsigned long>::_Rank
CONST	ENDS
;	COMDAT ?_Rank@?$_Arithmetic_traits@J@std@@2HB
CONST	SEGMENT
?_Rank@?$_Arithmetic_traits@J@std@@2HB DD 05H		; std::_Arithmetic_traits<long>::_Rank
CONST	ENDS
;	COMDAT ?_Rank@?$_Arithmetic_traits@I@std@@2HB
CONST	SEGMENT
?_Rank@?$_Arithmetic_traits@I@std@@2HB DD 04H		; std::_Arithmetic_traits<unsigned int>::_Rank
CONST	ENDS
;	COMDAT ?_Rank@?$_Arithmetic_traits@H@std@@2HB
CONST	SEGMENT
?_Rank@?$_Arithmetic_traits@H@std@@2HB DD 04H		; std::_Arithmetic_traits<int>::_Rank
CONST	ENDS
;	COMDAT ?_Rank@?$_Arithmetic_traits@G@std@@2HB
CONST	SEGMENT
?_Rank@?$_Arithmetic_traits@G@std@@2HB DD 03H		; std::_Arithmetic_traits<unsigned short>::_Rank
CONST	ENDS
;	COMDAT ?_Rank@?$_Arithmetic_traits@F@std@@2HB
CONST	SEGMENT
?_Rank@?$_Arithmetic_traits@F@std@@2HB DD 03H		; std::_Arithmetic_traits<short>::_Rank
CONST	ENDS
;	COMDAT ?_Rank@?$_Arithmetic_traits@E@std@@2HB
CONST	SEGMENT
?_Rank@?$_Arithmetic_traits@E@std@@2HB DD 02H		; std::_Arithmetic_traits<unsigned char>::_Rank
CONST	ENDS
;	COMDAT ?_Rank@?$_Arithmetic_traits@C@std@@2HB
CONST	SEGMENT
?_Rank@?$_Arithmetic_traits@C@std@@2HB DD 02H		; std::_Arithmetic_traits<signed char>::_Rank
CONST	ENDS
;	COMDAT ?_Rank@?$_Arithmetic_traits@D@std@@2HB
CONST	SEGMENT
?_Rank@?$_Arithmetic_traits@D@std@@2HB DD 02H		; std::_Arithmetic_traits<char>::_Rank
CONST	ENDS
;	COMDAT ?_Rank@?$_Arithmetic_traits@_N@std@@2HB
CONST	SEGMENT
?_Rank@?$_Arithmetic_traits@_N@std@@2HB DD 01H		; std::_Arithmetic_traits<bool>::_Rank
CONST	ENDS
;	COMDAT ?value@?$integral_constant@I$0A@@tr1@std@@2IB
CONST	SEGMENT
?value@?$integral_constant@I$0A@@tr1@std@@2IB DD 00H	; std::tr1::integral_constant<unsigned int,0>::value
CONST	ENDS
;	COMDAT ?value@?$integral_constant@_N$00@tr1@std@@2_NB
CONST	SEGMENT
?value@?$integral_constant@_N$00@tr1@std@@2_NB DB 01H	; std::tr1::integral_constant<bool,1>::value
CONST	ENDS
;	COMDAT ?value@?$integral_constant@_N$0A@@tr1@std@@2_NB
CONST	SEGMENT
?value@?$integral_constant@_N$0A@@tr1@std@@2_NB DB 00H	; std::tr1::integral_constant<bool,0>::value
CONST	ENDS
PUBLIC	??1GLSLProgram@@QAE@XZ				; GLSLProgram::~GLSLProgram
PUBLIC	__real@42c80000
PUBLIC	??0?$tmat4x4@M@detail@glm@@QAE@XZ		; glm::detail::tmat4x4<float>::tmat4x4<float>
PUBLIC	??0KMouse@@QAE@XZ				; KMouse::KMouse
PUBLIC	??_7AnimatingSurface@@6B@			; AnimatingSurface::`vftable'
PUBLIC	??0KScene@@QAE@XZ				; KScene::KScene
PUBLIC	??0AnimatingSurface@@QAE@XZ			; AnimatingSurface::AnimatingSurface
PUBLIC	??_R4AnimatingSurface@@6B@			; AnimatingSurface::`RTTI Complete Object Locator'
PUBLIC	??_R0?AVAnimatingSurface@@@8			; AnimatingSurface `RTTI Type Descriptor'
PUBLIC	??_R3AnimatingSurface@@8			; AnimatingSurface::`RTTI Class Hierarchy Descriptor'
PUBLIC	??_R2AnimatingSurface@@8			; AnimatingSurface::`RTTI Base Class Array'
PUBLIC	??_R1A@?0A@EA@AnimatingSurface@@8		; AnimatingSurface::`RTTI Base Class Descriptor at (0,-1,0,64)'
PUBLIC	??_R1A@?0A@EA@KScene@@8				; KScene::`RTTI Base Class Descriptor at (0,-1,0,64)'
PUBLIC	??_R0?AVKScene@@@8				; KScene `RTTI Type Descriptor'
PUBLIC	??_R3KScene@@8					; KScene::`RTTI Class Hierarchy Descriptor'
PUBLIC	??_R2KScene@@8					; KScene::`RTTI Base Class Array'
PUBLIC	?Init@AnimatingSurface@@UAEXXZ			; AnimatingSurface::Init
PUBLIC	?Render@AnimatingSurface@@UAEXXZ		; AnimatingSurface::Render
PUBLIC	?Update@AnimatingSurface@@UAEXM@Z		; AnimatingSurface::Update
PUBLIC	?Resize@AnimatingSurface@@UAEXHH@Z		; AnimatingSurface::Resize
PUBLIC	?Mouse@AnimatingSurface@@UAEXABUKMouse@@@Z	; AnimatingSurface::Mouse
PUBLIC	?Motion@AnimatingSurface@@UAEXMM@Z		; AnimatingSurface::Motion
PUBLIC	?Keyboard@KScene@@UAEXHMM@Z			; KScene::Keyboard
EXTRN	??3@YAXPAX@Z:PROC				; operator delete
EXTRN	??0VBOPlane@@QAE@MMHH@Z:PROC			; VBOPlane::VBOPlane
EXTRN	??0PerspectiveProjection@@QAE@MMMM@Z:PROC	; PerspectiveProjection::PerspectiveProjection
EXTRN	??2@YAPAXI@Z:PROC				; operator new
EXTRN	??0GLSLProgram@@QAE@XZ:PROC			; GLSLProgram::GLSLProgram
EXTRN	___security_cookie:DWORD
EXTRN	___CxxFrameHandler3:PROC
EXTRN	@__security_check_cookie@4:PROC
EXTRN	__fltused:DWORD
EXTRN	__RTC_CheckEsp:PROC
EXTRN	__RTC_Shutdown:PROC
EXTRN	__RTC_InitBase:PROC
EXTRN	??_7type_info@@6B@:QWORD			; type_info::`vftable'
EXTRN	??_EAnimatingSurface@@UAEPAXI@Z:PROC		; AnimatingSurface::`vector deleting destructor'
;	COMDAT ??_R2KScene@@8
; File c:\users\kmadsen\google drive\opengl_projects\starter\starter\animatingsurface.cpp
rdata$r	SEGMENT
??_R2KScene@@8 DD FLAT:??_R1A@?0A@EA@KScene@@8		; KScene::`RTTI Base Class Array'
rdata$r	ENDS
;	COMDAT ??_R3KScene@@8
rdata$r	SEGMENT
??_R3KScene@@8 DD 00H					; KScene::`RTTI Class Hierarchy Descriptor'
	DD	00H
	DD	01H
	DD	FLAT:??_R2KScene@@8
rdata$r	ENDS
;	COMDAT ??_R0?AVKScene@@@8
_DATA	SEGMENT
??_R0?AVKScene@@@8 DD FLAT:??_7type_info@@6B@		; KScene `RTTI Type Descriptor'
	DD	00H
	DB	'.?AVKScene@@', 00H
_DATA	ENDS
;	COMDAT ??_R1A@?0A@EA@KScene@@8
rdata$r	SEGMENT
??_R1A@?0A@EA@KScene@@8 DD FLAT:??_R0?AVKScene@@@8	; KScene::`RTTI Base Class Descriptor at (0,-1,0,64)'
	DD	00H
	DD	00H
	DD	0ffffffffH
	DD	00H
	DD	040H
	DD	FLAT:??_R3KScene@@8
rdata$r	ENDS
;	COMDAT ??_R1A@?0A@EA@AnimatingSurface@@8
rdata$r	SEGMENT
??_R1A@?0A@EA@AnimatingSurface@@8 DD FLAT:??_R0?AVAnimatingSurface@@@8 ; AnimatingSurface::`RTTI Base Class Descriptor at (0,-1,0,64)'
	DD	01H
	DD	00H
	DD	0ffffffffH
	DD	00H
	DD	040H
	DD	FLAT:??_R3AnimatingSurface@@8
rdata$r	ENDS
;	COMDAT ??_R2AnimatingSurface@@8
rdata$r	SEGMENT
??_R2AnimatingSurface@@8 DD FLAT:??_R1A@?0A@EA@AnimatingSurface@@8 ; AnimatingSurface::`RTTI Base Class Array'
	DD	FLAT:??_R1A@?0A@EA@KScene@@8
rdata$r	ENDS
;	COMDAT ??_R3AnimatingSurface@@8
rdata$r	SEGMENT
??_R3AnimatingSurface@@8 DD 00H				; AnimatingSurface::`RTTI Class Hierarchy Descriptor'
	DD	00H
	DD	02H
	DD	FLAT:??_R2AnimatingSurface@@8
rdata$r	ENDS
;	COMDAT ??_R0?AVAnimatingSurface@@@8
_DATA	SEGMENT
??_R0?AVAnimatingSurface@@@8 DD FLAT:??_7type_info@@6B@	; AnimatingSurface `RTTI Type Descriptor'
	DD	00H
	DB	'.?AVAnimatingSurface@@', 00H
_DATA	ENDS
;	COMDAT ??_R4AnimatingSurface@@6B@
rdata$r	SEGMENT
??_R4AnimatingSurface@@6B@ DD 00H			; AnimatingSurface::`RTTI Complete Object Locator'
	DD	00H
	DD	00H
	DD	FLAT:??_R0?AVAnimatingSurface@@@8
	DD	FLAT:??_R3AnimatingSurface@@8
rdata$r	ENDS
;	COMDAT __real@42c80000
CONST	SEGMENT
__real@42c80000 DD 042c80000r			; 100
CONST	ENDS
;	COMDAT ??_7AnimatingSurface@@6B@
CONST	SEGMENT
??_7AnimatingSurface@@6B@ DD FLAT:??_R4AnimatingSurface@@6B@ ; AnimatingSurface::`vftable'
	DD	FLAT:?Init@AnimatingSurface@@UAEXXZ
	DD	FLAT:?Render@AnimatingSurface@@UAEXXZ
	DD	FLAT:?Update@AnimatingSurface@@UAEXM@Z
	DD	FLAT:?Resize@AnimatingSurface@@UAEXHH@Z
	DD	FLAT:?Mouse@AnimatingSurface@@UAEXABUKMouse@@@Z
	DD	FLAT:?Motion@AnimatingSurface@@UAEXMM@Z
	DD	FLAT:?Keyboard@KScene@@UAEXHMM@Z
	DD	FLAT:??_EAnimatingSurface@@UAEPAXI@Z
CONST	ENDS
;	COMDAT xdata$x
xdata$x	SEGMENT
__unwindtable$??0AnimatingSurface@@QAE@XZ DD 0ffffffffH
	DD	FLAT:__unwindfunclet$??0AnimatingSurface@@QAE@XZ$0
	DD	00H
	DD	FLAT:__unwindfunclet$??0AnimatingSurface@@QAE@XZ$1
	DD	00H
	DD	FLAT:__unwindfunclet$??0AnimatingSurface@@QAE@XZ$2
__ehfuncinfo$??0AnimatingSurface@@QAE@XZ DD 019930522H
	DD	03H
	DD	FLAT:__unwindtable$??0AnimatingSurface@@QAE@XZ
	DD	2 DUP(00H)
	DD	2 DUP(00H)
	DD	00H
	DD	01H
xdata$x	ENDS
;	COMDAT rtc$TMZ
rtc$TMZ	SEGMENT
__RTC_Shutdown.rtc$TMZ DD FLAT:__RTC_Shutdown
rtc$TMZ	ENDS
;	COMDAT rtc$IMZ
rtc$IMZ	SEGMENT
__RTC_InitBase.rtc$IMZ DD FLAT:__RTC_InitBase
; Function compile flags: /Odtp /RTCsu /ZI
rtc$IMZ	ENDS
;	COMDAT ??0AnimatingSurface@@QAE@XZ
_TEXT	SEGMENT
tv147 = -280						; size = 4
tv135 = -280						; size = 4
$T70638 = -272						; size = 4
$T70639 = -260						; size = 4
$T70642 = -248						; size = 4
$T70643 = -236						; size = 4
_aspectRatio$ = -32					; size = 4
_this$ = -20						; size = 4
__$EHRec$ = -12						; size = 12
??0AnimatingSurface@@QAE@XZ PROC			; AnimatingSurface::AnimatingSurface, COMDAT
; _this$ = ecx

; 21   : {

	push	ebp
	mov	ebp, esp
	push	-1
	push	__ehhandler$??0AnimatingSurface@@QAE@XZ
	mov	eax, DWORD PTR fs:0
	push	eax
	sub	esp, 268				; 0000010cH
	push	ebx
	push	esi
	push	edi
	push	ecx
	lea	edi, DWORD PTR [ebp-280]
	mov	ecx, 67					; 00000043H
	mov	eax, -858993460				; ccccccccH
	rep stosd
	pop	ecx
	mov	eax, DWORD PTR ___security_cookie
	xor	eax, ebp
	push	eax
	lea	eax, DWORD PTR __$EHRec$[ebp]
	mov	DWORD PTR fs:0, eax
	mov	DWORD PTR _this$[ebp], ecx
	mov	ecx, DWORD PTR _this$[ebp]
	call	??0KScene@@QAE@XZ
	mov	eax, DWORD PTR _this$[ebp]
	mov	DWORD PTR [eax], OFFSET ??_7AnimatingSurface@@6B@
	mov	ecx, DWORD PTR _this$[ebp]
	add	ecx, 40					; 00000028H
	call	??0KMouse@@QAE@XZ
	mov	ecx, DWORD PTR _this$[ebp]
	add	ecx, 56					; 00000038H
	call	??0GLSLProgram@@QAE@XZ			; GLSLProgram::GLSLProgram
	mov	DWORD PTR __$EHRec$[ebp+8], 0
	mov	ecx, DWORD PTR _this$[ebp]
	add	ecx, 100				; 00000064H
	call	??0?$tmat4x4@M@detail@glm@@QAE@XZ	; glm::detail::tmat4x4<float>::tmat4x4<float>

; 22   : 	float aspectRatio = (float)m_Width/m_Height;

	mov	eax, DWORD PTR _this$[ebp]
	fild	DWORD PTR [eax+4]
	mov	ecx, DWORD PTR _this$[ebp]
	fidiv	DWORD PTR [ecx+8]
	fstp	DWORD PTR _aspectRatio$[ebp]

; 23   : 	m_CameraFrustum = new PerspectiveProjection(FOV, aspectRatio, NEAR, FAR);

	push	144					; 00000090H
	call	??2@YAPAXI@Z				; operator new
	add	esp, 4
	mov	DWORD PTR $T70639[ebp], eax
	mov	BYTE PTR __$EHRec$[ebp+8], 1
	cmp	DWORD PTR $T70639[ebp], 0
	je	SHORT $LN3@AnimatingS
	push	ecx
	fld	DWORD PTR _FAR
	fstp	DWORD PTR [esp]
	push	ecx
	fld	DWORD PTR _NEAR
	fstp	DWORD PTR [esp]
	push	ecx
	fld	DWORD PTR _aspectRatio$[ebp]
	fstp	DWORD PTR [esp]
	push	ecx
	fld	DWORD PTR _FOV
	fstp	DWORD PTR [esp]
	mov	ecx, DWORD PTR $T70639[ebp]
	call	??0PerspectiveProjection@@QAE@MMMM@Z	; PerspectiveProjection::PerspectiveProjection
	mov	DWORD PTR tv135[ebp], eax
	jmp	SHORT $LN4@AnimatingS
$LN3@AnimatingS:
	mov	DWORD PTR tv135[ebp], 0
$LN4@AnimatingS:
	mov	eax, DWORD PTR tv135[ebp]
	mov	DWORD PTR $T70638[ebp], eax
	mov	BYTE PTR __$EHRec$[ebp+8], 0
	mov	ecx, DWORD PTR _this$[ebp]
	mov	edx, DWORD PTR $T70638[ebp]
	mov	DWORD PTR [ecx+96], edx

; 24   :     m_Plane = new VBOPlane(100.0f, 100.0f, 1000, 1000);

	push	12					; 0000000cH
	call	??2@YAPAXI@Z				; operator new
	add	esp, 4
	mov	DWORD PTR $T70643[ebp], eax
	mov	BYTE PTR __$EHRec$[ebp+8], 2
	cmp	DWORD PTR $T70643[ebp], 0
	je	SHORT $LN5@AnimatingS
	push	1000					; 000003e8H
	push	1000					; 000003e8H
	push	ecx
	fld	DWORD PTR __real@42c80000
	fstp	DWORD PTR [esp]
	push	ecx
	fld	DWORD PTR __real@42c80000
	fstp	DWORD PTR [esp]
	mov	ecx, DWORD PTR $T70643[ebp]
	call	??0VBOPlane@@QAE@MMHH@Z			; VBOPlane::VBOPlane
	mov	DWORD PTR tv147[ebp], eax
	jmp	SHORT $LN6@AnimatingS
$LN5@AnimatingS:
	mov	DWORD PTR tv147[ebp], 0
$LN6@AnimatingS:
	mov	eax, DWORD PTR tv147[ebp]
	mov	DWORD PTR $T70642[ebp], eax
	mov	BYTE PTR __$EHRec$[ebp+8], 0
	mov	ecx, DWORD PTR _this$[ebp]
	mov	edx, DWORD PTR $T70642[ebp]
	mov	DWORD PTR [ecx+164], edx

; 25   : }

	mov	DWORD PTR __$EHRec$[ebp+8], -1
	mov	eax, DWORD PTR _this$[ebp]
	mov	ecx, DWORD PTR __$EHRec$[ebp]
	mov	DWORD PTR fs:0, ecx
	pop	ecx
	pop	edi
	pop	esi
	pop	ebx
	add	esp, 280				; 00000118H
	cmp	ebp, esp
	call	__RTC_CheckEsp
	mov	esp, ebp
	pop	ebp
	ret	0
_TEXT	ENDS
;	COMDAT text$x
text$x	SEGMENT
__unwindfunclet$??0AnimatingSurface@@QAE@XZ$0:
	mov	ecx, DWORD PTR _this$[ebp]
	add	ecx, 56					; 00000038H
	jmp	??1GLSLProgram@@QAE@XZ
__unwindfunclet$??0AnimatingSurface@@QAE@XZ$1:
	mov	eax, DWORD PTR $T70639[ebp]
	push	eax
	call	??3@YAXPAX@Z				; operator delete
	pop	ecx
	ret	0
__unwindfunclet$??0AnimatingSurface@@QAE@XZ$2:
	mov	eax, DWORD PTR $T70643[ebp]
	push	eax
	call	??3@YAXPAX@Z				; operator delete
	pop	ecx
	ret	0
__ehhandler$??0AnimatingSurface@@QAE@XZ:
	mov	edx, DWORD PTR [esp+8]
	lea	eax, DWORD PTR [edx+12]
	mov	ecx, DWORD PTR [edx-284]
	xor	ecx, eax
	call	@__security_check_cookie@4
	mov	eax, OFFSET __ehfuncinfo$??0AnimatingSurface@@QAE@XZ
	jmp	___CxxFrameHandler3
text$x	ENDS
??0AnimatingSurface@@QAE@XZ ENDP			; AnimatingSurface::AnimatingSurface
; Function compile flags: /Odtp /RTCsu /ZI
; File c:\users\kmadsen\google drive\opengl_projects\starter\starter\kscene.h
;	COMDAT ?Keyboard@KScene@@UAEXHMM@Z
_TEXT	SEGMENT
_this$ = -8						; size = 4
_key$ = 8						; size = 4
_x$ = 12						; size = 4
_y$ = 16						; size = 4
?Keyboard@KScene@@UAEXHMM@Z PROC			; KScene::Keyboard, COMDAT
; _this$ = ecx

; 130  : 	virtual void Keyboard(int key, float x, float y) { }

	push	ebp
	mov	ebp, esp
	sub	esp, 204				; 000000ccH
	push	ebx
	push	esi
	push	edi
	push	ecx
	lea	edi, DWORD PTR [ebp-204]
	mov	ecx, 51					; 00000033H
	mov	eax, -858993460				; ccccccccH
	rep stosd
	pop	ecx
	mov	DWORD PTR _this$[ebp], ecx
	pop	edi
	pop	esi
	pop	ebx
	mov	esp, ebp
	pop	ebp
	ret	12					; 0000000cH
?Keyboard@KScene@@UAEXHMM@Z ENDP			; KScene::Keyboard
_TEXT	ENDS
PUBLIC	??4KMouse@@QAEAAU0@ABU0@@Z			; KMouse::operator=
; Function compile flags: /Odtp /RTCsu /ZI
; File c:\users\kmadsen\google drive\opengl_projects\starter\starter\animatingsurface.h
;	COMDAT ?Mouse@AnimatingSurface@@UAEXABUKMouse@@@Z
_TEXT	SEGMENT
_this$ = -8						; size = 4
_mouse$ = 8						; size = 4
?Mouse@AnimatingSurface@@UAEXABUKMouse@@@Z PROC		; AnimatingSurface::Mouse, COMDAT
; _this$ = ecx

; 19   : 	void Mouse(const KMouse &mouse) override { m_Mouse = mouse; }

	push	ebp
	mov	ebp, esp
	sub	esp, 204				; 000000ccH
	push	ebx
	push	esi
	push	edi
	push	ecx
	lea	edi, DWORD PTR [ebp-204]
	mov	ecx, 51					; 00000033H
	mov	eax, -858993460				; ccccccccH
	rep stosd
	pop	ecx
	mov	DWORD PTR _this$[ebp], ecx
	mov	eax, DWORD PTR _mouse$[ebp]
	push	eax
	mov	ecx, DWORD PTR _this$[ebp]
	add	ecx, 40					; 00000028H
	call	??4KMouse@@QAEAAU0@ABU0@@Z
	pop	edi
	pop	esi
	pop	ebx
	add	esp, 204				; 000000ccH
	cmp	ebp, esp
	call	__RTC_CheckEsp
	mov	esp, ebp
	pop	ebp
	ret	4
?Mouse@AnimatingSurface@@UAEXABUKMouse@@@Z ENDP		; AnimatingSurface::Mouse
_TEXT	ENDS
PUBLIC	??4?$tvec2@M@detail@glm@@QAEAAU012@ABU012@@Z	; glm::detail::tvec2<float>::operator=
; Function compile flags: /Odtp /RTCsu /ZI
;	COMDAT ??4KMouse@@QAEAAU0@ABU0@@Z
_TEXT	SEGMENT
_this$ = -8						; size = 4
___that$ = 8						; size = 4
??4KMouse@@QAEAAU0@ABU0@@Z PROC				; KMouse::operator=, COMDAT
; _this$ = ecx
	push	ebp
	mov	ebp, esp
	sub	esp, 204				; 000000ccH
	push	ebx
	push	esi
	push	edi
	push	ecx
	lea	edi, DWORD PTR [ebp-204]
	mov	ecx, 51					; 00000033H
	mov	eax, -858993460				; ccccccccH
	rep stosd
	pop	ecx
	mov	DWORD PTR _this$[ebp], ecx
	mov	eax, DWORD PTR _this$[ebp]
	mov	ecx, DWORD PTR ___that$[ebp]
	mov	edx, DWORD PTR [ecx]
	mov	DWORD PTR [eax], edx
	mov	eax, DWORD PTR _this$[ebp]
	mov	ecx, DWORD PTR ___that$[ebp]
	mov	edx, DWORD PTR [ecx+4]
	mov	DWORD PTR [eax+4], edx
	mov	eax, DWORD PTR ___that$[ebp]
	add	eax, 8
	push	eax
	mov	ecx, DWORD PTR _this$[ebp]
	add	ecx, 8
	call	??4?$tvec2@M@detail@glm@@QAEAAU012@ABU012@@Z ; glm::detail::tvec2<float>::operator=
	mov	eax, DWORD PTR _this$[ebp]
	pop	edi
	pop	esi
	pop	ebx
	add	esp, 204				; 000000ccH
	cmp	ebp, esp
	call	__RTC_CheckEsp
	mov	esp, ebp
	pop	ebp
	ret	4
??4KMouse@@QAEAAU0@ABU0@@Z ENDP				; KMouse::operator=
_TEXT	ENDS
PUBLIC	??1AnimatingSurface@@UAE@XZ			; AnimatingSurface::~AnimatingSurface
; Function compile flags: /Odtp /RTCsu /ZI
;	COMDAT ??_GAnimatingSurface@@UAEPAXI@Z
_TEXT	SEGMENT
_this$ = -8						; size = 4
___flags$ = 8						; size = 4
??_GAnimatingSurface@@UAEPAXI@Z PROC			; AnimatingSurface::`scalar deleting destructor', COMDAT
; _this$ = ecx
	push	ebp
	mov	ebp, esp
	sub	esp, 204				; 000000ccH
	push	ebx
	push	esi
	push	edi
	push	ecx
	lea	edi, DWORD PTR [ebp-204]
	mov	ecx, 51					; 00000033H
	mov	eax, -858993460				; ccccccccH
	rep stosd
	pop	ecx
	mov	DWORD PTR _this$[ebp], ecx
	mov	ecx, DWORD PTR _this$[ebp]
	call	??1AnimatingSurface@@UAE@XZ		; AnimatingSurface::~AnimatingSurface
	mov	eax, DWORD PTR ___flags$[ebp]
	and	eax, 1
	je	SHORT $LN1@scalar
	mov	eax, DWORD PTR _this$[ebp]
	push	eax
	call	??3@YAXPAX@Z				; operator delete
	add	esp, 4
$LN1@scalar:
	mov	eax, DWORD PTR _this$[ebp]
	pop	edi
	pop	esi
	pop	ebx
	add	esp, 204				; 000000ccH
	cmp	ebp, esp
	call	__RTC_CheckEsp
	mov	esp, ebp
	pop	ebp
	ret	4
??_GAnimatingSurface@@UAEPAXI@Z ENDP			; AnimatingSurface::`scalar deleting destructor'
_TEXT	ENDS
PUBLIC	??_7KScene@@6B@					; KScene::`vftable'
PUBLIC	??_R4KScene@@6B@				; KScene::`RTTI Complete Object Locator'
PUBLIC	?Update@KScene@@UAEXM@Z				; KScene::Update
PUBLIC	?Resize@KScene@@UAEXHH@Z			; KScene::Resize
PUBLIC	?Mouse@KScene@@UAEXABUKMouse@@@Z		; KScene::Mouse
PUBLIC	?Motion@KScene@@UAEXMM@Z			; KScene::Motion
EXTRN	__purecall:PROC
;	COMDAT ??_R4KScene@@6B@
rdata$r	SEGMENT
??_R4KScene@@6B@ DD 00H					; KScene::`RTTI Complete Object Locator'
	DD	00H
	DD	00H
	DD	FLAT:??_R0?AVKScene@@@8
	DD	FLAT:??_R3KScene@@8
rdata$r	ENDS
;	COMDAT ??_7KScene@@6B@
CONST	SEGMENT
??_7KScene@@6B@ DD FLAT:??_R4KScene@@6B@		; KScene::`vftable'
	DD	FLAT:__purecall
	DD	FLAT:__purecall
	DD	FLAT:?Update@KScene@@UAEXM@Z
	DD	FLAT:?Resize@KScene@@UAEXHH@Z
	DD	FLAT:?Mouse@KScene@@UAEXABUKMouse@@@Z
	DD	FLAT:?Motion@KScene@@UAEXMM@Z
	DD	FLAT:?Keyboard@KScene@@UAEXHMM@Z
; Function compile flags: /Odtp /RTCsu /ZI
CONST	ENDS
;	COMDAT ??0KScene@@QAE@XZ
_TEXT	SEGMENT
_this$ = -8						; size = 4
??0KScene@@QAE@XZ PROC					; KScene::KScene, COMDAT
; _this$ = ecx
	push	ebp
	mov	ebp, esp
	sub	esp, 204				; 000000ccH
	push	ebx
	push	esi
	push	edi
	push	ecx
	lea	edi, DWORD PTR [ebp-204]
	mov	ecx, 51					; 00000033H
	mov	eax, -858993460				; ccccccccH
	rep stosd
	pop	ecx
	mov	DWORD PTR _this$[ebp], ecx
	mov	eax, DWORD PTR _this$[ebp]
	mov	DWORD PTR [eax], OFFSET ??_7KScene@@6B@
	mov	eax, DWORD PTR _this$[ebp]
	pop	edi
	pop	esi
	pop	ebx
	mov	esp, ebp
	pop	ebp
	ret	0
??0KScene@@QAE@XZ ENDP					; KScene::KScene
; Function compile flags: /Odtp /RTCsu /ZI
; File c:\users\kmadsen\google drive\opengl_projects\starter\starter\kscene.h
_TEXT	ENDS
;	COMDAT ?Update@KScene@@UAEXM@Z
_TEXT	SEGMENT
_this$ = -8						; size = 4
_dt$ = 8						; size = 4
?Update@KScene@@UAEXM@Z PROC				; KScene::Update, COMDAT
; _this$ = ecx

; 126  : 	virtual void Update(float dt) { };

	push	ebp
	mov	ebp, esp
	sub	esp, 204				; 000000ccH
	push	ebx
	push	esi
	push	edi
	push	ecx
	lea	edi, DWORD PTR [ebp-204]
	mov	ecx, 51					; 00000033H
	mov	eax, -858993460				; ccccccccH
	rep stosd
	pop	ecx
	mov	DWORD PTR _this$[ebp], ecx
	pop	edi
	pop	esi
	pop	ebx
	mov	esp, ebp
	pop	ebp
	ret	4
?Update@KScene@@UAEXM@Z ENDP				; KScene::Update
; Function compile flags: /Odtp /RTCsu /ZI
_TEXT	ENDS
;	COMDAT ?Resize@KScene@@UAEXHH@Z
_TEXT	SEGMENT
_this$ = -8						; size = 4
_width$ = 8						; size = 4
_height$ = 12						; size = 4
?Resize@KScene@@UAEXHH@Z PROC				; KScene::Resize, COMDAT
; _this$ = ecx

; 127  : 	virtual void Resize(int width, int height) { };

	push	ebp
	mov	ebp, esp
	sub	esp, 204				; 000000ccH
	push	ebx
	push	esi
	push	edi
	push	ecx
	lea	edi, DWORD PTR [ebp-204]
	mov	ecx, 51					; 00000033H
	mov	eax, -858993460				; ccccccccH
	rep stosd
	pop	ecx
	mov	DWORD PTR _this$[ebp], ecx
	pop	edi
	pop	esi
	pop	ebx
	mov	esp, ebp
	pop	ebp
	ret	8
?Resize@KScene@@UAEXHH@Z ENDP				; KScene::Resize
; Function compile flags: /Odtp /RTCsu /ZI
_TEXT	ENDS
;	COMDAT ?Mouse@KScene@@UAEXABUKMouse@@@Z
_TEXT	SEGMENT
_this$ = -8						; size = 4
_mouse$ = 8						; size = 4
?Mouse@KScene@@UAEXABUKMouse@@@Z PROC			; KScene::Mouse, COMDAT
; _this$ = ecx

; 128  : 	virtual void Mouse(const KMouse &mouse) { }

	push	ebp
	mov	ebp, esp
	sub	esp, 204				; 000000ccH
	push	ebx
	push	esi
	push	edi
	push	ecx
	lea	edi, DWORD PTR [ebp-204]
	mov	ecx, 51					; 00000033H
	mov	eax, -858993460				; ccccccccH
	rep stosd
	pop	ecx
	mov	DWORD PTR _this$[ebp], ecx
	pop	edi
	pop	esi
	pop	ebx
	mov	esp, ebp
	pop	ebp
	ret	4
?Mouse@KScene@@UAEXABUKMouse@@@Z ENDP			; KScene::Mouse
; Function compile flags: /Odtp /RTCsu /ZI
_TEXT	ENDS
;	COMDAT ?Motion@KScene@@UAEXMM@Z
_TEXT	SEGMENT
_this$ = -8						; size = 4
_x$ = 8							; size = 4
_y$ = 12						; size = 4
?Motion@KScene@@UAEXMM@Z PROC				; KScene::Motion, COMDAT
; _this$ = ecx

; 129  : 	virtual void Motion(float x, float y) { }

	push	ebp
	mov	ebp, esp
	sub	esp, 204				; 000000ccH
	push	ebx
	push	esi
	push	edi
	push	ecx
	lea	edi, DWORD PTR [ebp-204]
	mov	ecx, 51					; 00000033H
	mov	eax, -858993460				; ccccccccH
	rep stosd
	pop	ecx
	mov	DWORD PTR _this$[ebp], ecx
	pop	edi
	pop	esi
	pop	ebx
	mov	esp, ebp
	pop	ebp
	ret	8
?Motion@KScene@@UAEXMM@Z ENDP				; KScene::Motion
_TEXT	ENDS
PUBLIC	??0?$tvec2@M@detail@glm@@QAE@XZ			; glm::detail::tvec2<float>::tvec2<float>
; Function compile flags: /Odtp /RTCsu /ZI
;	COMDAT ??0KMouse@@QAE@XZ
_TEXT	SEGMENT
_this$ = -8						; size = 4
??0KMouse@@QAE@XZ PROC					; KMouse::KMouse, COMDAT
; _this$ = ecx
	push	ebp
	mov	ebp, esp
	sub	esp, 204				; 000000ccH
	push	ebx
	push	esi
	push	edi
	push	ecx
	lea	edi, DWORD PTR [ebp-204]
	mov	ecx, 51					; 00000033H
	mov	eax, -858993460				; ccccccccH
	rep stosd
	pop	ecx
	mov	DWORD PTR _this$[ebp], ecx
	mov	ecx, DWORD PTR _this$[ebp]
	add	ecx, 8
	call	??0?$tvec2@M@detail@glm@@QAE@XZ		; glm::detail::tvec2<float>::tvec2<float>
	mov	eax, DWORD PTR _this$[ebp]
	pop	edi
	pop	esi
	pop	ebx
	add	esp, 204				; 000000ccH
	cmp	ebp, esp
	call	__RTC_CheckEsp
	mov	esp, ebp
	pop	ebp
	ret	0
??0KMouse@@QAE@XZ ENDP					; KMouse::KMouse
_TEXT	ENDS
PUBLIC	??1?$basic_string@DU?$char_traits@D@std@@V?$allocator@D@2@@std@@QAE@XZ ; std::basic_string<char,std::char_traits<char>,std::allocator<char> >::~basic_string<char,std::char_traits<char>,std::allocator<char> >
; Function compile flags: /Odtp /RTCsu /ZI
;	COMDAT ??1GLSLProgram@@QAE@XZ
_TEXT	SEGMENT
_this$ = -8						; size = 4
??1GLSLProgram@@QAE@XZ PROC				; GLSLProgram::~GLSLProgram, COMDAT
; _this$ = ecx
	push	ebp
	mov	ebp, esp
	sub	esp, 204				; 000000ccH
	push	ebx
	push	esi
	push	edi
	push	ecx
	lea	edi, DWORD PTR [ebp-204]
	mov	ecx, 51					; 00000033H
	mov	eax, -858993460				; ccccccccH
	rep stosd
	pop	ecx
	mov	DWORD PTR _this$[ebp], ecx
	mov	ecx, DWORD PTR _this$[ebp]
	add	ecx, 8
	call	??1?$basic_string@DU?$char_traits@D@std@@V?$allocator@D@2@@std@@QAE@XZ ; std::basic_string<char,std::char_traits<char>,std::allocator<char> >::~basic_string<char,std::char_traits<char>,std::allocator<char> >
	pop	edi
	pop	esi
	pop	ebx
	add	esp, 204				; 000000ccH
	cmp	ebp, esp
	call	__RTC_CheckEsp
	mov	esp, ebp
	pop	ebp
	ret	0
??1GLSLProgram@@QAE@XZ ENDP				; GLSLProgram::~GLSLProgram
_TEXT	ENDS
;	COMDAT xdata$x
; File c:\users\kmadsen\google drive\opengl_projects\starter\starter\animatingsurface.cpp
xdata$x	SEGMENT
__unwindtable$??1AnimatingSurface@@UAE@XZ DD 0ffffffffH
	DD	FLAT:__unwindfunclet$??1AnimatingSurface@@UAE@XZ$0
__ehfuncinfo$??1AnimatingSurface@@UAE@XZ DD 019930522H
	DD	01H
	DD	FLAT:__unwindtable$??1AnimatingSurface@@UAE@XZ
	DD	2 DUP(00H)
	DD	2 DUP(00H)
	DD	00H
	DD	01H
; Function compile flags: /Odtp /RTCsu /ZI
xdata$x	ENDS
;	COMDAT ??1AnimatingSurface@@UAE@XZ
_TEXT	SEGMENT
tv78 = -256						; size = 4
$T70697 = -248						; size = 4
$T70698 = -236						; size = 4
$T70701 = -224						; size = 4
_this$ = -20						; size = 4
__$EHRec$ = -12						; size = 12
??1AnimatingSurface@@UAE@XZ PROC			; AnimatingSurface::~AnimatingSurface, COMDAT
; _this$ = ecx

; 29   : {

	push	ebp
	mov	ebp, esp
	push	-1
	push	__ehhandler$??1AnimatingSurface@@UAE@XZ
	mov	eax, DWORD PTR fs:0
	push	eax
	sub	esp, 244				; 000000f4H
	push	ebx
	push	esi
	push	edi
	push	ecx
	lea	edi, DWORD PTR [ebp-256]
	mov	ecx, 61					; 0000003dH
	mov	eax, -858993460				; ccccccccH
	rep stosd
	pop	ecx
	mov	eax, DWORD PTR ___security_cookie
	xor	eax, ebp
	push	eax
	lea	eax, DWORD PTR __$EHRec$[ebp]
	mov	DWORD PTR fs:0, eax
	mov	DWORD PTR _this$[ebp], ecx
	mov	eax, DWORD PTR _this$[ebp]
	mov	DWORD PTR [eax], OFFSET ??_7AnimatingSurface@@6B@
	mov	DWORD PTR __$EHRec$[ebp+8], 0

; 30   : 	delete m_CameraFrustum;

	mov	eax, DWORD PTR _this$[ebp]
	mov	ecx, DWORD PTR [eax+96]
	mov	DWORD PTR $T70698[ebp], ecx
	mov	edx, DWORD PTR $T70698[ebp]
	mov	DWORD PTR $T70697[ebp], edx
	cmp	DWORD PTR $T70697[ebp], 0
	je	SHORT $LN3@AnimatingS@2
	mov	esi, esp
	push	1
	mov	eax, DWORD PTR $T70697[ebp]
	mov	edx, DWORD PTR [eax]
	mov	ecx, DWORD PTR $T70697[ebp]
	mov	eax, DWORD PTR [edx]
	call	eax
	cmp	esi, esp
	call	__RTC_CheckEsp
	mov	DWORD PTR tv78[ebp], eax
	jmp	SHORT $LN4@AnimatingS@2
$LN3@AnimatingS@2:
	mov	DWORD PTR tv78[ebp], 0
$LN4@AnimatingS@2:

; 31   : 	delete m_Plane;

	mov	eax, DWORD PTR _this$[ebp]
	mov	ecx, DWORD PTR [eax+164]
	mov	DWORD PTR $T70701[ebp], ecx
	mov	edx, DWORD PTR $T70701[ebp]
	push	edx
	call	??3@YAXPAX@Z				; operator delete
	add	esp, 4

; 32   : }

	mov	DWORD PTR __$EHRec$[ebp+8], -1
	mov	ecx, DWORD PTR _this$[ebp]
	add	ecx, 56					; 00000038H
	call	??1GLSLProgram@@QAE@XZ
	mov	ecx, DWORD PTR __$EHRec$[ebp]
	mov	DWORD PTR fs:0, ecx
	pop	ecx
	pop	edi
	pop	esi
	pop	ebx
	add	esp, 256				; 00000100H
	cmp	ebp, esp
	call	__RTC_CheckEsp
	mov	esp, ebp
	pop	ebp
	ret	0
_TEXT	ENDS
;	COMDAT text$x
text$x	SEGMENT
__unwindfunclet$??1AnimatingSurface@@UAE@XZ$0:
	mov	ecx, DWORD PTR _this$[ebp]
	add	ecx, 56					; 00000038H
	jmp	??1GLSLProgram@@QAE@XZ
__ehhandler$??1AnimatingSurface@@UAE@XZ:
	mov	edx, DWORD PTR [esp+8]
	lea	eax, DWORD PTR [edx+12]
	mov	ecx, DWORD PTR [edx-260]
	xor	ecx, eax
	call	@__security_check_cookie@4
	mov	eax, OFFSET __ehfuncinfo$??1AnimatingSurface@@UAE@XZ
	jmp	___CxxFrameHandler3
text$x	ENDS
??1AnimatingSurface@@UAE@XZ ENDP			; AnimatingSurface::~AnimatingSurface
PUBLIC	??_C@_08LIFBEL@Velocity?$AA@			; `string'
PUBLIC	??_C@_0L@EFNHFLCL@WaveLength?$AA@		; `string'
PUBLIC	??_C@_09IHLJOMI@Amplitude?$AA@			; `string'
PUBLIC	??_C@_04OKOFBOPB@Time?$AA@			; `string'
PUBLIC	__real@3f19999a
PUBLIC	__real@41a66666
PUBLIC	__real@41200000
PUBLIC	??0?$tvec3@M@detail@glm@@QAE@ABM@Z		; glm::detail::tvec3<float>::tvec3<float>
PUBLIC	??0?$tvec3@M@detail@glm@@QAE@ABM00@Z		; glm::detail::tvec3<float>::tvec3<float>
PUBLIC	__real@00000000
PUBLIC	??$?0NMN@?$tvec3@M@detail@glm@@QAE@ABNABM0@Z	; glm::detail::tvec3<float>::tvec3<float><double,float,double>
PUBLIC	__real@428c0000
PUBLIC	__real@405ba00000000000
PUBLIC	__real@0000000000000000
PUBLIC	??_C@_0BD@FDHOOOKA@Material?4Shininess?$AA@	; `string'
PUBLIC	??_C@_0BC@MBBKMINF@Material?4Specular?$AA@	; `string'
PUBLIC	__real@3f4ccccd
PUBLIC	??_C@_0BB@HMIEFDJG@Material?4Diffuse?$AA@	; `string'
PUBLIC	??_C@_0BB@MONEOIIK@Material?4Ambient?$AA@	; `string'
PUBLIC	__real@3f333333
PUBLIC	__real@3dcccccd
PUBLIC	??_C@_0P@GDKHOFPI@Light?4Specular?$AA@		; `string'
PUBLIC	??_C@_0O@KGNIAMLF@Light?4Diffuse?$AA@		; `string'
PUBLIC	??_C@_0O@BEIILHKJ@Light?4Ambient?$AA@		; `string'
PUBLIC	__real@3e99999a
PUBLIC	??_C@_0P@LMHDNJPN@Light?4Position?$AA@		; `string'
PUBLIC	??0?$tvec4@M@detail@glm@@QAE@ABM000@Z		; glm::detail::tvec4<float>::tvec4<float>
PUBLIC	__real@40a00000
PUBLIC	__real@40000000
PUBLIC	__real@3e4ccccd
PUBLIC	__real@3f800000
PUBLIC	??_C@_0BP@KJBAEHEI@Shaders?1animating_surface?4frag?$AA@ ; `string'
PUBLIC	??_C@_0BP@HLLBODFH@Shaders?1animating_surface?4vert?$AA@ ; `string'
EXTRN	?SetView@PerspectiveProjection@@QAEXABU?$tvec3@M@detail@glm@@00@Z:PROC ; PerspectiveProjection::SetView
EXTRN	_cos:PROC
EXTRN	_sin:PROC
EXTRN	?SetUniform@GLSLProgram@@QAEXPBDM@Z:PROC	; GLSLProgram::SetUniform
EXTRN	?SetUniform@GLSLProgram@@QAEXPBDMMM@Z:PROC	; GLSLProgram::SetUniform
EXTRN	?SetUniform@GLSLProgram@@QAEXPBDABU?$tvec4@M@detail@glm@@@Z:PROC ; GLSLProgram::SetUniform
EXTRN	__imp__glEnable@4:PROC
EXTRN	__imp__glClearColor@16:PROC
EXTRN	?Use@GLSLProgram@@QAEXXZ:PROC			; GLSLProgram::Use
EXTRN	?Link@GLSLProgram@@QAE_NXZ:PROC			; GLSLProgram::Link
EXTRN	__imp__exit:PROC
EXTRN	?CompileShaderFromFile@GLSLProgram@@QAE_NPBDW4GLSLShaderType@GLSLShader@@@Z:PROC ; GLSLProgram::CompileShaderFromFile
EXTRN	@_RTC_CheckStackVars@8:PROC
;	COMDAT ??_C@_08LIFBEL@Velocity?$AA@
CONST	SEGMENT
??_C@_08LIFBEL@Velocity?$AA@ DB 'Velocity', 00H		; `string'
CONST	ENDS
;	COMDAT ??_C@_0L@EFNHFLCL@WaveLength?$AA@
CONST	SEGMENT
??_C@_0L@EFNHFLCL@WaveLength?$AA@ DB 'WaveLength', 00H	; `string'
CONST	ENDS
;	COMDAT ??_C@_09IHLJOMI@Amplitude?$AA@
CONST	SEGMENT
??_C@_09IHLJOMI@Amplitude?$AA@ DB 'Amplitude', 00H	; `string'
CONST	ENDS
;	COMDAT ??_C@_04OKOFBOPB@Time?$AA@
CONST	SEGMENT
??_C@_04OKOFBOPB@Time?$AA@ DB 'Time', 00H		; `string'
CONST	ENDS
;	COMDAT __real@3f19999a
CONST	SEGMENT
__real@3f19999a DD 03f19999ar			; 0.6
CONST	ENDS
;	COMDAT __real@41a66666
CONST	SEGMENT
__real@41a66666 DD 041a66666r			; 20.8
CONST	ENDS
;	COMDAT __real@41200000
CONST	SEGMENT
__real@41200000 DD 041200000r			; 10
CONST	ENDS
;	COMDAT __real@00000000
CONST	SEGMENT
__real@00000000 DD 000000000r			; 0
CONST	ENDS
;	COMDAT __real@428c0000
CONST	SEGMENT
__real@428c0000 DD 0428c0000r			; 70
CONST	ENDS
;	COMDAT __real@405ba00000000000
CONST	SEGMENT
__real@405ba00000000000 DQ 0405ba00000000000r	; 110.5
CONST	ENDS
;	COMDAT __real@0000000000000000
CONST	SEGMENT
__real@0000000000000000 DQ 00000000000000000r	; 0
CONST	ENDS
;	COMDAT ??_C@_0BD@FDHOOOKA@Material?4Shininess?$AA@
CONST	SEGMENT
??_C@_0BD@FDHOOOKA@Material?4Shininess?$AA@ DB 'Material.Shininess', 00H ; `string'
CONST	ENDS
;	COMDAT ??_C@_0BC@MBBKMINF@Material?4Specular?$AA@
CONST	SEGMENT
??_C@_0BC@MBBKMINF@Material?4Specular?$AA@ DB 'Material.Specular', 00H ; `string'
CONST	ENDS
;	COMDAT __real@3f4ccccd
CONST	SEGMENT
__real@3f4ccccd DD 03f4ccccdr			; 0.8
CONST	ENDS
;	COMDAT ??_C@_0BB@HMIEFDJG@Material?4Diffuse?$AA@
CONST	SEGMENT
??_C@_0BB@HMIEFDJG@Material?4Diffuse?$AA@ DB 'Material.Diffuse', 00H ; `string'
CONST	ENDS
;	COMDAT ??_C@_0BB@MONEOIIK@Material?4Ambient?$AA@
CONST	SEGMENT
??_C@_0BB@MONEOIIK@Material?4Ambient?$AA@ DB 'Material.Ambient', 00H ; `string'
CONST	ENDS
;	COMDAT __real@3f333333
CONST	SEGMENT
__real@3f333333 DD 03f333333r			; 0.7
CONST	ENDS
;	COMDAT __real@3dcccccd
CONST	SEGMENT
__real@3dcccccd DD 03dcccccdr			; 0.1
CONST	ENDS
;	COMDAT ??_C@_0P@GDKHOFPI@Light?4Specular?$AA@
CONST	SEGMENT
??_C@_0P@GDKHOFPI@Light?4Specular?$AA@ DB 'Light.Specular', 00H ; `string'
CONST	ENDS
;	COMDAT ??_C@_0O@KGNIAMLF@Light?4Diffuse?$AA@
CONST	SEGMENT
??_C@_0O@KGNIAMLF@Light?4Diffuse?$AA@ DB 'Light.Diffuse', 00H ; `string'
CONST	ENDS
;	COMDAT ??_C@_0O@BEIILHKJ@Light?4Ambient?$AA@
CONST	SEGMENT
??_C@_0O@BEIILHKJ@Light?4Ambient?$AA@ DB 'Light.Ambient', 00H ; `string'
CONST	ENDS
;	COMDAT __real@3e99999a
CONST	SEGMENT
__real@3e99999a DD 03e99999ar			; 0.3
CONST	ENDS
;	COMDAT ??_C@_0P@LMHDNJPN@Light?4Position?$AA@
CONST	SEGMENT
??_C@_0P@LMHDNJPN@Light?4Position?$AA@ DB 'Light.Position', 00H ; `string'
CONST	ENDS
;	COMDAT __real@40a00000
CONST	SEGMENT
__real@40a00000 DD 040a00000r			; 5
CONST	ENDS
;	COMDAT __real@40000000
CONST	SEGMENT
__real@40000000 DD 040000000r			; 2
CONST	ENDS
;	COMDAT __real@3e4ccccd
CONST	SEGMENT
__real@3e4ccccd DD 03e4ccccdr			; 0.2
CONST	ENDS
;	COMDAT __real@3f800000
CONST	SEGMENT
__real@3f800000 DD 03f800000r			; 1
CONST	ENDS
;	COMDAT ??_C@_0BP@KJBAEHEI@Shaders?1animating_surface?4frag?$AA@
CONST	SEGMENT
??_C@_0BP@KJBAEHEI@Shaders?1animating_surface?4frag?$AA@ DB 'Shaders/anim'
	DB	'ating_surface.frag', 00H			; `string'
CONST	ENDS
;	COMDAT ??_C@_0BP@HLLBODFH@Shaders?1animating_surface?4vert?$AA@
CONST	SEGMENT
??_C@_0BP@HLLBODFH@Shaders?1animating_surface?4vert?$AA@ DB 'Shaders/anim'
	DB	'ating_surface.vert', 00H			; `string'
; Function compile flags: /Odtp /RTCsu /ZI
CONST	ENDS
;	COMDAT ?Init@AnimatingSurface@@UAEXXZ
_TEXT	SEGMENT
$T70711 = -424						; size = 16
$T70712 = -400						; size = 4
$T70713 = -388						; size = 4
$T70714 = -376						; size = 4
$T70715 = -364						; size = 4
$T70716 = -352						; size = 8
$T70717 = -336						; size = 4
$T70718 = -324						; size = 8
$T70719 = -308						; size = 12
$T70720 = -288						; size = 4
$T70721 = -276						; size = 4
$T70722 = -264						; size = 4
$T70723 = -252						; size = 12
$T70724 = -232						; size = 4
_cameraPos$ = -28					; size = 12
_this$ = -8						; size = 4
?Init@AnimatingSurface@@UAEXXZ PROC			; AnimatingSurface::Init, COMDAT
; _this$ = ecx

; 36   : {

	push	ebp
	mov	ebp, esp
	sub	esp, 428				; 000001acH
	push	ebx
	push	esi
	push	edi
	push	ecx
	lea	edi, DWORD PTR [ebp-428]
	mov	ecx, 107				; 0000006bH
	mov	eax, -858993460				; ccccccccH
	rep stosd
	pop	ecx
	mov	DWORD PTR _this$[ebp], ecx

; 37   : 	// Compile and link shaders
; 38   : 	if (!m_Program.CompileShaderFromFile("Shaders/animating_surface.vert", GLSLShader::VERTEX)) {

	push	0
	push	OFFSET ??_C@_0BP@HLLBODFH@Shaders?1animating_surface?4vert?$AA@
	mov	ecx, DWORD PTR _this$[ebp]
	add	ecx, 56					; 00000038H
	call	?CompileShaderFromFile@GLSLProgram@@QAE_NPBDW4GLSLShaderType@GLSLShader@@@Z ; GLSLProgram::CompileShaderFromFile
	movzx	eax, al
	test	eax, eax
	jne	SHORT $LN3@Init

; 39   : 		exit(1);

	mov	esi, esp
	push	1
	call	DWORD PTR __imp__exit
	cmp	esi, esp
	call	__RTC_CheckEsp
$LN3@Init:

; 40   : 	}
; 41   : 	if (!m_Program.CompileShaderFromFile("Shaders/animating_surface.frag", GLSLShader::FRAGMENT)) {

	push	1
	push	OFFSET ??_C@_0BP@KJBAEHEI@Shaders?1animating_surface?4frag?$AA@
	mov	ecx, DWORD PTR _this$[ebp]
	add	ecx, 56					; 00000038H
	call	?CompileShaderFromFile@GLSLProgram@@QAE_NPBDW4GLSLShaderType@GLSLShader@@@Z ; GLSLProgram::CompileShaderFromFile
	movzx	eax, al
	test	eax, eax
	jne	SHORT $LN2@Init

; 42   : 		exit(1);

	mov	esi, esp
	push	1
	call	DWORD PTR __imp__exit
	cmp	esi, esp
	call	__RTC_CheckEsp
$LN2@Init:

; 43   : 	}
; 44   : 	if (!m_Program.Link()) {

	mov	ecx, DWORD PTR _this$[ebp]
	add	ecx, 56					; 00000038H
	call	?Link@GLSLProgram@@QAE_NXZ		; GLSLProgram::Link
	movzx	eax, al
	test	eax, eax
	jne	SHORT $LN1@Init

; 45   : 		exit(1);

	mov	esi, esp
	push	1
	call	DWORD PTR __imp__exit
	cmp	esi, esp
	call	__RTC_CheckEsp
$LN1@Init:

; 46   : 	}
; 47   : 	m_Program.Use();

	mov	ecx, DWORD PTR _this$[ebp]
	add	ecx, 56					; 00000038H
	call	?Use@GLSLProgram@@QAEXXZ		; GLSLProgram::Use

; 48   : 
; 49   : 	// Initialize gl
; 50   : 	glClearColor(0.2f,0.2f,0.2f,1.0f);

	mov	esi, esp
	push	ecx
	fld1
	fstp	DWORD PTR [esp]
	push	ecx
	fld	DWORD PTR __real@3e4ccccd
	fstp	DWORD PTR [esp]
	push	ecx
	fld	DWORD PTR __real@3e4ccccd
	fstp	DWORD PTR [esp]
	push	ecx
	fld	DWORD PTR __real@3e4ccccd
	fstp	DWORD PTR [esp]
	call	DWORD PTR __imp__glClearColor@16
	cmp	esi, esp
	call	__RTC_CheckEsp

; 51   : 	glEnable(GL_DEPTH_TEST);

	mov	esi, esp
	push	2929					; 00000b71H
	call	DWORD PTR __imp__glEnable@4
	cmp	esi, esp
	call	__RTC_CheckEsp

; 52   : 
; 53   : 	m_Program.SetUniform("Light.Position", vec4(5.0f,5.0f,2.0f,1.0f));

	fld1
	fstp	DWORD PTR $T70712[ebp]
	fld	DWORD PTR __real@40000000
	fstp	DWORD PTR $T70713[ebp]
	fld	DWORD PTR __real@40a00000
	fstp	DWORD PTR $T70714[ebp]
	fld	DWORD PTR __real@40a00000
	fstp	DWORD PTR $T70715[ebp]
	lea	eax, DWORD PTR $T70712[ebp]
	push	eax
	lea	ecx, DWORD PTR $T70713[ebp]
	push	ecx
	lea	edx, DWORD PTR $T70714[ebp]
	push	edx
	lea	eax, DWORD PTR $T70715[ebp]
	push	eax
	lea	ecx, DWORD PTR $T70711[ebp]
	call	??0?$tvec4@M@detail@glm@@QAE@ABM000@Z	; glm::detail::tvec4<float>::tvec4<float>
	push	eax
	push	OFFSET ??_C@_0P@LMHDNJPN@Light?4Position?$AA@
	mov	ecx, DWORD PTR _this$[ebp]
	add	ecx, 56					; 00000038H
	call	?SetUniform@GLSLProgram@@QAEXPBDABU?$tvec4@M@detail@glm@@@Z ; GLSLProgram::SetUniform

; 54   : 	m_Program.SetUniform("Light.Ambient", 0.3f, 0.3f, 0.3f);

	push	ecx
	fld	DWORD PTR __real@3e99999a
	fstp	DWORD PTR [esp]
	push	ecx
	fld	DWORD PTR __real@3e99999a
	fstp	DWORD PTR [esp]
	push	ecx
	fld	DWORD PTR __real@3e99999a
	fstp	DWORD PTR [esp]
	push	OFFSET ??_C@_0O@BEIILHKJ@Light?4Ambient?$AA@
	mov	ecx, DWORD PTR _this$[ebp]
	add	ecx, 56					; 00000038H
	call	?SetUniform@GLSLProgram@@QAEXPBDMMM@Z	; GLSLProgram::SetUniform

; 55   : 	m_Program.SetUniform("Light.Diffuse", 1.0f, 1.0f, 1.0f);

	push	ecx
	fld1
	fstp	DWORD PTR [esp]
	push	ecx
	fld1
	fstp	DWORD PTR [esp]
	push	ecx
	fld1
	fstp	DWORD PTR [esp]
	push	OFFSET ??_C@_0O@KGNIAMLF@Light?4Diffuse?$AA@
	mov	ecx, DWORD PTR _this$[ebp]
	add	ecx, 56					; 00000038H
	call	?SetUniform@GLSLProgram@@QAEXPBDMMM@Z	; GLSLProgram::SetUniform

; 56   : 	m_Program.SetUniform("Light.Specular", 1.0f, 1.0f, 1.0f);

	push	ecx
	fld1
	fstp	DWORD PTR [esp]
	push	ecx
	fld1
	fstp	DWORD PTR [esp]
	push	ecx
	fld1
	fstp	DWORD PTR [esp]
	push	OFFSET ??_C@_0P@GDKHOFPI@Light?4Specular?$AA@
	mov	ecx, DWORD PTR _this$[ebp]
	add	ecx, 56					; 00000038H
	call	?SetUniform@GLSLProgram@@QAEXPBDMMM@Z	; GLSLProgram::SetUniform

; 57   : 	m_Program.SetUniform("Material.Ambient", 0.7f, 0.1f, 0.1f);

	push	ecx
	fld	DWORD PTR __real@3dcccccd
	fstp	DWORD PTR [esp]
	push	ecx
	fld	DWORD PTR __real@3dcccccd
	fstp	DWORD PTR [esp]
	push	ecx
	fld	DWORD PTR __real@3f333333
	fstp	DWORD PTR [esp]
	push	OFFSET ??_C@_0BB@MONEOIIK@Material?4Ambient?$AA@
	mov	ecx, DWORD PTR _this$[ebp]
	add	ecx, 56					; 00000038H
	call	?SetUniform@GLSLProgram@@QAEXPBDMMM@Z	; GLSLProgram::SetUniform

; 58   : 	m_Program.SetUniform("Material.Diffuse", 0.7f, 0.1f, 0.1f);

	push	ecx
	fld	DWORD PTR __real@3dcccccd
	fstp	DWORD PTR [esp]
	push	ecx
	fld	DWORD PTR __real@3dcccccd
	fstp	DWORD PTR [esp]
	push	ecx
	fld	DWORD PTR __real@3f333333
	fstp	DWORD PTR [esp]
	push	OFFSET ??_C@_0BB@HMIEFDJG@Material?4Diffuse?$AA@
	mov	ecx, DWORD PTR _this$[ebp]
	add	ecx, 56					; 00000038H
	call	?SetUniform@GLSLProgram@@QAEXPBDMMM@Z	; GLSLProgram::SetUniform

; 59   : 	m_Program.SetUniform("Material.Specular", 0.8f, 0.8f, 0.8f);

	push	ecx
	fld	DWORD PTR __real@3f4ccccd
	fstp	DWORD PTR [esp]
	push	ecx
	fld	DWORD PTR __real@3f4ccccd
	fstp	DWORD PTR [esp]
	push	ecx
	fld	DWORD PTR __real@3f4ccccd
	fstp	DWORD PTR [esp]
	push	OFFSET ??_C@_0BC@MBBKMINF@Material?4Specular?$AA@
	mov	ecx, DWORD PTR _this$[ebp]
	add	ecx, 56					; 00000038H
	call	?SetUniform@GLSLProgram@@QAEXPBDMMM@Z	; GLSLProgram::SetUniform

; 60   : 	m_Program.SetUniform("Material.Shininess", 100.0f);	

	push	ecx
	fld	DWORD PTR __real@42c80000
	fstp	DWORD PTR [esp]
	push	OFFSET ??_C@_0BD@FDHOOOKA@Material?4Shininess?$AA@
	mov	ecx, DWORD PTR _this$[ebp]
	add	ecx, 56					; 00000038H
	call	?SetUniform@GLSLProgram@@QAEXPBDM@Z	; GLSLProgram::SetUniform

; 61   : 
; 62   : 	// Setup the rest of the scene
; 63   : 	m_Angle = 0.0;

	mov	eax, DWORD PTR _this$[ebp]
	fldz
	fstp	QWORD PTR [eax+16]

; 64   : 	vec3 cameraPos(110.5f * cos(m_Angle),70.0f,110.5f * sin(m_Angle));

	mov	eax, DWORD PTR _this$[ebp]
	sub	esp, 8
	fld	QWORD PTR [eax+16]
	fstp	QWORD PTR [esp]
	call	_sin
	add	esp, 8
	fmul	QWORD PTR __real@405ba00000000000
	fstp	QWORD PTR $T70716[ebp]
	fld	DWORD PTR __real@428c0000
	fstp	DWORD PTR $T70717[ebp]
	mov	ecx, DWORD PTR _this$[ebp]
	sub	esp, 8
	fld	QWORD PTR [ecx+16]
	fstp	QWORD PTR [esp]
	call	_cos
	add	esp, 8
	fmul	QWORD PTR __real@405ba00000000000
	fstp	QWORD PTR $T70718[ebp]
	lea	edx, DWORD PTR $T70716[ebp]
	push	edx
	lea	eax, DWORD PTR $T70717[ebp]
	push	eax
	lea	ecx, DWORD PTR $T70718[ebp]
	push	ecx
	lea	ecx, DWORD PTR _cameraPos$[ebp]
	call	??$?0NMN@?$tvec3@M@detail@glm@@QAE@ABNABM0@Z ; glm::detail::tvec3<float>::tvec3<float><double,float,double>

; 65   : 	m_CameraFrustum->SetView(cameraPos,vec3(0.0f),vec3(0.0f,1.0f,0.0f));

	fldz
	fstp	DWORD PTR $T70720[ebp]
	fld1
	fstp	DWORD PTR $T70721[ebp]
	fldz
	fstp	DWORD PTR $T70722[ebp]
	fldz
	fstp	DWORD PTR $T70724[ebp]
	lea	eax, DWORD PTR $T70720[ebp]
	push	eax
	lea	ecx, DWORD PTR $T70721[ebp]
	push	ecx
	lea	edx, DWORD PTR $T70722[ebp]
	push	edx
	lea	ecx, DWORD PTR $T70719[ebp]
	call	??0?$tvec3@M@detail@glm@@QAE@ABM00@Z	; glm::detail::tvec3<float>::tvec3<float>
	push	eax
	lea	eax, DWORD PTR $T70724[ebp]
	push	eax
	lea	ecx, DWORD PTR $T70723[ebp]
	call	??0?$tvec3@M@detail@glm@@QAE@ABM@Z	; glm::detail::tvec3<float>::tvec3<float>
	push	eax
	lea	ecx, DWORD PTR _cameraPos$[ebp]
	push	ecx
	mov	edx, DWORD PTR _this$[ebp]
	mov	ecx, DWORD PTR [edx+96]
	call	?SetView@PerspectiveProjection@@QAEXABU?$tvec3@M@detail@glm@@00@Z ; PerspectiveProjection::SetView

; 66   : 
; 67   : 	// Initialize wave info
; 68   : 	m_Time = 0.0f;

	mov	eax, DWORD PTR _this$[ebp]
	fldz
	fstp	DWORD PTR [eax+24]

; 69   : 	m_Amplitude = 10.0f;

	mov	eax, DWORD PTR _this$[ebp]
	fld	DWORD PTR __real@41200000
	fstp	DWORD PTR [eax+32]

; 70   : 	m_WaveLength = 20.8f;

	mov	eax, DWORD PTR _this$[ebp]
	fld	DWORD PTR __real@41a66666
	fstp	DWORD PTR [eax+28]

; 71   : 	m_Velocity = 0.6f;

	mov	eax, DWORD PTR _this$[ebp]
	fld	DWORD PTR __real@3f19999a
	fstp	DWORD PTR [eax+36]

; 72   : 
; 73   : 	m_Program.SetUniform("Time", m_Time);

	mov	eax, DWORD PTR _this$[ebp]
	push	ecx
	fld	DWORD PTR [eax+24]
	fstp	DWORD PTR [esp]
	push	OFFSET ??_C@_04OKOFBOPB@Time?$AA@
	mov	ecx, DWORD PTR _this$[ebp]
	add	ecx, 56					; 00000038H
	call	?SetUniform@GLSLProgram@@QAEXPBDM@Z	; GLSLProgram::SetUniform

; 74   : 	m_Program.SetUniform("Amplitude", m_Amplitude);

	mov	eax, DWORD PTR _this$[ebp]
	push	ecx
	fld	DWORD PTR [eax+32]
	fstp	DWORD PTR [esp]
	push	OFFSET ??_C@_09IHLJOMI@Amplitude?$AA@
	mov	ecx, DWORD PTR _this$[ebp]
	add	ecx, 56					; 00000038H
	call	?SetUniform@GLSLProgram@@QAEXPBDM@Z	; GLSLProgram::SetUniform

; 75   : 	m_Program.SetUniform("WaveLength", m_WaveLength);	

	mov	eax, DWORD PTR _this$[ebp]
	push	ecx
	fld	DWORD PTR [eax+28]
	fstp	DWORD PTR [esp]
	push	OFFSET ??_C@_0L@EFNHFLCL@WaveLength?$AA@
	mov	ecx, DWORD PTR _this$[ebp]
	add	ecx, 56					; 00000038H
	call	?SetUniform@GLSLProgram@@QAEXPBDM@Z	; GLSLProgram::SetUniform

; 76   : 	m_Program.SetUniform("Velocity", m_Velocity);	

	mov	eax, DWORD PTR _this$[ebp]
	push	ecx
	fld	DWORD PTR [eax+36]
	fstp	DWORD PTR [esp]
	push	OFFSET ??_C@_08LIFBEL@Velocity?$AA@
	mov	ecx, DWORD PTR _this$[ebp]
	add	ecx, 56					; 00000038H
	call	?SetUniform@GLSLProgram@@QAEXPBDM@Z	; GLSLProgram::SetUniform
$LN4@Init:

; 77   : }

	push	edx
	mov	ecx, ebp
	push	eax
	lea	edx, DWORD PTR $LN8@Init
	call	@_RTC_CheckStackVars@8
	pop	eax
	pop	edx
	pop	edi
	pop	esi
	pop	ebx
	add	esp, 428				; 000001acH
	cmp	ebp, esp
	call	__RTC_CheckEsp
	mov	esp, ebp
	pop	ebp
	ret	0
	npad	1
$LN8@Init:
	DD	1
	DD	$LN7@Init
$LN7@Init:
	DD	-28					; ffffffe4H
	DD	12					; 0000000cH
	DD	$LN6@Init
$LN6@Init:
	DB	99					; 00000063H
	DB	97					; 00000061H
	DB	109					; 0000006dH
	DB	101					; 00000065H
	DB	114					; 00000072H
	DB	97					; 00000061H
	DB	80					; 00000050H
	DB	111					; 0000006fH
	DB	115					; 00000073H
	DB	0
?Init@AnimatingSurface@@UAEXXZ ENDP			; AnimatingSurface::Init
; Function compile flags: /Odtp /RTCsu /ZI
_TEXT	ENDS
;	COMDAT ?Update@AnimatingSurface@@UAEXM@Z
_TEXT	SEGMENT
_this$ = -8						; size = 4
_dt$ = 8						; size = 4
?Update@AnimatingSurface@@UAEXM@Z PROC			; AnimatingSurface::Update, COMDAT
; _this$ = ecx

; 80   : {

	push	ebp
	mov	ebp, esp
	sub	esp, 204				; 000000ccH
	push	ebx
	push	esi
	push	edi
	push	ecx
	lea	edi, DWORD PTR [ebp-204]
	mov	ecx, 51					; 00000033H
	mov	eax, -858993460				; ccccccccH
	rep stosd
	pop	ecx
	mov	DWORD PTR _this$[ebp], ecx

; 81   : 	m_Time += dt;

	mov	eax, DWORD PTR _this$[ebp]
	fld	DWORD PTR [eax+24]
	fadd	DWORD PTR _dt$[ebp]
	mov	ecx, DWORD PTR _this$[ebp]
	fstp	DWORD PTR [ecx+24]

; 82   : 	//if (m_Time > TWOPI)
; 83   : 	//	m_Time = 0.0f;
; 84   : 	m_Program.SetUniform("Time", m_Time);

	mov	eax, DWORD PTR _this$[ebp]
	push	ecx
	fld	DWORD PTR [eax+24]
	fstp	DWORD PTR [esp]
	push	OFFSET ??_C@_04OKOFBOPB@Time?$AA@
	mov	ecx, DWORD PTR _this$[ebp]
	add	ecx, 56					; 00000038H
	call	?SetUniform@GLSLProgram@@QAEXPBDM@Z	; GLSLProgram::SetUniform

; 85   : }

	pop	edi
	pop	esi
	pop	ebx
	add	esp, 204				; 000000ccH
	cmp	ebp, esp
	call	__RTC_CheckEsp
	mov	esp, ebp
	pop	ebp
	ret	4
?Update@AnimatingSurface@@UAEXM@Z ENDP			; AnimatingSurface::Update
_TEXT	ENDS
PUBLIC	??_C@_03GFEPKPFF@MVP?$AA@			; `string'
PUBLIC	??_C@_09NJONDDNG@ModelView?$AA@			; `string'
PUBLIC	??_C@_0N@CINNHGPB@NormalMatrix?$AA@		; `string'
PUBLIC	??0?$tmat3x3@M@detail@glm@@QAE@ABU?$tvec3@M@12@00@Z ; glm::detail::tmat3x3<float>::tmat3x3<float>
PUBLIC	??$?0M@?$tvec3@M@detail@glm@@QAE@ABU?$tvec4@M@12@@Z ; glm::detail::tvec3<float>::tvec3<float><float>
PUBLIC	??A?$tmat4x4@M@detail@glm@@QAEAAU?$tvec4@M@12@I@Z ; glm::detail::tmat4x4<float>::operator[]
PUBLIC	??$?DM@detail@glm@@YA?AU?$tmat4x4@M@01@ABU201@0@Z ; glm::detail::operator*<float>
PUBLIC	??0?$tmat4x4@M@detail@glm@@QAE@ABU012@@Z	; glm::detail::tmat4x4<float>::tmat4x4<float>
PUBLIC	??0?$tmat4x4@M@detail@glm@@QAE@ABM@Z		; glm::detail::tmat4x4<float>::tmat4x4<float>
PUBLIC	__$ArrayPad$
EXTRN	?SetUniform@GLSLProgram@@QAEXPBDABU?$tmat4x4@M@detail@glm@@@Z:PROC ; GLSLProgram::SetUniform
EXTRN	?SetUniform@GLSLProgram@@QAEXPBDABU?$tmat3x3@M@detail@glm@@@Z:PROC ; GLSLProgram::SetUniform
EXTRN	?GetPerspectiveMatrix@PerspectiveProjection@@QBEABU?$tmat4x4@M@detail@glm@@XZ:PROC ; PerspectiveProjection::GetPerspectiveMatrix
EXTRN	?GetViewMatrix@PerspectiveProjection@@QBEABU?$tmat4x4@M@detail@glm@@XZ:PROC ; PerspectiveProjection::GetViewMatrix
EXTRN	__imp__glClear@4:PROC
;	COMDAT ??_C@_03GFEPKPFF@MVP?$AA@
CONST	SEGMENT
??_C@_03GFEPKPFF@MVP?$AA@ DB 'MVP', 00H			; `string'
CONST	ENDS
;	COMDAT ??_C@_09NJONDDNG@ModelView?$AA@
CONST	SEGMENT
??_C@_09NJONDDNG@ModelView?$AA@ DB 'ModelView', 00H	; `string'
CONST	ENDS
;	COMDAT ??_C@_0N@CINNHGPB@NormalMatrix?$AA@
CONST	SEGMENT
??_C@_0N@CINNHGPB@NormalMatrix?$AA@ DB 'NormalMatrix', 00H ; `string'
; Function compile flags: /Odtp /RTCsu /ZI
CONST	ENDS
;	COMDAT ?Render@AnimatingSurface@@UAEXXZ
_TEXT	SEGMENT
$T70764 = -680						; size = 4
$T70765 = -668						; size = 12
$T70766 = -648						; size = 12
$T70767 = -628						; size = 12
_normalMatrix$ = -416					; size = 36
_MVP$ = -372						; size = 64
_modelView$ = -300					; size = 64
_projection$ = -228					; size = 64
_view$ = -156						; size = 64
_model$ = -84						; size = 64
_this$ = -12						; size = 4
__$ArrayPad$ = -4					; size = 4
?Render@AnimatingSurface@@UAEXXZ PROC			; AnimatingSurface::Render, COMDAT
; _this$ = ecx

; 88   : {

	push	ebp
	mov	ebp, esp
	sub	esp, 684				; 000002acH
	push	ebx
	push	esi
	push	edi
	push	ecx
	lea	edi, DWORD PTR [ebp-684]
	mov	ecx, 171				; 000000abH
	mov	eax, -858993460				; ccccccccH
	rep stosd
	pop	ecx
	mov	eax, DWORD PTR ___security_cookie
	xor	eax, ebp
	mov	DWORD PTR __$ArrayPad$[ebp], eax
	mov	DWORD PTR _this$[ebp], ecx

; 89   : 	glClear(GL_COLOR_BUFFER_BIT | GL_DEPTH_BUFFER_BIT);

	mov	esi, esp
	push	16640					; 00004100H
	call	DWORD PTR __imp__glClear@4
	cmp	esi, esp
	call	__RTC_CheckEsp

; 90   : 	
; 91   : 	mat4 model = mat4(1.0f);

	fld1
	fstp	DWORD PTR $T70764[ebp]
	lea	eax, DWORD PTR $T70764[ebp]
	push	eax
	lea	ecx, DWORD PTR _model$[ebp]
	call	??0?$tmat4x4@M@detail@glm@@QAE@ABM@Z	; glm::detail::tmat4x4<float>::tmat4x4<float>

; 92   : 	
; 93   : 	mat4 view = m_CameraFrustum->GetViewMatrix();

	mov	eax, DWORD PTR _this$[ebp]
	mov	ecx, DWORD PTR [eax+96]
	call	?GetViewMatrix@PerspectiveProjection@@QBEABU?$tmat4x4@M@detail@glm@@XZ ; PerspectiveProjection::GetViewMatrix
	push	eax
	lea	ecx, DWORD PTR _view$[ebp]
	call	??0?$tmat4x4@M@detail@glm@@QAE@ABU012@@Z ; glm::detail::tmat4x4<float>::tmat4x4<float>

; 94   : 	mat4 projection = m_CameraFrustum->GetPerspectiveMatrix();

	mov	eax, DWORD PTR _this$[ebp]
	mov	ecx, DWORD PTR [eax+96]
	call	?GetPerspectiveMatrix@PerspectiveProjection@@QBEABU?$tmat4x4@M@detail@glm@@XZ ; PerspectiveProjection::GetPerspectiveMatrix
	push	eax
	lea	ecx, DWORD PTR _projection$[ebp]
	call	??0?$tmat4x4@M@detail@glm@@QAE@ABU012@@Z ; glm::detail::tmat4x4<float>::tmat4x4<float>

; 95   : 
; 96   : 	mat4 modelView = view * model;

	lea	eax, DWORD PTR _model$[ebp]
	push	eax
	lea	ecx, DWORD PTR _view$[ebp]
	push	ecx
	lea	edx, DWORD PTR _modelView$[ebp]
	push	edx
	call	??$?DM@detail@glm@@YA?AU?$tmat4x4@M@01@ABU201@0@Z ; glm::detail::operator*<float>
	add	esp, 12					; 0000000cH

; 97   : 	mat4 MVP = projection * modelView;

	lea	eax, DWORD PTR _modelView$[ebp]
	push	eax
	lea	ecx, DWORD PTR _projection$[ebp]
	push	ecx
	lea	edx, DWORD PTR _MVP$[ebp]
	push	edx
	call	??$?DM@detail@glm@@YA?AU?$tmat4x4@M@01@ABU201@0@Z ; glm::detail::operator*<float>
	add	esp, 12					; 0000000cH

; 98   : 	mat3 normalMatrix = 
; 99   : 		mat3(vec3(modelView[0]),
; 100  : 			 vec3(modelView[1]),
; 101  : 			 vec3(modelView[2]));

	push	2
	lea	ecx, DWORD PTR _modelView$[ebp]
	call	??A?$tmat4x4@M@detail@glm@@QAEAAU?$tvec4@M@12@I@Z ; glm::detail::tmat4x4<float>::operator[]
	push	eax
	lea	ecx, DWORD PTR $T70765[ebp]
	call	??$?0M@?$tvec3@M@detail@glm@@QAE@ABU?$tvec4@M@12@@Z ; glm::detail::tvec3<float>::tvec3<float><float>
	push	eax
	push	1
	lea	ecx, DWORD PTR _modelView$[ebp]
	call	??A?$tmat4x4@M@detail@glm@@QAEAAU?$tvec4@M@12@I@Z ; glm::detail::tmat4x4<float>::operator[]
	push	eax
	lea	ecx, DWORD PTR $T70766[ebp]
	call	??$?0M@?$tvec3@M@detail@glm@@QAE@ABU?$tvec4@M@12@@Z ; glm::detail::tvec3<float>::tvec3<float><float>
	push	eax
	push	0
	lea	ecx, DWORD PTR _modelView$[ebp]
	call	??A?$tmat4x4@M@detail@glm@@QAEAAU?$tvec4@M@12@I@Z ; glm::detail::tmat4x4<float>::operator[]
	push	eax
	lea	ecx, DWORD PTR $T70767[ebp]
	call	??$?0M@?$tvec3@M@detail@glm@@QAE@ABU?$tvec4@M@12@@Z ; glm::detail::tvec3<float>::tvec3<float><float>
	push	eax
	lea	ecx, DWORD PTR _normalMatrix$[ebp]
	call	??0?$tmat3x3@M@detail@glm@@QAE@ABU?$tvec3@M@12@00@Z ; glm::detail::tmat3x3<float>::tmat3x3<float>

; 102  : 
; 103  : 	m_Program.SetUniform("NormalMatrix", normalMatrix);

	lea	eax, DWORD PTR _normalMatrix$[ebp]
	push	eax
	push	OFFSET ??_C@_0N@CINNHGPB@NormalMatrix?$AA@
	mov	ecx, DWORD PTR _this$[ebp]
	add	ecx, 56					; 00000038H
	call	?SetUniform@GLSLProgram@@QAEXPBDABU?$tmat3x3@M@detail@glm@@@Z ; GLSLProgram::SetUniform

; 104  : 	m_Program.SetUniform("ModelView", modelView);

	lea	eax, DWORD PTR _modelView$[ebp]
	push	eax
	push	OFFSET ??_C@_09NJONDDNG@ModelView?$AA@
	mov	ecx, DWORD PTR _this$[ebp]
	add	ecx, 56					; 00000038H
	call	?SetUniform@GLSLProgram@@QAEXPBDABU?$tmat4x4@M@detail@glm@@@Z ; GLSLProgram::SetUniform

; 105  : 	m_Program.SetUniform("MVP", MVP);

	lea	eax, DWORD PTR _MVP$[ebp]
	push	eax
	push	OFFSET ??_C@_03GFEPKPFF@MVP?$AA@
	mov	ecx, DWORD PTR _this$[ebp]
	add	ecx, 56					; 00000038H
	call	?SetUniform@GLSLProgram@@QAEXPBDABU?$tmat4x4@M@detail@glm@@@Z ; GLSLProgram::SetUniform

; 106  : 
; 107  : 	m_Plane->render();

	mov	eax, DWORD PTR _this$[ebp]
	mov	ecx, DWORD PTR [eax+164]
	mov	edx, DWORD PTR _this$[ebp]
	mov	eax, DWORD PTR [edx+164]
	mov	edx, DWORD PTR [ecx]
	mov	esi, esp
	mov	ecx, eax
	mov	eax, DWORD PTR [edx]
	call	eax
	cmp	esi, esp
	call	__RTC_CheckEsp

; 108  : }

	push	edx
	mov	ecx, ebp
	push	eax
	lea	edx, DWORD PTR $LN10@Render
	call	@_RTC_CheckStackVars@8
	pop	eax
	pop	edx
	pop	edi
	pop	esi
	pop	ebx
	mov	ecx, DWORD PTR __$ArrayPad$[ebp]
	xor	ecx, ebp
	call	@__security_check_cookie@4
	add	esp, 684				; 000002acH
	cmp	ebp, esp
	call	__RTC_CheckEsp
	mov	esp, ebp
	pop	ebp
	ret	0
	npad	3
$LN10@Render:
	DD	6
	DD	$LN9@Render
$LN9@Render:
	DD	-84					; ffffffacH
	DD	64					; 00000040H
	DD	$LN3@Render
	DD	-156					; ffffff64H
	DD	64					; 00000040H
	DD	$LN4@Render
	DD	-228					; ffffff1cH
	DD	64					; 00000040H
	DD	$LN5@Render
	DD	-300					; fffffed4H
	DD	64					; 00000040H
	DD	$LN6@Render
	DD	-372					; fffffe8cH
	DD	64					; 00000040H
	DD	$LN7@Render
	DD	-416					; fffffe60H
	DD	36					; 00000024H
	DD	$LN8@Render
$LN8@Render:
	DB	110					; 0000006eH
	DB	111					; 0000006fH
	DB	114					; 00000072H
	DB	109					; 0000006dH
	DB	97					; 00000061H
	DB	108					; 0000006cH
	DB	77					; 0000004dH
	DB	97					; 00000061H
	DB	116					; 00000074H
	DB	114					; 00000072H
	DB	105					; 00000069H
	DB	120					; 00000078H
	DB	0
$LN7@Render:
	DB	77					; 0000004dH
	DB	86					; 00000056H
	DB	80					; 00000050H
	DB	0
$LN6@Render:
	DB	109					; 0000006dH
	DB	111					; 0000006fH
	DB	100					; 00000064H
	DB	101					; 00000065H
	DB	108					; 0000006cH
	DB	86					; 00000056H
	DB	105					; 00000069H
	DB	101					; 00000065H
	DB	119					; 00000077H
	DB	0
$LN5@Render:
	DB	112					; 00000070H
	DB	114					; 00000072H
	DB	111					; 0000006fH
	DB	106					; 0000006aH
	DB	101					; 00000065H
	DB	99					; 00000063H
	DB	116					; 00000074H
	DB	105					; 00000069H
	DB	111					; 0000006fH
	DB	110					; 0000006eH
	DB	0
$LN4@Render:
	DB	118					; 00000076H
	DB	105					; 00000069H
	DB	101					; 00000065H
	DB	119					; 00000077H
	DB	0
$LN3@Render:
	DB	109					; 0000006dH
	DB	111					; 0000006fH
	DB	100					; 00000064H
	DB	101					; 00000065H
	DB	108					; 0000006cH
	DB	0
?Render@AnimatingSurface@@UAEXXZ ENDP			; AnimatingSurface::Render
_TEXT	ENDS
PUBLIC	__real@420c0000
PUBLIC	__real@43800000
EXTRN	__imp__glViewport@16:PROC
EXTRN	?SetPerspective@PerspectiveProjection@@QAEXMMMM@Z:PROC ; PerspectiveProjection::SetPerspective
;	COMDAT __real@420c0000
CONST	SEGMENT
__real@420c0000 DD 0420c0000r			; 35
CONST	ENDS
;	COMDAT __real@43800000
CONST	SEGMENT
__real@43800000 DD 043800000r			; 256
; Function compile flags: /Odtp /RTCsu /ZI
CONST	ENDS
;	COMDAT ?Resize@AnimatingSurface@@UAEXHH@Z
_TEXT	SEGMENT
_aspectRatio$ = -20					; size = 4
_this$ = -8						; size = 4
_width$ = 8						; size = 4
_height$ = 12						; size = 4
?Resize@AnimatingSurface@@UAEXHH@Z PROC			; AnimatingSurface::Resize, COMDAT
; _this$ = ecx

; 112  : {

	push	ebp
	mov	ebp, esp
	sub	esp, 216				; 000000d8H
	push	ebx
	push	esi
	push	edi
	push	ecx
	lea	edi, DWORD PTR [ebp-216]
	mov	ecx, 54					; 00000036H
	mov	eax, -858993460				; ccccccccH
	rep stosd
	pop	ecx
	mov	DWORD PTR _this$[ebp], ecx

; 113  : 	m_Width = width;

	mov	eax, DWORD PTR _this$[ebp]
	mov	ecx, DWORD PTR _width$[ebp]
	mov	DWORD PTR [eax+4], ecx

; 114  : 	m_Height = height;

	mov	eax, DWORD PTR _this$[ebp]
	mov	ecx, DWORD PTR _height$[ebp]
	mov	DWORD PTR [eax+8], ecx

; 115  : 	float aspectRatio = (float)m_Width/m_Height;

	mov	eax, DWORD PTR _this$[ebp]
	fild	DWORD PTR [eax+4]
	mov	ecx, DWORD PTR _this$[ebp]
	fidiv	DWORD PTR [ecx+8]
	fstp	DWORD PTR _aspectRatio$[ebp]

; 116  : 	m_CameraFrustum->SetPerspective(35.0f, aspectRatio, 1.0f, 256.0f);

	push	ecx
	fld	DWORD PTR __real@43800000
	fstp	DWORD PTR [esp]
	push	ecx
	fld1
	fstp	DWORD PTR [esp]
	push	ecx
	fld	DWORD PTR _aspectRatio$[ebp]
	fstp	DWORD PTR [esp]
	push	ecx
	fld	DWORD PTR __real@420c0000
	fstp	DWORD PTR [esp]
	mov	eax, DWORD PTR _this$[ebp]
	mov	ecx, DWORD PTR [eax+96]
	call	?SetPerspective@PerspectiveProjection@@QAEXMMMM@Z ; PerspectiveProjection::SetPerspective

; 117  : 	glViewport(0,0,m_Width,m_Height);

	mov	esi, esp
	mov	eax, DWORD PTR _this$[ebp]
	mov	ecx, DWORD PTR [eax+8]
	push	ecx
	mov	edx, DWORD PTR _this$[ebp]
	mov	eax, DWORD PTR [edx+4]
	push	eax
	push	0
	push	0
	call	DWORD PTR __imp__glViewport@16
	cmp	esi, esp
	call	__RTC_CheckEsp

; 118  : }

	pop	edi
	pop	esi
	pop	ebx
	add	esp, 216				; 000000d8H
	cmp	ebp, esp
	call	__RTC_CheckEsp
	mov	esp, ebp
	pop	ebp
	ret	8
?Resize@AnimatingSurface@@UAEXHH@Z ENDP			; AnimatingSurface::Resize
_TEXT	ENDS
PUBLIC	__real@401921fb54442d18
PUBLIC	?SetPosition@KMouse@@QAEXMM@Z			; KMouse::SetPosition
;	COMDAT __real@401921fb54442d18
CONST	SEGMENT
__real@401921fb54442d18 DQ 0401921fb54442d18r	; 6.28319
; Function compile flags: /Odtp /RTCsu /ZI
CONST	ENDS
;	COMDAT ?Motion@AnimatingSurface@@UAEXMM@Z
_TEXT	SEGMENT
$T70784 = -364						; size = 8
$T70785 = -348						; size = 4
$T70786 = -336						; size = 8
$T70787 = -320						; size = 12
$T70788 = -300						; size = 4
$T70789 = -288						; size = 4
$T70790 = -276						; size = 4
$T70791 = -264						; size = 12
$T70792 = -244						; size = 4
_cameraPos$ = -40					; size = 12
_dx$ = -20						; size = 4
_this$ = -8						; size = 4
_x$ = 8							; size = 4
_y$ = 12						; size = 4
?Motion@AnimatingSurface@@UAEXMM@Z PROC			; AnimatingSurface::Motion, COMDAT
; _this$ = ecx

; 122  : {

	push	ebp
	mov	ebp, esp
	sub	esp, 368				; 00000170H
	push	ebx
	push	esi
	push	edi
	push	ecx
	lea	edi, DWORD PTR [ebp-368]
	mov	ecx, 92					; 0000005cH
	mov	eax, -858993460				; ccccccccH
	rep stosd
	pop	ecx
	mov	DWORD PTR _this$[ebp], ecx

; 123  : 	float dx = x - m_Mouse.Position.x;

	fld	DWORD PTR _x$[ebp]
	mov	eax, DWORD PTR _this$[ebp]
	fsub	DWORD PTR [eax+48]
	fstp	DWORD PTR _dx$[ebp]

; 124  : 	m_Mouse.SetPosition(x, m_Mouse.Position.y);

	mov	eax, DWORD PTR _this$[ebp]
	push	ecx
	fld	DWORD PTR [eax+52]
	fstp	DWORD PTR [esp]
	push	ecx
	fld	DWORD PTR _x$[ebp]
	fstp	DWORD PTR [esp]
	mov	ecx, DWORD PTR _this$[ebp]
	add	ecx, 40					; 00000028H
	call	?SetPosition@KMouse@@QAEXMM@Z		; KMouse::SetPosition

; 125  :     m_Angle += dx;

	fld	DWORD PTR _dx$[ebp]
	mov	eax, DWORD PTR _this$[ebp]
	fadd	QWORD PTR [eax+16]
	mov	ecx, DWORD PTR _this$[ebp]
	fstp	QWORD PTR [ecx+16]

; 126  :     if( m_Angle > TWOPI) m_Angle -= TWOPI;

	mov	eax, DWORD PTR _this$[ebp]
	fld	QWORD PTR __real@401921fb54442d18
	fcomp	QWORD PTR [eax+16]
	fnstsw	ax
	test	ah, 5
	jp	SHORT $LN1@Motion
	mov	eax, DWORD PTR _this$[ebp]
	fld	QWORD PTR [eax+16]
	fsub	QWORD PTR __real@401921fb54442d18
	mov	ecx, DWORD PTR _this$[ebp]
	fstp	QWORD PTR [ecx+16]
$LN1@Motion:

; 127  : 
; 128  : 	vec3 cameraPos(110.5f * cos(m_Angle),70.0f,110.5f * sin(m_Angle));

	mov	eax, DWORD PTR _this$[ebp]
	sub	esp, 8
	fld	QWORD PTR [eax+16]
	fstp	QWORD PTR [esp]
	call	_sin
	add	esp, 8
	fmul	QWORD PTR __real@405ba00000000000
	fstp	QWORD PTR $T70784[ebp]
	fld	DWORD PTR __real@428c0000
	fstp	DWORD PTR $T70785[ebp]
	mov	ecx, DWORD PTR _this$[ebp]
	sub	esp, 8
	fld	QWORD PTR [ecx+16]
	fstp	QWORD PTR [esp]
	call	_cos
	add	esp, 8
	fmul	QWORD PTR __real@405ba00000000000
	fstp	QWORD PTR $T70786[ebp]
	lea	edx, DWORD PTR $T70784[ebp]
	push	edx
	lea	eax, DWORD PTR $T70785[ebp]
	push	eax
	lea	ecx, DWORD PTR $T70786[ebp]
	push	ecx
	lea	ecx, DWORD PTR _cameraPos$[ebp]
	call	??$?0NMN@?$tvec3@M@detail@glm@@QAE@ABNABM0@Z ; glm::detail::tvec3<float>::tvec3<float><double,float,double>

; 129  : 	m_CameraFrustum->SetView(cameraPos,vec3(0.0f),vec3(0.0f,1.0f,0.0f));

	fldz
	fstp	DWORD PTR $T70788[ebp]
	fld1
	fstp	DWORD PTR $T70789[ebp]
	fldz
	fstp	DWORD PTR $T70790[ebp]
	fldz
	fstp	DWORD PTR $T70792[ebp]
	lea	eax, DWORD PTR $T70788[ebp]
	push	eax
	lea	ecx, DWORD PTR $T70789[ebp]
	push	ecx
	lea	edx, DWORD PTR $T70790[ebp]
	push	edx
	lea	ecx, DWORD PTR $T70787[ebp]
	call	??0?$tvec3@M@detail@glm@@QAE@ABM00@Z	; glm::detail::tvec3<float>::tvec3<float>
	push	eax
	lea	eax, DWORD PTR $T70792[ebp]
	push	eax
	lea	ecx, DWORD PTR $T70791[ebp]
	call	??0?$tvec3@M@detail@glm@@QAE@ABM@Z	; glm::detail::tvec3<float>::tvec3<float>
	push	eax
	lea	ecx, DWORD PTR _cameraPos$[ebp]
	push	ecx
	mov	edx, DWORD PTR _this$[ebp]
	mov	ecx, DWORD PTR [edx+96]
	call	?SetView@PerspectiveProjection@@QAEXABU?$tvec3@M@detail@glm@@00@Z ; PerspectiveProjection::SetView

; 130  : }

	push	edx
	mov	ecx, ebp
	push	eax
	lea	edx, DWORD PTR $LN6@Motion
	call	@_RTC_CheckStackVars@8
	pop	eax
	pop	edx
	pop	edi
	pop	esi
	pop	ebx
	add	esp, 368				; 00000170H
	cmp	ebp, esp
	call	__RTC_CheckEsp
	mov	esp, ebp
	pop	ebp
	ret	8
	npad	2
$LN6@Motion:
	DD	1
	DD	$LN5@Motion
$LN5@Motion:
	DD	-40					; ffffffd8H
	DD	12					; 0000000cH
	DD	$LN4@Motion
$LN4@Motion:
	DB	99					; 00000063H
	DB	97					; 00000061H
	DB	109					; 0000006dH
	DB	101					; 00000065H
	DB	114					; 00000072H
	DB	97					; 00000061H
	DB	80					; 00000050H
	DB	111					; 0000006fH
	DB	115					; 00000073H
	DB	0
?Motion@AnimatingSurface@@UAEXMM@Z ENDP			; AnimatingSurface::Motion
; Function compile flags: /Odtp /RTCsu /ZI
; File c:\users\kmadsen\google drive\opengl_projects\starter\starter\kscene.h
_TEXT	ENDS
;	COMDAT ?SetPosition@KMouse@@QAEXMM@Z
_TEXT	SEGMENT
_this$ = -8						; size = 4
_x$ = 8							; size = 4
_y$ = 12						; size = 4
?SetPosition@KMouse@@QAEXMM@Z PROC			; KMouse::SetPosition, COMDAT
; _this$ = ecx

; 111  : 	{

	push	ebp
	mov	ebp, esp
	sub	esp, 204				; 000000ccH
	push	ebx
	push	esi
	push	edi
	push	ecx
	lea	edi, DWORD PTR [ebp-204]
	mov	ecx, 51					; 00000033H
	mov	eax, -858993460				; ccccccccH
	rep stosd
	pop	ecx
	mov	DWORD PTR _this$[ebp], ecx

; 112  : 		Position.x = x; Position.y = y;

	mov	eax, DWORD PTR _this$[ebp]
	fld	DWORD PTR _x$[ebp]
	fstp	DWORD PTR [eax+8]
	mov	eax, DWORD PTR _this$[ebp]
	fld	DWORD PTR _y$[ebp]
	fstp	DWORD PTR [eax+12]

; 113  : 	}

	pop	edi
	pop	esi
	pop	ebx
	mov	esp, ebp
	pop	ebp
	ret	8
?SetPosition@KMouse@@QAEXMM@Z ENDP			; KMouse::SetPosition
_TEXT	ENDS
PUBLIC	??1?$_String_val@DV?$allocator@D@std@@@std@@QAE@XZ ; std::_String_val<char,std::allocator<char> >::~_String_val<char,std::allocator<char> >
PUBLIC	?_Tidy@?$basic_string@DU?$char_traits@D@std@@V?$allocator@D@2@@std@@QAEX_NI@Z ; std::basic_string<char,std::char_traits<char>,std::allocator<char> >::_Tidy
;	COMDAT xdata$x
; File c:\program files (x86)\microsoft visual studio 10.0\vc\include\xstring
xdata$x	SEGMENT
__unwindtable$??1?$basic_string@DU?$char_traits@D@std@@V?$allocator@D@2@@std@@QAE@XZ DD 0ffffffffH
	DD	FLAT:__unwindfunclet$??1?$basic_string@DU?$char_traits@D@std@@V?$allocator@D@2@@std@@QAE@XZ$0
__ehfuncinfo$??1?$basic_string@DU?$char_traits@D@std@@V?$allocator@D@2@@std@@QAE@XZ DD 019930522H
	DD	01H
	DD	FLAT:__unwindtable$??1?$basic_string@DU?$char_traits@D@std@@V?$allocator@D@2@@std@@QAE@XZ
	DD	2 DUP(00H)
	DD	2 DUP(00H)
	DD	00H
	DD	01H
; Function compile flags: /Odtp /RTCsu /ZI
xdata$x	ENDS
;	COMDAT ??1?$basic_string@DU?$char_traits@D@std@@V?$allocator@D@2@@std@@QAE@XZ
_TEXT	SEGMENT
_this$ = -20						; size = 4
__$EHRec$ = -12						; size = 12
??1?$basic_string@DU?$char_traits@D@std@@V?$allocator@D@2@@std@@QAE@XZ PROC ; std::basic_string<char,std::char_traits<char>,std::allocator<char> >::~basic_string<char,std::char_traits<char>,std::allocator<char> >, COMDAT
; _this$ = ecx

; 752  : 		{	// destroy the string

	push	ebp
	mov	ebp, esp
	push	-1
	push	__ehhandler$??1?$basic_string@DU?$char_traits@D@std@@V?$allocator@D@2@@std@@QAE@XZ
	mov	eax, DWORD PTR fs:0
	push	eax
	sub	esp, 204				; 000000ccH
	push	ebx
	push	esi
	push	edi
	push	ecx
	lea	edi, DWORD PTR [ebp-216]
	mov	ecx, 51					; 00000033H
	mov	eax, -858993460				; ccccccccH
	rep stosd
	pop	ecx
	mov	eax, DWORD PTR ___security_cookie
	xor	eax, ebp
	push	eax
	lea	eax, DWORD PTR __$EHRec$[ebp]
	mov	DWORD PTR fs:0, eax
	mov	DWORD PTR _this$[ebp], ecx
	mov	DWORD PTR __$EHRec$[ebp+8], 0

; 753  : 		_Tidy(true);

	push	0
	push	1
	mov	ecx, DWORD PTR _this$[ebp]
	call	?_Tidy@?$basic_string@DU?$char_traits@D@std@@V?$allocator@D@2@@std@@QAEX_NI@Z ; std::basic_string<char,std::char_traits<char>,std::allocator<char> >::_Tidy

; 754  : 		}

	mov	DWORD PTR __$EHRec$[ebp+8], -1
	mov	ecx, DWORD PTR _this$[ebp]
	call	??1?$_String_val@DV?$allocator@D@std@@@std@@QAE@XZ ; std::_String_val<char,std::allocator<char> >::~_String_val<char,std::allocator<char> >
	mov	ecx, DWORD PTR __$EHRec$[ebp]
	mov	DWORD PTR fs:0, ecx
	pop	ecx
	pop	edi
	pop	esi
	pop	ebx
	add	esp, 216				; 000000d8H
	cmp	ebp, esp
	call	__RTC_CheckEsp
	mov	esp, ebp
	pop	ebp
	ret	0
_TEXT	ENDS
;	COMDAT text$x
text$x	SEGMENT
__unwindfunclet$??1?$basic_string@DU?$char_traits@D@std@@V?$allocator@D@2@@std@@QAE@XZ$0:
	mov	ecx, DWORD PTR _this$[ebp]
	jmp	??1?$_String_val@DV?$allocator@D@std@@@std@@QAE@XZ ; std::_String_val<char,std::allocator<char> >::~_String_val<char,std::allocator<char> >
__ehhandler$??1?$basic_string@DU?$char_traits@D@std@@V?$allocator@D@2@@std@@QAE@XZ:
	mov	edx, DWORD PTR [esp+8]
	lea	eax, DWORD PTR [edx+12]
	mov	ecx, DWORD PTR [edx-220]
	xor	ecx, eax
	call	@__security_check_cookie@4
	mov	eax, OFFSET __ehfuncinfo$??1?$basic_string@DU?$char_traits@D@std@@V?$allocator@D@2@@std@@QAE@XZ
	jmp	___CxxFrameHandler3
text$x	ENDS
??1?$basic_string@DU?$char_traits@D@std@@V?$allocator@D@2@@std@@QAE@XZ ENDP ; std::basic_string<char,std::char_traits<char>,std::allocator<char> >::~basic_string<char,std::char_traits<char>,std::allocator<char> >
PUBLIC	?_Eos@?$basic_string@DU?$char_traits@D@std@@V?$allocator@D@2@@std@@QAEXI@Z ; std::basic_string<char,std::char_traits<char>,std::allocator<char> >::_Eos
PUBLIC	?deallocate@?$allocator@D@std@@QAEXPADI@Z	; std::allocator<char>::deallocate
PUBLIC	?copy@?$char_traits@D@std@@SAPADPADPBDI@Z	; std::char_traits<char>::copy
; Function compile flags: /Odtp /RTCsu /ZI
;	COMDAT ?_Tidy@?$basic_string@DU?$char_traits@D@std@@V?$allocator@D@2@@std@@QAEX_NI@Z
_TEXT	SEGMENT
__Ptr$64963 = -20					; size = 4
_this$ = -8						; size = 4
__Built$ = 8						; size = 1
__Newsize$ = 12						; size = 4
?_Tidy@?$basic_string@DU?$char_traits@D@std@@V?$allocator@D@2@@std@@QAEX_NI@Z PROC ; std::basic_string<char,std::char_traits<char>,std::allocator<char> >::_Tidy, COMDAT
; _this$ = ecx

; 1987 : 		{	// initialize buffer, deallocating any storage

	push	ebp
	mov	ebp, esp
	sub	esp, 216				; 000000d8H
	push	ebx
	push	esi
	push	edi
	push	ecx
	lea	edi, DWORD PTR [ebp-216]
	mov	ecx, 54					; 00000036H
	mov	eax, -858993460				; ccccccccH
	rep stosd
	pop	ecx
	mov	DWORD PTR _this$[ebp], ecx

; 1988 : 		if (!_Built)

	movzx	eax, BYTE PTR __Built$[ebp]
	test	eax, eax
	jne	SHORT $LN4@Tidy
	jmp	SHORT $LN3@Tidy
$LN4@Tidy:

; 1989 : 			;
; 1990 : 		else if (this->_BUF_SIZE <= this->_Myres)

	mov	eax, DWORD PTR _this$[ebp]
	cmp	DWORD PTR [eax+24], 16			; 00000010H
	jb	SHORT $LN3@Tidy

; 1991 : 			{	// copy any leftovers to small buffer and deallocate
; 1992 : 			_Elem *_Ptr = this->_Bx._Ptr;

	mov	eax, DWORD PTR _this$[ebp]
	mov	ecx, DWORD PTR [eax+4]
	mov	DWORD PTR __Ptr$64963[ebp], ecx

; 1993 : 			if (0 < _Newsize)

	cmp	DWORD PTR __Newsize$[ebp], 0
	jbe	SHORT $LN1@Tidy

; 1994 : 				_Traits::copy(this->_Bx._Buf, _Ptr, _Newsize);

	mov	eax, DWORD PTR __Newsize$[ebp]
	push	eax
	mov	ecx, DWORD PTR __Ptr$64963[ebp]
	push	ecx
	mov	edx, DWORD PTR _this$[ebp]
	add	edx, 4
	push	edx
	call	?copy@?$char_traits@D@std@@SAPADPADPBDI@Z ; std::char_traits<char>::copy
	add	esp, 12					; 0000000cH
$LN1@Tidy:

; 1995 : 			this->_Alval.deallocate(_Ptr, this->_Myres + 1);

	mov	eax, DWORD PTR _this$[ebp]
	mov	ecx, DWORD PTR [eax+24]
	add	ecx, 1
	push	ecx
	mov	edx, DWORD PTR __Ptr$64963[ebp]
	push	edx
	mov	ecx, DWORD PTR _this$[ebp]
	add	ecx, 28					; 0000001cH
	call	?deallocate@?$allocator@D@std@@QAEXPADI@Z ; std::allocator<char>::deallocate
$LN3@Tidy:

; 1996 : 			}
; 1997 : 		this->_Myres = this->_BUF_SIZE - 1;

	mov	eax, DWORD PTR _this$[ebp]
	mov	DWORD PTR [eax+24], 15			; 0000000fH

; 1998 : 		_Eos(_Newsize);

	mov	eax, DWORD PTR __Newsize$[ebp]
	push	eax
	mov	ecx, DWORD PTR _this$[ebp]
	call	?_Eos@?$basic_string@DU?$char_traits@D@std@@V?$allocator@D@2@@std@@QAEXI@Z ; std::basic_string<char,std::char_traits<char>,std::allocator<char> >::_Eos

; 1999 : 		}

	pop	edi
	pop	esi
	pop	ebx
	add	esp, 216				; 000000d8H
	cmp	ebp, esp
	call	__RTC_CheckEsp
	mov	esp, ebp
	pop	ebp
	ret	8
?_Tidy@?$basic_string@DU?$char_traits@D@std@@V?$allocator@D@2@@std@@QAEX_NI@Z ENDP ; std::basic_string<char,std::char_traits<char>,std::allocator<char> >::_Tidy
_TEXT	ENDS
EXTRN	_memcpy:PROC
; Function compile flags: /Odtp /RTCsu /ZI
; File c:\program files (x86)\microsoft visual studio 10.0\vc\include\iosfwd
;	COMDAT ?copy@?$char_traits@D@std@@SAPADPADPBDI@Z
_TEXT	SEGMENT
__First1$ = 8						; size = 4
__First2$ = 12						; size = 4
__Count$ = 16						; size = 4
?copy@?$char_traits@D@std@@SAPADPADPBDI@Z PROC		; std::char_traits<char>::copy, COMDAT

; 496  : 		{	// copy [_First1, _First1 + _Count) to [_First2, ...)

	push	ebp
	mov	ebp, esp
	sub	esp, 192				; 000000c0H
	push	ebx
	push	esi
	push	edi
	lea	edi, DWORD PTR [ebp-192]
	mov	ecx, 48					; 00000030H
	mov	eax, -858993460				; ccccccccH
	rep stosd

; 497  : 		return ((_Elem *)_CSTD memcpy(_First1, _First2, _Count));

	mov	eax, DWORD PTR __Count$[ebp]
	push	eax
	mov	ecx, DWORD PTR __First2$[ebp]
	push	ecx
	mov	edx, DWORD PTR __First1$[ebp]
	push	edx
	call	_memcpy
	add	esp, 12					; 0000000cH

; 498  : 		}

	pop	edi
	pop	esi
	pop	ebx
	add	esp, 192				; 000000c0H
	cmp	ebp, esp
	call	__RTC_CheckEsp
	mov	esp, ebp
	pop	ebp
	ret	0
?copy@?$char_traits@D@std@@SAPADPADPBDI@Z ENDP		; std::char_traits<char>::copy
_TEXT	ENDS
PUBLIC	?deallocate@?$allocator@U_Container_proxy@std@@@std@@QAEXPAU_Container_proxy@2@I@Z ; std::allocator<std::_Container_proxy>::deallocate
PUBLIC	??$_Dest_val@V?$allocator@U_Container_proxy@std@@@std@@U_Container_proxy@2@@std@@YAXAAV?$allocator@U_Container_proxy@std@@@0@PAU_Container_proxy@0@@Z ; std::_Dest_val<std::allocator<std::_Container_proxy>,std::_Container_proxy>
PUBLIC	??$?0D@?$allocator@U_Container_proxy@std@@@std@@QAE@ABV?$allocator@D@1@@Z ; std::allocator<std::_Container_proxy>::allocator<std::_Container_proxy><char>
EXTRN	__imp_??1_Container_base12@std@@QAE@XZ:PROC
EXTRN	__imp_?_Orphan_all@_Container_base12@std@@QAEXXZ:PROC
;	COMDAT xdata$x
; File c:\program files (x86)\microsoft visual studio 10.0\vc\include\xstring
xdata$x	SEGMENT
__unwindtable$??1?$_String_val@DV?$allocator@D@std@@@std@@QAE@XZ DD 0ffffffffH
	DD	FLAT:__unwindfunclet$??1?$_String_val@DV?$allocator@D@std@@@std@@QAE@XZ$0
__ehfuncinfo$??1?$_String_val@DV?$allocator@D@std@@@std@@QAE@XZ DD 019930522H
	DD	01H
	DD	FLAT:__unwindtable$??1?$_String_val@DV?$allocator@D@std@@@std@@QAE@XZ
	DD	2 DUP(00H)
	DD	2 DUP(00H)
	DD	00H
	DD	01H
; Function compile flags: /Odtp /RTCsu /ZI
xdata$x	ENDS
;	COMDAT ??1?$_String_val@DV?$allocator@D@std@@@std@@QAE@XZ
_TEXT	SEGMENT
__Alproxy$ = -29					; size = 1
_this$ = -20						; size = 4
__$EHRec$ = -12						; size = 12
??1?$_String_val@DV?$allocator@D@std@@@std@@QAE@XZ PROC	; std::_String_val<char,std::allocator<char> >::~_String_val<char,std::allocator<char> >, COMDAT
; _this$ = ecx

; 475  : 		{	// destroy the object

	push	ebp
	mov	ebp, esp
	push	-1
	push	__ehhandler$??1?$_String_val@DV?$allocator@D@std@@@std@@QAE@XZ
	mov	eax, DWORD PTR fs:0
	push	eax
	sub	esp, 216				; 000000d8H
	push	ebx
	push	esi
	push	edi
	push	ecx
	lea	edi, DWORD PTR [ebp-228]
	mov	ecx, 54					; 00000036H
	mov	eax, -858993460				; ccccccccH
	rep stosd
	pop	ecx
	mov	eax, DWORD PTR ___security_cookie
	xor	eax, ebp
	push	eax
	lea	eax, DWORD PTR __$EHRec$[ebp]
	mov	DWORD PTR fs:0, eax
	mov	DWORD PTR _this$[ebp], ecx
	mov	DWORD PTR __$EHRec$[ebp+8], 0

; 476  : 		typename _Alloc::template rebind<_Container_proxy>::other
; 477  : 			_Alproxy(_Alval);

	mov	eax, DWORD PTR _this$[ebp]
	add	eax, 28					; 0000001cH
	push	eax
	lea	ecx, DWORD PTR __Alproxy$[ebp]
	call	??$?0D@?$allocator@U_Container_proxy@std@@@std@@QAE@ABV?$allocator@D@1@@Z ; std::allocator<std::_Container_proxy>::allocator<std::_Container_proxy><char>

; 478  : 		this->_Orphan_all();

	mov	esi, esp
	mov	ecx, DWORD PTR _this$[ebp]
	call	DWORD PTR __imp_?_Orphan_all@_Container_base12@std@@QAEXXZ
	cmp	esi, esp
	call	__RTC_CheckEsp

; 479  : 		_Dest_val(_Alproxy, this->_Myproxy);

	mov	eax, DWORD PTR _this$[ebp]
	mov	ecx, DWORD PTR [eax]
	push	ecx
	lea	edx, DWORD PTR __Alproxy$[ebp]
	push	edx
	call	??$_Dest_val@V?$allocator@U_Container_proxy@std@@@std@@U_Container_proxy@2@@std@@YAXAAV?$allocator@U_Container_proxy@std@@@0@PAU_Container_proxy@0@@Z ; std::_Dest_val<std::allocator<std::_Container_proxy>,std::_Container_proxy>
	add	esp, 8

; 480  : 		_Alproxy.deallocate(this->_Myproxy, 1);

	push	1
	mov	eax, DWORD PTR _this$[ebp]
	mov	ecx, DWORD PTR [eax]
	push	ecx
	lea	ecx, DWORD PTR __Alproxy$[ebp]
	call	?deallocate@?$allocator@U_Container_proxy@std@@@std@@QAEXPAU_Container_proxy@2@I@Z ; std::allocator<std::_Container_proxy>::deallocate

; 481  : 		this->_Myproxy = 0;

	mov	eax, DWORD PTR _this$[ebp]
	mov	DWORD PTR [eax], 0

; 482  : 		}

	mov	DWORD PTR __$EHRec$[ebp+8], -1
	mov	esi, esp
	mov	ecx, DWORD PTR _this$[ebp]
	call	DWORD PTR __imp_??1_Container_base12@std@@QAE@XZ
	cmp	esi, esp
	call	__RTC_CheckEsp
	push	edx
	mov	ecx, ebp
	push	eax
	lea	edx, DWORD PTR $LN7@String_val
	call	@_RTC_CheckStackVars@8
	pop	eax
	pop	edx
	mov	ecx, DWORD PTR __$EHRec$[ebp]
	mov	DWORD PTR fs:0, ecx
	pop	ecx
	pop	edi
	pop	esi
	pop	ebx
	add	esp, 228				; 000000e4H
	cmp	ebp, esp
	call	__RTC_CheckEsp
	mov	esp, ebp
	pop	ebp
	ret	0
	npad	2
$LN7@String_val:
	DD	1
	DD	$LN6@String_val
$LN6@String_val:
	DD	-29					; ffffffe3H
	DD	1
	DD	$LN4@String_val
$LN4@String_val:
	DB	95					; 0000005fH
	DB	65					; 00000041H
	DB	108					; 0000006cH
	DB	112					; 00000070H
	DB	114					; 00000072H
	DB	111					; 0000006fH
	DB	120					; 00000078H
	DB	121					; 00000079H
	DB	0
_TEXT	ENDS
;	COMDAT text$x
text$x	SEGMENT
__unwindfunclet$??1?$_String_val@DV?$allocator@D@std@@@std@@QAE@XZ$0:
	mov	esi, esp
	mov	ecx, DWORD PTR _this$[ebp]
	call	DWORD PTR __imp_??1_Container_base12@std@@QAE@XZ
	cmp	esi, esp
	jmp	__RTC_CheckEsp
__ehhandler$??1?$_String_val@DV?$allocator@D@std@@@std@@QAE@XZ:
	mov	edx, DWORD PTR [esp+8]
	lea	eax, DWORD PTR [edx+12]
	mov	ecx, DWORD PTR [edx-232]
	xor	ecx, eax
	call	@__security_check_cookie@4
	mov	eax, OFFSET __ehfuncinfo$??1?$_String_val@DV?$allocator@D@std@@@std@@QAE@XZ
	jmp	___CxxFrameHandler3
text$x	ENDS
??1?$_String_val@DV?$allocator@D@std@@@std@@QAE@XZ ENDP	; std::_String_val<char,std::allocator<char> >::~_String_val<char,std::allocator<char> >
PUBLIC	?assign@?$char_traits@D@std@@SAXAADABD@Z	; std::char_traits<char>::assign
PUBLIC	?_Myptr@?$basic_string@DU?$char_traits@D@std@@V?$allocator@D@2@@std@@QAEPADXZ ; std::basic_string<char,std::char_traits<char>,std::allocator<char> >::_Myptr
; Function compile flags: /Odtp /RTCsu /ZI
;	COMDAT ?_Eos@?$basic_string@DU?$char_traits@D@std@@V?$allocator@D@2@@std@@QAEXI@Z
_TEXT	SEGMENT
$T70827 = -209						; size = 1
_this$ = -8						; size = 4
__Newsize$ = 8						; size = 4
?_Eos@?$basic_string@DU?$char_traits@D@std@@V?$allocator@D@2@@std@@QAEXI@Z PROC ; std::basic_string<char,std::char_traits<char>,std::allocator<char> >::_Eos, COMDAT
; _this$ = ecx

; 1952 : 		{	// set new length and null terminator

	push	ebp
	mov	ebp, esp
	sub	esp, 216				; 000000d8H
	push	ebx
	push	esi
	push	edi
	push	ecx
	lea	edi, DWORD PTR [ebp-216]
	mov	ecx, 54					; 00000036H
	mov	eax, -858993460				; ccccccccH
	rep stosd
	pop	ecx
	mov	DWORD PTR _this$[ebp], ecx

; 1953 : 		_Traits::assign(_Myptr()[this->_Mysize = _Newsize], _Elem());

	mov	BYTE PTR $T70827[ebp], 0
	mov	eax, DWORD PTR _this$[ebp]
	mov	ecx, DWORD PTR __Newsize$[ebp]
	mov	DWORD PTR [eax+20], ecx
	lea	edx, DWORD PTR $T70827[ebp]
	push	edx
	mov	ecx, DWORD PTR _this$[ebp]
	call	?_Myptr@?$basic_string@DU?$char_traits@D@std@@V?$allocator@D@2@@std@@QAEPADXZ ; std::basic_string<char,std::char_traits<char>,std::allocator<char> >::_Myptr
	add	eax, DWORD PTR __Newsize$[ebp]
	push	eax
	call	?assign@?$char_traits@D@std@@SAXAADABD@Z ; std::char_traits<char>::assign
	add	esp, 8

; 1954 : 		}

	pop	edi
	pop	esi
	pop	ebx
	add	esp, 216				; 000000d8H
	cmp	ebp, esp
	call	__RTC_CheckEsp
	mov	esp, ebp
	pop	ebp
	ret	4
?_Eos@?$basic_string@DU?$char_traits@D@std@@V?$allocator@D@2@@std@@QAEXI@Z ENDP ; std::basic_string<char,std::char_traits<char>,std::allocator<char> >::_Eos
; Function compile flags: /Odtp /RTCsu /ZI
; File c:\program files (x86)\microsoft visual studio 10.0\vc\include\iosfwd
_TEXT	ENDS
;	COMDAT ?assign@?$char_traits@D@std@@SAXAADABD@Z
_TEXT	SEGMENT
__Left$ = 8						; size = 4
__Right$ = 12						; size = 4
?assign@?$char_traits@D@std@@SAXAADABD@Z PROC		; std::char_traits<char>::assign, COMDAT

; 526  : 		{	// assign an element

	push	ebp
	mov	ebp, esp
	sub	esp, 192				; 000000c0H
	push	ebx
	push	esi
	push	edi
	lea	edi, DWORD PTR [ebp-192]
	mov	ecx, 48					; 00000030H
	mov	eax, -858993460				; ccccccccH
	rep stosd

; 527  : 		_Left = _Right;

	mov	eax, DWORD PTR __Left$[ebp]
	mov	ecx, DWORD PTR __Right$[ebp]
	mov	dl, BYTE PTR [ecx]
	mov	BYTE PTR [eax], dl

; 528  : 		}

	pop	edi
	pop	esi
	pop	ebx
	mov	esp, ebp
	pop	ebp
	ret	0
?assign@?$char_traits@D@std@@SAXAADABD@Z ENDP		; std::char_traits<char>::assign
; Function compile flags: /Odtp /RTCsu /ZI
; File c:\program files (x86)\microsoft visual studio 10.0\vc\include\xstring
_TEXT	ENDS
;	COMDAT ?_Myptr@?$basic_string@DU?$char_traits@D@std@@V?$allocator@D@2@@std@@QAEPADXZ
_TEXT	SEGMENT
tv82 = -208						; size = 4
_this$ = -8						; size = 4
?_Myptr@?$basic_string@DU?$char_traits@D@std@@V?$allocator@D@2@@std@@QAEPADXZ PROC ; std::basic_string<char,std::char_traits<char>,std::allocator<char> >::_Myptr, COMDAT
; _this$ = ecx

; 2002 : 		{	// determine current pointer to buffer for mutable string

	push	ebp
	mov	ebp, esp
	sub	esp, 208				; 000000d0H
	push	ebx
	push	esi
	push	edi
	push	ecx
	lea	edi, DWORD PTR [ebp-208]
	mov	ecx, 52					; 00000034H
	mov	eax, -858993460				; ccccccccH
	rep stosd
	pop	ecx
	mov	DWORD PTR _this$[ebp], ecx

; 2003 : 		return (this->_BUF_SIZE <= this->_Myres ? this->_Bx._Ptr
; 2004 : 			: this->_Bx._Buf);

	mov	eax, DWORD PTR _this$[ebp]
	cmp	DWORD PTR [eax+24], 16			; 00000010H
	jb	SHORT $LN3@Myptr
	mov	ecx, DWORD PTR _this$[ebp]
	mov	edx, DWORD PTR [ecx+4]
	mov	DWORD PTR tv82[ebp], edx
	jmp	SHORT $LN4@Myptr
$LN3@Myptr:
	mov	eax, DWORD PTR _this$[ebp]
	add	eax, 4
	mov	DWORD PTR tv82[ebp], eax
$LN4@Myptr:
	mov	eax, DWORD PTR tv82[ebp]

; 2005 : 		}

	pop	edi
	pop	esi
	pop	ebx
	mov	esp, ebp
	pop	ebp
	ret	0
?_Myptr@?$basic_string@DU?$char_traits@D@std@@V?$allocator@D@2@@std@@QAEPADXZ ENDP ; std::basic_string<char,std::char_traits<char>,std::allocator<char> >::_Myptr
; Function compile flags: /Odtp /RTCsu /ZI
; File c:\program files (x86)\microsoft visual studio 10.0\vc\include\xmemory
_TEXT	ENDS
;	COMDAT ?deallocate@?$allocator@D@std@@QAEXPADI@Z
_TEXT	SEGMENT
_this$ = -8						; size = 4
__Ptr$ = 8						; size = 4
___formal$ = 12						; size = 4
?deallocate@?$allocator@D@std@@QAEXPADI@Z PROC		; std::allocator<char>::deallocate, COMDAT
; _this$ = ecx

; 181  : 		{	// deallocate object at _Ptr, ignore size

	push	ebp
	mov	ebp, esp
	sub	esp, 204				; 000000ccH
	push	ebx
	push	esi
	push	edi
	push	ecx
	lea	edi, DWORD PTR [ebp-204]
	mov	ecx, 51					; 00000033H
	mov	eax, -858993460				; ccccccccH
	rep stosd
	pop	ecx
	mov	DWORD PTR _this$[ebp], ecx

; 182  : 		::operator delete(_Ptr);

	mov	eax, DWORD PTR __Ptr$[ebp]
	push	eax
	call	??3@YAXPAX@Z				; operator delete
	add	esp, 4

; 183  : 		}

	pop	edi
	pop	esi
	pop	ebx
	add	esp, 204				; 000000ccH
	cmp	ebp, esp
	call	__RTC_CheckEsp
	mov	esp, ebp
	pop	ebp
	ret	8
?deallocate@?$allocator@D@std@@QAEXPADI@Z ENDP		; std::allocator<char>::deallocate
; Function compile flags: /Odtp /RTCsu /ZI
_TEXT	ENDS
;	COMDAT ?deallocate@?$allocator@U_Container_proxy@std@@@std@@QAEXPAU_Container_proxy@2@I@Z
_TEXT	SEGMENT
_this$ = -8						; size = 4
__Ptr$ = 8						; size = 4
___formal$ = 12						; size = 4
?deallocate@?$allocator@U_Container_proxy@std@@@std@@QAEXPAU_Container_proxy@2@I@Z PROC ; std::allocator<std::_Container_proxy>::deallocate, COMDAT
; _this$ = ecx

; 181  : 		{	// deallocate object at _Ptr, ignore size

	push	ebp
	mov	ebp, esp
	sub	esp, 204				; 000000ccH
	push	ebx
	push	esi
	push	edi
	push	ecx
	lea	edi, DWORD PTR [ebp-204]
	mov	ecx, 51					; 00000033H
	mov	eax, -858993460				; ccccccccH
	rep stosd
	pop	ecx
	mov	DWORD PTR _this$[ebp], ecx

; 182  : 		::operator delete(_Ptr);

	mov	eax, DWORD PTR __Ptr$[ebp]
	push	eax
	call	??3@YAXPAX@Z				; operator delete
	add	esp, 4

; 183  : 		}

	pop	edi
	pop	esi
	pop	ebx
	add	esp, 204				; 000000ccH
	cmp	ebp, esp
	call	__RTC_CheckEsp
	mov	esp, ebp
	pop	ebp
	ret	8
?deallocate@?$allocator@U_Container_proxy@std@@@std@@QAEXPAU_Container_proxy@2@I@Z ENDP ; std::allocator<std::_Container_proxy>::deallocate
; Function compile flags: /Odtp /RTCsu /ZI
; File c:\opengl\glm-0.9.3.1\glm\core\type_vec2.inl
_TEXT	ENDS
;	COMDAT ??0?$tvec2@M@detail@glm@@QAE@XZ
_TEXT	SEGMENT
_this$ = -8						; size = 4
??0?$tvec2@M@detail@glm@@QAE@XZ PROC			; glm::detail::tvec2<float>::tvec2<float>, COMDAT
; _this$ = ecx

; 70   : 	{}

	push	ebp
	mov	ebp, esp
	sub	esp, 204				; 000000ccH
	push	ebx
	push	esi
	push	edi
	push	ecx
	lea	edi, DWORD PTR [ebp-204]
	mov	ecx, 51					; 00000033H
	mov	eax, -858993460				; ccccccccH
	rep stosd
	pop	ecx
	mov	DWORD PTR _this$[ebp], ecx
	mov	eax, DWORD PTR _this$[ebp]
	fldz
	fstp	DWORD PTR [eax]
	mov	eax, DWORD PTR _this$[ebp]
	fldz
	fstp	DWORD PTR [eax+4]
	mov	eax, DWORD PTR _this$[ebp]
	pop	edi
	pop	esi
	pop	ebx
	mov	esp, ebp
	pop	ebp
	ret	0
??0?$tvec2@M@detail@glm@@QAE@XZ ENDP			; glm::detail::tvec2<float>::tvec2<float>
; Function compile flags: /Odtp /RTCsu /ZI
_TEXT	ENDS
;	COMDAT ??4?$tvec2@M@detail@glm@@QAEAAU012@ABU012@@Z
_TEXT	SEGMENT
_this$ = -8						; size = 4
_v$ = 8							; size = 4
??4?$tvec2@M@detail@glm@@QAEAAU012@ABU012@@Z PROC	; glm::detail::tvec2<float>::operator=, COMDAT
; _this$ = ecx

; 187  : 	{

	push	ebp
	mov	ebp, esp
	sub	esp, 204				; 000000ccH
	push	ebx
	push	esi
	push	edi
	push	ecx
	lea	edi, DWORD PTR [ebp-204]
	mov	ecx, 51					; 00000033H
	mov	eax, -858993460				; ccccccccH
	rep stosd
	pop	ecx
	mov	DWORD PTR _this$[ebp], ecx

; 188  : 		this->x = v.x;

	mov	eax, DWORD PTR _this$[ebp]
	mov	ecx, DWORD PTR _v$[ebp]
	fld	DWORD PTR [ecx]
	fstp	DWORD PTR [eax]

; 189  : 		this->y = v.y;

	mov	eax, DWORD PTR _this$[ebp]
	mov	ecx, DWORD PTR _v$[ebp]
	fld	DWORD PTR [ecx+4]
	fstp	DWORD PTR [eax+4]

; 190  : 		return *this;

	mov	eax, DWORD PTR _this$[ebp]

; 191  : 	}

	pop	edi
	pop	esi
	pop	ebx
	mov	esp, ebp
	pop	ebp
	ret	4
??4?$tvec2@M@detail@glm@@QAEAAU012@ABU012@@Z ENDP	; glm::detail::tvec2<float>::operator=
; Function compile flags: /Odtp /RTCsu /ZI
; File c:\opengl\glm-0.9.3.1\glm\core\type_vec3.inl
_TEXT	ENDS
;	COMDAT ??0?$tvec3@M@detail@glm@@QAE@ABM00@Z
_TEXT	SEGMENT
_this$ = -8						; size = 4
_s0$ = 8						; size = 4
_s1$ = 12						; size = 4
_s2$ = 16						; size = 4
??0?$tvec3@M@detail@glm@@QAE@ABM00@Z PROC		; glm::detail::tvec3<float>::tvec3<float>, COMDAT
; _this$ = ecx

; 113  : 	{}

	push	ebp
	mov	ebp, esp
	sub	esp, 204				; 000000ccH
	push	ebx
	push	esi
	push	edi
	push	ecx
	lea	edi, DWORD PTR [ebp-204]
	mov	ecx, 51					; 00000033H
	mov	eax, -858993460				; ccccccccH
	rep stosd
	pop	ecx
	mov	DWORD PTR _this$[ebp], ecx
	mov	eax, DWORD PTR _this$[ebp]
	mov	ecx, DWORD PTR _s0$[ebp]
	fld	DWORD PTR [ecx]
	fstp	DWORD PTR [eax]
	mov	eax, DWORD PTR _this$[ebp]
	mov	ecx, DWORD PTR _s1$[ebp]
	fld	DWORD PTR [ecx]
	fstp	DWORD PTR [eax+4]
	mov	eax, DWORD PTR _this$[ebp]
	mov	ecx, DWORD PTR _s2$[ebp]
	fld	DWORD PTR [ecx]
	fstp	DWORD PTR [eax+8]
	mov	eax, DWORD PTR _this$[ebp]
	pop	edi
	pop	esi
	pop	ebx
	mov	esp, ebp
	pop	ebp
	ret	12					; 0000000cH
??0?$tvec3@M@detail@glm@@QAE@ABM00@Z ENDP		; glm::detail::tvec3<float>::tvec3<float>
; Function compile flags: /Odtp /RTCsu /ZI
_TEXT	ENDS
;	COMDAT ??0?$tvec3@M@detail@glm@@QAE@ABM@Z
_TEXT	SEGMENT
_this$ = -8						; size = 4
_s$ = 8							; size = 4
??0?$tvec3@M@detail@glm@@QAE@ABM@Z PROC			; glm::detail::tvec3<float>::tvec3<float>, COMDAT
; _this$ = ecx

; 101  : 	{}

	push	ebp
	mov	ebp, esp
	sub	esp, 204				; 000000ccH
	push	ebx
	push	esi
	push	edi
	push	ecx
	lea	edi, DWORD PTR [ebp-204]
	mov	ecx, 51					; 00000033H
	mov	eax, -858993460				; ccccccccH
	rep stosd
	pop	ecx
	mov	DWORD PTR _this$[ebp], ecx
	mov	eax, DWORD PTR _this$[ebp]
	mov	ecx, DWORD PTR _s$[ebp]
	fld	DWORD PTR [ecx]
	fstp	DWORD PTR [eax]
	mov	eax, DWORD PTR _this$[ebp]
	mov	ecx, DWORD PTR _s$[ebp]
	fld	DWORD PTR [ecx]
	fstp	DWORD PTR [eax+4]
	mov	eax, DWORD PTR _this$[ebp]
	mov	ecx, DWORD PTR _s$[ebp]
	fld	DWORD PTR [ecx]
	fstp	DWORD PTR [eax+8]
	mov	eax, DWORD PTR _this$[ebp]
	pop	edi
	pop	esi
	pop	ebx
	mov	esp, ebp
	pop	ebp
	ret	4
??0?$tvec3@M@detail@glm@@QAE@ABM@Z ENDP			; glm::detail::tvec3<float>::tvec3<float>
; Function compile flags: /Odtp /RTCsu /ZI
; File c:\opengl\glm-0.9.3.1\glm\core\type_vec4.inl
_TEXT	ENDS
;	COMDAT ??0?$tvec4@M@detail@glm@@QAE@ABM000@Z
_TEXT	SEGMENT
_this$ = -8						; size = 4
_s1$ = 8						; size = 4
_s2$ = 12						; size = 4
_s3$ = 16						; size = 4
_s4$ = 20						; size = 4
??0?$tvec4@M@detail@glm@@QAE@ABM000@Z PROC		; glm::detail::tvec4<float>::tvec4<float>, COMDAT
; _this$ = ecx

; 118  : 	{}

	push	ebp
	mov	ebp, esp
	sub	esp, 204				; 000000ccH
	push	ebx
	push	esi
	push	edi
	push	ecx
	lea	edi, DWORD PTR [ebp-204]
	mov	ecx, 51					; 00000033H
	mov	eax, -858993460				; ccccccccH
	rep stosd
	pop	ecx
	mov	DWORD PTR _this$[ebp], ecx
	mov	eax, DWORD PTR _this$[ebp]
	mov	ecx, DWORD PTR _s1$[ebp]
	fld	DWORD PTR [ecx]
	fstp	DWORD PTR [eax]
	mov	eax, DWORD PTR _this$[ebp]
	mov	ecx, DWORD PTR _s2$[ebp]
	fld	DWORD PTR [ecx]
	fstp	DWORD PTR [eax+4]
	mov	eax, DWORD PTR _this$[ebp]
	mov	ecx, DWORD PTR _s3$[ebp]
	fld	DWORD PTR [ecx]
	fstp	DWORD PTR [eax+8]
	mov	eax, DWORD PTR _this$[ebp]
	mov	ecx, DWORD PTR _s4$[ebp]
	fld	DWORD PTR [ecx]
	fstp	DWORD PTR [eax+12]
	mov	eax, DWORD PTR _this$[ebp]
	pop	edi
	pop	esi
	pop	ebx
	mov	esp, ebp
	pop	ebp
	ret	16					; 00000010H
??0?$tvec4@M@detail@glm@@QAE@ABM000@Z ENDP		; glm::detail::tvec4<float>::tvec4<float>
_TEXT	ENDS
PUBLIC	??4?$tvec4@M@detail@glm@@QAEAAU012@ABU012@@Z	; glm::detail::tvec4<float>::operator=
PUBLIC	??_H@YGXPAXIHP6EPAX0@Z@Z			; `vector constructor iterator'
PUBLIC	??0?$tvec4@M@detail@glm@@QAE@XZ			; glm::detail::tvec4<float>::tvec4<float>
; Function compile flags: /Odtp /RTCsu /ZI
; File c:\opengl\glm-0.9.3.1\glm\core\type_mat4x4.inl
;	COMDAT ??0?$tmat4x4@M@detail@glm@@QAE@ABM@Z
_TEXT	SEGMENT
$T70850 = -308						; size = 16
$T70851 = -284						; size = 16
$T70852 = -260						; size = 16
$T70853 = -236						; size = 16
_Zero$ = -20						; size = 4
_this$ = -8						; size = 4
_s$ = 8							; size = 4
??0?$tmat4x4@M@detail@glm@@QAE@ABM@Z PROC		; glm::detail::tmat4x4<float>::tmat4x4<float>, COMDAT
; _this$ = ecx

; 113  :     {

	push	ebp
	mov	ebp, esp
	sub	esp, 312				; 00000138H
	push	ebx
	push	esi
	push	edi
	push	ecx
	lea	edi, DWORD PTR [ebp-312]
	mov	ecx, 78					; 0000004eH
	mov	eax, -858993460				; ccccccccH
	rep stosd
	pop	ecx
	mov	DWORD PTR _this$[ebp], ecx
	push	OFFSET ??0?$tvec4@M@detail@glm@@QAE@XZ	; glm::detail::tvec4<float>::tvec4<float>
	push	4
	push	16					; 00000010H
	mov	eax, DWORD PTR _this$[ebp]
	push	eax
	call	??_H@YGXPAXIHP6EPAX0@Z@Z

; 114  : 		value_type const Zero(0);

	fldz
	fstp	DWORD PTR _Zero$[ebp]

; 115  :         this->value[0] = col_type(s, Zero, Zero, Zero);

	lea	eax, DWORD PTR _Zero$[ebp]
	push	eax
	lea	ecx, DWORD PTR _Zero$[ebp]
	push	ecx
	lea	edx, DWORD PTR _Zero$[ebp]
	push	edx
	mov	eax, DWORD PTR _s$[ebp]
	push	eax
	lea	ecx, DWORD PTR $T70850[ebp]
	call	??0?$tvec4@M@detail@glm@@QAE@ABM000@Z	; glm::detail::tvec4<float>::tvec4<float>
	push	eax
	mov	ecx, DWORD PTR _this$[ebp]
	call	??4?$tvec4@M@detail@glm@@QAEAAU012@ABU012@@Z ; glm::detail::tvec4<float>::operator=

; 116  :         this->value[1] = col_type(Zero, s, Zero, Zero);

	lea	eax, DWORD PTR _Zero$[ebp]
	push	eax
	lea	ecx, DWORD PTR _Zero$[ebp]
	push	ecx
	mov	edx, DWORD PTR _s$[ebp]
	push	edx
	lea	eax, DWORD PTR _Zero$[ebp]
	push	eax
	lea	ecx, DWORD PTR $T70851[ebp]
	call	??0?$tvec4@M@detail@glm@@QAE@ABM000@Z	; glm::detail::tvec4<float>::tvec4<float>
	push	eax
	mov	ecx, DWORD PTR _this$[ebp]
	add	ecx, 16					; 00000010H
	call	??4?$tvec4@M@detail@glm@@QAEAAU012@ABU012@@Z ; glm::detail::tvec4<float>::operator=

; 117  :         this->value[2] = col_type(Zero, Zero, s, Zero);

	lea	eax, DWORD PTR _Zero$[ebp]
	push	eax
	mov	ecx, DWORD PTR _s$[ebp]
	push	ecx
	lea	edx, DWORD PTR _Zero$[ebp]
	push	edx
	lea	eax, DWORD PTR _Zero$[ebp]
	push	eax
	lea	ecx, DWORD PTR $T70852[ebp]
	call	??0?$tvec4@M@detail@glm@@QAE@ABM000@Z	; glm::detail::tvec4<float>::tvec4<float>
	push	eax
	mov	ecx, DWORD PTR _this$[ebp]
	add	ecx, 32					; 00000020H
	call	??4?$tvec4@M@detail@glm@@QAEAAU012@ABU012@@Z ; glm::detail::tvec4<float>::operator=

; 118  :         this->value[3] = col_type(Zero, Zero, Zero, s);

	mov	eax, DWORD PTR _s$[ebp]
	push	eax
	lea	ecx, DWORD PTR _Zero$[ebp]
	push	ecx
	lea	edx, DWORD PTR _Zero$[ebp]
	push	edx
	lea	eax, DWORD PTR _Zero$[ebp]
	push	eax
	lea	ecx, DWORD PTR $T70853[ebp]
	call	??0?$tvec4@M@detail@glm@@QAE@ABM000@Z	; glm::detail::tvec4<float>::tvec4<float>
	push	eax
	mov	ecx, DWORD PTR _this$[ebp]
	add	ecx, 48					; 00000030H
	call	??4?$tvec4@M@detail@glm@@QAEAAU012@ABU012@@Z ; glm::detail::tvec4<float>::operator=

; 119  :     }

	mov	eax, DWORD PTR _this$[ebp]
	push	edx
	mov	ecx, ebp
	push	eax
	lea	edx, DWORD PTR $LN5@tmat4x4
	call	@_RTC_CheckStackVars@8
	pop	eax
	pop	edx
	pop	edi
	pop	esi
	pop	ebx
	add	esp, 312				; 00000138H
	cmp	ebp, esp
	call	__RTC_CheckEsp
	mov	esp, ebp
	pop	ebp
	ret	4
	npad	3
$LN5@tmat4x4:
	DD	1
	DD	$LN4@tmat4x4
$LN4@tmat4x4:
	DD	-20					; ffffffecH
	DD	4
	DD	$LN3@tmat4x4
$LN3@tmat4x4:
	DB	90					; 0000005aH
	DB	101					; 00000065H
	DB	114					; 00000072H
	DB	111					; 0000006fH
	DB	0
??0?$tmat4x4@M@detail@glm@@QAE@ABM@Z ENDP		; glm::detail::tmat4x4<float>::tmat4x4<float>
; Function compile flags: /Odtp /RTCsu /ZI
_TEXT	ENDS
;	COMDAT ??0?$tmat4x4@M@detail@glm@@QAE@ABU012@@Z
_TEXT	SEGMENT
_this$ = -8						; size = 4
_m$ = 8							; size = 4
??0?$tmat4x4@M@detail@glm@@QAE@ABU012@@Z PROC		; glm::detail::tmat4x4<float>::tmat4x4<float>, COMDAT
; _this$ = ecx

; 94   :     {

	push	ebp
	mov	ebp, esp
	sub	esp, 204				; 000000ccH
	push	ebx
	push	esi
	push	edi
	push	ecx
	lea	edi, DWORD PTR [ebp-204]
	mov	ecx, 51					; 00000033H
	mov	eax, -858993460				; ccccccccH
	rep stosd
	pop	ecx
	mov	DWORD PTR _this$[ebp], ecx
	push	OFFSET ??0?$tvec4@M@detail@glm@@QAE@XZ	; glm::detail::tvec4<float>::tvec4<float>
	push	4
	push	16					; 00000010H
	mov	eax, DWORD PTR _this$[ebp]
	push	eax
	call	??_H@YGXPAXIHP6EPAX0@Z@Z

; 95   :         this->value[0] = m.value[0];

	mov	eax, DWORD PTR _m$[ebp]
	push	eax
	mov	ecx, DWORD PTR _this$[ebp]
	call	??4?$tvec4@M@detail@glm@@QAEAAU012@ABU012@@Z ; glm::detail::tvec4<float>::operator=

; 96   :         this->value[1] = m.value[1];

	mov	eax, DWORD PTR _m$[ebp]
	add	eax, 16					; 00000010H
	push	eax
	mov	ecx, DWORD PTR _this$[ebp]
	add	ecx, 16					; 00000010H
	call	??4?$tvec4@M@detail@glm@@QAEAAU012@ABU012@@Z ; glm::detail::tvec4<float>::operator=

; 97   :         this->value[2] = m.value[2];

	mov	eax, DWORD PTR _m$[ebp]
	add	eax, 32					; 00000020H
	push	eax
	mov	ecx, DWORD PTR _this$[ebp]
	add	ecx, 32					; 00000020H
	call	??4?$tvec4@M@detail@glm@@QAEAAU012@ABU012@@Z ; glm::detail::tvec4<float>::operator=

; 98   :         this->value[3] = m.value[3];

	mov	eax, DWORD PTR _m$[ebp]
	add	eax, 48					; 00000030H
	push	eax
	mov	ecx, DWORD PTR _this$[ebp]
	add	ecx, 48					; 00000030H
	call	??4?$tvec4@M@detail@glm@@QAEAAU012@ABU012@@Z ; glm::detail::tvec4<float>::operator=

; 99   :     }

	mov	eax, DWORD PTR _this$[ebp]
	pop	edi
	pop	esi
	pop	ebx
	add	esp, 204				; 000000ccH
	cmp	ebp, esp
	call	__RTC_CheckEsp
	mov	esp, ebp
	pop	ebp
	ret	4
??0?$tmat4x4@M@detail@glm@@QAE@ABU012@@Z ENDP		; glm::detail::tmat4x4<float>::tmat4x4<float>
; Function compile flags: /Odtp /RTCsu /ZI
_TEXT	ENDS
;	COMDAT ??0?$tmat4x4@M@detail@glm@@QAE@XZ
_TEXT	SEGMENT
$T70861 = -320						; size = 16
$T70862 = -296						; size = 16
$T70863 = -272						; size = 16
$T70864 = -248						; size = 16
_One$ = -32						; size = 4
_Zero$ = -20						; size = 4
_this$ = -8						; size = 4
??0?$tmat4x4@M@detail@glm@@QAE@XZ PROC			; glm::detail::tmat4x4<float>::tmat4x4<float>, COMDAT
; _this$ = ecx

; 80   :     {

	push	ebp
	mov	ebp, esp
	sub	esp, 324				; 00000144H
	push	ebx
	push	esi
	push	edi
	push	ecx
	lea	edi, DWORD PTR [ebp-324]
	mov	ecx, 81					; 00000051H
	mov	eax, -858993460				; ccccccccH
	rep stosd
	pop	ecx
	mov	DWORD PTR _this$[ebp], ecx
	push	OFFSET ??0?$tvec4@M@detail@glm@@QAE@XZ	; glm::detail::tvec4<float>::tvec4<float>
	push	4
	push	16					; 00000010H
	mov	eax, DWORD PTR _this$[ebp]
	push	eax
	call	??_H@YGXPAXIHP6EPAX0@Z@Z

; 81   : 		value_type Zero(0);

	fldz
	fstp	DWORD PTR _Zero$[ebp]

; 82   : 		value_type One(1);

	fld1
	fstp	DWORD PTR _One$[ebp]

; 83   :         this->value[0] = col_type(One, Zero, Zero, Zero);

	lea	eax, DWORD PTR _Zero$[ebp]
	push	eax
	lea	ecx, DWORD PTR _Zero$[ebp]
	push	ecx
	lea	edx, DWORD PTR _Zero$[ebp]
	push	edx
	lea	eax, DWORD PTR _One$[ebp]
	push	eax
	lea	ecx, DWORD PTR $T70861[ebp]
	call	??0?$tvec4@M@detail@glm@@QAE@ABM000@Z	; glm::detail::tvec4<float>::tvec4<float>
	push	eax
	mov	ecx, DWORD PTR _this$[ebp]
	call	??4?$tvec4@M@detail@glm@@QAEAAU012@ABU012@@Z ; glm::detail::tvec4<float>::operator=

; 84   :         this->value[1] = col_type(Zero, One, Zero, Zero);

	lea	eax, DWORD PTR _Zero$[ebp]
	push	eax
	lea	ecx, DWORD PTR _Zero$[ebp]
	push	ecx
	lea	edx, DWORD PTR _One$[ebp]
	push	edx
	lea	eax, DWORD PTR _Zero$[ebp]
	push	eax
	lea	ecx, DWORD PTR $T70862[ebp]
	call	??0?$tvec4@M@detail@glm@@QAE@ABM000@Z	; glm::detail::tvec4<float>::tvec4<float>
	push	eax
	mov	ecx, DWORD PTR _this$[ebp]
	add	ecx, 16					; 00000010H
	call	??4?$tvec4@M@detail@glm@@QAEAAU012@ABU012@@Z ; glm::detail::tvec4<float>::operator=

; 85   :         this->value[2] = col_type(Zero, Zero, One, Zero);

	lea	eax, DWORD PTR _Zero$[ebp]
	push	eax
	lea	ecx, DWORD PTR _One$[ebp]
	push	ecx
	lea	edx, DWORD PTR _Zero$[ebp]
	push	edx
	lea	eax, DWORD PTR _Zero$[ebp]
	push	eax
	lea	ecx, DWORD PTR $T70863[ebp]
	call	??0?$tvec4@M@detail@glm@@QAE@ABM000@Z	; glm::detail::tvec4<float>::tvec4<float>
	push	eax
	mov	ecx, DWORD PTR _this$[ebp]
	add	ecx, 32					; 00000020H
	call	??4?$tvec4@M@detail@glm@@QAEAAU012@ABU012@@Z ; glm::detail::tvec4<float>::operator=

; 86   :         this->value[3] = col_type(Zero, Zero, Zero, One);

	lea	eax, DWORD PTR _One$[ebp]
	push	eax
	lea	ecx, DWORD PTR _Zero$[ebp]
	push	ecx
	lea	edx, DWORD PTR _Zero$[ebp]
	push	edx
	lea	eax, DWORD PTR _Zero$[ebp]
	push	eax
	lea	ecx, DWORD PTR $T70864[ebp]
	call	??0?$tvec4@M@detail@glm@@QAE@ABM000@Z	; glm::detail::tvec4<float>::tvec4<float>
	push	eax
	mov	ecx, DWORD PTR _this$[ebp]
	add	ecx, 48					; 00000030H
	call	??4?$tvec4@M@detail@glm@@QAEAAU012@ABU012@@Z ; glm::detail::tvec4<float>::operator=

; 87   :     }

	mov	eax, DWORD PTR _this$[ebp]
	push	edx
	mov	ecx, ebp
	push	eax
	lea	edx, DWORD PTR $LN6@tmat4x4@2
	call	@_RTC_CheckStackVars@8
	pop	eax
	pop	edx
	pop	edi
	pop	esi
	pop	ebx
	add	esp, 324				; 00000144H
	cmp	ebp, esp
	call	__RTC_CheckEsp
	mov	esp, ebp
	pop	ebp
	ret	0
$LN6@tmat4x4@2:
	DD	2
	DD	$LN5@tmat4x4@2
$LN5@tmat4x4@2:
	DD	-20					; ffffffecH
	DD	4
	DD	$LN3@tmat4x4@2
	DD	-32					; ffffffe0H
	DD	4
	DD	$LN4@tmat4x4@2
$LN4@tmat4x4@2:
	DB	79					; 0000004fH
	DB	110					; 0000006eH
	DB	101					; 00000065H
	DB	0
$LN3@tmat4x4@2:
	DB	90					; 0000005aH
	DB	101					; 00000065H
	DB	114					; 00000072H
	DB	111					; 0000006fH
	DB	0
??0?$tmat4x4@M@detail@glm@@QAE@XZ ENDP			; glm::detail::tmat4x4<float>::tmat4x4<float>
_TEXT	ENDS
PUBLIC	??_C@_1CG@KOFHLCJL@?$AAi?$AA?5?$AA?$DM?$AA?5?$AAt?$AAh?$AAi?$AAs?$AA?9?$AA?$DO?$AAl?$AAe?$AAn?$AAg?$AAt?$AAh?$AA?$CI?$AA?$CJ?$AA?$AA@ ; `string'
PUBLIC	??_C@_1FO@LCBJDNCK@?$AAc?$AA?3?$AA?2?$AAo?$AAp?$AAe?$AAn?$AAg?$AAl?$AA?2?$AAg?$AAl?$AAm?$AA?9?$AA0?$AA?4?$AA9?$AA?4?$AA3?$AA?4?$AA1?$AA?2?$AAg?$AAl?$AAm?$AA?2?$AAc?$AAo?$AAr?$AAe?$AA?2?$AAt@ ; `string'
PUBLIC	?length@?$tmat4x4@M@detail@glm@@QBEIXZ		; glm::detail::tmat4x4<float>::length
EXTRN	__imp___wassert:PROC
;	COMDAT ??_C@_1CG@KOFHLCJL@?$AAi?$AA?5?$AA?$DM?$AA?5?$AAt?$AAh?$AAi?$AAs?$AA?9?$AA?$DO?$AAl?$AAe?$AAn?$AAg?$AAt?$AAh?$AA?$CI?$AA?$CJ?$AA?$AA@
CONST	SEGMENT
??_C@_1CG@KOFHLCJL@?$AAi?$AA?5?$AA?$DM?$AA?5?$AAt?$AAh?$AAi?$AAs?$AA?9?$AA?$DO?$AAl?$AAe?$AAn?$AAg?$AAt?$AAh?$AA?$CI?$AA?$CJ?$AA?$AA@ DB 'i'
	DB	00H, ' ', 00H, '<', 00H, ' ', 00H, 't', 00H, 'h', 00H, 'i', 00H
	DB	's', 00H, '-', 00H, '>', 00H, 'l', 00H, 'e', 00H, 'n', 00H, 'g'
	DB	00H, 't', 00H, 'h', 00H, '(', 00H, ')', 00H, 00H, 00H ; `string'
CONST	ENDS
;	COMDAT ??_C@_1FO@LCBJDNCK@?$AAc?$AA?3?$AA?2?$AAo?$AAp?$AAe?$AAn?$AAg?$AAl?$AA?2?$AAg?$AAl?$AAm?$AA?9?$AA0?$AA?4?$AA9?$AA?4?$AA3?$AA?4?$AA1?$AA?2?$AAg?$AAl?$AAm?$AA?2?$AAc?$AAo?$AAr?$AAe?$AA?2?$AAt@
CONST	SEGMENT
??_C@_1FO@LCBJDNCK@?$AAc?$AA?3?$AA?2?$AAo?$AAp?$AAe?$AAn?$AAg?$AAl?$AA?2?$AAg?$AAl?$AAm?$AA?9?$AA0?$AA?4?$AA9?$AA?4?$AA3?$AA?4?$AA1?$AA?2?$AAg?$AAl?$AAm?$AA?2?$AAc?$AAo?$AAr?$AAe?$AA?2?$AAt@ DB 'c'
	DB	00H, ':', 00H, '\', 00H, 'o', 00H, 'p', 00H, 'e', 00H, 'n', 00H
	DB	'g', 00H, 'l', 00H, '\', 00H, 'g', 00H, 'l', 00H, 'm', 00H, '-'
	DB	00H, '0', 00H, '.', 00H, '9', 00H, '.', 00H, '3', 00H, '.', 00H
	DB	'1', 00H, '\', 00H, 'g', 00H, 'l', 00H, 'm', 00H, '\', 00H, 'c'
	DB	00H, 'o', 00H, 'r', 00H, 'e', 00H, '\', 00H, 't', 00H, 'y', 00H
	DB	'p', 00H, 'e', 00H, '_', 00H, 'm', 00H, 'a', 00H, 't', 00H, '4'
	DB	00H, 'x', 00H, '4', 00H, '.', 00H, 'i', 00H, 'n', 00H, 'l', 00H
	DB	00H, 00H					; `string'
; Function compile flags: /Odtp /RTCsu /ZI
CONST	ENDS
;	COMDAT ??A?$tmat4x4@M@detail@glm@@QAEAAU?$tvec4@M@12@I@Z
_TEXT	SEGMENT
_this$ = -8						; size = 4
_i$ = 8							; size = 4
??A?$tmat4x4@M@detail@glm@@QAEAAU?$tvec4@M@12@I@Z PROC	; glm::detail::tmat4x4<float>::operator[], COMDAT
; _this$ = ecx

; 59   : 	{

	push	ebp
	mov	ebp, esp
	sub	esp, 204				; 000000ccH
	push	ebx
	push	esi
	push	edi
	push	ecx
	lea	edi, DWORD PTR [ebp-204]
	mov	ecx, 51					; 00000033H
	mov	eax, -858993460				; ccccccccH
	rep stosd
	pop	ecx
	mov	DWORD PTR _this$[ebp], ecx

; 60   : 		assert(i < this->length());

	mov	ecx, DWORD PTR _this$[ebp]
	call	?length@?$tmat4x4@M@detail@glm@@QBEIXZ	; glm::detail::tmat4x4<float>::length
	cmp	DWORD PTR _i$[ebp], eax
	jb	SHORT $LN3@operator
	mov	esi, esp
	push	60					; 0000003cH
	push	OFFSET ??_C@_1FO@LCBJDNCK@?$AAc?$AA?3?$AA?2?$AAo?$AAp?$AAe?$AAn?$AAg?$AAl?$AA?2?$AAg?$AAl?$AAm?$AA?9?$AA0?$AA?4?$AA9?$AA?4?$AA3?$AA?4?$AA1?$AA?2?$AAg?$AAl?$AAm?$AA?2?$AAc?$AAo?$AAr?$AAe?$AA?2?$AAt@
	push	OFFSET ??_C@_1CG@KOFHLCJL@?$AAi?$AA?5?$AA?$DM?$AA?5?$AAt?$AAh?$AAi?$AAs?$AA?9?$AA?$DO?$AAl?$AAe?$AAn?$AAg?$AAt?$AAh?$AA?$CI?$AA?$CJ?$AA?$AA@
	call	DWORD PTR __imp___wassert
	add	esp, 12					; 0000000cH
	cmp	esi, esp
	call	__RTC_CheckEsp
$LN3@operator:

; 61   : 		return this->value[i];

	mov	eax, DWORD PTR _i$[ebp]
	shl	eax, 4
	add	eax, DWORD PTR _this$[ebp]

; 62   : 	}

	pop	edi
	pop	esi
	pop	ebx
	add	esp, 204				; 000000ccH
	cmp	ebp, esp
	call	__RTC_CheckEsp
	mov	esp, ebp
	pop	ebp
	ret	4
??A?$tmat4x4@M@detail@glm@@QAEAAU?$tvec4@M@12@I@Z ENDP	; glm::detail::tmat4x4<float>::operator[]
_TEXT	ENDS
PUBLIC	??4?$tvec3@M@detail@glm@@QAEAAU012@ABU012@@Z	; glm::detail::tvec3<float>::operator=
PUBLIC	??0?$tvec3@M@detail@glm@@QAE@XZ			; glm::detail::tvec3<float>::tvec3<float>
; Function compile flags: /Odtp /RTCsu /ZI
; File c:\opengl\glm-0.9.3.1\glm\core\type_mat3x3.inl
;	COMDAT ??0?$tmat3x3@M@detail@glm@@QAE@ABU?$tvec3@M@12@00@Z
_TEXT	SEGMENT
_this$ = -8						; size = 4
_v0$ = 8						; size = 4
_v1$ = 12						; size = 4
_v2$ = 16						; size = 4
??0?$tmat3x3@M@detail@glm@@QAE@ABU?$tvec3@M@12@00@Z PROC ; glm::detail::tmat3x3<float>::tmat3x3<float>, COMDAT
; _this$ = ecx

; 138  :     {

	push	ebp
	mov	ebp, esp
	sub	esp, 204				; 000000ccH
	push	ebx
	push	esi
	push	edi
	push	ecx
	lea	edi, DWORD PTR [ebp-204]
	mov	ecx, 51					; 00000033H
	mov	eax, -858993460				; ccccccccH
	rep stosd
	pop	ecx
	mov	DWORD PTR _this$[ebp], ecx
	push	OFFSET ??0?$tvec3@M@detail@glm@@QAE@XZ	; glm::detail::tvec3<float>::tvec3<float>
	push	3
	push	12					; 0000000cH
	mov	eax, DWORD PTR _this$[ebp]
	push	eax
	call	??_H@YGXPAXIHP6EPAX0@Z@Z

; 139  :         this->value[0] = v0;

	mov	eax, DWORD PTR _v0$[ebp]
	push	eax
	mov	ecx, DWORD PTR _this$[ebp]
	call	??4?$tvec3@M@detail@glm@@QAEAAU012@ABU012@@Z ; glm::detail::tvec3<float>::operator=

; 140  :         this->value[1] = v1;

	mov	eax, DWORD PTR _v1$[ebp]
	push	eax
	mov	ecx, DWORD PTR _this$[ebp]
	add	ecx, 12					; 0000000cH
	call	??4?$tvec3@M@detail@glm@@QAEAAU012@ABU012@@Z ; glm::detail::tvec3<float>::operator=

; 141  :         this->value[2] = v2;

	mov	eax, DWORD PTR _v2$[ebp]
	push	eax
	mov	ecx, DWORD PTR _this$[ebp]
	add	ecx, 24					; 00000018H
	call	??4?$tvec3@M@detail@glm@@QAEAAU012@ABU012@@Z ; glm::detail::tvec3<float>::operator=

; 142  :     }

	mov	eax, DWORD PTR _this$[ebp]
	pop	edi
	pop	esi
	pop	ebx
	add	esp, 204				; 000000ccH
	cmp	ebp, esp
	call	__RTC_CheckEsp
	mov	esp, ebp
	pop	ebp
	ret	12					; 0000000cH
??0?$tmat3x3@M@detail@glm@@QAE@ABU?$tvec3@M@12@00@Z ENDP ; glm::detail::tmat3x3<float>::tmat3x3<float>
; Function compile flags: /Odtp /RTCsu /ZI
; File c:\opengl\glm-0.9.3.1\glm\core\type_vec3.inl
_TEXT	ENDS
;	COMDAT ??4?$tvec3@M@detail@glm@@QAEAAU012@ABU012@@Z
_TEXT	SEGMENT
_this$ = -8						; size = 4
_v$ = 8							; size = 4
??4?$tvec3@M@detail@glm@@QAEAAU012@ABU012@@Z PROC	; glm::detail::tvec3<float>::operator=, COMDAT
; _this$ = ecx

; 236  : 	{

	push	ebp
	mov	ebp, esp
	sub	esp, 204				; 000000ccH
	push	ebx
	push	esi
	push	edi
	push	ecx
	lea	edi, DWORD PTR [ebp-204]
	mov	ecx, 51					; 00000033H
	mov	eax, -858993460				; ccccccccH
	rep stosd
	pop	ecx
	mov	DWORD PTR _this$[ebp], ecx

; 237  : 		this->x = v.x;

	mov	eax, DWORD PTR _this$[ebp]
	mov	ecx, DWORD PTR _v$[ebp]
	fld	DWORD PTR [ecx]
	fstp	DWORD PTR [eax]

; 238  : 		this->y = v.y;

	mov	eax, DWORD PTR _this$[ebp]
	mov	ecx, DWORD PTR _v$[ebp]
	fld	DWORD PTR [ecx+4]
	fstp	DWORD PTR [eax+4]

; 239  : 		this->z = v.z;

	mov	eax, DWORD PTR _this$[ebp]
	mov	ecx, DWORD PTR _v$[ebp]
	fld	DWORD PTR [ecx+8]
	fstp	DWORD PTR [eax+8]

; 240  : 		return *this;

	mov	eax, DWORD PTR _this$[ebp]

; 241  : 	}

	pop	edi
	pop	esi
	pop	ebx
	mov	esp, ebp
	pop	ebp
	ret	4
??4?$tvec3@M@detail@glm@@QAEAAU012@ABU012@@Z ENDP	; glm::detail::tvec3<float>::operator=
_TEXT	ENDS
PUBLIC	??$?HM@detail@glm@@YA?AU?$tvec4@M@01@ABU201@0@Z	; glm::detail::operator+<float>
PUBLIC	??$?DM@detail@glm@@YA?AU?$tvec4@M@01@ABU201@ABM@Z ; glm::detail::operator*<float>
PUBLIC	??A?$tvec4@M@detail@glm@@QBEABMI@Z		; glm::detail::tvec4<float>::operator[]
PUBLIC	??0?$tmat4x4@M@detail@glm@@QAE@W4ctor@012@@Z	; glm::detail::tmat4x4<float>::tmat4x4<float>
PUBLIC	??0?$tvec4@M@detail@glm@@QAE@ABU012@@Z		; glm::detail::tvec4<float>::tvec4<float>
PUBLIC	??A?$tmat4x4@M@detail@glm@@QBEABU?$tvec4@M@12@I@Z ; glm::detail::tmat4x4<float>::operator[]
PUBLIC	__$ArrayPad$
; Function compile flags: /Odtp /RTCsu /ZI
; File c:\opengl\glm-0.9.3.1\glm\core\type_mat4x4.inl
;	COMDAT ??$?DM@detail@glm@@YA?AU?$tmat4x4@M@01@ABU201@0@Z
_TEXT	SEGMENT
$T70879 = -1128						; size = 16
$T70880 = -1104						; size = 16
$T70881 = -1080						; size = 16
$T70882 = -1056						; size = 16
$T70883 = -1032						; size = 16
$T70884 = -1008						; size = 16
$T70885 = -984						; size = 16
$T70886 = -960						; size = 16
$T70887 = -936						; size = 16
$T70888 = -912						; size = 16
$T70889 = -888						; size = 16
$T70890 = -864						; size = 16
$T70891 = -840						; size = 16
$T70892 = -816						; size = 16
$T70893 = -792						; size = 16
$T70894 = -768						; size = 16
$T70895 = -744						; size = 16
$T70896 = -720						; size = 16
$T70897 = -696						; size = 16
$T70898 = -672						; size = 16
$T70899 = -648						; size = 16
$T70900 = -624						; size = 16
$T70901 = -600						; size = 16
$T70902 = -576						; size = 16
$T70903 = -552						; size = 16
$T70904 = -528						; size = 16
$T70905 = -504						; size = 16
$T70906 = -480						; size = 16
_Result$ = -264						; size = 64
_SrcB3$ = -192						; size = 16
_SrcB2$ = -168						; size = 16
_SrcB1$ = -144						; size = 16
_SrcB0$ = -120						; size = 16
_SrcA3$ = -96						; size = 16
_SrcA2$ = -72						; size = 16
_SrcA1$ = -48						; size = 16
_SrcA0$ = -24						; size = 16
__$ArrayPad$ = -4					; size = 4
___$ReturnUdt$ = 8					; size = 4
_m1$ = 12						; size = 4
_m2$ = 16						; size = 4
??$?DM@detail@glm@@YA?AU?$tmat4x4@M@01@ABU201@0@Z PROC	; glm::detail::operator*<float>, COMDAT

; 762  :     {

	push	ebp
	mov	ebp, esp
	sub	esp, 1132				; 0000046cH
	push	ebx
	push	esi
	push	edi
	lea	edi, DWORD PTR [ebp-1132]
	mov	ecx, 283				; 0000011bH
	mov	eax, -858993460				; ccccccccH
	rep stosd
	mov	eax, DWORD PTR ___security_cookie
	xor	eax, ebp
	mov	DWORD PTR __$ArrayPad$[ebp], eax

; 763  : 		typename tmat4x4<T>::col_type const SrcA0 = m1[0];

	push	0
	mov	ecx, DWORD PTR _m1$[ebp]
	call	??A?$tmat4x4@M@detail@glm@@QBEABU?$tvec4@M@12@I@Z ; glm::detail::tmat4x4<float>::operator[]
	push	eax
	lea	ecx, DWORD PTR _SrcA0$[ebp]
	call	??0?$tvec4@M@detail@glm@@QAE@ABU012@@Z	; glm::detail::tvec4<float>::tvec4<float>

; 764  : 		typename tmat4x4<T>::col_type const SrcA1 = m1[1];

	push	1
	mov	ecx, DWORD PTR _m1$[ebp]
	call	??A?$tmat4x4@M@detail@glm@@QBEABU?$tvec4@M@12@I@Z ; glm::detail::tmat4x4<float>::operator[]
	push	eax
	lea	ecx, DWORD PTR _SrcA1$[ebp]
	call	??0?$tvec4@M@detail@glm@@QAE@ABU012@@Z	; glm::detail::tvec4<float>::tvec4<float>

; 765  : 		typename tmat4x4<T>::col_type const SrcA2 = m1[2];

	push	2
	mov	ecx, DWORD PTR _m1$[ebp]
	call	??A?$tmat4x4@M@detail@glm@@QBEABU?$tvec4@M@12@I@Z ; glm::detail::tmat4x4<float>::operator[]
	push	eax
	lea	ecx, DWORD PTR _SrcA2$[ebp]
	call	??0?$tvec4@M@detail@glm@@QAE@ABU012@@Z	; glm::detail::tvec4<float>::tvec4<float>

; 766  : 		typename tmat4x4<T>::col_type const SrcA3 = m1[3];

	push	3
	mov	ecx, DWORD PTR _m1$[ebp]
	call	??A?$tmat4x4@M@detail@glm@@QBEABU?$tvec4@M@12@I@Z ; glm::detail::tmat4x4<float>::operator[]
	push	eax
	lea	ecx, DWORD PTR _SrcA3$[ebp]
	call	??0?$tvec4@M@detail@glm@@QAE@ABU012@@Z	; glm::detail::tvec4<float>::tvec4<float>

; 767  : 
; 768  : 		typename tmat4x4<T>::col_type const SrcB0 = m2[0];

	push	0
	mov	ecx, DWORD PTR _m2$[ebp]
	call	??A?$tmat4x4@M@detail@glm@@QBEABU?$tvec4@M@12@I@Z ; glm::detail::tmat4x4<float>::operator[]
	push	eax
	lea	ecx, DWORD PTR _SrcB0$[ebp]
	call	??0?$tvec4@M@detail@glm@@QAE@ABU012@@Z	; glm::detail::tvec4<float>::tvec4<float>

; 769  : 		typename tmat4x4<T>::col_type const SrcB1 = m2[1];

	push	1
	mov	ecx, DWORD PTR _m2$[ebp]
	call	??A?$tmat4x4@M@detail@glm@@QBEABU?$tvec4@M@12@I@Z ; glm::detail::tmat4x4<float>::operator[]
	push	eax
	lea	ecx, DWORD PTR _SrcB1$[ebp]
	call	??0?$tvec4@M@detail@glm@@QAE@ABU012@@Z	; glm::detail::tvec4<float>::tvec4<float>

; 770  : 		typename tmat4x4<T>::col_type const SrcB2 = m2[2];

	push	2
	mov	ecx, DWORD PTR _m2$[ebp]
	call	??A?$tmat4x4@M@detail@glm@@QBEABU?$tvec4@M@12@I@Z ; glm::detail::tmat4x4<float>::operator[]
	push	eax
	lea	ecx, DWORD PTR _SrcB2$[ebp]
	call	??0?$tvec4@M@detail@glm@@QAE@ABU012@@Z	; glm::detail::tvec4<float>::tvec4<float>

; 771  : 		typename tmat4x4<T>::col_type const SrcB3 = m2[3];

	push	3
	mov	ecx, DWORD PTR _m2$[ebp]
	call	??A?$tmat4x4@M@detail@glm@@QBEABU?$tvec4@M@12@I@Z ; glm::detail::tmat4x4<float>::operator[]
	push	eax
	lea	ecx, DWORD PTR _SrcB3$[ebp]
	call	??0?$tvec4@M@detail@glm@@QAE@ABU012@@Z	; glm::detail::tvec4<float>::tvec4<float>

; 772  : 
; 773  :         tmat4x4<T> Result(tmat4x4<T>::null);

	push	0
	lea	ecx, DWORD PTR _Result$[ebp]
	call	??0?$tmat4x4@M@detail@glm@@QAE@W4ctor@012@@Z ; glm::detail::tmat4x4<float>::tmat4x4<float>

; 774  : 		Result[0] = SrcA0 * SrcB0[0] + SrcA1 * SrcB0[1] + SrcA2 * SrcB0[2] + SrcA3 * SrcB0[3];

	push	3
	lea	ecx, DWORD PTR _SrcB0$[ebp]
	call	??A?$tvec4@M@detail@glm@@QBEABMI@Z	; glm::detail::tvec4<float>::operator[]
	push	eax
	lea	eax, DWORD PTR _SrcA3$[ebp]
	push	eax
	lea	ecx, DWORD PTR $T70879[ebp]
	push	ecx
	call	??$?DM@detail@glm@@YA?AU?$tvec4@M@01@ABU201@ABM@Z ; glm::detail::operator*<float>
	add	esp, 12					; 0000000cH
	push	eax
	push	2
	lea	ecx, DWORD PTR _SrcB0$[ebp]
	call	??A?$tvec4@M@detail@glm@@QBEABMI@Z	; glm::detail::tvec4<float>::operator[]
	push	eax
	lea	edx, DWORD PTR _SrcA2$[ebp]
	push	edx
	lea	eax, DWORD PTR $T70880[ebp]
	push	eax
	call	??$?DM@detail@glm@@YA?AU?$tvec4@M@01@ABU201@ABM@Z ; glm::detail::operator*<float>
	add	esp, 12					; 0000000cH
	push	eax
	push	1
	lea	ecx, DWORD PTR _SrcB0$[ebp]
	call	??A?$tvec4@M@detail@glm@@QBEABMI@Z	; glm::detail::tvec4<float>::operator[]
	push	eax
	lea	ecx, DWORD PTR _SrcA1$[ebp]
	push	ecx
	lea	edx, DWORD PTR $T70881[ebp]
	push	edx
	call	??$?DM@detail@glm@@YA?AU?$tvec4@M@01@ABU201@ABM@Z ; glm::detail::operator*<float>
	add	esp, 12					; 0000000cH
	push	eax
	push	0
	lea	ecx, DWORD PTR _SrcB0$[ebp]
	call	??A?$tvec4@M@detail@glm@@QBEABMI@Z	; glm::detail::tvec4<float>::operator[]
	push	eax
	lea	eax, DWORD PTR _SrcA0$[ebp]
	push	eax
	lea	ecx, DWORD PTR $T70882[ebp]
	push	ecx
	call	??$?DM@detail@glm@@YA?AU?$tvec4@M@01@ABU201@ABM@Z ; glm::detail::operator*<float>
	add	esp, 12					; 0000000cH
	push	eax
	lea	edx, DWORD PTR $T70883[ebp]
	push	edx
	call	??$?HM@detail@glm@@YA?AU?$tvec4@M@01@ABU201@0@Z ; glm::detail::operator+<float>
	add	esp, 12					; 0000000cH
	push	eax
	lea	eax, DWORD PTR $T70884[ebp]
	push	eax
	call	??$?HM@detail@glm@@YA?AU?$tvec4@M@01@ABU201@0@Z ; glm::detail::operator+<float>
	add	esp, 12					; 0000000cH
	push	eax
	lea	ecx, DWORD PTR $T70885[ebp]
	push	ecx
	call	??$?HM@detail@glm@@YA?AU?$tvec4@M@01@ABU201@0@Z ; glm::detail::operator+<float>
	add	esp, 12					; 0000000cH
	push	eax
	push	0
	lea	ecx, DWORD PTR _Result$[ebp]
	call	??A?$tmat4x4@M@detail@glm@@QAEAAU?$tvec4@M@12@I@Z ; glm::detail::tmat4x4<float>::operator[]
	mov	ecx, eax
	call	??4?$tvec4@M@detail@glm@@QAEAAU012@ABU012@@Z ; glm::detail::tvec4<float>::operator=

; 775  : 		Result[1] = SrcA0 * SrcB1[0] + SrcA1 * SrcB1[1] + SrcA2 * SrcB1[2] + SrcA3 * SrcB1[3];

	push	3
	lea	ecx, DWORD PTR _SrcB1$[ebp]
	call	??A?$tvec4@M@detail@glm@@QBEABMI@Z	; glm::detail::tvec4<float>::operator[]
	push	eax
	lea	eax, DWORD PTR _SrcA3$[ebp]
	push	eax
	lea	ecx, DWORD PTR $T70886[ebp]
	push	ecx
	call	??$?DM@detail@glm@@YA?AU?$tvec4@M@01@ABU201@ABM@Z ; glm::detail::operator*<float>
	add	esp, 12					; 0000000cH
	push	eax
	push	2
	lea	ecx, DWORD PTR _SrcB1$[ebp]
	call	??A?$tvec4@M@detail@glm@@QBEABMI@Z	; glm::detail::tvec4<float>::operator[]
	push	eax
	lea	edx, DWORD PTR _SrcA2$[ebp]
	push	edx
	lea	eax, DWORD PTR $T70887[ebp]
	push	eax
	call	??$?DM@detail@glm@@YA?AU?$tvec4@M@01@ABU201@ABM@Z ; glm::detail::operator*<float>
	add	esp, 12					; 0000000cH
	push	eax
	push	1
	lea	ecx, DWORD PTR _SrcB1$[ebp]
	call	??A?$tvec4@M@detail@glm@@QBEABMI@Z	; glm::detail::tvec4<float>::operator[]
	push	eax
	lea	ecx, DWORD PTR _SrcA1$[ebp]
	push	ecx
	lea	edx, DWORD PTR $T70888[ebp]
	push	edx
	call	??$?DM@detail@glm@@YA?AU?$tvec4@M@01@ABU201@ABM@Z ; glm::detail::operator*<float>
	add	esp, 12					; 0000000cH
	push	eax
	push	0
	lea	ecx, DWORD PTR _SrcB1$[ebp]
	call	??A?$tvec4@M@detail@glm@@QBEABMI@Z	; glm::detail::tvec4<float>::operator[]
	push	eax
	lea	eax, DWORD PTR _SrcA0$[ebp]
	push	eax
	lea	ecx, DWORD PTR $T70889[ebp]
	push	ecx
	call	??$?DM@detail@glm@@YA?AU?$tvec4@M@01@ABU201@ABM@Z ; glm::detail::operator*<float>
	add	esp, 12					; 0000000cH
	push	eax
	lea	edx, DWORD PTR $T70890[ebp]
	push	edx
	call	??$?HM@detail@glm@@YA?AU?$tvec4@M@01@ABU201@0@Z ; glm::detail::operator+<float>
	add	esp, 12					; 0000000cH
	push	eax
	lea	eax, DWORD PTR $T70891[ebp]
	push	eax
	call	??$?HM@detail@glm@@YA?AU?$tvec4@M@01@ABU201@0@Z ; glm::detail::operator+<float>
	add	esp, 12					; 0000000cH
	push	eax
	lea	ecx, DWORD PTR $T70892[ebp]
	push	ecx
	call	??$?HM@detail@glm@@YA?AU?$tvec4@M@01@ABU201@0@Z ; glm::detail::operator+<float>
	add	esp, 12					; 0000000cH
	push	eax
	push	1
	lea	ecx, DWORD PTR _Result$[ebp]
	call	??A?$tmat4x4@M@detail@glm@@QAEAAU?$tvec4@M@12@I@Z ; glm::detail::tmat4x4<float>::operator[]
	mov	ecx, eax
	call	??4?$tvec4@M@detail@glm@@QAEAAU012@ABU012@@Z ; glm::detail::tvec4<float>::operator=

; 776  : 		Result[2] = SrcA0 * SrcB2[0] + SrcA1 * SrcB2[1] + SrcA2 * SrcB2[2] + SrcA3 * SrcB2[3];

	push	3
	lea	ecx, DWORD PTR _SrcB2$[ebp]
	call	??A?$tvec4@M@detail@glm@@QBEABMI@Z	; glm::detail::tvec4<float>::operator[]
	push	eax
	lea	eax, DWORD PTR _SrcA3$[ebp]
	push	eax
	lea	ecx, DWORD PTR $T70893[ebp]
	push	ecx
	call	??$?DM@detail@glm@@YA?AU?$tvec4@M@01@ABU201@ABM@Z ; glm::detail::operator*<float>
	add	esp, 12					; 0000000cH
	push	eax
	push	2
	lea	ecx, DWORD PTR _SrcB2$[ebp]
	call	??A?$tvec4@M@detail@glm@@QBEABMI@Z	; glm::detail::tvec4<float>::operator[]
	push	eax
	lea	edx, DWORD PTR _SrcA2$[ebp]
	push	edx
	lea	eax, DWORD PTR $T70894[ebp]
	push	eax
	call	??$?DM@detail@glm@@YA?AU?$tvec4@M@01@ABU201@ABM@Z ; glm::detail::operator*<float>
	add	esp, 12					; 0000000cH
	push	eax
	push	1
	lea	ecx, DWORD PTR _SrcB2$[ebp]
	call	??A?$tvec4@M@detail@glm@@QBEABMI@Z	; glm::detail::tvec4<float>::operator[]
	push	eax
	lea	ecx, DWORD PTR _SrcA1$[ebp]
	push	ecx
	lea	edx, DWORD PTR $T70895[ebp]
	push	edx
	call	??$?DM@detail@glm@@YA?AU?$tvec4@M@01@ABU201@ABM@Z ; glm::detail::operator*<float>
	add	esp, 12					; 0000000cH
	push	eax
	push	0
	lea	ecx, DWORD PTR _SrcB2$[ebp]
	call	??A?$tvec4@M@detail@glm@@QBEABMI@Z	; glm::detail::tvec4<float>::operator[]
	push	eax
	lea	eax, DWORD PTR _SrcA0$[ebp]
	push	eax
	lea	ecx, DWORD PTR $T70896[ebp]
	push	ecx
	call	??$?DM@detail@glm@@YA?AU?$tvec4@M@01@ABU201@ABM@Z ; glm::detail::operator*<float>
	add	esp, 12					; 0000000cH
	push	eax
	lea	edx, DWORD PTR $T70897[ebp]
	push	edx
	call	??$?HM@detail@glm@@YA?AU?$tvec4@M@01@ABU201@0@Z ; glm::detail::operator+<float>
	add	esp, 12					; 0000000cH
	push	eax
	lea	eax, DWORD PTR $T70898[ebp]
	push	eax
	call	??$?HM@detail@glm@@YA?AU?$tvec4@M@01@ABU201@0@Z ; glm::detail::operator+<float>
	add	esp, 12					; 0000000cH
	push	eax
	lea	ecx, DWORD PTR $T70899[ebp]
	push	ecx
	call	??$?HM@detail@glm@@YA?AU?$tvec4@M@01@ABU201@0@Z ; glm::detail::operator+<float>
	add	esp, 12					; 0000000cH
	push	eax
	push	2
	lea	ecx, DWORD PTR _Result$[ebp]
	call	??A?$tmat4x4@M@detail@glm@@QAEAAU?$tvec4@M@12@I@Z ; glm::detail::tmat4x4<float>::operator[]
	mov	ecx, eax
	call	??4?$tvec4@M@detail@glm@@QAEAAU012@ABU012@@Z ; glm::detail::tvec4<float>::operator=

; 777  : 		Result[3] = SrcA0 * SrcB3[0] + SrcA1 * SrcB3[1] + SrcA2 * SrcB3[2] + SrcA3 * SrcB3[3];

	push	3
	lea	ecx, DWORD PTR _SrcB3$[ebp]
	call	??A?$tvec4@M@detail@glm@@QBEABMI@Z	; glm::detail::tvec4<float>::operator[]
	push	eax
	lea	eax, DWORD PTR _SrcA3$[ebp]
	push	eax
	lea	ecx, DWORD PTR $T70900[ebp]
	push	ecx
	call	??$?DM@detail@glm@@YA?AU?$tvec4@M@01@ABU201@ABM@Z ; glm::detail::operator*<float>
	add	esp, 12					; 0000000cH
	push	eax
	push	2
	lea	ecx, DWORD PTR _SrcB3$[ebp]
	call	??A?$tvec4@M@detail@glm@@QBEABMI@Z	; glm::detail::tvec4<float>::operator[]
	push	eax
	lea	edx, DWORD PTR _SrcA2$[ebp]
	push	edx
	lea	eax, DWORD PTR $T70901[ebp]
	push	eax
	call	??$?DM@detail@glm@@YA?AU?$tvec4@M@01@ABU201@ABM@Z ; glm::detail::operator*<float>
	add	esp, 12					; 0000000cH
	push	eax
	push	1
	lea	ecx, DWORD PTR _SrcB3$[ebp]
	call	??A?$tvec4@M@detail@glm@@QBEABMI@Z	; glm::detail::tvec4<float>::operator[]
	push	eax
	lea	ecx, DWORD PTR _SrcA1$[ebp]
	push	ecx
	lea	edx, DWORD PTR $T70902[ebp]
	push	edx
	call	??$?DM@detail@glm@@YA?AU?$tvec4@M@01@ABU201@ABM@Z ; glm::detail::operator*<float>
	add	esp, 12					; 0000000cH
	push	eax
	push	0
	lea	ecx, DWORD PTR _SrcB3$[ebp]
	call	??A?$tvec4@M@detail@glm@@QBEABMI@Z	; glm::detail::tvec4<float>::operator[]
	push	eax
	lea	eax, DWORD PTR _SrcA0$[ebp]
	push	eax
	lea	ecx, DWORD PTR $T70903[ebp]
	push	ecx
	call	??$?DM@detail@glm@@YA?AU?$tvec4@M@01@ABU201@ABM@Z ; glm::detail::operator*<float>
	add	esp, 12					; 0000000cH
	push	eax
	lea	edx, DWORD PTR $T70904[ebp]
	push	edx
	call	??$?HM@detail@glm@@YA?AU?$tvec4@M@01@ABU201@0@Z ; glm::detail::operator+<float>
	add	esp, 12					; 0000000cH
	push	eax
	lea	eax, DWORD PTR $T70905[ebp]
	push	eax
	call	??$?HM@detail@glm@@YA?AU?$tvec4@M@01@ABU201@0@Z ; glm::detail::operator+<float>
	add	esp, 12					; 0000000cH
	push	eax
	lea	ecx, DWORD PTR $T70906[ebp]
	push	ecx
	call	??$?HM@detail@glm@@YA?AU?$tvec4@M@01@ABU201@0@Z ; glm::detail::operator+<float>
	add	esp, 12					; 0000000cH
	push	eax
	push	3
	lea	ecx, DWORD PTR _Result$[ebp]
	call	??A?$tmat4x4@M@detail@glm@@QAEAAU?$tvec4@M@12@I@Z ; glm::detail::tmat4x4<float>::operator[]
	mov	ecx, eax
	call	??4?$tvec4@M@detail@glm@@QAEAAU012@ABU012@@Z ; glm::detail::tvec4<float>::operator=

; 778  :         return Result;

	lea	eax, DWORD PTR _Result$[ebp]
	push	eax
	mov	ecx, DWORD PTR ___$ReturnUdt$[ebp]
	call	??0?$tmat4x4@M@detail@glm@@QAE@ABU012@@Z ; glm::detail::tmat4x4<float>::tmat4x4<float>
	mov	eax, DWORD PTR ___$ReturnUdt$[ebp]

; 779  :     }

	push	edx
	mov	ecx, ebp
	push	eax
	lea	edx, DWORD PTR $LN13@operator@2
	call	@_RTC_CheckStackVars@8
	pop	eax
	pop	edx
	pop	edi
	pop	esi
	pop	ebx
	mov	ecx, DWORD PTR __$ArrayPad$[ebp]
	xor	ecx, ebp
	call	@__security_check_cookie@4
	add	esp, 1132				; 0000046cH
	cmp	ebp, esp
	call	__RTC_CheckEsp
	mov	esp, ebp
	pop	ebp
	ret	0
	npad	1
$LN13@operator@2:
	DD	9
	DD	$LN12@operator@2
$LN12@operator@2:
	DD	-24					; ffffffe8H
	DD	16					; 00000010H
	DD	$LN3@operator@2
	DD	-48					; ffffffd0H
	DD	16					; 00000010H
	DD	$LN4@operator@2
	DD	-72					; ffffffb8H
	DD	16					; 00000010H
	DD	$LN5@operator@2
	DD	-96					; ffffffa0H
	DD	16					; 00000010H
	DD	$LN6@operator@2
	DD	-120					; ffffff88H
	DD	16					; 00000010H
	DD	$LN7@operator@2
	DD	-144					; ffffff70H
	DD	16					; 00000010H
	DD	$LN8@operator@2
	DD	-168					; ffffff58H
	DD	16					; 00000010H
	DD	$LN9@operator@2
	DD	-192					; ffffff40H
	DD	16					; 00000010H
	DD	$LN10@operator@2
	DD	-264					; fffffef8H
	DD	64					; 00000040H
	DD	$LN11@operator@2
$LN11@operator@2:
	DB	82					; 00000052H
	DB	101					; 00000065H
	DB	115					; 00000073H
	DB	117					; 00000075H
	DB	108					; 0000006cH
	DB	116					; 00000074H
	DB	0
$LN10@operator@2:
	DB	83					; 00000053H
	DB	114					; 00000072H
	DB	99					; 00000063H
	DB	66					; 00000042H
	DB	51					; 00000033H
	DB	0
$LN9@operator@2:
	DB	83					; 00000053H
	DB	114					; 00000072H
	DB	99					; 00000063H
	DB	66					; 00000042H
	DB	50					; 00000032H
	DB	0
$LN8@operator@2:
	DB	83					; 00000053H
	DB	114					; 00000072H
	DB	99					; 00000063H
	DB	66					; 00000042H
	DB	49					; 00000031H
	DB	0
$LN7@operator@2:
	DB	83					; 00000053H
	DB	114					; 00000072H
	DB	99					; 00000063H
	DB	66					; 00000042H
	DB	48					; 00000030H
	DB	0
$LN6@operator@2:
	DB	83					; 00000053H
	DB	114					; 00000072H
	DB	99					; 00000063H
	DB	65					; 00000041H
	DB	51					; 00000033H
	DB	0
$LN5@operator@2:
	DB	83					; 00000053H
	DB	114					; 00000072H
	DB	99					; 00000063H
	DB	65					; 00000041H
	DB	50					; 00000032H
	DB	0
$LN4@operator@2:
	DB	83					; 00000053H
	DB	114					; 00000072H
	DB	99					; 00000063H
	DB	65					; 00000041H
	DB	49					; 00000031H
	DB	0
$LN3@operator@2:
	DB	83					; 00000053H
	DB	114					; 00000072H
	DB	99					; 00000063H
	DB	65					; 00000041H
	DB	48					; 00000030H
	DB	0
??$?DM@detail@glm@@YA?AU?$tmat4x4@M@01@ABU201@0@Z ENDP	; glm::detail::operator*<float>
; Function compile flags: /Odtp /RTCsu /ZI
; File c:\opengl\glm-0.9.3.1\glm\core\type_vec4.inl
_TEXT	ENDS
;	COMDAT ??$?DM@detail@glm@@YA?AU?$tvec4@M@01@ABU201@ABM@Z
_TEXT	SEGMENT
$T70920 = -236						; size = 4
$T70921 = -224						; size = 4
$T70922 = -212						; size = 4
$T70923 = -200						; size = 4
___$ReturnUdt$ = 8					; size = 4
_v$ = 12						; size = 4
_s$ = 16						; size = 4
??$?DM@detail@glm@@YA?AU?$tvec4@M@01@ABU201@ABM@Z PROC	; glm::detail::operator*<float>, COMDAT

; 892  : 	{

	push	ebp
	mov	ebp, esp
	sub	esp, 240				; 000000f0H
	push	ebx
	push	esi
	push	edi
	lea	edi, DWORD PTR [ebp-240]
	mov	ecx, 60					; 0000003cH
	mov	eax, -858993460				; ccccccccH
	rep stosd

; 893  : 		return tvec4<T>(
; 894  : 			v.x * s,
; 895  : 			v.y * s,
; 896  : 			v.z * s,
; 897  : 			v.w * s);

	mov	eax, DWORD PTR _v$[ebp]
	fld	DWORD PTR [eax+12]
	mov	ecx, DWORD PTR _s$[ebp]
	fmul	DWORD PTR [ecx]
	fstp	DWORD PTR $T70920[ebp]
	mov	edx, DWORD PTR _v$[ebp]
	fld	DWORD PTR [edx+8]
	mov	eax, DWORD PTR _s$[ebp]
	fmul	DWORD PTR [eax]
	fstp	DWORD PTR $T70921[ebp]
	mov	ecx, DWORD PTR _v$[ebp]
	fld	DWORD PTR [ecx+4]
	mov	edx, DWORD PTR _s$[ebp]
	fmul	DWORD PTR [edx]
	fstp	DWORD PTR $T70922[ebp]
	mov	eax, DWORD PTR _v$[ebp]
	fld	DWORD PTR [eax]
	mov	ecx, DWORD PTR _s$[ebp]
	fmul	DWORD PTR [ecx]
	fstp	DWORD PTR $T70923[ebp]
	lea	edx, DWORD PTR $T70920[ebp]
	push	edx
	lea	eax, DWORD PTR $T70921[ebp]
	push	eax
	lea	ecx, DWORD PTR $T70922[ebp]
	push	ecx
	lea	edx, DWORD PTR $T70923[ebp]
	push	edx
	mov	ecx, DWORD PTR ___$ReturnUdt$[ebp]
	call	??0?$tvec4@M@detail@glm@@QAE@ABM000@Z	; glm::detail::tvec4<float>::tvec4<float>
	mov	eax, DWORD PTR ___$ReturnUdt$[ebp]

; 898  : 	}

	pop	edi
	pop	esi
	pop	ebx
	add	esp, 240				; 000000f0H
	cmp	ebp, esp
	call	__RTC_CheckEsp
	mov	esp, ebp
	pop	ebp
	ret	0
??$?DM@detail@glm@@YA?AU?$tvec4@M@01@ABU201@ABM@Z ENDP	; glm::detail::operator*<float>
; Function compile flags: /Odtp /RTCsu /ZI
; File c:\opengl\glm-0.9.3.1\glm\core\type_vec3.inl
_TEXT	ENDS
;	COMDAT ??$?0NMN@?$tvec3@M@detail@glm@@QAE@ABNABM0@Z
_TEXT	SEGMENT
_this$ = -8						; size = 4
_x$ = 8							; size = 4
_y$ = 12						; size = 4
_z$ = 16						; size = 4
??$?0NMN@?$tvec3@M@detail@glm@@QAE@ABNABM0@Z PROC	; glm::detail::tvec3<float>::tvec3<float><double,float,double>, COMDAT
; _this$ = ecx

; 177  : 	{}

	push	ebp
	mov	ebp, esp
	sub	esp, 204				; 000000ccH
	push	ebx
	push	esi
	push	edi
	push	ecx
	lea	edi, DWORD PTR [ebp-204]
	mov	ecx, 51					; 00000033H
	mov	eax, -858993460				; ccccccccH
	rep stosd
	pop	ecx
	mov	DWORD PTR _this$[ebp], ecx
	mov	eax, DWORD PTR _x$[ebp]
	fld	QWORD PTR [eax]
	mov	ecx, DWORD PTR _this$[ebp]
	fstp	DWORD PTR [ecx]
	mov	eax, DWORD PTR _this$[ebp]
	mov	ecx, DWORD PTR _y$[ebp]
	fld	DWORD PTR [ecx]
	fstp	DWORD PTR [eax+4]
	mov	eax, DWORD PTR _z$[ebp]
	fld	QWORD PTR [eax]
	mov	ecx, DWORD PTR _this$[ebp]
	fstp	DWORD PTR [ecx+8]
	mov	eax, DWORD PTR _this$[ebp]
	pop	edi
	pop	esi
	pop	ebx
	mov	esp, ebp
	pop	ebp
	ret	12					; 0000000cH
??$?0NMN@?$tvec3@M@detail@glm@@QAE@ABNABM0@Z ENDP	; glm::detail::tvec3<float>::tvec3<float><double,float,double>
; Function compile flags: /Odtp /RTCsu /ZI
_TEXT	ENDS
;	COMDAT ??$?0M@?$tvec3@M@detail@glm@@QAE@ABU?$tvec4@M@12@@Z
_TEXT	SEGMENT
_this$ = -8						; size = 4
_v$ = 8							; size = 4
??$?0M@?$tvec3@M@detail@glm@@QAE@ABU?$tvec4@M@12@@Z PROC ; glm::detail::tvec3<float>::tvec3<float><float>, COMDAT
; _this$ = ecx

; 226  : 	{}

	push	ebp
	mov	ebp, esp
	sub	esp, 204				; 000000ccH
	push	ebx
	push	esi
	push	edi
	push	ecx
	lea	edi, DWORD PTR [ebp-204]
	mov	ecx, 51					; 00000033H
	mov	eax, -858993460				; ccccccccH
	rep stosd
	pop	ecx
	mov	DWORD PTR _this$[ebp], ecx
	mov	eax, DWORD PTR _this$[ebp]
	mov	ecx, DWORD PTR _v$[ebp]
	fld	DWORD PTR [ecx]
	fstp	DWORD PTR [eax]
	mov	eax, DWORD PTR _this$[ebp]
	mov	ecx, DWORD PTR _v$[ebp]
	fld	DWORD PTR [ecx+4]
	fstp	DWORD PTR [eax+4]
	mov	eax, DWORD PTR _this$[ebp]
	mov	ecx, DWORD PTR _v$[ebp]
	fld	DWORD PTR [ecx+8]
	fstp	DWORD PTR [eax+8]
	mov	eax, DWORD PTR _this$[ebp]
	pop	edi
	pop	esi
	pop	ebx
	mov	esp, ebp
	pop	ebp
	ret	4
??$?0M@?$tvec3@M@detail@glm@@QAE@ABU?$tvec4@M@12@@Z ENDP ; glm::detail::tvec3<float>::tvec3<float><float>
; Function compile flags: /Odtp /RTCsu /ZI
; File c:\program files (x86)\microsoft visual studio 10.0\vc\include\xmemory
_TEXT	ENDS
;	COMDAT ??$?0D@?$allocator@U_Container_proxy@std@@@std@@QAE@ABV?$allocator@D@1@@Z
_TEXT	SEGMENT
_this$ = -8						; size = 4
___formal$ = 8						; size = 4
??$?0D@?$allocator@U_Container_proxy@std@@@std@@QAE@ABV?$allocator@D@1@@Z PROC ; std::allocator<std::_Container_proxy>::allocator<std::_Container_proxy><char>, COMDAT
; _this$ = ecx

; 170  : 		_ALLOCATOR(const _ALLOCATOR<_Other>&) _THROW0()

	push	ebp
	mov	ebp, esp
	sub	esp, 204				; 000000ccH
	push	ebx
	push	esi
	push	edi
	push	ecx
	lea	edi, DWORD PTR [ebp-204]
	mov	ecx, 51					; 00000033H
	mov	eax, -858993460				; ccccccccH
	rep stosd
	pop	ecx
	mov	DWORD PTR _this$[ebp], ecx

; 171  : 		{	// construct from a related allocator (do nothing)
; 172  : 		}

	mov	eax, DWORD PTR _this$[ebp]
	pop	edi
	pop	esi
	pop	ebx
	mov	esp, ebp
	pop	ebp
	ret	4
??$?0D@?$allocator@U_Container_proxy@std@@@std@@QAE@ABV?$allocator@D@1@@Z ENDP ; std::allocator<std::_Container_proxy>::allocator<std::_Container_proxy><char>
_TEXT	ENDS
PUBLIC	?destroy@?$allocator@U_Container_proxy@std@@@std@@QAEXPAU_Container_proxy@2@@Z ; std::allocator<std::_Container_proxy>::destroy
; Function compile flags: /Odtp /RTCsu /ZI
;	COMDAT ??$_Dest_val@V?$allocator@U_Container_proxy@std@@@std@@U_Container_proxy@2@@std@@YAXAAV?$allocator@U_Container_proxy@std@@@0@PAU_Container_proxy@0@@Z
_TEXT	SEGMENT
__Alval$ = 8						; size = 4
__Pdest$ = 12						; size = 4
??$_Dest_val@V?$allocator@U_Container_proxy@std@@@std@@U_Container_proxy@2@@std@@YAXAAV?$allocator@U_Container_proxy@std@@@0@PAU_Container_proxy@0@@Z PROC ; std::_Dest_val<std::allocator<std::_Container_proxy>,std::_Container_proxy>, COMDAT

; 286  : 	{	// destroy using allocator

	push	ebp
	mov	ebp, esp
	sub	esp, 192				; 000000c0H
	push	ebx
	push	esi
	push	edi
	lea	edi, DWORD PTR [ebp-192]
	mov	ecx, 48					; 00000030H
	mov	eax, -858993460				; ccccccccH
	rep stosd

; 287  : 	_Alval.destroy(_Pdest);

	mov	eax, DWORD PTR __Pdest$[ebp]
	push	eax
	mov	ecx, DWORD PTR __Alval$[ebp]
	call	?destroy@?$allocator@U_Container_proxy@std@@@std@@QAEXPAU_Container_proxy@2@@Z ; std::allocator<std::_Container_proxy>::destroy

; 288  : 	}

	pop	edi
	pop	esi
	pop	ebx
	add	esp, 192				; 000000c0H
	cmp	ebp, esp
	call	__RTC_CheckEsp
	mov	esp, ebp
	pop	ebp
	ret	0
??$_Dest_val@V?$allocator@U_Container_proxy@std@@@std@@U_Container_proxy@2@@std@@YAXAAV?$allocator@U_Container_proxy@std@@@0@PAU_Container_proxy@0@@Z ENDP ; std::_Dest_val<std::allocator<std::_Container_proxy>,std::_Container_proxy>
; Function compile flags: /Odtp /RTCsu /ZI
_TEXT	ENDS
;	COMDAT ??_H@YGXPAXIHP6EPAX0@Z@Z
_TEXT	SEGMENT
___t$ = 8						; size = 4
___s$ = 12						; size = 4
___n$ = 16						; size = 4
___f$ = 20						; size = 4
??_H@YGXPAXIHP6EPAX0@Z@Z PROC				; `vector constructor iterator', COMDAT
	push	ebp
	mov	ebp, esp
	sub	esp, 192				; 000000c0H
	push	ebx
	push	esi
	push	edi
	lea	edi, DWORD PTR [ebp-192]
	mov	ecx, 48					; 00000030H
	mov	eax, -858993460				; ccccccccH
	rep stosd
$LN2@vector:
	mov	eax, DWORD PTR ___n$[ebp]
	sub	eax, 1
	mov	DWORD PTR ___n$[ebp], eax
	js	SHORT $LN3@vector
	mov	esi, esp
	mov	ecx, DWORD PTR ___t$[ebp]
	call	DWORD PTR ___f$[ebp]
	cmp	esi, esp
	call	__RTC_CheckEsp
	mov	eax, DWORD PTR ___t$[ebp]
	add	eax, DWORD PTR ___s$[ebp]
	mov	DWORD PTR ___t$[ebp], eax
	jmp	SHORT $LN2@vector
$LN3@vector:
	pop	edi
	pop	esi
	pop	ebx
	add	esp, 192				; 000000c0H
	cmp	ebp, esp
	call	__RTC_CheckEsp
	mov	esp, ebp
	pop	ebp
	ret	16					; 00000010H
??_H@YGXPAXIHP6EPAX0@Z@Z ENDP				; `vector constructor iterator'
_TEXT	ENDS
PUBLIC	??$_Destroy@U_Container_proxy@std@@@std@@YAXPAU_Container_proxy@0@@Z ; std::_Destroy<std::_Container_proxy>
; Function compile flags: /Odtp /RTCsu /ZI
;	COMDAT ?destroy@?$allocator@U_Container_proxy@std@@@std@@QAEXPAU_Container_proxy@2@@Z
_TEXT	SEGMENT
_this$ = -8						; size = 4
__Ptr$ = 8						; size = 4
?destroy@?$allocator@U_Container_proxy@std@@@std@@QAEXPAU_Container_proxy@2@@Z PROC ; std::allocator<std::_Container_proxy>::destroy, COMDAT
; _this$ = ecx

; 212  : 		{	// destroy object at _Ptr

	push	ebp
	mov	ebp, esp
	sub	esp, 204				; 000000ccH
	push	ebx
	push	esi
	push	edi
	push	ecx
	lea	edi, DWORD PTR [ebp-204]
	mov	ecx, 51					; 00000033H
	mov	eax, -858993460				; ccccccccH
	rep stosd
	pop	ecx
	mov	DWORD PTR _this$[ebp], ecx

; 213  : 		_Destroy(_Ptr);

	mov	eax, DWORD PTR __Ptr$[ebp]
	push	eax
	call	??$_Destroy@U_Container_proxy@std@@@std@@YAXPAU_Container_proxy@0@@Z ; std::_Destroy<std::_Container_proxy>
	add	esp, 4

; 214  : 		}

	pop	edi
	pop	esi
	pop	ebx
	add	esp, 204				; 000000ccH
	cmp	ebp, esp
	call	__RTC_CheckEsp
	mov	esp, ebp
	pop	ebp
	ret	4
?destroy@?$allocator@U_Container_proxy@std@@@std@@QAEXPAU_Container_proxy@2@@Z ENDP ; std::allocator<std::_Container_proxy>::destroy
; Function compile flags: /Odtp /RTCsu /ZI
; File c:\opengl\glm-0.9.3.1\glm\core\type_vec3.inl
_TEXT	ENDS
;	COMDAT ??0?$tvec3@M@detail@glm@@QAE@XZ
_TEXT	SEGMENT
_this$ = -8						; size = 4
??0?$tvec3@M@detail@glm@@QAE@XZ PROC			; glm::detail::tvec3<float>::tvec3<float>, COMDAT
; _this$ = ecx

; 71   : 	{}

	push	ebp
	mov	ebp, esp
	sub	esp, 204				; 000000ccH
	push	ebx
	push	esi
	push	edi
	push	ecx
	lea	edi, DWORD PTR [ebp-204]
	mov	ecx, 51					; 00000033H
	mov	eax, -858993460				; ccccccccH
	rep stosd
	pop	ecx
	mov	DWORD PTR _this$[ebp], ecx
	mov	eax, DWORD PTR _this$[ebp]
	fldz
	fstp	DWORD PTR [eax]
	mov	eax, DWORD PTR _this$[ebp]
	fldz
	fstp	DWORD PTR [eax+4]
	mov	eax, DWORD PTR _this$[ebp]
	fldz
	fstp	DWORD PTR [eax+8]
	mov	eax, DWORD PTR _this$[ebp]
	pop	edi
	pop	esi
	pop	ebx
	mov	esp, ebp
	pop	ebp
	ret	0
??0?$tvec3@M@detail@glm@@QAE@XZ ENDP			; glm::detail::tvec3<float>::tvec3<float>
_TEXT	ENDS
PUBLIC	??_C@_1FK@PFPGOKFD@?$AAc?$AA?3?$AA?2?$AAo?$AAp?$AAe?$AAn?$AAg?$AAl?$AA?2?$AAg?$AAl?$AAm?$AA?9?$AA0?$AA?4?$AA9?$AA?4?$AA3?$AA?4?$AA1?$AA?2?$AAg?$AAl?$AAm?$AA?2?$AAc?$AAo?$AAr?$AAe?$AA?2?$AAt@ ; `string'
PUBLIC	?length@?$tvec4@M@detail@glm@@QBEIXZ		; glm::detail::tvec4<float>::length
;	COMDAT ??_C@_1FK@PFPGOKFD@?$AAc?$AA?3?$AA?2?$AAo?$AAp?$AAe?$AAn?$AAg?$AAl?$AA?2?$AAg?$AAl?$AAm?$AA?9?$AA0?$AA?4?$AA9?$AA?4?$AA3?$AA?4?$AA1?$AA?2?$AAg?$AAl?$AAm?$AA?2?$AAc?$AAo?$AAr?$AAe?$AA?2?$AAt@
; File c:\opengl\glm-0.9.3.1\glm\core\type_vec4.inl
CONST	SEGMENT
??_C@_1FK@PFPGOKFD@?$AAc?$AA?3?$AA?2?$AAo?$AAp?$AAe?$AAn?$AAg?$AAl?$AA?2?$AAg?$AAl?$AAm?$AA?9?$AA0?$AA?4?$AA9?$AA?4?$AA3?$AA?4?$AA1?$AA?2?$AAg?$AAl?$AAm?$AA?2?$AAc?$AAo?$AAr?$AAe?$AA?2?$AAt@ DB 'c'
	DB	00H, ':', 00H, '\', 00H, 'o', 00H, 'p', 00H, 'e', 00H, 'n', 00H
	DB	'g', 00H, 'l', 00H, '\', 00H, 'g', 00H, 'l', 00H, 'm', 00H, '-'
	DB	00H, '0', 00H, '.', 00H, '9', 00H, '.', 00H, '3', 00H, '.', 00H
	DB	'1', 00H, '\', 00H, 'g', 00H, 'l', 00H, 'm', 00H, '\', 00H, 'c'
	DB	00H, 'o', 00H, 'r', 00H, 'e', 00H, '\', 00H, 't', 00H, 'y', 00H
	DB	'p', 00H, 'e', 00H, '_', 00H, 'v', 00H, 'e', 00H, 'c', 00H, '4'
	DB	00H, '.', 00H, 'i', 00H, 'n', 00H, 'l', 00H, 00H, 00H ; `string'
; Function compile flags: /Odtp /RTCsu /ZI
CONST	ENDS
;	COMDAT ??A?$tvec4@M@detail@glm@@QBEABMI@Z
_TEXT	SEGMENT
_this$ = -8						; size = 4
_i$ = 8							; size = 4
??A?$tvec4@M@detail@glm@@QBEABMI@Z PROC			; glm::detail::tvec4<float>::operator[], COMDAT
; _this$ = ecx

; 58   : 	{

	push	ebp
	mov	ebp, esp
	sub	esp, 204				; 000000ccH
	push	ebx
	push	esi
	push	edi
	push	ecx
	lea	edi, DWORD PTR [ebp-204]
	mov	ecx, 51					; 00000033H
	mov	eax, -858993460				; ccccccccH
	rep stosd
	pop	ecx
	mov	DWORD PTR _this$[ebp], ecx

; 59   : 		assert(i < this->length());

	mov	ecx, DWORD PTR _this$[ebp]
	call	?length@?$tvec4@M@detail@glm@@QBEIXZ	; glm::detail::tvec4<float>::length
	cmp	DWORD PTR _i$[ebp], eax
	jb	SHORT $LN3@operator@3
	mov	esi, esp
	push	59					; 0000003bH
	push	OFFSET ??_C@_1FK@PFPGOKFD@?$AAc?$AA?3?$AA?2?$AAo?$AAp?$AAe?$AAn?$AAg?$AAl?$AA?2?$AAg?$AAl?$AAm?$AA?9?$AA0?$AA?4?$AA9?$AA?4?$AA3?$AA?4?$AA1?$AA?2?$AAg?$AAl?$AAm?$AA?2?$AAc?$AAo?$AAr?$AAe?$AA?2?$AAt@
	push	OFFSET ??_C@_1CG@KOFHLCJL@?$AAi?$AA?5?$AA?$DM?$AA?5?$AAt?$AAh?$AAi?$AAs?$AA?9?$AA?$DO?$AAl?$AAe?$AAn?$AAg?$AAt?$AAh?$AA?$CI?$AA?$CJ?$AA?$AA@
	call	DWORD PTR __imp___wassert
	add	esp, 12					; 0000000cH
	cmp	esi, esp
	call	__RTC_CheckEsp
$LN3@operator@3:

; 60   : 		return (&x)[i];

	mov	eax, DWORD PTR _i$[ebp]
	mov	ecx, DWORD PTR _this$[ebp]
	lea	eax, DWORD PTR [ecx+eax*4]

; 61   : 	}

	pop	edi
	pop	esi
	pop	ebx
	add	esp, 204				; 000000ccH
	cmp	ebp, esp
	call	__RTC_CheckEsp
	mov	esp, ebp
	pop	ebp
	ret	4
??A?$tvec4@M@detail@glm@@QBEABMI@Z ENDP			; glm::detail::tvec4<float>::operator[]
; Function compile flags: /Odtp /RTCsu /ZI
_TEXT	ENDS
;	COMDAT ??0?$tvec4@M@detail@glm@@QAE@ABU012@@Z
_TEXT	SEGMENT
_this$ = -8						; size = 4
_v$ = 8							; size = 4
??0?$tvec4@M@detail@glm@@QAE@ABU012@@Z PROC		; glm::detail::tvec4<float>::tvec4<float>, COMDAT
; _this$ = ecx

; 90   : 	{}

	push	ebp
	mov	ebp, esp
	sub	esp, 204				; 000000ccH
	push	ebx
	push	esi
	push	edi
	push	ecx
	lea	edi, DWORD PTR [ebp-204]
	mov	ecx, 51					; 00000033H
	mov	eax, -858993460				; ccccccccH
	rep stosd
	pop	ecx
	mov	DWORD PTR _this$[ebp], ecx
	mov	eax, DWORD PTR _this$[ebp]
	mov	ecx, DWORD PTR _v$[ebp]
	fld	DWORD PTR [ecx]
	fstp	DWORD PTR [eax]
	mov	eax, DWORD PTR _this$[ebp]
	mov	ecx, DWORD PTR _v$[ebp]
	fld	DWORD PTR [ecx+4]
	fstp	DWORD PTR [eax+4]
	mov	eax, DWORD PTR _this$[ebp]
	mov	ecx, DWORD PTR _v$[ebp]
	fld	DWORD PTR [ecx+8]
	fstp	DWORD PTR [eax+8]
	mov	eax, DWORD PTR _this$[ebp]
	mov	ecx, DWORD PTR _v$[ebp]
	fld	DWORD PTR [ecx+12]
	fstp	DWORD PTR [eax+12]
	mov	eax, DWORD PTR _this$[ebp]
	pop	edi
	pop	esi
	pop	ebx
	mov	esp, ebp
	pop	ebp
	ret	4
??0?$tvec4@M@detail@glm@@QAE@ABU012@@Z ENDP		; glm::detail::tvec4<float>::tvec4<float>
; Function compile flags: /Odtp /RTCsu /ZI
_TEXT	ENDS
;	COMDAT ??0?$tvec4@M@detail@glm@@QAE@XZ
_TEXT	SEGMENT
_this$ = -8						; size = 4
??0?$tvec4@M@detail@glm@@QAE@XZ PROC			; glm::detail::tvec4<float>::tvec4<float>, COMDAT
; _this$ = ecx

; 72   : 	{}

	push	ebp
	mov	ebp, esp
	sub	esp, 204				; 000000ccH
	push	ebx
	push	esi
	push	edi
	push	ecx
	lea	edi, DWORD PTR [ebp-204]
	mov	ecx, 51					; 00000033H
	mov	eax, -858993460				; ccccccccH
	rep stosd
	pop	ecx
	mov	DWORD PTR _this$[ebp], ecx
	mov	eax, DWORD PTR _this$[ebp]
	fldz
	fstp	DWORD PTR [eax]
	mov	eax, DWORD PTR _this$[ebp]
	fldz
	fstp	DWORD PTR [eax+4]
	mov	eax, DWORD PTR _this$[ebp]
	fldz
	fstp	DWORD PTR [eax+8]
	mov	eax, DWORD PTR _this$[ebp]
	fldz
	fstp	DWORD PTR [eax+12]
	mov	eax, DWORD PTR _this$[ebp]
	pop	edi
	pop	esi
	pop	ebx
	mov	esp, ebp
	pop	ebp
	ret	0
??0?$tvec4@M@detail@glm@@QAE@XZ ENDP			; glm::detail::tvec4<float>::tvec4<float>
; Function compile flags: /Odtp /RTCsu /ZI
_TEXT	ENDS
;	COMDAT ??4?$tvec4@M@detail@glm@@QAEAAU012@ABU012@@Z
_TEXT	SEGMENT
_this$ = -8						; size = 4
_v$ = 8							; size = 4
??4?$tvec4@M@detail@glm@@QAEAAU012@ABU012@@Z PROC	; glm::detail::tvec4<float>::operator=, COMDAT
; _this$ = ecx

; 375  : 	{

	push	ebp
	mov	ebp, esp
	sub	esp, 204				; 000000ccH
	push	ebx
	push	esi
	push	edi
	push	ecx
	lea	edi, DWORD PTR [ebp-204]
	mov	ecx, 51					; 00000033H
	mov	eax, -858993460				; ccccccccH
	rep stosd
	pop	ecx
	mov	DWORD PTR _this$[ebp], ecx

; 376  : 		this->x = v.x;

	mov	eax, DWORD PTR _this$[ebp]
	mov	ecx, DWORD PTR _v$[ebp]
	fld	DWORD PTR [ecx]
	fstp	DWORD PTR [eax]

; 377  : 		this->y = v.y;

	mov	eax, DWORD PTR _this$[ebp]
	mov	ecx, DWORD PTR _v$[ebp]
	fld	DWORD PTR [ecx+4]
	fstp	DWORD PTR [eax+4]

; 378  : 		this->z = v.z;

	mov	eax, DWORD PTR _this$[ebp]
	mov	ecx, DWORD PTR _v$[ebp]
	fld	DWORD PTR [ecx+8]
	fstp	DWORD PTR [eax+8]

; 379  : 		this->w = v.w;

	mov	eax, DWORD PTR _this$[ebp]
	mov	ecx, DWORD PTR _v$[ebp]
	fld	DWORD PTR [ecx+12]
	fstp	DWORD PTR [eax+12]

; 380  : 		return *this;

	mov	eax, DWORD PTR _this$[ebp]

; 381  : 	}

	pop	edi
	pop	esi
	pop	ebx
	mov	esp, ebp
	pop	ebp
	ret	4
??4?$tvec4@M@detail@glm@@QAEAAU012@ABU012@@Z ENDP	; glm::detail::tvec4<float>::operator=
; Function compile flags: /Odtp /RTCsu /ZI
; File c:\opengl\glm-0.9.3.1\glm\core\type_mat4x4.inl
_TEXT	ENDS
;	COMDAT ?length@?$tmat4x4@M@detail@glm@@QBEIXZ
_TEXT	SEGMENT
_this$ = -8						; size = 4
?length@?$tmat4x4@M@detail@glm@@QBEIXZ PROC		; glm::detail::tmat4x4<float>::length, COMDAT
; _this$ = ecx

; 34   :     {

	push	ebp
	mov	ebp, esp
	sub	esp, 204				; 000000ccH
	push	ebx
	push	esi
	push	edi
	push	ecx
	lea	edi, DWORD PTR [ebp-204]
	mov	ecx, 51					; 00000033H
	mov	eax, -858993460				; ccccccccH
	rep stosd
	pop	ecx
	mov	DWORD PTR _this$[ebp], ecx

; 35   :         return 4;

	mov	eax, 4

; 36   :     }

	pop	edi
	pop	esi
	pop	ebx
	mov	esp, ebp
	pop	ebp
	ret	0
?length@?$tmat4x4@M@detail@glm@@QBEIXZ ENDP		; glm::detail::tmat4x4<float>::length
; Function compile flags: /Odtp /RTCsu /ZI
_TEXT	ENDS
;	COMDAT ??0?$tmat4x4@M@detail@glm@@QAE@W4ctor@012@@Z
_TEXT	SEGMENT
_this$ = -8						; size = 4
___formal$ = 8						; size = 4
??0?$tmat4x4@M@detail@glm@@QAE@W4ctor@012@@Z PROC	; glm::detail::tmat4x4<float>::tmat4x4<float>, COMDAT
; _this$ = ecx

; 106  :     {}

	push	ebp
	mov	ebp, esp
	sub	esp, 204				; 000000ccH
	push	ebx
	push	esi
	push	edi
	push	ecx
	lea	edi, DWORD PTR [ebp-204]
	mov	ecx, 51					; 00000033H
	mov	eax, -858993460				; ccccccccH
	rep stosd
	pop	ecx
	mov	DWORD PTR _this$[ebp], ecx
	push	OFFSET ??0?$tvec4@M@detail@glm@@QAE@XZ	; glm::detail::tvec4<float>::tvec4<float>
	push	4
	push	16					; 00000010H
	mov	eax, DWORD PTR _this$[ebp]
	push	eax
	call	??_H@YGXPAXIHP6EPAX0@Z@Z
	mov	eax, DWORD PTR _this$[ebp]
	pop	edi
	pop	esi
	pop	ebx
	add	esp, 204				; 000000ccH
	cmp	ebp, esp
	call	__RTC_CheckEsp
	mov	esp, ebp
	pop	ebp
	ret	4
??0?$tmat4x4@M@detail@glm@@QAE@W4ctor@012@@Z ENDP	; glm::detail::tmat4x4<float>::tmat4x4<float>
; Function compile flags: /Odtp /RTCsu /ZI
_TEXT	ENDS
;	COMDAT ??A?$tmat4x4@M@detail@glm@@QBEABU?$tvec4@M@12@I@Z
_TEXT	SEGMENT
_this$ = -8						; size = 4
_i$ = 8							; size = 4
??A?$tmat4x4@M@detail@glm@@QBEABU?$tvec4@M@12@I@Z PROC	; glm::detail::tmat4x4<float>::operator[], COMDAT
; _this$ = ecx

; 70   : 	{

	push	ebp
	mov	ebp, esp
	sub	esp, 204				; 000000ccH
	push	ebx
	push	esi
	push	edi
	push	ecx
	lea	edi, DWORD PTR [ebp-204]
	mov	ecx, 51					; 00000033H
	mov	eax, -858993460				; ccccccccH
	rep stosd
	pop	ecx
	mov	DWORD PTR _this$[ebp], ecx

; 71   : 		assert(i < this->length());

	mov	ecx, DWORD PTR _this$[ebp]
	call	?length@?$tmat4x4@M@detail@glm@@QBEIXZ	; glm::detail::tmat4x4<float>::length
	cmp	DWORD PTR _i$[ebp], eax
	jb	SHORT $LN3@operator@4
	mov	esi, esp
	push	71					; 00000047H
	push	OFFSET ??_C@_1FO@LCBJDNCK@?$AAc?$AA?3?$AA?2?$AAo?$AAp?$AAe?$AAn?$AAg?$AAl?$AA?2?$AAg?$AAl?$AAm?$AA?9?$AA0?$AA?4?$AA9?$AA?4?$AA3?$AA?4?$AA1?$AA?2?$AAg?$AAl?$AAm?$AA?2?$AAc?$AAo?$AAr?$AAe?$AA?2?$AAt@
	push	OFFSET ??_C@_1CG@KOFHLCJL@?$AAi?$AA?5?$AA?$DM?$AA?5?$AAt?$AAh?$AAi?$AAs?$AA?9?$AA?$DO?$AAl?$AAe?$AAn?$AAg?$AAt?$AAh?$AA?$CI?$AA?$CJ?$AA?$AA@
	call	DWORD PTR __imp___wassert
	add	esp, 12					; 0000000cH
	cmp	esi, esp
	call	__RTC_CheckEsp
$LN3@operator@4:

; 72   : 		return this->value[i];

	mov	eax, DWORD PTR _i$[ebp]
	shl	eax, 4
	add	eax, DWORD PTR _this$[ebp]

; 73   : 	}

	pop	edi
	pop	esi
	pop	ebx
	add	esp, 204				; 000000ccH
	cmp	ebp, esp
	call	__RTC_CheckEsp
	mov	esp, ebp
	pop	ebp
	ret	4
??A?$tmat4x4@M@detail@glm@@QBEABU?$tvec4@M@12@I@Z ENDP	; glm::detail::tmat4x4<float>::operator[]
; Function compile flags: /Odtp /RTCsu /ZI
; File c:\opengl\glm-0.9.3.1\glm\core\type_vec4.inl
_TEXT	ENDS
;	COMDAT ??$?HM@detail@glm@@YA?AU?$tvec4@M@01@ABU201@0@Z
_TEXT	SEGMENT
$T70956 = -236						; size = 4
$T70957 = -224						; size = 4
$T70958 = -212						; size = 4
$T70959 = -200						; size = 4
___$ReturnUdt$ = 8					; size = 4
_v1$ = 12						; size = 4
_v2$ = 16						; size = 4
??$?HM@detail@glm@@YA?AU?$tvec4@M@01@ABU201@0@Z PROC	; glm::detail::operator+<float>, COMDAT

; 834  : 	{

	push	ebp
	mov	ebp, esp
	sub	esp, 240				; 000000f0H
	push	ebx
	push	esi
	push	edi
	lea	edi, DWORD PTR [ebp-240]
	mov	ecx, 60					; 0000003cH
	mov	eax, -858993460				; ccccccccH
	rep stosd

; 835  : 		return tvec4<T>(
; 836  : 			v1.x + v2.x,
; 837  : 			v1.y + v2.y,
; 838  : 			v1.z + v2.z,
; 839  : 			v1.w + v2.w);

	mov	eax, DWORD PTR _v1$[ebp]
	fld	DWORD PTR [eax+12]
	mov	ecx, DWORD PTR _v2$[ebp]
	fadd	DWORD PTR [ecx+12]
	fstp	DWORD PTR $T70956[ebp]
	mov	edx, DWORD PTR _v1$[ebp]
	fld	DWORD PTR [edx+8]
	mov	eax, DWORD PTR _v2$[ebp]
	fadd	DWORD PTR [eax+8]
	fstp	DWORD PTR $T70957[ebp]
	mov	ecx, DWORD PTR _v1$[ebp]
	fld	DWORD PTR [ecx+4]
	mov	edx, DWORD PTR _v2$[ebp]
	fadd	DWORD PTR [edx+4]
	fstp	DWORD PTR $T70958[ebp]
	mov	eax, DWORD PTR _v1$[ebp]
	fld	DWORD PTR [eax]
	mov	ecx, DWORD PTR _v2$[ebp]
	fadd	DWORD PTR [ecx]
	fstp	DWORD PTR $T70959[ebp]
	lea	edx, DWORD PTR $T70956[ebp]
	push	edx
	lea	eax, DWORD PTR $T70957[ebp]
	push	eax
	lea	ecx, DWORD PTR $T70958[ebp]
	push	ecx
	lea	edx, DWORD PTR $T70959[ebp]
	push	edx
	mov	ecx, DWORD PTR ___$ReturnUdt$[ebp]
	call	??0?$tvec4@M@detail@glm@@QAE@ABM000@Z	; glm::detail::tvec4<float>::tvec4<float>
	mov	eax, DWORD PTR ___$ReturnUdt$[ebp]

; 840  : 	}

	pop	edi
	pop	esi
	pop	ebx
	add	esp, 240				; 000000f0H
	cmp	ebp, esp
	call	__RTC_CheckEsp
	mov	esp, ebp
	pop	ebp
	ret	0
??$?HM@detail@glm@@YA?AU?$tvec4@M@01@ABU201@0@Z ENDP	; glm::detail::operator+<float>
; Function compile flags: /Odtp /RTCsu /ZI
; File c:\program files (x86)\microsoft visual studio 10.0\vc\include\xmemory
_TEXT	ENDS
;	COMDAT ??$_Destroy@U_Container_proxy@std@@@std@@YAXPAU_Container_proxy@0@@Z
_TEXT	SEGMENT
__Ptr$ = 8						; size = 4
??$_Destroy@U_Container_proxy@std@@@std@@YAXPAU_Container_proxy@0@@Z PROC ; std::_Destroy<std::_Container_proxy>, COMDAT

; 62   : 	{	// destroy object at _Ptr

	push	ebp
	mov	ebp, esp
	sub	esp, 192				; 000000c0H
	push	ebx
	push	esi
	push	edi
	lea	edi, DWORD PTR [ebp-192]
	mov	ecx, 48					; 00000030H
	mov	eax, -858993460				; ccccccccH
	rep stosd

; 63   : 	_Ptr->~_Ty();
; 64   : 	}

	pop	edi
	pop	esi
	pop	ebx
	mov	esp, ebp
	pop	ebp
	ret	0
??$_Destroy@U_Container_proxy@std@@@std@@YAXPAU_Container_proxy@0@@Z ENDP ; std::_Destroy<std::_Container_proxy>
; Function compile flags: /Odtp /RTCsu /ZI
; File c:\opengl\glm-0.9.3.1\glm\core\type_vec4.inl
_TEXT	ENDS
;	COMDAT ?length@?$tvec4@M@detail@glm@@QBEIXZ
_TEXT	SEGMENT
_this$ = -8						; size = 4
?length@?$tvec4@M@detail@glm@@QBEIXZ PROC		; glm::detail::tvec4<float>::length, COMDAT
; _this$ = ecx

; 34   : 	{

	push	ebp
	mov	ebp, esp
	sub	esp, 204				; 000000ccH
	push	ebx
	push	esi
	push	edi
	push	ecx
	lea	edi, DWORD PTR [ebp-204]
	mov	ecx, 51					; 00000033H
	mov	eax, -858993460				; ccccccccH
	rep stosd
	pop	ecx
	mov	DWORD PTR _this$[ebp], ecx

; 35   : 		return 4;

	mov	eax, 4

; 36   : 	}

	pop	edi
	pop	esi
	pop	ebx
	mov	esp, ebp
	pop	ebp
	ret	0
?length@?$tvec4@M@detail@glm@@QBEIXZ ENDP		; glm::detail::tvec4<float>::length
_TEXT	ENDS
END
