; Listing generated by Microsoft (R) Optimizing Compiler Version 16.00.40219.01 

	TITLE	C:\Users\kmadsen\Google Drive\OpenGL_Projects\Starter\Starter\BumpMap.cpp
	.686P
	.XMM
	include listing.inc
	.model	flat

INCLUDELIB MSVCRTD
INCLUDELIB OLDNAMES

PUBLIC	??_C@_0BM@DEIEBOIN@Textures?1ogre_normalmap?4png?$AA@ ; `string'
PUBLIC	??_C@_0BK@DMCABGIE@Textures?1ogre_diffuse?4png?$AA@ ; `string'
PUBLIC	?value@?$integral_constant@_N$0A@@tr1@std@@2_NB	; std::tr1::integral_constant<bool,0>::value
PUBLIC	?value@?$integral_constant@_N$00@tr1@std@@2_NB	; std::tr1::integral_constant<bool,1>::value
PUBLIC	?value@?$integral_constant@I$0A@@tr1@std@@2IB	; std::tr1::integral_constant<unsigned int,0>::value
PUBLIC	?_Rank@?$_Arithmetic_traits@_N@std@@2HB		; std::_Arithmetic_traits<bool>::_Rank
PUBLIC	?_Rank@?$_Arithmetic_traits@D@std@@2HB		; std::_Arithmetic_traits<char>::_Rank
PUBLIC	?_Rank@?$_Arithmetic_traits@C@std@@2HB		; std::_Arithmetic_traits<signed char>::_Rank
PUBLIC	?_Rank@?$_Arithmetic_traits@E@std@@2HB		; std::_Arithmetic_traits<unsigned char>::_Rank
PUBLIC	?_Rank@?$_Arithmetic_traits@F@std@@2HB		; std::_Arithmetic_traits<short>::_Rank
PUBLIC	?_Rank@?$_Arithmetic_traits@G@std@@2HB		; std::_Arithmetic_traits<unsigned short>::_Rank
PUBLIC	?_Rank@?$_Arithmetic_traits@H@std@@2HB		; std::_Arithmetic_traits<int>::_Rank
PUBLIC	?_Rank@?$_Arithmetic_traits@I@std@@2HB		; std::_Arithmetic_traits<unsigned int>::_Rank
PUBLIC	?_Rank@?$_Arithmetic_traits@J@std@@2HB		; std::_Arithmetic_traits<long>::_Rank
PUBLIC	?_Rank@?$_Arithmetic_traits@K@std@@2HB		; std::_Arithmetic_traits<unsigned long>::_Rank
PUBLIC	?_Rank@?$_Arithmetic_traits@_J@std@@2HB		; std::_Arithmetic_traits<__int64>::_Rank
PUBLIC	?_Rank@?$_Arithmetic_traits@_K@std@@2HB		; std::_Arithmetic_traits<unsigned __int64>::_Rank
PUBLIC	?_Rank@?$_Arithmetic_traits@M@std@@2HB		; std::_Arithmetic_traits<float>::_Rank
PUBLIC	?_Rank@?$_Arithmetic_traits@N@std@@2HB		; std::_Arithmetic_traits<double>::_Rank
PUBLIC	?_Rank@?$_Arithmetic_traits@O@std@@2HB		; std::_Arithmetic_traits<long double>::_Rank
PUBLIC	?collate@?$_Locbase@H@std@@2HB			; std::_Locbase<int>::collate
PUBLIC	?ctype@?$_Locbase@H@std@@2HB			; std::_Locbase<int>::ctype
PUBLIC	?monetary@?$_Locbase@H@std@@2HB			; std::_Locbase<int>::monetary
PUBLIC	?numeric@?$_Locbase@H@std@@2HB			; std::_Locbase<int>::numeric
PUBLIC	?time@?$_Locbase@H@std@@2HB			; std::_Locbase<int>::time
PUBLIC	?messages@?$_Locbase@H@std@@2HB			; std::_Locbase<int>::messages
PUBLIC	?all@?$_Locbase@H@std@@2HB			; std::_Locbase<int>::all
PUBLIC	?none@?$_Locbase@H@std@@2HB			; std::_Locbase<int>::none
PUBLIC	?skipws@?$_Iosb@H@std@@2W4_Fmtflags@12@B	; std::_Iosb<int>::skipws
PUBLIC	?unitbuf@?$_Iosb@H@std@@2W4_Fmtflags@12@B	; std::_Iosb<int>::unitbuf
PUBLIC	?uppercase@?$_Iosb@H@std@@2W4_Fmtflags@12@B	; std::_Iosb<int>::uppercase
PUBLIC	?showbase@?$_Iosb@H@std@@2W4_Fmtflags@12@B	; std::_Iosb<int>::showbase
PUBLIC	?showpoint@?$_Iosb@H@std@@2W4_Fmtflags@12@B	; std::_Iosb<int>::showpoint
PUBLIC	?showpos@?$_Iosb@H@std@@2W4_Fmtflags@12@B	; std::_Iosb<int>::showpos
PUBLIC	?left@?$_Iosb@H@std@@2W4_Fmtflags@12@B		; std::_Iosb<int>::left
PUBLIC	?right@?$_Iosb@H@std@@2W4_Fmtflags@12@B		; std::_Iosb<int>::right
PUBLIC	?internal@?$_Iosb@H@std@@2W4_Fmtflags@12@B	; std::_Iosb<int>::internal
PUBLIC	?dec@?$_Iosb@H@std@@2W4_Fmtflags@12@B		; std::_Iosb<int>::dec
PUBLIC	?oct@?$_Iosb@H@std@@2W4_Fmtflags@12@B		; std::_Iosb<int>::oct
PUBLIC	?hex@?$_Iosb@H@std@@2W4_Fmtflags@12@B		; std::_Iosb<int>::hex
PUBLIC	?scientific@?$_Iosb@H@std@@2W4_Fmtflags@12@B	; std::_Iosb<int>::scientific
PUBLIC	?fixed@?$_Iosb@H@std@@2W4_Fmtflags@12@B		; std::_Iosb<int>::fixed
PUBLIC	?hexfloat@?$_Iosb@H@std@@2W4_Fmtflags@12@B	; std::_Iosb<int>::hexfloat
PUBLIC	?boolalpha@?$_Iosb@H@std@@2W4_Fmtflags@12@B	; std::_Iosb<int>::boolalpha
PUBLIC	?_Stdio@?$_Iosb@H@std@@2W4_Fmtflags@12@B	; std::_Iosb<int>::_Stdio
PUBLIC	?adjustfield@?$_Iosb@H@std@@2W4_Fmtflags@12@B	; std::_Iosb<int>::adjustfield
PUBLIC	?basefield@?$_Iosb@H@std@@2W4_Fmtflags@12@B	; std::_Iosb<int>::basefield
PUBLIC	?floatfield@?$_Iosb@H@std@@2W4_Fmtflags@12@B	; std::_Iosb<int>::floatfield
PUBLIC	?goodbit@?$_Iosb@H@std@@2W4_Iostate@12@B	; std::_Iosb<int>::goodbit
PUBLIC	?eofbit@?$_Iosb@H@std@@2W4_Iostate@12@B		; std::_Iosb<int>::eofbit
PUBLIC	?failbit@?$_Iosb@H@std@@2W4_Iostate@12@B	; std::_Iosb<int>::failbit
PUBLIC	?badbit@?$_Iosb@H@std@@2W4_Iostate@12@B		; std::_Iosb<int>::badbit
PUBLIC	?_Hardfail@?$_Iosb@H@std@@2W4_Iostate@12@B	; std::_Iosb<int>::_Hardfail
PUBLIC	?in@?$_Iosb@H@std@@2W4_Openmode@12@B		; std::_Iosb<int>::in
PUBLIC	?out@?$_Iosb@H@std@@2W4_Openmode@12@B		; std::_Iosb<int>::out
PUBLIC	?ate@?$_Iosb@H@std@@2W4_Openmode@12@B		; std::_Iosb<int>::ate
PUBLIC	?app@?$_Iosb@H@std@@2W4_Openmode@12@B		; std::_Iosb<int>::app
PUBLIC	?trunc@?$_Iosb@H@std@@2W4_Openmode@12@B		; std::_Iosb<int>::trunc
PUBLIC	?_Nocreate@?$_Iosb@H@std@@2W4_Openmode@12@B	; std::_Iosb<int>::_Nocreate
PUBLIC	?_Noreplace@?$_Iosb@H@std@@2W4_Openmode@12@B	; std::_Iosb<int>::_Noreplace
PUBLIC	?binary@?$_Iosb@H@std@@2W4_Openmode@12@B	; std::_Iosb<int>::binary
PUBLIC	?beg@?$_Iosb@H@std@@2W4_Seekdir@12@B		; std::_Iosb<int>::beg
PUBLIC	?cur@?$_Iosb@H@std@@2W4_Seekdir@12@B		; std::_Iosb<int>::cur
PUBLIC	?end@?$_Iosb@H@std@@2W4_Seekdir@12@B		; std::_Iosb<int>::end
_DATA	SEGMENT
?filenames@?1??LoadTextures@BumpMap@@AAEXXZ@4PAPBDA DD FLAT:??_C@_0BK@DMCABGIE@Textures?1ogre_diffuse?4png?$AA@ ; `BumpMap::LoadTextures'::`2'::filenames
	DD	FLAT:??_C@_0BM@DEIEBOIN@Textures?1ogre_normalmap?4png?$AA@
_DATA	ENDS
;	COMDAT ??_C@_0BM@DEIEBOIN@Textures?1ogre_normalmap?4png?$AA@
CONST	SEGMENT
??_C@_0BM@DEIEBOIN@Textures?1ogre_normalmap?4png?$AA@ DB 'Textures/ogre_n'
	DB	'ormalmap.png', 00H				; `string'
CONST	ENDS
;	COMDAT ??_C@_0BK@DMCABGIE@Textures?1ogre_diffuse?4png?$AA@
CONST	SEGMENT
??_C@_0BK@DMCABGIE@Textures?1ogre_diffuse?4png?$AA@ DB 'Textures/ogre_dif'
	DB	'fuse.png', 00H				; `string'
CONST	ENDS
;	COMDAT ?end@?$_Iosb@H@std@@2W4_Seekdir@12@B
CONST	SEGMENT
?end@?$_Iosb@H@std@@2W4_Seekdir@12@B DD 02H		; std::_Iosb<int>::end
CONST	ENDS
;	COMDAT ?cur@?$_Iosb@H@std@@2W4_Seekdir@12@B
CONST	SEGMENT
?cur@?$_Iosb@H@std@@2W4_Seekdir@12@B DD 01H		; std::_Iosb<int>::cur
CONST	ENDS
;	COMDAT ?beg@?$_Iosb@H@std@@2W4_Seekdir@12@B
CONST	SEGMENT
?beg@?$_Iosb@H@std@@2W4_Seekdir@12@B DD 00H		; std::_Iosb<int>::beg
CONST	ENDS
;	COMDAT ?binary@?$_Iosb@H@std@@2W4_Openmode@12@B
CONST	SEGMENT
?binary@?$_Iosb@H@std@@2W4_Openmode@12@B DD 020H	; std::_Iosb<int>::binary
CONST	ENDS
;	COMDAT ?_Noreplace@?$_Iosb@H@std@@2W4_Openmode@12@B
CONST	SEGMENT
?_Noreplace@?$_Iosb@H@std@@2W4_Openmode@12@B DD 080H	; std::_Iosb<int>::_Noreplace
CONST	ENDS
;	COMDAT ?_Nocreate@?$_Iosb@H@std@@2W4_Openmode@12@B
CONST	SEGMENT
?_Nocreate@?$_Iosb@H@std@@2W4_Openmode@12@B DD 040H	; std::_Iosb<int>::_Nocreate
CONST	ENDS
;	COMDAT ?trunc@?$_Iosb@H@std@@2W4_Openmode@12@B
CONST	SEGMENT
?trunc@?$_Iosb@H@std@@2W4_Openmode@12@B DD 010H		; std::_Iosb<int>::trunc
CONST	ENDS
;	COMDAT ?app@?$_Iosb@H@std@@2W4_Openmode@12@B
CONST	SEGMENT
?app@?$_Iosb@H@std@@2W4_Openmode@12@B DD 08H		; std::_Iosb<int>::app
CONST	ENDS
;	COMDAT ?ate@?$_Iosb@H@std@@2W4_Openmode@12@B
CONST	SEGMENT
?ate@?$_Iosb@H@std@@2W4_Openmode@12@B DD 04H		; std::_Iosb<int>::ate
CONST	ENDS
;	COMDAT ?out@?$_Iosb@H@std@@2W4_Openmode@12@B
CONST	SEGMENT
?out@?$_Iosb@H@std@@2W4_Openmode@12@B DD 02H		; std::_Iosb<int>::out
CONST	ENDS
;	COMDAT ?in@?$_Iosb@H@std@@2W4_Openmode@12@B
CONST	SEGMENT
?in@?$_Iosb@H@std@@2W4_Openmode@12@B DD 01H		; std::_Iosb<int>::in
CONST	ENDS
;	COMDAT ?_Hardfail@?$_Iosb@H@std@@2W4_Iostate@12@B
CONST	SEGMENT
?_Hardfail@?$_Iosb@H@std@@2W4_Iostate@12@B DD 010H	; std::_Iosb<int>::_Hardfail
CONST	ENDS
;	COMDAT ?badbit@?$_Iosb@H@std@@2W4_Iostate@12@B
CONST	SEGMENT
?badbit@?$_Iosb@H@std@@2W4_Iostate@12@B DD 04H		; std::_Iosb<int>::badbit
CONST	ENDS
;	COMDAT ?failbit@?$_Iosb@H@std@@2W4_Iostate@12@B
CONST	SEGMENT
?failbit@?$_Iosb@H@std@@2W4_Iostate@12@B DD 02H		; std::_Iosb<int>::failbit
CONST	ENDS
;	COMDAT ?eofbit@?$_Iosb@H@std@@2W4_Iostate@12@B
CONST	SEGMENT
?eofbit@?$_Iosb@H@std@@2W4_Iostate@12@B DD 01H		; std::_Iosb<int>::eofbit
CONST	ENDS
;	COMDAT ?goodbit@?$_Iosb@H@std@@2W4_Iostate@12@B
CONST	SEGMENT
?goodbit@?$_Iosb@H@std@@2W4_Iostate@12@B DD 00H		; std::_Iosb<int>::goodbit
CONST	ENDS
;	COMDAT ?floatfield@?$_Iosb@H@std@@2W4_Fmtflags@12@B
CONST	SEGMENT
?floatfield@?$_Iosb@H@std@@2W4_Fmtflags@12@B DD 03000H	; std::_Iosb<int>::floatfield
CONST	ENDS
;	COMDAT ?basefield@?$_Iosb@H@std@@2W4_Fmtflags@12@B
CONST	SEGMENT
?basefield@?$_Iosb@H@std@@2W4_Fmtflags@12@B DD 0e00H	; std::_Iosb<int>::basefield
CONST	ENDS
;	COMDAT ?adjustfield@?$_Iosb@H@std@@2W4_Fmtflags@12@B
CONST	SEGMENT
?adjustfield@?$_Iosb@H@std@@2W4_Fmtflags@12@B DD 01c0H	; std::_Iosb<int>::adjustfield
CONST	ENDS
;	COMDAT ?_Stdio@?$_Iosb@H@std@@2W4_Fmtflags@12@B
CONST	SEGMENT
?_Stdio@?$_Iosb@H@std@@2W4_Fmtflags@12@B DD 08000H	; std::_Iosb<int>::_Stdio
CONST	ENDS
;	COMDAT ?boolalpha@?$_Iosb@H@std@@2W4_Fmtflags@12@B
CONST	SEGMENT
?boolalpha@?$_Iosb@H@std@@2W4_Fmtflags@12@B DD 04000H	; std::_Iosb<int>::boolalpha
CONST	ENDS
;	COMDAT ?hexfloat@?$_Iosb@H@std@@2W4_Fmtflags@12@B
CONST	SEGMENT
?hexfloat@?$_Iosb@H@std@@2W4_Fmtflags@12@B DD 03000H	; std::_Iosb<int>::hexfloat
CONST	ENDS
;	COMDAT ?fixed@?$_Iosb@H@std@@2W4_Fmtflags@12@B
CONST	SEGMENT
?fixed@?$_Iosb@H@std@@2W4_Fmtflags@12@B DD 02000H	; std::_Iosb<int>::fixed
CONST	ENDS
;	COMDAT ?scientific@?$_Iosb@H@std@@2W4_Fmtflags@12@B
CONST	SEGMENT
?scientific@?$_Iosb@H@std@@2W4_Fmtflags@12@B DD 01000H	; std::_Iosb<int>::scientific
CONST	ENDS
;	COMDAT ?hex@?$_Iosb@H@std@@2W4_Fmtflags@12@B
CONST	SEGMENT
?hex@?$_Iosb@H@std@@2W4_Fmtflags@12@B DD 0800H		; std::_Iosb<int>::hex
CONST	ENDS
;	COMDAT ?oct@?$_Iosb@H@std@@2W4_Fmtflags@12@B
CONST	SEGMENT
?oct@?$_Iosb@H@std@@2W4_Fmtflags@12@B DD 0400H		; std::_Iosb<int>::oct
CONST	ENDS
;	COMDAT ?dec@?$_Iosb@H@std@@2W4_Fmtflags@12@B
CONST	SEGMENT
?dec@?$_Iosb@H@std@@2W4_Fmtflags@12@B DD 0200H		; std::_Iosb<int>::dec
CONST	ENDS
;	COMDAT ?internal@?$_Iosb@H@std@@2W4_Fmtflags@12@B
CONST	SEGMENT
?internal@?$_Iosb@H@std@@2W4_Fmtflags@12@B DD 0100H	; std::_Iosb<int>::internal
CONST	ENDS
;	COMDAT ?right@?$_Iosb@H@std@@2W4_Fmtflags@12@B
CONST	SEGMENT
?right@?$_Iosb@H@std@@2W4_Fmtflags@12@B DD 080H		; std::_Iosb<int>::right
CONST	ENDS
;	COMDAT ?left@?$_Iosb@H@std@@2W4_Fmtflags@12@B
CONST	SEGMENT
?left@?$_Iosb@H@std@@2W4_Fmtflags@12@B DD 040H		; std::_Iosb<int>::left
CONST	ENDS
;	COMDAT ?showpos@?$_Iosb@H@std@@2W4_Fmtflags@12@B
CONST	SEGMENT
?showpos@?$_Iosb@H@std@@2W4_Fmtflags@12@B DD 020H	; std::_Iosb<int>::showpos
CONST	ENDS
;	COMDAT ?showpoint@?$_Iosb@H@std@@2W4_Fmtflags@12@B
CONST	SEGMENT
?showpoint@?$_Iosb@H@std@@2W4_Fmtflags@12@B DD 010H	; std::_Iosb<int>::showpoint
CONST	ENDS
;	COMDAT ?showbase@?$_Iosb@H@std@@2W4_Fmtflags@12@B
CONST	SEGMENT
?showbase@?$_Iosb@H@std@@2W4_Fmtflags@12@B DD 08H	; std::_Iosb<int>::showbase
CONST	ENDS
;	COMDAT ?uppercase@?$_Iosb@H@std@@2W4_Fmtflags@12@B
CONST	SEGMENT
?uppercase@?$_Iosb@H@std@@2W4_Fmtflags@12@B DD 04H	; std::_Iosb<int>::uppercase
CONST	ENDS
;	COMDAT ?unitbuf@?$_Iosb@H@std@@2W4_Fmtflags@12@B
CONST	SEGMENT
?unitbuf@?$_Iosb@H@std@@2W4_Fmtflags@12@B DD 02H	; std::_Iosb<int>::unitbuf
CONST	ENDS
;	COMDAT ?skipws@?$_Iosb@H@std@@2W4_Fmtflags@12@B
CONST	SEGMENT
?skipws@?$_Iosb@H@std@@2W4_Fmtflags@12@B DD 01H		; std::_Iosb<int>::skipws
CONST	ENDS
;	COMDAT ?none@?$_Locbase@H@std@@2HB
CONST	SEGMENT
?none@?$_Locbase@H@std@@2HB DD 00H			; std::_Locbase<int>::none
CONST	ENDS
;	COMDAT ?all@?$_Locbase@H@std@@2HB
CONST	SEGMENT
?all@?$_Locbase@H@std@@2HB DD 03fH			; std::_Locbase<int>::all
CONST	ENDS
;	COMDAT ?messages@?$_Locbase@H@std@@2HB
CONST	SEGMENT
?messages@?$_Locbase@H@std@@2HB DD 020H			; std::_Locbase<int>::messages
CONST	ENDS
;	COMDAT ?time@?$_Locbase@H@std@@2HB
CONST	SEGMENT
?time@?$_Locbase@H@std@@2HB DD 010H			; std::_Locbase<int>::time
CONST	ENDS
;	COMDAT ?numeric@?$_Locbase@H@std@@2HB
CONST	SEGMENT
?numeric@?$_Locbase@H@std@@2HB DD 08H			; std::_Locbase<int>::numeric
CONST	ENDS
;	COMDAT ?monetary@?$_Locbase@H@std@@2HB
CONST	SEGMENT
?monetary@?$_Locbase@H@std@@2HB DD 04H			; std::_Locbase<int>::monetary
CONST	ENDS
;	COMDAT ?ctype@?$_Locbase@H@std@@2HB
CONST	SEGMENT
?ctype@?$_Locbase@H@std@@2HB DD 02H			; std::_Locbase<int>::ctype
CONST	ENDS
;	COMDAT ?collate@?$_Locbase@H@std@@2HB
CONST	SEGMENT
?collate@?$_Locbase@H@std@@2HB DD 01H			; std::_Locbase<int>::collate
CONST	ENDS
;	COMDAT ?_Rank@?$_Arithmetic_traits@O@std@@2HB
CONST	SEGMENT
?_Rank@?$_Arithmetic_traits@O@std@@2HB DD 09H		; std::_Arithmetic_traits<long double>::_Rank
CONST	ENDS
;	COMDAT ?_Rank@?$_Arithmetic_traits@N@std@@2HB
CONST	SEGMENT
?_Rank@?$_Arithmetic_traits@N@std@@2HB DD 08H		; std::_Arithmetic_traits<double>::_Rank
CONST	ENDS
;	COMDAT ?_Rank@?$_Arithmetic_traits@M@std@@2HB
CONST	SEGMENT
?_Rank@?$_Arithmetic_traits@M@std@@2HB DD 07H		; std::_Arithmetic_traits<float>::_Rank
CONST	ENDS
;	COMDAT ?_Rank@?$_Arithmetic_traits@_K@std@@2HB
CONST	SEGMENT
?_Rank@?$_Arithmetic_traits@_K@std@@2HB DD 06H		; std::_Arithmetic_traits<unsigned __int64>::_Rank
CONST	ENDS
;	COMDAT ?_Rank@?$_Arithmetic_traits@_J@std@@2HB
CONST	SEGMENT
?_Rank@?$_Arithmetic_traits@_J@std@@2HB DD 06H		; std::_Arithmetic_traits<__int64>::_Rank
CONST	ENDS
;	COMDAT ?_Rank@?$_Arithmetic_traits@K@std@@2HB
CONST	SEGMENT
?_Rank@?$_Arithmetic_traits@K@std@@2HB DD 05H		; std::_Arithmetic_traits<unsigned long>::_Rank
CONST	ENDS
;	COMDAT ?_Rank@?$_Arithmetic_traits@J@std@@2HB
CONST	SEGMENT
?_Rank@?$_Arithmetic_traits@J@std@@2HB DD 05H		; std::_Arithmetic_traits<long>::_Rank
CONST	ENDS
;	COMDAT ?_Rank@?$_Arithmetic_traits@I@std@@2HB
CONST	SEGMENT
?_Rank@?$_Arithmetic_traits@I@std@@2HB DD 04H		; std::_Arithmetic_traits<unsigned int>::_Rank
CONST	ENDS
;	COMDAT ?_Rank@?$_Arithmetic_traits@H@std@@2HB
CONST	SEGMENT
?_Rank@?$_Arithmetic_traits@H@std@@2HB DD 04H		; std::_Arithmetic_traits<int>::_Rank
CONST	ENDS
;	COMDAT ?_Rank@?$_Arithmetic_traits@G@std@@2HB
CONST	SEGMENT
?_Rank@?$_Arithmetic_traits@G@std@@2HB DD 03H		; std::_Arithmetic_traits<unsigned short>::_Rank
CONST	ENDS
;	COMDAT ?_Rank@?$_Arithmetic_traits@F@std@@2HB
CONST	SEGMENT
?_Rank@?$_Arithmetic_traits@F@std@@2HB DD 03H		; std::_Arithmetic_traits<short>::_Rank
CONST	ENDS
;	COMDAT ?_Rank@?$_Arithmetic_traits@E@std@@2HB
CONST	SEGMENT
?_Rank@?$_Arithmetic_traits@E@std@@2HB DD 02H		; std::_Arithmetic_traits<unsigned char>::_Rank
CONST	ENDS
;	COMDAT ?_Rank@?$_Arithmetic_traits@C@std@@2HB
CONST	SEGMENT
?_Rank@?$_Arithmetic_traits@C@std@@2HB DD 02H		; std::_Arithmetic_traits<signed char>::_Rank
CONST	ENDS
;	COMDAT ?_Rank@?$_Arithmetic_traits@D@std@@2HB
CONST	SEGMENT
?_Rank@?$_Arithmetic_traits@D@std@@2HB DD 02H		; std::_Arithmetic_traits<char>::_Rank
CONST	ENDS
;	COMDAT ?_Rank@?$_Arithmetic_traits@_N@std@@2HB
CONST	SEGMENT
?_Rank@?$_Arithmetic_traits@_N@std@@2HB DD 01H		; std::_Arithmetic_traits<bool>::_Rank
CONST	ENDS
;	COMDAT ?value@?$integral_constant@I$0A@@tr1@std@@2IB
CONST	SEGMENT
?value@?$integral_constant@I$0A@@tr1@std@@2IB DD 00H	; std::tr1::integral_constant<unsigned int,0>::value
CONST	ENDS
;	COMDAT ?value@?$integral_constant@_N$00@tr1@std@@2_NB
CONST	SEGMENT
?value@?$integral_constant@_N$00@tr1@std@@2_NB DB 01H	; std::tr1::integral_constant<bool,1>::value
CONST	ENDS
;	COMDAT ?value@?$integral_constant@_N$0A@@tr1@std@@2_NB
CONST	SEGMENT
?value@?$integral_constant@_N$0A@@tr1@std@@2_NB DB 00H	; std::tr1::integral_constant<bool,0>::value
CONST	ENDS
PUBLIC	??1GLSLProgram@@QAE@XZ				; GLSLProgram::~GLSLProgram
PUBLIC	??_C@_0BB@PGEPDOJF@mesh?1bs_ears?4obj?$AA@	; `string'
PUBLIC	??0KRotater@@QAE@XZ				; KRotater::KRotater
PUBLIC	??0KCamera@@QAE@XZ				; KCamera::KCamera
PUBLIC	??0KMouse@@QAE@XZ				; KMouse::KMouse
PUBLIC	??0?$tmat4x4@M@detail@glm@@QAE@XZ		; glm::detail::tmat4x4<float>::tmat4x4<float>
PUBLIC	??_7BumpMap@@6B@				; BumpMap::`vftable'
PUBLIC	??0KScene@@QAE@XZ				; KScene::KScene
PUBLIC	??0BumpMap@@QAE@XZ				; BumpMap::BumpMap
PUBLIC	??_R4BumpMap@@6B@				; BumpMap::`RTTI Complete Object Locator'
PUBLIC	??_R0?AVBumpMap@@@8				; BumpMap `RTTI Type Descriptor'
PUBLIC	??_R3BumpMap@@8					; BumpMap::`RTTI Class Hierarchy Descriptor'
PUBLIC	??_R2BumpMap@@8					; BumpMap::`RTTI Base Class Array'
PUBLIC	??_R1A@?0A@EA@BumpMap@@8			; BumpMap::`RTTI Base Class Descriptor at (0,-1,0,64)'
PUBLIC	??_R1A@?0A@EA@KScene@@8				; KScene::`RTTI Base Class Descriptor at (0,-1,0,64)'
PUBLIC	??_R0?AVKScene@@@8				; KScene `RTTI Type Descriptor'
PUBLIC	??_R3KScene@@8					; KScene::`RTTI Class Hierarchy Descriptor'
PUBLIC	??_R2KScene@@8					; KScene::`RTTI Base Class Array'
PUBLIC	?Init@BumpMap@@UAEXXZ				; BumpMap::Init
PUBLIC	?Render@BumpMap@@UAEXXZ				; BumpMap::Render
PUBLIC	?Update@KScene@@UAEXM@Z				; KScene::Update
PUBLIC	?Resize@BumpMap@@UAEXHH@Z			; BumpMap::Resize
PUBLIC	?Mouse@BumpMap@@UAEXABUKMouse@@@Z		; BumpMap::Mouse
PUBLIC	?Motion@BumpMap@@UAEXMM@Z			; BumpMap::Motion
PUBLIC	?Keyboard@BumpMap@@UAEXHMM@Z			; BumpMap::Keyboard
EXTRN	??3@YAXPAX@Z:PROC				; operator delete
EXTRN	??0VBOMesh@@QAE@PBD_N@Z:PROC			; VBOMesh::VBOMesh
EXTRN	??2@YAPAXI@Z:PROC				; operator new
EXTRN	??0GLSLProgram@@QAE@XZ:PROC			; GLSLProgram::GLSLProgram
EXTRN	___security_cookie:DWORD
EXTRN	___CxxFrameHandler3:PROC
EXTRN	@__security_check_cookie@4:PROC
EXTRN	__RTC_CheckEsp:PROC
EXTRN	__RTC_Shutdown:PROC
EXTRN	__RTC_InitBase:PROC
EXTRN	??_7type_info@@6B@:QWORD			; type_info::`vftable'
;	COMDAT ??_R2KScene@@8
; File c:\users\kmadsen\google drive\opengl_projects\starter\starter\bumpmap.cpp
rdata$r	SEGMENT
??_R2KScene@@8 DD FLAT:??_R1A@?0A@EA@KScene@@8		; KScene::`RTTI Base Class Array'
rdata$r	ENDS
;	COMDAT ??_R3KScene@@8
rdata$r	SEGMENT
??_R3KScene@@8 DD 00H					; KScene::`RTTI Class Hierarchy Descriptor'
	DD	00H
	DD	01H
	DD	FLAT:??_R2KScene@@8
rdata$r	ENDS
;	COMDAT ??_R0?AVKScene@@@8
_DATA	SEGMENT
??_R0?AVKScene@@@8 DD FLAT:??_7type_info@@6B@		; KScene `RTTI Type Descriptor'
	DD	00H
	DB	'.?AVKScene@@', 00H
_DATA	ENDS
;	COMDAT ??_R1A@?0A@EA@KScene@@8
rdata$r	SEGMENT
??_R1A@?0A@EA@KScene@@8 DD FLAT:??_R0?AVKScene@@@8	; KScene::`RTTI Base Class Descriptor at (0,-1,0,64)'
	DD	00H
	DD	00H
	DD	0ffffffffH
	DD	00H
	DD	040H
	DD	FLAT:??_R3KScene@@8
rdata$r	ENDS
;	COMDAT ??_R1A@?0A@EA@BumpMap@@8
rdata$r	SEGMENT
??_R1A@?0A@EA@BumpMap@@8 DD FLAT:??_R0?AVBumpMap@@@8	; BumpMap::`RTTI Base Class Descriptor at (0,-1,0,64)'
	DD	01H
	DD	00H
	DD	0ffffffffH
	DD	00H
	DD	040H
	DD	FLAT:??_R3BumpMap@@8
rdata$r	ENDS
;	COMDAT ??_R2BumpMap@@8
rdata$r	SEGMENT
??_R2BumpMap@@8 DD FLAT:??_R1A@?0A@EA@BumpMap@@8	; BumpMap::`RTTI Base Class Array'
	DD	FLAT:??_R1A@?0A@EA@KScene@@8
rdata$r	ENDS
;	COMDAT ??_R3BumpMap@@8
rdata$r	SEGMENT
??_R3BumpMap@@8 DD 00H					; BumpMap::`RTTI Class Hierarchy Descriptor'
	DD	00H
	DD	02H
	DD	FLAT:??_R2BumpMap@@8
rdata$r	ENDS
;	COMDAT ??_R0?AVBumpMap@@@8
_DATA	SEGMENT
??_R0?AVBumpMap@@@8 DD FLAT:??_7type_info@@6B@		; BumpMap `RTTI Type Descriptor'
	DD	00H
	DB	'.?AVBumpMap@@', 00H
_DATA	ENDS
;	COMDAT ??_R4BumpMap@@6B@
rdata$r	SEGMENT
??_R4BumpMap@@6B@ DD 00H				; BumpMap::`RTTI Complete Object Locator'
	DD	00H
	DD	00H
	DD	FLAT:??_R0?AVBumpMap@@@8
	DD	FLAT:??_R3BumpMap@@8
rdata$r	ENDS
;	COMDAT ??_C@_0BB@PGEPDOJF@mesh?1bs_ears?4obj?$AA@
CONST	SEGMENT
??_C@_0BB@PGEPDOJF@mesh?1bs_ears?4obj?$AA@ DB 'mesh/bs_ears.obj', 00H ; `string'
CONST	ENDS
;	COMDAT ??_7BumpMap@@6B@
CONST	SEGMENT
??_7BumpMap@@6B@ DD FLAT:??_R4BumpMap@@6B@		; BumpMap::`vftable'
	DD	FLAT:?Init@BumpMap@@UAEXXZ
	DD	FLAT:?Render@BumpMap@@UAEXXZ
	DD	FLAT:?Update@KScene@@UAEXM@Z
	DD	FLAT:?Resize@BumpMap@@UAEXHH@Z
	DD	FLAT:?Mouse@BumpMap@@UAEXABUKMouse@@@Z
	DD	FLAT:?Motion@BumpMap@@UAEXMM@Z
	DD	FLAT:?Keyboard@BumpMap@@UAEXHMM@Z
CONST	ENDS
;	COMDAT xdata$x
xdata$x	SEGMENT
__unwindtable$??0BumpMap@@QAE@XZ DD 0ffffffffH
	DD	FLAT:__unwindfunclet$??0BumpMap@@QAE@XZ$0
	DD	00H
	DD	FLAT:__unwindfunclet$??0BumpMap@@QAE@XZ$1
__ehfuncinfo$??0BumpMap@@QAE@XZ DD 019930522H
	DD	02H
	DD	FLAT:__unwindtable$??0BumpMap@@QAE@XZ
	DD	2 DUP(00H)
	DD	2 DUP(00H)
	DD	00H
	DD	01H
xdata$x	ENDS
;	COMDAT rtc$TMZ
rtc$TMZ	SEGMENT
__RTC_Shutdown.rtc$TMZ DD FLAT:__RTC_Shutdown
rtc$TMZ	ENDS
;	COMDAT rtc$IMZ
rtc$IMZ	SEGMENT
__RTC_InitBase.rtc$IMZ DD FLAT:__RTC_InitBase
; Function compile flags: /Odtp /RTCsu /ZI
rtc$IMZ	ENDS
;	COMDAT ??0BumpMap@@QAE@XZ
_TEXT	SEGMENT
tv130 = -244						; size = 4
$T70504 = -236						; size = 4
$T70505 = -224						; size = 4
_this$ = -20						; size = 4
__$EHRec$ = -12						; size = 12
??0BumpMap@@QAE@XZ PROC					; BumpMap::BumpMap, COMDAT
; _this$ = ecx

; 14   : {

	push	ebp
	mov	ebp, esp
	push	-1
	push	__ehhandler$??0BumpMap@@QAE@XZ
	mov	eax, DWORD PTR fs:0
	push	eax
	sub	esp, 232				; 000000e8H
	push	ebx
	push	esi
	push	edi
	push	ecx
	lea	edi, DWORD PTR [ebp-244]
	mov	ecx, 58					; 0000003aH
	mov	eax, -858993460				; ccccccccH
	rep stosd
	pop	ecx
	mov	eax, DWORD PTR ___security_cookie
	xor	eax, ebp
	push	eax
	lea	eax, DWORD PTR __$EHRec$[ebp]
	mov	DWORD PTR fs:0, eax
	mov	DWORD PTR _this$[ebp], ecx
	mov	ecx, DWORD PTR _this$[ebp]
	call	??0KScene@@QAE@XZ
	mov	eax, DWORD PTR _this$[ebp]
	mov	DWORD PTR [eax], OFFSET ??_7BumpMap@@6B@
	mov	ecx, DWORD PTR _this$[ebp]
	add	ecx, 4
	call	??0GLSLProgram@@QAE@XZ			; GLSLProgram::GLSLProgram
	mov	DWORD PTR __$EHRec$[ebp+8], 0
	mov	eax, DWORD PTR _this$[ebp]
	mov	DWORD PTR [eax+48], 0
	mov	ecx, DWORD PTR _this$[ebp]
	add	ecx, 52					; 00000034H
	call	??0?$tmat4x4@M@detail@glm@@QAE@XZ	; glm::detail::tmat4x4<float>::tmat4x4<float>
	mov	ecx, DWORD PTR _this$[ebp]
	add	ecx, 116				; 00000074H
	call	??0KMouse@@QAE@XZ
	mov	ecx, DWORD PTR _this$[ebp]
	add	ecx, 132				; 00000084H
	call	??0KCamera@@QAE@XZ
	mov	ecx, DWORD PTR _this$[ebp]
	add	ecx, 304				; 00000130H
	call	??0KRotater@@QAE@XZ			; KRotater::KRotater

; 15   : 	// initialize the ogre
; 16   :     m_Ogre = new VBOMesh("mesh/bs_ears.obj");

	push	12					; 0000000cH
	call	??2@YAPAXI@Z				; operator new
	add	esp, 4
	mov	DWORD PTR $T70505[ebp], eax
	mov	BYTE PTR __$EHRec$[ebp+8], 1
	cmp	DWORD PTR $T70505[ebp], 0
	je	SHORT $LN3@BumpMap
	push	0
	push	OFFSET ??_C@_0BB@PGEPDOJF@mesh?1bs_ears?4obj?$AA@
	mov	ecx, DWORD PTR $T70505[ebp]
	call	??0VBOMesh@@QAE@PBD_N@Z			; VBOMesh::VBOMesh
	mov	DWORD PTR tv130[ebp], eax
	jmp	SHORT $LN4@BumpMap
$LN3@BumpMap:
	mov	DWORD PTR tv130[ebp], 0
$LN4@BumpMap:
	mov	eax, DWORD PTR tv130[ebp]
	mov	DWORD PTR $T70504[ebp], eax
	mov	BYTE PTR __$EHRec$[ebp+8], 0
	mov	ecx, DWORD PTR _this$[ebp]
	mov	edx, DWORD PTR $T70504[ebp]
	mov	DWORD PTR [ecx+48], edx

; 17   : }

	mov	DWORD PTR __$EHRec$[ebp+8], -1
	mov	eax, DWORD PTR _this$[ebp]
	mov	ecx, DWORD PTR __$EHRec$[ebp]
	mov	DWORD PTR fs:0, ecx
	pop	ecx
	pop	edi
	pop	esi
	pop	ebx
	add	esp, 244				; 000000f4H
	cmp	ebp, esp
	call	__RTC_CheckEsp
	mov	esp, ebp
	pop	ebp
	ret	0
_TEXT	ENDS
;	COMDAT text$x
text$x	SEGMENT
__unwindfunclet$??0BumpMap@@QAE@XZ$0:
	mov	ecx, DWORD PTR _this$[ebp]
	add	ecx, 4
	jmp	??1GLSLProgram@@QAE@XZ
__unwindfunclet$??0BumpMap@@QAE@XZ$1:
	mov	eax, DWORD PTR $T70505[ebp]
	push	eax
	call	??3@YAXPAX@Z				; operator delete
	pop	ecx
	ret	0
__ehhandler$??0BumpMap@@QAE@XZ:
	mov	edx, DWORD PTR [esp+8]
	lea	eax, DWORD PTR [edx+12]
	mov	ecx, DWORD PTR [edx-248]
	xor	ecx, eax
	call	@__security_check_cookie@4
	mov	eax, OFFSET __ehfuncinfo$??0BumpMap@@QAE@XZ
	jmp	___CxxFrameHandler3
text$x	ENDS
??0BumpMap@@QAE@XZ ENDP					; BumpMap::BumpMap
PUBLIC	??4?$tvec2@M@detail@glm@@QAEAAU012@ABU012@@Z	; glm::detail::tvec2<float>::operator=
PUBLIC	??0?$tvec2@M@detail@glm@@QAE@ABM@Z		; glm::detail::tvec2<float>::tvec2<float>
PUBLIC	__real@00000000
PUBLIC	??0?$tvec2@M@detail@glm@@QAE@XZ			; glm::detail::tvec2<float>::tvec2<float>
EXTRN	__fltused:DWORD
;	COMDAT __real@00000000
; File c:\users\kmadsen\google drive\opengl_projects\starter\starter\kscene.h
CONST	SEGMENT
__real@00000000 DD 000000000r			; 0
; Function compile flags: /Odtp /RTCsu /ZI
CONST	ENDS
;	COMDAT ??0KRotater@@QAE@XZ
_TEXT	SEGMENT
$T70532 = -228						; size = 8
$T70533 = -212						; size = 4
_this$ = -8						; size = 4
??0KRotater@@QAE@XZ PROC				; KRotater::KRotater, COMDAT
; _this$ = ecx

; 10   : 	KRotater()

	push	ebp
	mov	ebp, esp
	sub	esp, 232				; 000000e8H
	push	ebx
	push	esi
	push	edi
	push	ecx
	lea	edi, DWORD PTR [ebp-232]
	mov	ecx, 58					; 0000003aH
	mov	eax, -858993460				; ccccccccH
	rep stosd
	pop	ecx
	mov	DWORD PTR _this$[ebp], ecx
	mov	ecx, DWORD PTR _this$[ebp]
	call	??0?$tvec2@M@detail@glm@@QAE@XZ		; glm::detail::tvec2<float>::tvec2<float>
	mov	ecx, DWORD PTR _this$[ebp]
	add	ecx, 8
	call	??0?$tmat4x4@M@detail@glm@@QAE@XZ	; glm::detail::tmat4x4<float>::tmat4x4<float>

; 11   : 	{
; 12   : 		m_RotateAngles = glm::vec2(0.0f);

	fldz
	fstp	DWORD PTR $T70533[ebp]
	lea	eax, DWORD PTR $T70533[ebp]
	push	eax
	lea	ecx, DWORD PTR $T70532[ebp]
	call	??0?$tvec2@M@detail@glm@@QAE@ABM@Z	; glm::detail::tvec2<float>::tvec2<float>
	push	eax
	mov	ecx, DWORD PTR _this$[ebp]
	call	??4?$tvec2@M@detail@glm@@QAEAAU012@ABU012@@Z ; glm::detail::tvec2<float>::operator=

; 13   : 	}

	mov	eax, DWORD PTR _this$[ebp]
	pop	edi
	pop	esi
	pop	ebx
	add	esp, 232				; 000000e8H
	cmp	ebp, esp
	call	__RTC_CheckEsp
	mov	esp, ebp
	pop	ebp
	ret	0
??0KRotater@@QAE@XZ ENDP				; KRotater::KRotater
; Function compile flags: /Odtp /RTCsu /ZI
_TEXT	ENDS
;	COMDAT ?Update@KScene@@UAEXM@Z
_TEXT	SEGMENT
_this$ = -8						; size = 4
_dt$ = 8						; size = 4
?Update@KScene@@UAEXM@Z PROC				; KScene::Update, COMDAT
; _this$ = ecx

; 126  : 	virtual void Update(float dt) { };

	push	ebp
	mov	ebp, esp
	sub	esp, 204				; 000000ccH
	push	ebx
	push	esi
	push	edi
	push	ecx
	lea	edi, DWORD PTR [ebp-204]
	mov	ecx, 51					; 00000033H
	mov	eax, -858993460				; ccccccccH
	rep stosd
	pop	ecx
	mov	DWORD PTR _this$[ebp], ecx
	pop	edi
	pop	esi
	pop	ebx
	mov	esp, ebp
	pop	ebp
	ret	4
?Update@KScene@@UAEXM@Z ENDP				; KScene::Update
_TEXT	ENDS
PUBLIC	??_7KScene@@6B@					; KScene::`vftable'
PUBLIC	??_R4KScene@@6B@				; KScene::`RTTI Complete Object Locator'
PUBLIC	?Resize@KScene@@UAEXHH@Z			; KScene::Resize
PUBLIC	?Mouse@KScene@@UAEXABUKMouse@@@Z		; KScene::Mouse
PUBLIC	?Motion@KScene@@UAEXMM@Z			; KScene::Motion
PUBLIC	?Keyboard@KScene@@UAEXHMM@Z			; KScene::Keyboard
EXTRN	__purecall:PROC
;	COMDAT ??_R4KScene@@6B@
rdata$r	SEGMENT
??_R4KScene@@6B@ DD 00H					; KScene::`RTTI Complete Object Locator'
	DD	00H
	DD	00H
	DD	FLAT:??_R0?AVKScene@@@8
	DD	FLAT:??_R3KScene@@8
rdata$r	ENDS
;	COMDAT ??_7KScene@@6B@
CONST	SEGMENT
??_7KScene@@6B@ DD FLAT:??_R4KScene@@6B@		; KScene::`vftable'
	DD	FLAT:__purecall
	DD	FLAT:__purecall
	DD	FLAT:?Update@KScene@@UAEXM@Z
	DD	FLAT:?Resize@KScene@@UAEXHH@Z
	DD	FLAT:?Mouse@KScene@@UAEXABUKMouse@@@Z
	DD	FLAT:?Motion@KScene@@UAEXMM@Z
	DD	FLAT:?Keyboard@KScene@@UAEXHMM@Z
; Function compile flags: /Odtp /RTCsu /ZI
CONST	ENDS
;	COMDAT ??0KScene@@QAE@XZ
_TEXT	SEGMENT
_this$ = -8						; size = 4
??0KScene@@QAE@XZ PROC					; KScene::KScene, COMDAT
; _this$ = ecx
	push	ebp
	mov	ebp, esp
	sub	esp, 204				; 000000ccH
	push	ebx
	push	esi
	push	edi
	push	ecx
	lea	edi, DWORD PTR [ebp-204]
	mov	ecx, 51					; 00000033H
	mov	eax, -858993460				; ccccccccH
	rep stosd
	pop	ecx
	mov	DWORD PTR _this$[ebp], ecx
	mov	eax, DWORD PTR _this$[ebp]
	mov	DWORD PTR [eax], OFFSET ??_7KScene@@6B@
	mov	eax, DWORD PTR _this$[ebp]
	pop	edi
	pop	esi
	pop	ebx
	mov	esp, ebp
	pop	ebp
	ret	0
??0KScene@@QAE@XZ ENDP					; KScene::KScene
; Function compile flags: /Odtp /RTCsu /ZI
_TEXT	ENDS
;	COMDAT ?Resize@KScene@@UAEXHH@Z
_TEXT	SEGMENT
_this$ = -8						; size = 4
_width$ = 8						; size = 4
_height$ = 12						; size = 4
?Resize@KScene@@UAEXHH@Z PROC				; KScene::Resize, COMDAT
; _this$ = ecx

; 127  : 	virtual void Resize(int width, int height) { };

	push	ebp
	mov	ebp, esp
	sub	esp, 204				; 000000ccH
	push	ebx
	push	esi
	push	edi
	push	ecx
	lea	edi, DWORD PTR [ebp-204]
	mov	ecx, 51					; 00000033H
	mov	eax, -858993460				; ccccccccH
	rep stosd
	pop	ecx
	mov	DWORD PTR _this$[ebp], ecx
	pop	edi
	pop	esi
	pop	ebx
	mov	esp, ebp
	pop	ebp
	ret	8
?Resize@KScene@@UAEXHH@Z ENDP				; KScene::Resize
; Function compile flags: /Odtp /RTCsu /ZI
_TEXT	ENDS
;	COMDAT ?Mouse@KScene@@UAEXABUKMouse@@@Z
_TEXT	SEGMENT
_this$ = -8						; size = 4
_mouse$ = 8						; size = 4
?Mouse@KScene@@UAEXABUKMouse@@@Z PROC			; KScene::Mouse, COMDAT
; _this$ = ecx

; 128  : 	virtual void Mouse(const KMouse &mouse) { }

	push	ebp
	mov	ebp, esp
	sub	esp, 204				; 000000ccH
	push	ebx
	push	esi
	push	edi
	push	ecx
	lea	edi, DWORD PTR [ebp-204]
	mov	ecx, 51					; 00000033H
	mov	eax, -858993460				; ccccccccH
	rep stosd
	pop	ecx
	mov	DWORD PTR _this$[ebp], ecx
	pop	edi
	pop	esi
	pop	ebx
	mov	esp, ebp
	pop	ebp
	ret	4
?Mouse@KScene@@UAEXABUKMouse@@@Z ENDP			; KScene::Mouse
; Function compile flags: /Odtp /RTCsu /ZI
_TEXT	ENDS
;	COMDAT ?Motion@KScene@@UAEXMM@Z
_TEXT	SEGMENT
_this$ = -8						; size = 4
_x$ = 8							; size = 4
_y$ = 12						; size = 4
?Motion@KScene@@UAEXMM@Z PROC				; KScene::Motion, COMDAT
; _this$ = ecx

; 129  : 	virtual void Motion(float x, float y) { }

	push	ebp
	mov	ebp, esp
	sub	esp, 204				; 000000ccH
	push	ebx
	push	esi
	push	edi
	push	ecx
	lea	edi, DWORD PTR [ebp-204]
	mov	ecx, 51					; 00000033H
	mov	eax, -858993460				; ccccccccH
	rep stosd
	pop	ecx
	mov	DWORD PTR _this$[ebp], ecx
	pop	edi
	pop	esi
	pop	ebx
	mov	esp, ebp
	pop	ebp
	ret	8
?Motion@KScene@@UAEXMM@Z ENDP				; KScene::Motion
; Function compile flags: /Odtp /RTCsu /ZI
_TEXT	ENDS
;	COMDAT ?Keyboard@KScene@@UAEXHMM@Z
_TEXT	SEGMENT
_this$ = -8						; size = 4
_key$ = 8						; size = 4
_x$ = 12						; size = 4
_y$ = 16						; size = 4
?Keyboard@KScene@@UAEXHMM@Z PROC			; KScene::Keyboard, COMDAT
; _this$ = ecx

; 130  : 	virtual void Keyboard(int key, float x, float y) { }

	push	ebp
	mov	ebp, esp
	sub	esp, 204				; 000000ccH
	push	ebx
	push	esi
	push	edi
	push	ecx
	lea	edi, DWORD PTR [ebp-204]
	mov	ecx, 51					; 00000033H
	mov	eax, -858993460				; ccccccccH
	rep stosd
	pop	ecx
	mov	DWORD PTR _this$[ebp], ecx
	pop	edi
	pop	esi
	pop	ebx
	mov	esp, ebp
	pop	ebp
	ret	12					; 0000000cH
?Keyboard@KScene@@UAEXHMM@Z ENDP			; KScene::Keyboard
_TEXT	ENDS
PUBLIC	??1?$basic_string@DU?$char_traits@D@std@@V?$allocator@D@2@@std@@QAE@XZ ; std::basic_string<char,std::char_traits<char>,std::allocator<char> >::~basic_string<char,std::char_traits<char>,std::allocator<char> >
; Function compile flags: /Odtp /RTCsu /ZI
;	COMDAT ??1GLSLProgram@@QAE@XZ
_TEXT	SEGMENT
_this$ = -8						; size = 4
??1GLSLProgram@@QAE@XZ PROC				; GLSLProgram::~GLSLProgram, COMDAT
; _this$ = ecx
	push	ebp
	mov	ebp, esp
	sub	esp, 204				; 000000ccH
	push	ebx
	push	esi
	push	edi
	push	ecx
	lea	edi, DWORD PTR [ebp-204]
	mov	ecx, 51					; 00000033H
	mov	eax, -858993460				; ccccccccH
	rep stosd
	pop	ecx
	mov	DWORD PTR _this$[ebp], ecx
	mov	ecx, DWORD PTR _this$[ebp]
	add	ecx, 8
	call	??1?$basic_string@DU?$char_traits@D@std@@V?$allocator@D@2@@std@@QAE@XZ ; std::basic_string<char,std::char_traits<char>,std::allocator<char> >::~basic_string<char,std::char_traits<char>,std::allocator<char> >
	pop	edi
	pop	esi
	pop	ebx
	add	esp, 204				; 000000ccH
	cmp	ebp, esp
	call	__RTC_CheckEsp
	mov	esp, ebp
	pop	ebp
	ret	0
??1GLSLProgram@@QAE@XZ ENDP				; GLSLProgram::~GLSLProgram
; Function compile flags: /Odtp /RTCsu /ZI
_TEXT	ENDS
;	COMDAT ??0KMouse@@QAE@XZ
_TEXT	SEGMENT
_this$ = -8						; size = 4
??0KMouse@@QAE@XZ PROC					; KMouse::KMouse, COMDAT
; _this$ = ecx
	push	ebp
	mov	ebp, esp
	sub	esp, 204				; 000000ccH
	push	ebx
	push	esi
	push	edi
	push	ecx
	lea	edi, DWORD PTR [ebp-204]
	mov	ecx, 51					; 00000033H
	mov	eax, -858993460				; ccccccccH
	rep stosd
	pop	ecx
	mov	DWORD PTR _this$[ebp], ecx
	mov	ecx, DWORD PTR _this$[ebp]
	add	ecx, 8
	call	??0?$tvec2@M@detail@glm@@QAE@XZ		; glm::detail::tvec2<float>::tvec2<float>
	mov	eax, DWORD PTR _this$[ebp]
	pop	edi
	pop	esi
	pop	ebx
	add	esp, 204				; 000000ccH
	cmp	ebp, esp
	call	__RTC_CheckEsp
	mov	esp, ebp
	pop	ebp
	ret	0
??0KMouse@@QAE@XZ ENDP					; KMouse::KMouse
_TEXT	ENDS
PUBLIC	??0?$tvec3@M@detail@glm@@QAE@XZ			; glm::detail::tvec3<float>::tvec3<float>
; Function compile flags: /Odtp /RTCsu /ZI
;	COMDAT ??0KCamera@@QAE@XZ
_TEXT	SEGMENT
_this$ = -8						; size = 4
??0KCamera@@QAE@XZ PROC					; KCamera::KCamera, COMDAT
; _this$ = ecx
	push	ebp
	mov	ebp, esp
	sub	esp, 204				; 000000ccH
	push	ebx
	push	esi
	push	edi
	push	ecx
	lea	edi, DWORD PTR [ebp-204]
	mov	ecx, 51					; 00000033H
	mov	eax, -858993460				; ccccccccH
	rep stosd
	pop	ecx
	mov	DWORD PTR _this$[ebp], ecx
	mov	ecx, DWORD PTR _this$[ebp]
	call	??0?$tvec3@M@detail@glm@@QAE@XZ		; glm::detail::tvec3<float>::tvec3<float>
	mov	ecx, DWORD PTR _this$[ebp]
	add	ecx, 12					; 0000000cH
	call	??0?$tvec3@M@detail@glm@@QAE@XZ		; glm::detail::tvec3<float>::tvec3<float>
	mov	ecx, DWORD PTR _this$[ebp]
	add	ecx, 24					; 00000018H
	call	??0?$tvec3@M@detail@glm@@QAE@XZ		; glm::detail::tvec3<float>::tvec3<float>
	mov	ecx, DWORD PTR _this$[ebp]
	add	ecx, 36					; 00000024H
	call	??0?$tmat4x4@M@detail@glm@@QAE@XZ	; glm::detail::tmat4x4<float>::tmat4x4<float>
	mov	ecx, DWORD PTR _this$[ebp]
	add	ecx, 100				; 00000064H
	call	??0KRotater@@QAE@XZ			; KRotater::KRotater
	mov	eax, DWORD PTR _this$[ebp]
	pop	edi
	pop	esi
	pop	ebx
	add	esp, 204				; 000000ccH
	cmp	ebp, esp
	call	__RTC_CheckEsp
	mov	esp, ebp
	pop	ebp
	ret	0
??0KCamera@@QAE@XZ ENDP					; KCamera::KCamera
_TEXT	ENDS
PUBLIC	??1BumpMap@@QAE@XZ				; BumpMap::~BumpMap
; Function compile flags: /Odtp /RTCsu /ZI
; File c:\users\kmadsen\google drive\opengl_projects\starter\starter\bumpmap.cpp
;	COMDAT ??1BumpMap@@QAE@XZ
_TEXT	SEGMENT
$T70558 = -212						; size = 4
_this$ = -8						; size = 4
??1BumpMap@@QAE@XZ PROC					; BumpMap::~BumpMap, COMDAT
; _this$ = ecx

; 20   : {

	push	ebp
	mov	ebp, esp
	sub	esp, 216				; 000000d8H
	push	ebx
	push	esi
	push	edi
	push	ecx
	lea	edi, DWORD PTR [ebp-216]
	mov	ecx, 54					; 00000036H
	mov	eax, -858993460				; ccccccccH
	rep stosd
	pop	ecx
	mov	DWORD PTR _this$[ebp], ecx
	mov	eax, DWORD PTR _this$[ebp]
	mov	DWORD PTR [eax], OFFSET ??_7BumpMap@@6B@

; 21   : 	delete m_Ogre;

	mov	eax, DWORD PTR _this$[ebp]
	mov	ecx, DWORD PTR [eax+48]
	mov	DWORD PTR $T70558[ebp], ecx
	mov	edx, DWORD PTR $T70558[ebp]
	push	edx
	call	??3@YAXPAX@Z				; operator delete
	add	esp, 4

; 22   : }

	mov	ecx, DWORD PTR _this$[ebp]
	add	ecx, 4
	call	??1GLSLProgram@@QAE@XZ
	pop	edi
	pop	esi
	pop	ebx
	add	esp, 216				; 000000d8H
	cmp	ebp, esp
	call	__RTC_CheckEsp
	mov	esp, ebp
	pop	ebp
	ret	0
??1BumpMap@@QAE@XZ ENDP					; BumpMap::~BumpMap
_TEXT	ENDS
PUBLIC	?LoadTextures@BumpMap@@AAEXXZ			; BumpMap::LoadTextures
PUBLIC	?SetUp@KCamera@@QAEXMMM@Z			; KCamera::SetUp
PUBLIC	?SetCenter@KCamera@@QAEXMMM@Z			; KCamera::SetCenter
PUBLIC	?SetEye@KCamera@@QAEXMMM@Z			; KCamera::SetEye
PUBLIC	??_C@_0BD@FDHOOOKA@Material?4Shininess?$AA@	; `string'
PUBLIC	??_C@_0BC@MBBKMINF@Material?4Specular?$AA@	; `string'
PUBLIC	??_C@_0P@GDKHOFPI@Light?4Specular?$AA@		; `string'
PUBLIC	??_C@_0O@KGNIAMLF@Light?4Diffuse?$AA@		; `string'
PUBLIC	__real@3f4ccccd
PUBLIC	??_C@_0O@BEIILHKJ@Light?4Ambient?$AA@		; `string'
PUBLIC	??_C@_0P@LMHDNJPN@Light?4Position?$AA@		; `string'
PUBLIC	??0?$tvec4@M@detail@glm@@QAE@ABM000@Z		; glm::detail::tvec4<float>::tvec4<float>
PUBLIC	__real@40800000
PUBLIC	__real@41200000
PUBLIC	__real@40a00000
PUBLIC	__real@3e4ccccd
PUBLIC	__real@3f800000
PUBLIC	??_C@_0BG@EPHBIBN@Shaders?1bump_map?4frag?$AA@	; `string'
PUBLIC	??_C@_0BG@NGFGLMAC@Shaders?1bump_map?4vert?$AA@	; `string'
EXTRN	?SetUniform@GLSLProgram@@QAEXPBDM@Z:PROC	; GLSLProgram::SetUniform
EXTRN	?SetUniform@GLSLProgram@@QAEXPBDMMM@Z:PROC	; GLSLProgram::SetUniform
EXTRN	?SetUniform@GLSLProgram@@QAEXPBDABU?$tvec4@M@detail@glm@@@Z:PROC ; GLSLProgram::SetUniform
EXTRN	__imp__glEnable@4:PROC
EXTRN	__imp__glClearColor@16:PROC
EXTRN	?Use@GLSLProgram@@QAEXXZ:PROC			; GLSLProgram::Use
EXTRN	?Link@GLSLProgram@@QAE_NXZ:PROC			; GLSLProgram::Link
EXTRN	__imp__exit:PROC
EXTRN	?CompileShaderFromFile@GLSLProgram@@QAE_NPBDW4GLSLShaderType@GLSLShader@@@Z:PROC ; GLSLProgram::CompileShaderFromFile
;	COMDAT ??_C@_0BD@FDHOOOKA@Material?4Shininess?$AA@
CONST	SEGMENT
??_C@_0BD@FDHOOOKA@Material?4Shininess?$AA@ DB 'Material.Shininess', 00H ; `string'
CONST	ENDS
;	COMDAT ??_C@_0BC@MBBKMINF@Material?4Specular?$AA@
CONST	SEGMENT
??_C@_0BC@MBBKMINF@Material?4Specular?$AA@ DB 'Material.Specular', 00H ; `string'
CONST	ENDS
;	COMDAT ??_C@_0P@GDKHOFPI@Light?4Specular?$AA@
CONST	SEGMENT
??_C@_0P@GDKHOFPI@Light?4Specular?$AA@ DB 'Light.Specular', 00H ; `string'
CONST	ENDS
;	COMDAT ??_C@_0O@KGNIAMLF@Light?4Diffuse?$AA@
CONST	SEGMENT
??_C@_0O@KGNIAMLF@Light?4Diffuse?$AA@ DB 'Light.Diffuse', 00H ; `string'
CONST	ENDS
;	COMDAT __real@3f4ccccd
CONST	SEGMENT
__real@3f4ccccd DD 03f4ccccdr			; 0.8
CONST	ENDS
;	COMDAT ??_C@_0O@BEIILHKJ@Light?4Ambient?$AA@
CONST	SEGMENT
??_C@_0O@BEIILHKJ@Light?4Ambient?$AA@ DB 'Light.Ambient', 00H ; `string'
CONST	ENDS
;	COMDAT ??_C@_0P@LMHDNJPN@Light?4Position?$AA@
CONST	SEGMENT
??_C@_0P@LMHDNJPN@Light?4Position?$AA@ DB 'Light.Position', 00H ; `string'
CONST	ENDS
;	COMDAT __real@40800000
CONST	SEGMENT
__real@40800000 DD 040800000r			; 4
CONST	ENDS
;	COMDAT __real@41200000
CONST	SEGMENT
__real@41200000 DD 041200000r			; 10
CONST	ENDS
;	COMDAT __real@40a00000
CONST	SEGMENT
__real@40a00000 DD 040a00000r			; 5
CONST	ENDS
;	COMDAT __real@3e4ccccd
CONST	SEGMENT
__real@3e4ccccd DD 03e4ccccdr			; 0.2
CONST	ENDS
;	COMDAT __real@3f800000
CONST	SEGMENT
__real@3f800000 DD 03f800000r			; 1
CONST	ENDS
;	COMDAT ??_C@_0BG@EPHBIBN@Shaders?1bump_map?4frag?$AA@
CONST	SEGMENT
??_C@_0BG@EPHBIBN@Shaders?1bump_map?4frag?$AA@ DB 'Shaders/bump_map.frag', 00H ; `string'
CONST	ENDS
;	COMDAT ??_C@_0BG@NGFGLMAC@Shaders?1bump_map?4vert?$AA@
CONST	SEGMENT
??_C@_0BG@NGFGLMAC@Shaders?1bump_map?4vert?$AA@ DB 'Shaders/bump_map.vert'
	DB	00H						; `string'
; Function compile flags: /Odtp /RTCsu /ZI
CONST	ENDS
;	COMDAT ?Init@BumpMap@@UAEXXZ
_TEXT	SEGMENT
$T70562 = -272						; size = 16
$T70563 = -248						; size = 4
$T70564 = -236						; size = 4
$T70565 = -224						; size = 4
$T70566 = -212						; size = 4
_this$ = -8						; size = 4
?Init@BumpMap@@UAEXXZ PROC				; BumpMap::Init, COMDAT
; _this$ = ecx

; 25   : {

	push	ebp
	mov	ebp, esp
	sub	esp, 276				; 00000114H
	push	ebx
	push	esi
	push	edi
	push	ecx
	lea	edi, DWORD PTR [ebp-276]
	mov	ecx, 69					; 00000045H
	mov	eax, -858993460				; ccccccccH
	rep stosd
	pop	ecx
	mov	DWORD PTR _this$[ebp], ecx

; 26   : 	// Compile and link shaders
; 27   : 	if (!m_Program.CompileShaderFromFile("Shaders/bump_map.vert", GLSLShader::VERTEX)) {

	push	0
	push	OFFSET ??_C@_0BG@NGFGLMAC@Shaders?1bump_map?4vert?$AA@
	mov	ecx, DWORD PTR _this$[ebp]
	add	ecx, 4
	call	?CompileShaderFromFile@GLSLProgram@@QAE_NPBDW4GLSLShaderType@GLSLShader@@@Z ; GLSLProgram::CompileShaderFromFile
	movzx	eax, al
	test	eax, eax
	jne	SHORT $LN3@Init

; 28   : 		exit(1);

	mov	esi, esp
	push	1
	call	DWORD PTR __imp__exit
	cmp	esi, esp
	call	__RTC_CheckEsp
$LN3@Init:

; 29   : 	}
; 30   : 	if (!m_Program.CompileShaderFromFile("Shaders/bump_map.frag", GLSLShader::FRAGMENT)) {

	push	1
	push	OFFSET ??_C@_0BG@EPHBIBN@Shaders?1bump_map?4frag?$AA@
	mov	ecx, DWORD PTR _this$[ebp]
	add	ecx, 4
	call	?CompileShaderFromFile@GLSLProgram@@QAE_NPBDW4GLSLShaderType@GLSLShader@@@Z ; GLSLProgram::CompileShaderFromFile
	movzx	eax, al
	test	eax, eax
	jne	SHORT $LN2@Init

; 31   : 		exit(1);

	mov	esi, esp
	push	1
	call	DWORD PTR __imp__exit
	cmp	esi, esp
	call	__RTC_CheckEsp
$LN2@Init:

; 32   : 	}
; 33   : 	if (!m_Program.Link()) {

	mov	ecx, DWORD PTR _this$[ebp]
	add	ecx, 4
	call	?Link@GLSLProgram@@QAE_NXZ		; GLSLProgram::Link
	movzx	eax, al
	test	eax, eax
	jne	SHORT $LN1@Init

; 34   : 		exit(1);

	mov	esi, esp
	push	1
	call	DWORD PTR __imp__exit
	cmp	esi, esp
	call	__RTC_CheckEsp
$LN1@Init:

; 35   : 	}
; 36   : 	m_Program.Use();

	mov	ecx, DWORD PTR _this$[ebp]
	add	ecx, 4
	call	?Use@GLSLProgram@@QAEXXZ		; GLSLProgram::Use

; 37   : 
; 38   : 	// Initialize gl
; 39   : 	glClearColor(0.2f,0.2f,0.2f,1.0f);

	mov	esi, esp
	push	ecx
	fld1
	fstp	DWORD PTR [esp]
	push	ecx
	fld	DWORD PTR __real@3e4ccccd
	fstp	DWORD PTR [esp]
	push	ecx
	fld	DWORD PTR __real@3e4ccccd
	fstp	DWORD PTR [esp]
	push	ecx
	fld	DWORD PTR __real@3e4ccccd
	fstp	DWORD PTR [esp]
	call	DWORD PTR __imp__glClearColor@16
	cmp	esi, esp
	call	__RTC_CheckEsp

; 40   : 	glEnable(GL_DEPTH_TEST);

	mov	esi, esp
	push	2929					; 00000b71H
	call	DWORD PTR __imp__glEnable@4
	cmp	esi, esp
	call	__RTC_CheckEsp

; 41   : 
; 42   : 	m_Program.SetUniform("Light.Position", vec4(4.0f,10.0f,5.0f,1.0f));

	fld1
	fstp	DWORD PTR $T70563[ebp]
	fld	DWORD PTR __real@40a00000
	fstp	DWORD PTR $T70564[ebp]
	fld	DWORD PTR __real@41200000
	fstp	DWORD PTR $T70565[ebp]
	fld	DWORD PTR __real@40800000
	fstp	DWORD PTR $T70566[ebp]
	lea	eax, DWORD PTR $T70563[ebp]
	push	eax
	lea	ecx, DWORD PTR $T70564[ebp]
	push	ecx
	lea	edx, DWORD PTR $T70565[ebp]
	push	edx
	lea	eax, DWORD PTR $T70566[ebp]
	push	eax
	lea	ecx, DWORD PTR $T70562[ebp]
	call	??0?$tvec4@M@detail@glm@@QAE@ABM000@Z	; glm::detail::tvec4<float>::tvec4<float>
	push	eax
	push	OFFSET ??_C@_0P@LMHDNJPN@Light?4Position?$AA@
	mov	ecx, DWORD PTR _this$[ebp]
	add	ecx, 4
	call	?SetUniform@GLSLProgram@@QAEXPBDABU?$tvec4@M@detail@glm@@@Z ; GLSLProgram::SetUniform

; 43   : 	m_Program.SetUniform("Light.Ambient", 0.2f, 0.2f, 0.2f);

	push	ecx
	fld	DWORD PTR __real@3e4ccccd
	fstp	DWORD PTR [esp]
	push	ecx
	fld	DWORD PTR __real@3e4ccccd
	fstp	DWORD PTR [esp]
	push	ecx
	fld	DWORD PTR __real@3e4ccccd
	fstp	DWORD PTR [esp]
	push	OFFSET ??_C@_0O@BEIILHKJ@Light?4Ambient?$AA@
	mov	ecx, DWORD PTR _this$[ebp]
	add	ecx, 4
	call	?SetUniform@GLSLProgram@@QAEXPBDMMM@Z	; GLSLProgram::SetUniform

; 44   : 	m_Program.SetUniform("Light.Diffuse", 0.8f, 0.8f, 0.8f);

	push	ecx
	fld	DWORD PTR __real@3f4ccccd
	fstp	DWORD PTR [esp]
	push	ecx
	fld	DWORD PTR __real@3f4ccccd
	fstp	DWORD PTR [esp]
	push	ecx
	fld	DWORD PTR __real@3f4ccccd
	fstp	DWORD PTR [esp]
	push	OFFSET ??_C@_0O@KGNIAMLF@Light?4Diffuse?$AA@
	mov	ecx, DWORD PTR _this$[ebp]
	add	ecx, 4
	call	?SetUniform@GLSLProgram@@QAEXPBDMMM@Z	; GLSLProgram::SetUniform

; 45   : 	m_Program.SetUniform("Light.Specular", 0.2f, 0.2f, 0.2f);

	push	ecx
	fld	DWORD PTR __real@3e4ccccd
	fstp	DWORD PTR [esp]
	push	ecx
	fld	DWORD PTR __real@3e4ccccd
	fstp	DWORD PTR [esp]
	push	ecx
	fld	DWORD PTR __real@3e4ccccd
	fstp	DWORD PTR [esp]
	push	OFFSET ??_C@_0P@GDKHOFPI@Light?4Specular?$AA@
	mov	ecx, DWORD PTR _this$[ebp]
	add	ecx, 4
	call	?SetUniform@GLSLProgram@@QAEXPBDMMM@Z	; GLSLProgram::SetUniform

; 46   : 
; 47   : 	m_Program.SetUniform("Material.Specular", 1.0f, 1.0f, 1.0f);

	push	ecx
	fld1
	fstp	DWORD PTR [esp]
	push	ecx
	fld1
	fstp	DWORD PTR [esp]
	push	ecx
	fld1
	fstp	DWORD PTR [esp]
	push	OFFSET ??_C@_0BC@MBBKMINF@Material?4Specular?$AA@
	mov	ecx, DWORD PTR _this$[ebp]
	add	ecx, 4
	call	?SetUniform@GLSLProgram@@QAEXPBDMMM@Z	; GLSLProgram::SetUniform

; 48   : 	m_Program.SetUniform("Material.Shininess", 1.0f);

	push	ecx
	fld1
	fstp	DWORD PTR [esp]
	push	OFFSET ??_C@_0BD@FDHOOOKA@Material?4Shininess?$AA@
	mov	ecx, DWORD PTR _this$[ebp]
	add	ecx, 4
	call	?SetUniform@GLSLProgram@@QAEXPBDM@Z	; GLSLProgram::SetUniform

; 49   : 
; 50   : 	m_Camera.SetEye(0.0f,0.0f,5.0f);

	push	ecx
	fld	DWORD PTR __real@40a00000
	fstp	DWORD PTR [esp]
	push	ecx
	fldz
	fstp	DWORD PTR [esp]
	push	ecx
	fldz
	fstp	DWORD PTR [esp]
	mov	ecx, DWORD PTR _this$[ebp]
	add	ecx, 132				; 00000084H
	call	?SetEye@KCamera@@QAEXMMM@Z		; KCamera::SetEye

; 51   : 	m_Camera.SetCenter(0.0f,0.0f,0.0f);

	push	ecx
	fldz
	fstp	DWORD PTR [esp]
	push	ecx
	fldz
	fstp	DWORD PTR [esp]
	push	ecx
	fldz
	fstp	DWORD PTR [esp]
	mov	ecx, DWORD PTR _this$[ebp]
	add	ecx, 132				; 00000084H
	call	?SetCenter@KCamera@@QAEXMMM@Z		; KCamera::SetCenter

; 52   : 	m_Camera.SetUp(0.0f,1.0f,0.0f);

	push	ecx
	fldz
	fstp	DWORD PTR [esp]
	push	ecx
	fld1
	fstp	DWORD PTR [esp]
	push	ecx
	fldz
	fstp	DWORD PTR [esp]
	mov	ecx, DWORD PTR _this$[ebp]
	add	ecx, 132				; 00000084H
	call	?SetUp@KCamera@@QAEXMMM@Z		; KCamera::SetUp

; 53   : 
; 54   : 	LoadTextures();

	mov	ecx, DWORD PTR _this$[ebp]
	call	?LoadTextures@BumpMap@@AAEXXZ		; BumpMap::LoadTextures
$LN4@Init:

; 55   : }

	pop	edi
	pop	esi
	pop	ebx
	add	esp, 276				; 00000114H
	cmp	ebp, esp
	call	__RTC_CheckEsp
	mov	esp, ebp
	pop	ebp
	ret	0
?Init@BumpMap@@UAEXXZ ENDP				; BumpMap::Init
_TEXT	ENDS
PUBLIC	?UpdateView@KCamera@@AAEXXZ			; KCamera::UpdateView
; Function compile flags: /Odtp /RTCsu /ZI
; File c:\users\kmadsen\google drive\opengl_projects\starter\starter\kscene.h
;	COMDAT ?SetEye@KCamera@@QAEXMMM@Z
_TEXT	SEGMENT
_this$ = -8						; size = 4
_x$ = 8							; size = 4
_y$ = 12						; size = 4
_z$ = 16						; size = 4
?SetEye@KCamera@@QAEXMMM@Z PROC				; KCamera::SetEye, COMDAT
; _this$ = ecx

; 45   : 	{

	push	ebp
	mov	ebp, esp
	sub	esp, 204				; 000000ccH
	push	ebx
	push	esi
	push	edi
	push	ecx
	lea	edi, DWORD PTR [ebp-204]
	mov	ecx, 51					; 00000033H
	mov	eax, -858993460				; ccccccccH
	rep stosd
	pop	ecx
	mov	DWORD PTR _this$[ebp], ecx

; 46   : 		Eye.x = x; Eye.y = y; Eye.z = z;

	mov	eax, DWORD PTR _this$[ebp]
	fld	DWORD PTR _x$[ebp]
	fstp	DWORD PTR [eax]
	mov	eax, DWORD PTR _this$[ebp]
	fld	DWORD PTR _y$[ebp]
	fstp	DWORD PTR [eax+4]
	mov	eax, DWORD PTR _this$[ebp]
	fld	DWORD PTR _z$[ebp]
	fstp	DWORD PTR [eax+8]

; 47   : 		UpdateView();

	mov	ecx, DWORD PTR _this$[ebp]
	call	?UpdateView@KCamera@@AAEXXZ		; KCamera::UpdateView

; 48   : 	}

	pop	edi
	pop	esi
	pop	ebx
	add	esp, 204				; 000000ccH
	cmp	ebp, esp
	call	__RTC_CheckEsp
	mov	esp, ebp
	pop	ebp
	ret	12					; 0000000cH
?SetEye@KCamera@@QAEXMMM@Z ENDP				; KCamera::SetEye
; Function compile flags: /Odtp /RTCsu /ZI
_TEXT	ENDS
;	COMDAT ?SetCenter@KCamera@@QAEXMMM@Z
_TEXT	SEGMENT
_this$ = -8						; size = 4
_x$ = 8							; size = 4
_y$ = 12						; size = 4
_z$ = 16						; size = 4
?SetCenter@KCamera@@QAEXMMM@Z PROC			; KCamera::SetCenter, COMDAT
; _this$ = ecx

; 51   : 	{

	push	ebp
	mov	ebp, esp
	sub	esp, 204				; 000000ccH
	push	ebx
	push	esi
	push	edi
	push	ecx
	lea	edi, DWORD PTR [ebp-204]
	mov	ecx, 51					; 00000033H
	mov	eax, -858993460				; ccccccccH
	rep stosd
	pop	ecx
	mov	DWORD PTR _this$[ebp], ecx

; 52   : 		Center.x = x; Center.y = y; Center.z = z;

	mov	eax, DWORD PTR _this$[ebp]
	fld	DWORD PTR _x$[ebp]
	fstp	DWORD PTR [eax+12]
	mov	eax, DWORD PTR _this$[ebp]
	fld	DWORD PTR _y$[ebp]
	fstp	DWORD PTR [eax+16]
	mov	eax, DWORD PTR _this$[ebp]
	fld	DWORD PTR _z$[ebp]
	fstp	DWORD PTR [eax+20]

; 53   : 		UpdateView();

	mov	ecx, DWORD PTR _this$[ebp]
	call	?UpdateView@KCamera@@AAEXXZ		; KCamera::UpdateView

; 54   : 	}

	pop	edi
	pop	esi
	pop	ebx
	add	esp, 204				; 000000ccH
	cmp	ebp, esp
	call	__RTC_CheckEsp
	mov	esp, ebp
	pop	ebp
	ret	12					; 0000000cH
?SetCenter@KCamera@@QAEXMMM@Z ENDP			; KCamera::SetCenter
_TEXT	ENDS
PUBLIC	??4?$tvec3@M@detail@glm@@QAEAAU012@ABU012@@Z	; glm::detail::tvec3<float>::operator=
PUBLIC	??$normalize@M@glm@@YA?AU?$tvec3@M@detail@0@ABU120@@Z ; glm::normalize<float>
; Function compile flags: /Odtp /RTCsu /ZI
;	COMDAT ?SetUp@KCamera@@QAEXMMM@Z
_TEXT	SEGMENT
$T70585 = -220						; size = 12
_this$ = -8						; size = 4
_x$ = 8							; size = 4
_y$ = 12						; size = 4
_z$ = 16						; size = 4
?SetUp@KCamera@@QAEXMMM@Z PROC				; KCamera::SetUp, COMDAT
; _this$ = ecx

; 57   : 	{

	push	ebp
	mov	ebp, esp
	sub	esp, 224				; 000000e0H
	push	ebx
	push	esi
	push	edi
	push	ecx
	lea	edi, DWORD PTR [ebp-224]
	mov	ecx, 56					; 00000038H
	mov	eax, -858993460				; ccccccccH
	rep stosd
	pop	ecx
	mov	DWORD PTR _this$[ebp], ecx

; 58   : 		Up.x = x; Up.y = y; Up.z = z;

	mov	eax, DWORD PTR _this$[ebp]
	fld	DWORD PTR _x$[ebp]
	fstp	DWORD PTR [eax+24]
	mov	eax, DWORD PTR _this$[ebp]
	fld	DWORD PTR _y$[ebp]
	fstp	DWORD PTR [eax+28]
	mov	eax, DWORD PTR _this$[ebp]
	fld	DWORD PTR _z$[ebp]
	fstp	DWORD PTR [eax+32]

; 59   : 		Up = glm::normalize(Up);

	mov	eax, DWORD PTR _this$[ebp]
	add	eax, 24					; 00000018H
	push	eax
	lea	ecx, DWORD PTR $T70585[ebp]
	push	ecx
	call	??$normalize@M@glm@@YA?AU?$tvec3@M@detail@0@ABU120@@Z ; glm::normalize<float>
	add	esp, 8
	push	eax
	mov	ecx, DWORD PTR _this$[ebp]
	add	ecx, 24					; 00000018H
	call	??4?$tvec3@M@detail@glm@@QAEAAU012@ABU012@@Z ; glm::detail::tvec3<float>::operator=

; 60   : 		UpdateView();

	mov	ecx, DWORD PTR _this$[ebp]
	call	?UpdateView@KCamera@@AAEXXZ		; KCamera::UpdateView

; 61   : 	}

	pop	edi
	pop	esi
	pop	ebx
	add	esp, 224				; 000000e0H
	cmp	ebp, esp
	call	__RTC_CheckEsp
	mov	esp, ebp
	pop	ebp
	ret	12					; 0000000cH
?SetUp@KCamera@@QAEXMMM@Z ENDP				; KCamera::SetUp
_TEXT	ENDS
PUBLIC	??$?DM@detail@glm@@YA?AU?$tmat4x4@M@01@ABU201@0@Z ; glm::detail::operator*<float>
PUBLIC	?GetTransform@KRotater@@QAEABU?$tmat4x4@M@detail@glm@@XZ ; KRotater::GetTransform
PUBLIC	??4?$tmat4x4@M@detail@glm@@QAEAAU012@ABU012@@Z	; glm::detail::tmat4x4<float>::operator=
PUBLIC	??$lookAt@M@glm@@YA?AU?$tmat4x4@M@detail@0@ABU?$tvec3@M@20@00@Z ; glm::lookAt<float>
PUBLIC	__$ArrayPad$
; Function compile flags: /Odtp /RTCsu /ZI
;	COMDAT ?UpdateView@KCamera@@AAEXXZ
_TEXT	SEGMENT
$T57872 = -348						; size = 64
$T57921 = -276						; size = 64
_this$ = -12						; size = 4
__$ArrayPad$ = -4					; size = 4
?UpdateView@KCamera@@AAEXXZ PROC			; KCamera::UpdateView, COMDAT
; _this$ = ecx

; 90   : 	{

	push	ebp
	mov	ebp, esp
	sub	esp, 352				; 00000160H
	push	ebx
	push	esi
	push	edi
	push	ecx
	lea	edi, DWORD PTR [ebp-352]
	mov	ecx, 88					; 00000058H
	mov	eax, -858993460				; ccccccccH
	rep stosd
	pop	ecx
	mov	eax, DWORD PTR ___security_cookie
	xor	eax, ebp
	mov	DWORD PTR __$ArrayPad$[ebp], eax
	mov	DWORD PTR _this$[ebp], ecx

; 91   : 		View = glm::lookAt(Eye, Center, Up);

	mov	eax, DWORD PTR _this$[ebp]
	add	eax, 24					; 00000018H
	push	eax
	mov	ecx, DWORD PTR _this$[ebp]
	add	ecx, 12					; 0000000cH
	push	ecx
	mov	edx, DWORD PTR _this$[ebp]
	push	edx
	lea	eax, DWORD PTR $T57872[ebp]
	push	eax
	call	??$lookAt@M@glm@@YA?AU?$tmat4x4@M@detail@0@ABU?$tvec3@M@20@00@Z ; glm::lookAt<float>
	add	esp, 16					; 00000010H
	push	eax
	mov	ecx, DWORD PTR _this$[ebp]
	add	ecx, 36					; 00000024H
	call	??4?$tmat4x4@M@detail@glm@@QAEAAU012@ABU012@@Z ; glm::detail::tmat4x4<float>::operator=

; 92   : 		View = Rotater.GetTransform() * View;

	mov	eax, DWORD PTR _this$[ebp]
	add	eax, 36					; 00000024H
	push	eax
	mov	ecx, DWORD PTR _this$[ebp]
	add	ecx, 100				; 00000064H
	call	?GetTransform@KRotater@@QAEABU?$tmat4x4@M@detail@glm@@XZ ; KRotater::GetTransform
	push	eax
	lea	ecx, DWORD PTR $T57921[ebp]
	push	ecx
	call	??$?DM@detail@glm@@YA?AU?$tmat4x4@M@01@ABU201@0@Z ; glm::detail::operator*<float>
	add	esp, 12					; 0000000cH
	push	eax
	mov	ecx, DWORD PTR _this$[ebp]
	add	ecx, 36					; 00000024H
	call	??4?$tmat4x4@M@detail@glm@@QAEAAU012@ABU012@@Z ; glm::detail::tmat4x4<float>::operator=

; 93   : 	}

	pop	edi
	pop	esi
	pop	ebx
	mov	ecx, DWORD PTR __$ArrayPad$[ebp]
	xor	ecx, ebp
	call	@__security_check_cookie@4
	add	esp, 352				; 00000160H
	cmp	ebp, esp
	call	__RTC_CheckEsp
	mov	esp, ebp
	pop	ebp
	ret	0
?UpdateView@KCamera@@AAEXXZ ENDP			; KCamera::UpdateView
; Function compile flags: /Odtp /RTCsu /ZI
_TEXT	ENDS
;	COMDAT ?GetTransform@KRotater@@QAEABU?$tmat4x4@M@detail@glm@@XZ
_TEXT	SEGMENT
_this$ = -8						; size = 4
?GetTransform@KRotater@@QAEABU?$tmat4x4@M@detail@glm@@XZ PROC ; KRotater::GetTransform, COMDAT
; _this$ = ecx

; 33   : 	const glm::mat4 &GetTransform() { return m_Transform; }

	push	ebp
	mov	ebp, esp
	sub	esp, 204				; 000000ccH
	push	ebx
	push	esi
	push	edi
	push	ecx
	lea	edi, DWORD PTR [ebp-204]
	mov	ecx, 51					; 00000033H
	mov	eax, -858993460				; ccccccccH
	rep stosd
	pop	ecx
	mov	DWORD PTR _this$[ebp], ecx
	mov	eax, DWORD PTR _this$[ebp]
	add	eax, 8
	pop	edi
	pop	esi
	pop	ebx
	mov	esp, ebp
	pop	ebp
	ret	0
?GetTransform@KRotater@@QAEABU?$tmat4x4@M@detail@glm@@XZ ENDP ; KRotater::GetTransform
_TEXT	ENDS
PUBLIC	??_C@_0L@HJOMBOJA@Projection?$AA@		; `string'
PUBLIC	??$perspective@M@glm@@YA?AU?$tmat4x4@M@detail@0@ABM000@Z ; glm::perspective<float>
PUBLIC	__real@420c0000
PUBLIC	__real@3dcccccd
PUBLIC	__real@42c80000
PUBLIC	__$ArrayPad$
EXTRN	?SetUniform@GLSLProgram@@QAEXPBDABU?$tmat4x4@M@detail@glm@@@Z:PROC ; GLSLProgram::SetUniform
EXTRN	@_RTC_CheckStackVars@8:PROC
;	COMDAT ??_C@_0L@HJOMBOJA@Projection?$AA@
; File c:\users\kmadsen\google drive\opengl_projects\starter\starter\bumpmap.cpp
CONST	SEGMENT
??_C@_0L@HJOMBOJA@Projection?$AA@ DB 'Projection', 00H	; `string'
CONST	ENDS
;	COMDAT __real@420c0000
CONST	SEGMENT
__real@420c0000 DD 0420c0000r			; 35
CONST	ENDS
;	COMDAT __real@3dcccccd
CONST	SEGMENT
__real@3dcccccd DD 03dcccccdr			; 0.1
CONST	ENDS
;	COMDAT __real@42c80000
CONST	SEGMENT
__real@42c80000 DD 042c80000r			; 100
; Function compile flags: /Odtp /RTCsu /ZI
CONST	ENDS
;	COMDAT ?Resize@BumpMap@@UAEXHH@Z
_TEXT	SEGMENT
$T62750 = -324						; size = 64
$T70594 = -252						; size = 4
$T70595 = -240						; size = 4
$T70596 = -228						; size = 4
_aspectRatio$ = -24					; size = 4
_this$ = -12						; size = 4
__$ArrayPad$ = -4					; size = 4
_width$ = 8						; size = 4
_height$ = 12						; size = 4
?Resize@BumpMap@@UAEXHH@Z PROC				; BumpMap::Resize, COMDAT
; _this$ = ecx

; 58   : {

	push	ebp
	mov	ebp, esp
	sub	esp, 328				; 00000148H
	push	ebx
	push	esi
	push	edi
	push	ecx
	lea	edi, DWORD PTR [ebp-328]
	mov	ecx, 82					; 00000052H
	mov	eax, -858993460				; ccccccccH
	rep stosd
	pop	ecx
	mov	eax, DWORD PTR ___security_cookie
	xor	eax, ebp
	mov	DWORD PTR __$ArrayPad$[ebp], eax
	mov	DWORD PTR _this$[ebp], ecx

; 59   : 	float aspectRatio = width / (float)height;

	fild	DWORD PTR _width$[ebp]
	fidiv	DWORD PTR _height$[ebp]
	fstp	DWORD PTR _aspectRatio$[ebp]

; 60   : 	m_ProjectionM = perspective(35.0f, aspectRatio, 0.1f, 100.0f);

	fld	DWORD PTR __real@42c80000
	fstp	DWORD PTR $T70594[ebp]
	fld	DWORD PTR __real@3dcccccd
	fstp	DWORD PTR $T70595[ebp]
	fld	DWORD PTR __real@420c0000
	fstp	DWORD PTR $T70596[ebp]
	lea	eax, DWORD PTR $T70594[ebp]
	push	eax
	lea	ecx, DWORD PTR $T70595[ebp]
	push	ecx
	lea	edx, DWORD PTR _aspectRatio$[ebp]
	push	edx
	lea	eax, DWORD PTR $T70596[ebp]
	push	eax
	lea	ecx, DWORD PTR $T62750[ebp]
	push	ecx
	call	??$perspective@M@glm@@YA?AU?$tmat4x4@M@detail@0@ABM000@Z ; glm::perspective<float>
	add	esp, 20					; 00000014H
	push	eax
	mov	ecx, DWORD PTR _this$[ebp]
	add	ecx, 52					; 00000034H
	call	??4?$tmat4x4@M@detail@glm@@QAEAAU012@ABU012@@Z ; glm::detail::tmat4x4<float>::operator=

; 61   : 	m_Program.SetUniform("Projection", m_ProjectionM);

	mov	eax, DWORD PTR _this$[ebp]
	add	eax, 52					; 00000034H
	push	eax
	push	OFFSET ??_C@_0L@HJOMBOJA@Projection?$AA@
	mov	ecx, DWORD PTR _this$[ebp]
	add	ecx, 4
	call	?SetUniform@GLSLProgram@@QAEXPBDABU?$tmat4x4@M@detail@glm@@@Z ; GLSLProgram::SetUniform

; 62   : }

	push	edx
	mov	ecx, ebp
	push	eax
	lea	edx, DWORD PTR $LN5@Resize
	call	@_RTC_CheckStackVars@8
	pop	eax
	pop	edx
	pop	edi
	pop	esi
	pop	ebx
	mov	ecx, DWORD PTR __$ArrayPad$[ebp]
	xor	ecx, ebp
	call	@__security_check_cookie@4
	add	esp, 328				; 00000148H
	cmp	ebp, esp
	call	__RTC_CheckEsp
	mov	esp, ebp
	pop	ebp
	ret	8
	npad	2
$LN5@Resize:
	DD	1
	DD	$LN4@Resize
$LN4@Resize:
	DD	-24					; ffffffe8H
	DD	4
	DD	$LN3@Resize
$LN3@Resize:
	DB	97					; 00000061H
	DB	115					; 00000073H
	DB	112					; 00000070H
	DB	101					; 00000065H
	DB	99					; 00000063H
	DB	116					; 00000074H
	DB	82					; 00000052H
	DB	97					; 00000061H
	DB	116					; 00000074H
	DB	105					; 00000069H
	DB	111					; 0000006fH
	DB	0
?Resize@BumpMap@@UAEXHH@Z ENDP				; BumpMap::Resize
_TEXT	ENDS
PUBLIC	??_C@_03GFEPKPFF@MVP?$AA@			; `string'
PUBLIC	??_C@_09NJONDDNG@ModelView?$AA@			; `string'
PUBLIC	??_C@_0N@CINNHGPB@NormalMatrix?$AA@		; `string'
PUBLIC	??0?$tmat3x3@M@detail@glm@@QAE@ABU?$tvec3@M@12@00@Z ; glm::detail::tmat3x3<float>::tmat3x3<float>
PUBLIC	??$?0M@?$tvec3@M@detail@glm@@QAE@ABU?$tvec4@M@12@@Z ; glm::detail::tvec3<float>::tvec3<float><float>
PUBLIC	??A?$tmat4x4@M@detail@glm@@QAEAAU?$tvec4@M@12@I@Z ; glm::detail::tmat4x4<float>::operator[]
PUBLIC	?GetView@KCamera@@QBE?AU?$tmat4x4@M@detail@glm@@XZ ; KCamera::GetView
PUBLIC	__$ArrayPad$
EXTRN	?SetUniform@GLSLProgram@@QAEXPBDABU?$tmat3x3@M@detail@glm@@@Z:PROC ; GLSLProgram::SetUniform
EXTRN	__imp__glClear@4:PROC
;	COMDAT ??_C@_03GFEPKPFF@MVP?$AA@
CONST	SEGMENT
??_C@_03GFEPKPFF@MVP?$AA@ DB 'MVP', 00H			; `string'
CONST	ENDS
;	COMDAT ??_C@_09NJONDDNG@ModelView?$AA@
CONST	SEGMENT
??_C@_09NJONDDNG@ModelView?$AA@ DB 'ModelView', 00H	; `string'
CONST	ENDS
;	COMDAT ??_C@_0N@CINNHGPB@NormalMatrix?$AA@
CONST	SEGMENT
??_C@_0N@CINNHGPB@NormalMatrix?$AA@ DB 'NormalMatrix', 00H ; `string'
; Function compile flags: /Odtp /RTCsu /ZI
CONST	ENDS
;	COMDAT ?Render@BumpMap@@UAEXXZ
_TEXT	SEGMENT
$T62766 = -524						; size = 64
$T70610 = -452						; size = 12
$T70611 = -432						; size = 12
$T70612 = -412						; size = 12
_NormalMatrix$ = -200					; size = 36
_MVP$ = -156						; size = 64
_ModelView$ = -84					; size = 64
_this$ = -12						; size = 4
__$ArrayPad$ = -4					; size = 4
?Render@BumpMap@@UAEXXZ PROC				; BumpMap::Render, COMDAT
; _this$ = ecx

; 65   : {

	push	ebp
	mov	ebp, esp
	sub	esp, 528				; 00000210H
	push	ebx
	push	esi
	push	edi
	push	ecx
	lea	edi, DWORD PTR [ebp-528]
	mov	ecx, 132				; 00000084H
	mov	eax, -858993460				; ccccccccH
	rep stosd
	pop	ecx
	mov	eax, DWORD PTR ___security_cookie
	xor	eax, ebp
	mov	DWORD PTR __$ArrayPad$[ebp], eax
	mov	DWORD PTR _this$[ebp], ecx

; 66   : 	glClear(GL_COLOR_BUFFER_BIT | GL_DEPTH_BUFFER_BIT); 

	mov	esi, esp
	push	16640					; 00004100H
	call	DWORD PTR __imp__glClear@4
	cmp	esi, esp
	call	__RTC_CheckEsp

; 67   : 
; 68   : 	mat4 ModelView = m_Camera.GetView() * m_Rotater.GetTransform();

	mov	ecx, DWORD PTR _this$[ebp]
	add	ecx, 304				; 00000130H
	call	?GetTransform@KRotater@@QAEABU?$tmat4x4@M@detail@glm@@XZ ; KRotater::GetTransform
	push	eax
	lea	eax, DWORD PTR $T62766[ebp]
	push	eax
	mov	ecx, DWORD PTR _this$[ebp]
	add	ecx, 132				; 00000084H
	call	?GetView@KCamera@@QBE?AU?$tmat4x4@M@detail@glm@@XZ ; KCamera::GetView
	push	eax
	lea	ecx, DWORD PTR _ModelView$[ebp]
	push	ecx
	call	??$?DM@detail@glm@@YA?AU?$tmat4x4@M@01@ABU201@0@Z ; glm::detail::operator*<float>
	add	esp, 12					; 0000000cH

; 69   : 	mat4 MVP = m_ProjectionM * ModelView;

	lea	eax, DWORD PTR _ModelView$[ebp]
	push	eax
	mov	ecx, DWORD PTR _this$[ebp]
	add	ecx, 52					; 00000034H
	push	ecx
	lea	edx, DWORD PTR _MVP$[ebp]
	push	edx
	call	??$?DM@detail@glm@@YA?AU?$tmat4x4@M@01@ABU201@0@Z ; glm::detail::operator*<float>
	add	esp, 12					; 0000000cH

; 70   : 	mat3 NormalMatrix = 
; 71   : 		mat3(vec3(ModelView[0]),
; 72   : 			 vec3(ModelView[1]),
; 73   : 			 vec3(ModelView[2]));

	push	2
	lea	ecx, DWORD PTR _ModelView$[ebp]
	call	??A?$tmat4x4@M@detail@glm@@QAEAAU?$tvec4@M@12@I@Z ; glm::detail::tmat4x4<float>::operator[]
	push	eax
	lea	ecx, DWORD PTR $T70610[ebp]
	call	??$?0M@?$tvec3@M@detail@glm@@QAE@ABU?$tvec4@M@12@@Z ; glm::detail::tvec3<float>::tvec3<float><float>
	push	eax
	push	1
	lea	ecx, DWORD PTR _ModelView$[ebp]
	call	??A?$tmat4x4@M@detail@glm@@QAEAAU?$tvec4@M@12@I@Z ; glm::detail::tmat4x4<float>::operator[]
	push	eax
	lea	ecx, DWORD PTR $T70611[ebp]
	call	??$?0M@?$tvec3@M@detail@glm@@QAE@ABU?$tvec4@M@12@@Z ; glm::detail::tvec3<float>::tvec3<float><float>
	push	eax
	push	0
	lea	ecx, DWORD PTR _ModelView$[ebp]
	call	??A?$tmat4x4@M@detail@glm@@QAEAAU?$tvec4@M@12@I@Z ; glm::detail::tmat4x4<float>::operator[]
	push	eax
	lea	ecx, DWORD PTR $T70612[ebp]
	call	??$?0M@?$tvec3@M@detail@glm@@QAE@ABU?$tvec4@M@12@@Z ; glm::detail::tvec3<float>::tvec3<float><float>
	push	eax
	lea	ecx, DWORD PTR _NormalMatrix$[ebp]
	call	??0?$tmat3x3@M@detail@glm@@QAE@ABU?$tvec3@M@12@00@Z ; glm::detail::tmat3x3<float>::tmat3x3<float>

; 74   : 
; 75   : 	m_Program.SetUniform("NormalMatrix", NormalMatrix);

	lea	eax, DWORD PTR _NormalMatrix$[ebp]
	push	eax
	push	OFFSET ??_C@_0N@CINNHGPB@NormalMatrix?$AA@
	mov	ecx, DWORD PTR _this$[ebp]
	add	ecx, 4
	call	?SetUniform@GLSLProgram@@QAEXPBDABU?$tmat3x3@M@detail@glm@@@Z ; GLSLProgram::SetUniform

; 76   : 	m_Program.SetUniform("ModelView", ModelView);

	lea	eax, DWORD PTR _ModelView$[ebp]
	push	eax
	push	OFFSET ??_C@_09NJONDDNG@ModelView?$AA@
	mov	ecx, DWORD PTR _this$[ebp]
	add	ecx, 4
	call	?SetUniform@GLSLProgram@@QAEXPBDABU?$tmat4x4@M@detail@glm@@@Z ; GLSLProgram::SetUniform

; 77   : 	m_Program.SetUniform("MVP", MVP);

	lea	eax, DWORD PTR _MVP$[ebp]
	push	eax
	push	OFFSET ??_C@_03GFEPKPFF@MVP?$AA@
	mov	ecx, DWORD PTR _this$[ebp]
	add	ecx, 4
	call	?SetUniform@GLSLProgram@@QAEXPBDABU?$tmat4x4@M@detail@glm@@@Z ; GLSLProgram::SetUniform

; 78   : 
; 79   : 	m_Ogre->render();

	mov	eax, DWORD PTR _this$[ebp]
	mov	ecx, DWORD PTR [eax+48]
	mov	edx, DWORD PTR _this$[ebp]
	mov	eax, DWORD PTR [edx+48]
	mov	edx, DWORD PTR [ecx]
	mov	esi, esp
	mov	ecx, eax
	mov	eax, DWORD PTR [edx]
	call	eax
	cmp	esi, esp
	call	__RTC_CheckEsp

; 80   : }

	push	edx
	mov	ecx, ebp
	push	eax
	lea	edx, DWORD PTR $LN7@Render
	call	@_RTC_CheckStackVars@8
	pop	eax
	pop	edx
	pop	edi
	pop	esi
	pop	ebx
	mov	ecx, DWORD PTR __$ArrayPad$[ebp]
	xor	ecx, ebp
	call	@__security_check_cookie@4
	add	esp, 528				; 00000210H
	cmp	ebp, esp
	call	__RTC_CheckEsp
	mov	esp, ebp
	pop	ebp
	ret	0
	npad	2
$LN7@Render:
	DD	3
	DD	$LN6@Render
$LN6@Render:
	DD	-84					; ffffffacH
	DD	64					; 00000040H
	DD	$LN3@Render
	DD	-156					; ffffff64H
	DD	64					; 00000040H
	DD	$LN4@Render
	DD	-200					; ffffff38H
	DD	36					; 00000024H
	DD	$LN5@Render
$LN5@Render:
	DB	78					; 0000004eH
	DB	111					; 0000006fH
	DB	114					; 00000072H
	DB	109					; 0000006dH
	DB	97					; 00000061H
	DB	108					; 0000006cH
	DB	77					; 0000004dH
	DB	97					; 00000061H
	DB	116					; 00000074H
	DB	114					; 00000072H
	DB	105					; 00000069H
	DB	120					; 00000078H
	DB	0
$LN4@Render:
	DB	77					; 0000004dH
	DB	86					; 00000056H
	DB	80					; 00000050H
	DB	0
$LN3@Render:
	DB	77					; 0000004dH
	DB	111					; 0000006fH
	DB	100					; 00000064H
	DB	101					; 00000065H
	DB	108					; 0000006cH
	DB	86					; 00000056H
	DB	105					; 00000069H
	DB	101					; 00000065H
	DB	119					; 00000077H
	DB	0
?Render@BumpMap@@UAEXXZ ENDP				; BumpMap::Render
_TEXT	ENDS
PUBLIC	??0?$tmat4x4@M@detail@glm@@QAE@ABU012@@Z	; glm::detail::tmat4x4<float>::tmat4x4<float>
; Function compile flags: /Odtp /RTCsu /ZI
; File c:\users\kmadsen\google drive\opengl_projects\starter\starter\kscene.h
;	COMDAT ?GetView@KCamera@@QBE?AU?$tmat4x4@M@detail@glm@@XZ
_TEXT	SEGMENT
_this$ = -8						; size = 4
___$ReturnUdt$ = 8					; size = 4
?GetView@KCamera@@QBE?AU?$tmat4x4@M@detail@glm@@XZ PROC	; KCamera::GetView, COMDAT
; _this$ = ecx

; 64   : 	{

	push	ebp
	mov	ebp, esp
	sub	esp, 204				; 000000ccH
	push	ebx
	push	esi
	push	edi
	push	ecx
	lea	edi, DWORD PTR [ebp-204]
	mov	ecx, 51					; 00000033H
	mov	eax, -858993460				; ccccccccH
	rep stosd
	pop	ecx
	mov	DWORD PTR _this$[ebp], ecx

; 65   : 		return View;

	mov	eax, DWORD PTR _this$[ebp]
	add	eax, 36					; 00000024H
	push	eax
	mov	ecx, DWORD PTR ___$ReturnUdt$[ebp]
	call	??0?$tmat4x4@M@detail@glm@@QAE@ABU012@@Z ; glm::detail::tmat4x4<float>::tmat4x4<float>
	mov	eax, DWORD PTR ___$ReturnUdt$[ebp]

; 66   : 	}

	pop	edi
	pop	esi
	pop	ebx
	add	esp, 204				; 000000ccH
	cmp	ebp, esp
	call	__RTC_CheckEsp
	mov	esp, ebp
	pop	ebp
	ret	4
?GetView@KCamera@@QBE?AU?$tmat4x4@M@detail@glm@@XZ ENDP	; KCamera::GetView
_TEXT	ENDS
PUBLIC	?SetPosition@KMouse@@QAEXMM@Z			; KMouse::SetPosition
PUBLIC	??_C@_0BA@LNIMOOEE@key?5?$CFc?5pressed?6?$AA@	; `string'
PUBLIC	__real@bdcccccd
PUBLIC	?MoveInViewDirection@KCamera@@QAEXM@Z		; KCamera::MoveInViewDirection
EXTRN	__imp__printf:PROC
;	COMDAT ??_C@_0BA@LNIMOOEE@key?5?$CFc?5pressed?6?$AA@
; File c:\users\kmadsen\google drive\opengl_projects\starter\starter\bumpmap.cpp
CONST	SEGMENT
??_C@_0BA@LNIMOOEE@key?5?$CFc?5pressed?6?$AA@ DB 'key %c pressed', 0aH, 00H ; `string'
CONST	ENDS
;	COMDAT __real@bdcccccd
CONST	SEGMENT
__real@bdcccccd DD 0bdcccccdr			; -0.1
; Function compile flags: /Odtp /RTCsu /ZI
CONST	ENDS
;	COMDAT ?Keyboard@BumpMap@@UAEXHMM@Z
_TEXT	SEGMENT
_this$ = -8						; size = 4
_key$ = 8						; size = 4
_x$ = 12						; size = 4
_y$ = 16						; size = 4
?Keyboard@BumpMap@@UAEXHMM@Z PROC			; BumpMap::Keyboard, COMDAT
; _this$ = ecx

; 83   : {

	push	ebp
	mov	ebp, esp
	sub	esp, 204				; 000000ccH
	push	ebx
	push	esi
	push	edi
	push	ecx
	lea	edi, DWORD PTR [ebp-204]
	mov	ecx, 51					; 00000033H
	mov	eax, -858993460				; ccccccccH
	rep stosd
	pop	ecx
	mov	DWORD PTR _this$[ebp], ecx

; 84   : 	if (key == 'w') {

	cmp	DWORD PTR _key$[ebp], 119		; 00000077H
	jne	SHORT $LN3@Keyboard

; 85   : 		m_Camera.MoveInViewDirection(0.1f);

	push	ecx
	fld	DWORD PTR __real@3dcccccd
	fstp	DWORD PTR [esp]
	mov	ecx, DWORD PTR _this$[ebp]
	add	ecx, 132				; 00000084H
	call	?MoveInViewDirection@KCamera@@QAEXM@Z	; KCamera::MoveInViewDirection
	jmp	SHORT $LN1@Keyboard
$LN3@Keyboard:

; 86   : 	}
; 87   : 	else if (key == 's') {

	cmp	DWORD PTR _key$[ebp], 115		; 00000073H
	jne	SHORT $LN1@Keyboard

; 88   : 		m_Camera.MoveInViewDirection(-0.1f);

	push	ecx
	fld	DWORD PTR __real@bdcccccd
	fstp	DWORD PTR [esp]
	mov	ecx, DWORD PTR _this$[ebp]
	add	ecx, 132				; 00000084H
	call	?MoveInViewDirection@KCamera@@QAEXM@Z	; KCamera::MoveInViewDirection
$LN1@Keyboard:

; 89   : 	}
; 90   : 
; 91   : 	printf("key %c pressed\n", key);

	mov	esi, esp
	mov	eax, DWORD PTR _key$[ebp]
	push	eax
	push	OFFSET ??_C@_0BA@LNIMOOEE@key?5?$CFc?5pressed?6?$AA@
	call	DWORD PTR __imp__printf
	add	esp, 8
	cmp	esi, esp
	call	__RTC_CheckEsp

; 92   : 	m_Mouse.SetPosition(x, y);

	push	ecx
	fld	DWORD PTR _y$[ebp]
	fstp	DWORD PTR [esp]
	push	ecx
	fld	DWORD PTR _x$[ebp]
	fstp	DWORD PTR [esp]
	mov	ecx, DWORD PTR _this$[ebp]
	add	ecx, 116				; 00000074H
	call	?SetPosition@KMouse@@QAEXMM@Z		; KMouse::SetPosition

; 93   : }

	pop	edi
	pop	esi
	pop	ebx
	add	esp, 204				; 000000ccH
	cmp	ebp, esp
	call	__RTC_CheckEsp
	mov	esp, ebp
	pop	ebp
	ret	12					; 0000000cH
?Keyboard@BumpMap@@UAEXHMM@Z ENDP			; BumpMap::Keyboard
_TEXT	ENDS
PUBLIC	??$?YM@?$tvec3@M@detail@glm@@QAEAAU012@ABU012@@Z ; glm::detail::tvec3<float>::operator+=<float>
PUBLIC	??$?DM@detail@glm@@YA?AU?$tvec3@M@01@ABU201@ABM@Z ; glm::detail::operator*<float>
PUBLIC	??$?GM@detail@glm@@YA?AU?$tvec3@M@01@ABU201@0@Z	; glm::detail::operator-<float>
; Function compile flags: /Odtp /RTCsu /ZI
; File c:\users\kmadsen\google drive\opengl_projects\starter\starter\kscene.h
;	COMDAT ?MoveInViewDirection@KCamera@@QAEXM@Z
_TEXT	SEGMENT
$T70626 = -260						; size = 12
$T70627 = -240						; size = 12
_vDir$ = -28						; size = 12
_this$ = -8						; size = 4
_delta$ = 8						; size = 4
?MoveInViewDirection@KCamera@@QAEXM@Z PROC		; KCamera::MoveInViewDirection, COMDAT
; _this$ = ecx

; 69   : 	{

	push	ebp
	mov	ebp, esp
	sub	esp, 264				; 00000108H
	push	ebx
	push	esi
	push	edi
	push	ecx
	lea	edi, DWORD PTR [ebp-264]
	mov	ecx, 66					; 00000042H
	mov	eax, -858993460				; ccccccccH
	rep stosd
	pop	ecx
	mov	DWORD PTR _this$[ebp], ecx

; 70   : 		glm::vec3 vDir = glm::normalize(Center - Eye) * delta;

	lea	eax, DWORD PTR _delta$[ebp]
	push	eax
	mov	ecx, DWORD PTR _this$[ebp]
	push	ecx
	mov	edx, DWORD PTR _this$[ebp]
	add	edx, 12					; 0000000cH
	push	edx
	lea	eax, DWORD PTR $T70626[ebp]
	push	eax
	call	??$?GM@detail@glm@@YA?AU?$tvec3@M@01@ABU201@0@Z ; glm::detail::operator-<float>
	add	esp, 12					; 0000000cH
	push	eax
	lea	ecx, DWORD PTR $T70627[ebp]
	push	ecx
	call	??$normalize@M@glm@@YA?AU?$tvec3@M@detail@0@ABU120@@Z ; glm::normalize<float>
	add	esp, 8
	push	eax
	lea	edx, DWORD PTR _vDir$[ebp]
	push	edx
	call	??$?DM@detail@glm@@YA?AU?$tvec3@M@01@ABU201@ABM@Z ; glm::detail::operator*<float>
	add	esp, 12					; 0000000cH

; 71   : 		Center += vDir;

	lea	eax, DWORD PTR _vDir$[ebp]
	push	eax
	mov	ecx, DWORD PTR _this$[ebp]
	add	ecx, 12					; 0000000cH
	call	??$?YM@?$tvec3@M@detail@glm@@QAEAAU012@ABU012@@Z ; glm::detail::tvec3<float>::operator+=<float>

; 72   : 		Eye += vDir;

	lea	eax, DWORD PTR _vDir$[ebp]
	push	eax
	mov	ecx, DWORD PTR _this$[ebp]
	call	??$?YM@?$tvec3@M@detail@glm@@QAEAAU012@ABU012@@Z ; glm::detail::tvec3<float>::operator+=<float>

; 73   : 		UpdateView();

	mov	ecx, DWORD PTR _this$[ebp]
	call	?UpdateView@KCamera@@AAEXXZ		; KCamera::UpdateView

; 74   : 	}

	push	edx
	mov	ecx, ebp
	push	eax
	lea	edx, DWORD PTR $LN5@MoveInView
	call	@_RTC_CheckStackVars@8
	pop	eax
	pop	edx
	pop	edi
	pop	esi
	pop	ebx
	add	esp, 264				; 00000108H
	cmp	ebp, esp
	call	__RTC_CheckEsp
	mov	esp, ebp
	pop	ebp
	ret	4
$LN5@MoveInView:
	DD	1
	DD	$LN4@MoveInView
$LN4@MoveInView:
	DD	-28					; ffffffe4H
	DD	12					; 0000000cH
	DD	$LN3@MoveInView
$LN3@MoveInView:
	DB	118					; 00000076H
	DB	68					; 00000044H
	DB	105					; 00000069H
	DB	114					; 00000072H
	DB	0
?MoveInViewDirection@KCamera@@QAEXM@Z ENDP		; KCamera::MoveInViewDirection
; Function compile flags: /Odtp /RTCsu /ZI
_TEXT	ENDS
;	COMDAT ?SetPosition@KMouse@@QAEXMM@Z
_TEXT	SEGMENT
_this$ = -8						; size = 4
_x$ = 8							; size = 4
_y$ = 12						; size = 4
?SetPosition@KMouse@@QAEXMM@Z PROC			; KMouse::SetPosition, COMDAT
; _this$ = ecx

; 111  : 	{

	push	ebp
	mov	ebp, esp
	sub	esp, 204				; 000000ccH
	push	ebx
	push	esi
	push	edi
	push	ecx
	lea	edi, DWORD PTR [ebp-204]
	mov	ecx, 51					; 00000033H
	mov	eax, -858993460				; ccccccccH
	rep stosd
	pop	ecx
	mov	DWORD PTR _this$[ebp], ecx

; 112  : 		Position.x = x; Position.y = y;

	mov	eax, DWORD PTR _this$[ebp]
	fld	DWORD PTR _x$[ebp]
	fstp	DWORD PTR [eax+8]
	mov	eax, DWORD PTR _this$[ebp]
	fld	DWORD PTR _y$[ebp]
	fstp	DWORD PTR [eax+12]

; 113  : 	}

	pop	edi
	pop	esi
	pop	ebx
	mov	esp, ebp
	pop	ebp
	ret	8
?SetPosition@KMouse@@QAEXMM@Z ENDP			; KMouse::SetPosition
_TEXT	ENDS
PUBLIC	??4KMouse@@QAEAAU0@ABU0@@Z			; KMouse::operator=
; Function compile flags: /Odtp /RTCsu /ZI
; File c:\users\kmadsen\google drive\opengl_projects\starter\starter\bumpmap.cpp
;	COMDAT ?Mouse@BumpMap@@UAEXABUKMouse@@@Z
_TEXT	SEGMENT
_this$ = -8						; size = 4
_mouse$ = 8						; size = 4
?Mouse@BumpMap@@UAEXABUKMouse@@@Z PROC			; BumpMap::Mouse, COMDAT
; _this$ = ecx

; 96   : {

	push	ebp
	mov	ebp, esp
	sub	esp, 204				; 000000ccH
	push	ebx
	push	esi
	push	edi
	push	ecx
	lea	edi, DWORD PTR [ebp-204]
	mov	ecx, 51					; 00000033H
	mov	eax, -858993460				; ccccccccH
	rep stosd
	pop	ecx
	mov	DWORD PTR _this$[ebp], ecx

; 97   : 	// Copy the mouse data over
; 98   : 	m_Mouse = mouse;

	mov	eax, DWORD PTR _mouse$[ebp]
	push	eax
	mov	ecx, DWORD PTR _this$[ebp]
	add	ecx, 116				; 00000074H
	call	??4KMouse@@QAEAAU0@ABU0@@Z

; 99   : }

	pop	edi
	pop	esi
	pop	ebx
	add	esp, 204				; 000000ccH
	cmp	ebp, esp
	call	__RTC_CheckEsp
	mov	esp, ebp
	pop	ebp
	ret	4
?Mouse@BumpMap@@UAEXABUKMouse@@@Z ENDP			; BumpMap::Mouse
; Function compile flags: /Odtp /RTCsu /ZI
_TEXT	ENDS
;	COMDAT ??4KMouse@@QAEAAU0@ABU0@@Z
_TEXT	SEGMENT
_this$ = -8						; size = 4
___that$ = 8						; size = 4
??4KMouse@@QAEAAU0@ABU0@@Z PROC				; KMouse::operator=, COMDAT
; _this$ = ecx
	push	ebp
	mov	ebp, esp
	sub	esp, 204				; 000000ccH
	push	ebx
	push	esi
	push	edi
	push	ecx
	lea	edi, DWORD PTR [ebp-204]
	mov	ecx, 51					; 00000033H
	mov	eax, -858993460				; ccccccccH
	rep stosd
	pop	ecx
	mov	DWORD PTR _this$[ebp], ecx
	mov	eax, DWORD PTR _this$[ebp]
	mov	ecx, DWORD PTR ___that$[ebp]
	mov	edx, DWORD PTR [ecx]
	mov	DWORD PTR [eax], edx
	mov	eax, DWORD PTR _this$[ebp]
	mov	ecx, DWORD PTR ___that$[ebp]
	mov	edx, DWORD PTR [ecx+4]
	mov	DWORD PTR [eax+4], edx
	mov	eax, DWORD PTR ___that$[ebp]
	add	eax, 8
	push	eax
	mov	ecx, DWORD PTR _this$[ebp]
	add	ecx, 8
	call	??4?$tvec2@M@detail@glm@@QAEAAU012@ABU012@@Z ; glm::detail::tvec2<float>::operator=
	mov	eax, DWORD PTR _this$[ebp]
	pop	edi
	pop	esi
	pop	ebx
	add	esp, 204				; 000000ccH
	cmp	ebp, esp
	call	__RTC_CheckEsp
	mov	esp, ebp
	pop	ebp
	ret	4
??4KMouse@@QAEAAU0@ABU0@@Z ENDP				; KMouse::operator=
_TEXT	ENDS
PUBLIC	?Rotate@KRotater@@QAEXABU?$tvec2@M@detail@glm@@@Z ; KRotater::Rotate
PUBLIC	?Rotate@KCamera@@QAEXABU?$tvec2@M@detail@glm@@@Z ; KCamera::Rotate
PUBLIC	??$?GM@detail@glm@@YA?AU?$tvec2@M@01@ABU201@0@Z	; glm::detail::operator-<float>
PUBLIC	??0?$tvec2@M@detail@glm@@QAE@ABM0@Z		; glm::detail::tvec2<float>::tvec2<float>
; Function compile flags: /Odtp /RTCsu /ZI
;	COMDAT ?Motion@BumpMap@@UAEXMM@Z
_TEXT	SEGMENT
_delta$ = -40						; size = 8
_newPosition$ = -24					; size = 8
_this$ = -8						; size = 4
_x$ = 8							; size = 4
_y$ = 12						; size = 4
?Motion@BumpMap@@UAEXMM@Z PROC				; BumpMap::Motion, COMDAT
; _this$ = ecx

; 102  : {

	push	ebp
	mov	ebp, esp
	sub	esp, 236				; 000000ecH
	push	ebx
	push	esi
	push	edi
	push	ecx
	lea	edi, DWORD PTR [ebp-236]
	mov	ecx, 59					; 0000003bH
	mov	eax, -858993460				; ccccccccH
	rep stosd
	pop	ecx
	mov	DWORD PTR _this$[ebp], ecx

; 103  : 	vec2 newPosition = vec2(x, y);

	lea	eax, DWORD PTR _y$[ebp]
	push	eax
	lea	ecx, DWORD PTR _x$[ebp]
	push	ecx
	lea	ecx, DWORD PTR _newPosition$[ebp]
	call	??0?$tvec2@M@detail@glm@@QAE@ABM0@Z	; glm::detail::tvec2<float>::tvec2<float>

; 104  : 	vec2 delta = newPosition - m_Mouse.Position;

	mov	eax, DWORD PTR _this$[ebp]
	add	eax, 124				; 0000007cH
	push	eax
	lea	ecx, DWORD PTR _newPosition$[ebp]
	push	ecx
	lea	edx, DWORD PTR _delta$[ebp]
	push	edx
	call	??$?GM@detail@glm@@YA?AU?$tvec2@M@01@ABU201@0@Z ; glm::detail::operator-<float>
	add	esp, 12					; 0000000cH

; 105  : 	m_Mouse.SetPosition(x, y);

	push	ecx
	fld	DWORD PTR _y$[ebp]
	fstp	DWORD PTR [esp]
	push	ecx
	fld	DWORD PTR _x$[ebp]
	fstp	DWORD PTR [esp]
	mov	ecx, DWORD PTR _this$[ebp]
	add	ecx, 116				; 00000074H
	call	?SetPosition@KMouse@@QAEXMM@Z		; KMouse::SetPosition

; 106  : 	if (m_Mouse.Button == KMouse::LEFT) {

	mov	eax, DWORD PTR _this$[ebp]
	cmp	DWORD PTR [eax+116], 0
	jne	SHORT $LN3@Motion

; 107  : 		m_Camera.Rotate(delta);

	lea	eax, DWORD PTR _delta$[ebp]
	push	eax
	mov	ecx, DWORD PTR _this$[ebp]
	add	ecx, 132				; 00000084H
	call	?Rotate@KCamera@@QAEXABU?$tvec2@M@detail@glm@@@Z ; KCamera::Rotate
	jmp	SHORT $LN1@Motion
$LN3@Motion:

; 108  : 	}
; 109  : 	else if (m_Mouse.Button == KMouse::RIGHT) {

	mov	eax, DWORD PTR _this$[ebp]
	cmp	DWORD PTR [eax+116], 2
	jne	SHORT $LN1@Motion

; 110  : 		m_Rotater.Rotate(delta);

	lea	eax, DWORD PTR _delta$[ebp]
	push	eax
	mov	ecx, DWORD PTR _this$[ebp]
	add	ecx, 304				; 00000130H
	call	?Rotate@KRotater@@QAEXABU?$tvec2@M@detail@glm@@@Z ; KRotater::Rotate
$LN1@Motion:

; 111  : 	}
; 112  : }

	push	edx
	mov	ecx, ebp
	push	eax
	lea	edx, DWORD PTR $LN9@Motion
	call	@_RTC_CheckStackVars@8
	pop	eax
	pop	edx
	pop	edi
	pop	esi
	pop	ebx
	add	esp, 236				; 000000ecH
	cmp	ebp, esp
	call	__RTC_CheckEsp
	mov	esp, ebp
	pop	ebp
	ret	8
	npad	2
$LN9@Motion:
	DD	2
	DD	$LN8@Motion
$LN8@Motion:
	DD	-24					; ffffffe8H
	DD	8
	DD	$LN6@Motion
	DD	-40					; ffffffd8H
	DD	8
	DD	$LN7@Motion
$LN7@Motion:
	DB	100					; 00000064H
	DB	101					; 00000065H
	DB	108					; 0000006cH
	DB	116					; 00000074H
	DB	97					; 00000061H
	DB	0
$LN6@Motion:
	DB	110					; 0000006eH
	DB	101					; 00000065H
	DB	119					; 00000077H
	DB	80					; 00000050H
	DB	111					; 0000006fH
	DB	115					; 00000073H
	DB	105					; 00000069H
	DB	116					; 00000074H
	DB	105					; 00000069H
	DB	111					; 0000006fH
	DB	110					; 0000006eH
	DB	0
?Motion@BumpMap@@UAEXMM@Z ENDP				; BumpMap::Motion
_TEXT	ENDS
PUBLIC	??$rotate@M@glm@@YA?AU?$tmat4x4@M@detail@0@ABU120@ABMABU?$tvec3@M@20@@Z ; glm::rotate<float>
PUBLIC	??0?$tvec3@M@detail@glm@@QAE@ABM00@Z		; glm::detail::tvec3<float>::tvec3<float>
PUBLIC	??$?0N@?$tmat4x4@M@detail@glm@@QAE@ABN@Z	; glm::detail::tmat4x4<float>::tmat4x4<float><double>
PUBLIC	__real@3ff0000000000000
PUBLIC	__real@43b40000
PUBLIC	__real@0000000000000000
PUBLIC	__real@4076800000000000
PUBLIC	__real@404ca5dc1a63c1f8
PUBLIC	__$ArrayPad$
;	COMDAT __real@3ff0000000000000
; File c:\users\kmadsen\google drive\opengl_projects\starter\starter\kscene.h
CONST	SEGMENT
__real@3ff0000000000000 DQ 03ff0000000000000r	; 1
CONST	ENDS
;	COMDAT __real@43b40000
CONST	SEGMENT
__real@43b40000 DD 043b40000r			; 360
CONST	ENDS
;	COMDAT __real@0000000000000000
CONST	SEGMENT
__real@0000000000000000 DQ 00000000000000000r	; 0
CONST	ENDS
;	COMDAT __real@4076800000000000
CONST	SEGMENT
__real@4076800000000000 DQ 04076800000000000r	; 360
CONST	ENDS
;	COMDAT __real@404ca5dc1a63c1f8
CONST	SEGMENT
__real@404ca5dc1a63c1f8 DQ 0404ca5dc1a63c1f8r	; 57.2958
; Function compile flags: /Odtp /RTCsu /ZI
CONST	ENDS
;	COMDAT ?Rotate@KRotater@@QAEXABU?$tvec2@M@detail@glm@@@Z
_TEXT	SEGMENT
tv171 = -556						; size = 4
tv164 = -556						; size = 4
$T57717 = -548						; size = 64
$T57739 = -476						; size = 64
$T57744 = -404						; size = 64
$T70646 = -332						; size = 8
$T70647 = -316						; size = 12
$T70648 = -296						; size = 4
$T70649 = -284						; size = 4
$T70650 = -272						; size = 4
$T70651 = -260						; size = 12
$T70652 = -240						; size = 4
$T70653 = -228						; size = 4
$T70654 = -216						; size = 4
_this$ = -12						; size = 4
__$ArrayPad$ = -4					; size = 4
_delta$ = 8						; size = 4
?Rotate@KRotater@@QAEXABU?$tvec2@M@detail@glm@@@Z PROC	; KRotater::Rotate, COMDAT
; _this$ = ecx

; 16   : 	{

	push	ebp
	mov	ebp, esp
	sub	esp, 556				; 0000022cH
	push	ebx
	push	esi
	push	edi
	push	ecx
	lea	edi, DWORD PTR [ebp-556]
	mov	ecx, 139				; 0000008bH
	mov	eax, -858993460				; ccccccccH
	rep stosd
	pop	ecx
	mov	eax, DWORD PTR ___security_cookie
	xor	eax, ebp
	mov	DWORD PTR __$ArrayPad$[ebp], eax
	mov	DWORD PTR _this$[ebp], ecx

; 17   : 		m_RotateAngles.x -= static_cast<float>(TO_DEGREES(delta.x));

	mov	eax, DWORD PTR _delta$[ebp]
	fld	DWORD PTR [eax]
	fmul	QWORD PTR __real@404ca5dc1a63c1f8
	fstp	DWORD PTR tv164[ebp]
	fld	DWORD PTR tv164[ebp]
	mov	ecx, DWORD PTR _this$[ebp]
	fsubr	DWORD PTR [ecx]
	mov	edx, DWORD PTR _this$[ebp]
	fstp	DWORD PTR [edx]

; 18   : 		m_RotateAngles.y -= static_cast<float>(TO_DEGREES(delta.y));

	mov	eax, DWORD PTR _delta$[ebp]
	fld	DWORD PTR [eax+4]
	fmul	QWORD PTR __real@404ca5dc1a63c1f8
	fstp	DWORD PTR tv171[ebp]
	fld	DWORD PTR tv171[ebp]
	mov	ecx, DWORD PTR _this$[ebp]
	fsubr	DWORD PTR [ecx+4]
	mov	edx, DWORD PTR _this$[ebp]
	fstp	DWORD PTR [edx+4]

; 19   : 		if (m_RotateAngles.x > 360.0f)

	mov	eax, DWORD PTR _this$[ebp]
	fld	DWORD PTR [eax]
	fcomp	QWORD PTR __real@4076800000000000
	fnstsw	ax
	test	ah, 65					; 00000041H
	jne	SHORT $LN4@Rotate

; 20   : 			m_RotateAngles.x = 0.0f;

	mov	eax, DWORD PTR _this$[ebp]
	fldz
	fstp	DWORD PTR [eax]
$LN4@Rotate:

; 21   : 		if (m_RotateAngles.x < 0.0f)

	mov	eax, DWORD PTR _this$[ebp]
	fld	DWORD PTR [eax]
	fcomp	QWORD PTR __real@0000000000000000
	fnstsw	ax
	test	ah, 5
	jp	SHORT $LN3@Rotate

; 22   : 			m_RotateAngles.x = 360.0f;

	mov	eax, DWORD PTR _this$[ebp]
	fld	DWORD PTR __real@43b40000
	fstp	DWORD PTR [eax]
$LN3@Rotate:

; 23   : 		if (m_RotateAngles.y > 360.0f)

	mov	eax, DWORD PTR _this$[ebp]
	fld	DWORD PTR [eax+4]
	fcomp	QWORD PTR __real@4076800000000000
	fnstsw	ax
	test	ah, 65					; 00000041H
	jne	SHORT $LN2@Rotate

; 24   : 			m_RotateAngles.y = 0.0f;

	mov	eax, DWORD PTR _this$[ebp]
	fldz
	fstp	DWORD PTR [eax+4]
$LN2@Rotate:

; 25   : 		if (m_RotateAngles.y < 0.0f)

	mov	eax, DWORD PTR _this$[ebp]
	fld	DWORD PTR [eax+4]
	fcomp	QWORD PTR __real@0000000000000000
	fnstsw	ax
	test	ah, 5
	jp	SHORT $LN1@Rotate

; 26   : 			m_RotateAngles.y = 360.0f;

	mov	eax, DWORD PTR _this$[ebp]
	fld	DWORD PTR __real@43b40000
	fstp	DWORD PTR [eax+4]
$LN1@Rotate:

; 27   : 
; 28   : 		m_Transform = glm::mat4(1.0);

	fld1
	fstp	QWORD PTR $T70646[ebp]
	lea	eax, DWORD PTR $T70646[ebp]
	push	eax
	lea	ecx, DWORD PTR $T57717[ebp]
	call	??$?0N@?$tmat4x4@M@detail@glm@@QAE@ABN@Z ; glm::detail::tmat4x4<float>::tmat4x4<float><double>
	push	eax
	mov	ecx, DWORD PTR _this$[ebp]
	add	ecx, 8
	call	??4?$tmat4x4@M@detail@glm@@QAEAAU012@ABU012@@Z ; glm::detail::tmat4x4<float>::operator=

; 29   : 		m_Transform = glm::rotate(m_Transform, m_RotateAngles.y, glm::vec3(1.0f, 0.0f, 0.0f));

	fldz
	fstp	DWORD PTR $T70648[ebp]
	fldz
	fstp	DWORD PTR $T70649[ebp]
	fld1
	fstp	DWORD PTR $T70650[ebp]
	lea	eax, DWORD PTR $T70648[ebp]
	push	eax
	lea	ecx, DWORD PTR $T70649[ebp]
	push	ecx
	lea	edx, DWORD PTR $T70650[ebp]
	push	edx
	lea	ecx, DWORD PTR $T70647[ebp]
	call	??0?$tvec3@M@detail@glm@@QAE@ABM00@Z	; glm::detail::tvec3<float>::tvec3<float>
	push	eax
	mov	eax, DWORD PTR _this$[ebp]
	add	eax, 4
	push	eax
	mov	ecx, DWORD PTR _this$[ebp]
	add	ecx, 8
	push	ecx
	lea	edx, DWORD PTR $T57739[ebp]
	push	edx
	call	??$rotate@M@glm@@YA?AU?$tmat4x4@M@detail@0@ABU120@ABMABU?$tvec3@M@20@@Z ; glm::rotate<float>
	add	esp, 16					; 00000010H
	push	eax
	mov	ecx, DWORD PTR _this$[ebp]
	add	ecx, 8
	call	??4?$tmat4x4@M@detail@glm@@QAEAAU012@ABU012@@Z ; glm::detail::tmat4x4<float>::operator=

; 30   : 		m_Transform = glm::rotate(m_Transform, m_RotateAngles.x, glm::vec3(0.0f, 1.0f, 0.0f));

	fldz
	fstp	DWORD PTR $T70652[ebp]
	fld1
	fstp	DWORD PTR $T70653[ebp]
	fldz
	fstp	DWORD PTR $T70654[ebp]
	lea	eax, DWORD PTR $T70652[ebp]
	push	eax
	lea	ecx, DWORD PTR $T70653[ebp]
	push	ecx
	lea	edx, DWORD PTR $T70654[ebp]
	push	edx
	lea	ecx, DWORD PTR $T70651[ebp]
	call	??0?$tvec3@M@detail@glm@@QAE@ABM00@Z	; glm::detail::tvec3<float>::tvec3<float>
	push	eax
	mov	eax, DWORD PTR _this$[ebp]
	push	eax
	mov	ecx, DWORD PTR _this$[ebp]
	add	ecx, 8
	push	ecx
	lea	edx, DWORD PTR $T57744[ebp]
	push	edx
	call	??$rotate@M@glm@@YA?AU?$tmat4x4@M@detail@0@ABU120@ABMABU?$tvec3@M@20@@Z ; glm::rotate<float>
	add	esp, 16					; 00000010H
	push	eax
	mov	ecx, DWORD PTR _this$[ebp]
	add	ecx, 8
	call	??4?$tmat4x4@M@detail@glm@@QAEAAU012@ABU012@@Z ; glm::detail::tmat4x4<float>::operator=

; 31   : 	}

	pop	edi
	pop	esi
	pop	ebx
	mov	ecx, DWORD PTR __$ArrayPad$[ebp]
	xor	ecx, ebp
	call	@__security_check_cookie@4
	add	esp, 556				; 0000022cH
	cmp	ebp, esp
	call	__RTC_CheckEsp
	mov	esp, ebp
	pop	ebp
	ret	4
?Rotate@KRotater@@QAEXABU?$tvec2@M@detail@glm@@@Z ENDP	; KRotater::Rotate
; Function compile flags: /Odtp /RTCsu /ZI
_TEXT	ENDS
;	COMDAT ?Rotate@KCamera@@QAEXABU?$tvec2@M@detail@glm@@@Z
_TEXT	SEGMENT
_this$ = -8						; size = 4
_delta$ = 8						; size = 4
?Rotate@KCamera@@QAEXABU?$tvec2@M@detail@glm@@@Z PROC	; KCamera::Rotate, COMDAT
; _this$ = ecx

; 77   : 	{

	push	ebp
	mov	ebp, esp
	sub	esp, 204				; 000000ccH
	push	ebx
	push	esi
	push	edi
	push	ecx
	lea	edi, DWORD PTR [ebp-204]
	mov	ecx, 51					; 00000033H
	mov	eax, -858993460				; ccccccccH
	rep stosd
	pop	ecx
	mov	DWORD PTR _this$[ebp], ecx

; 78   : 		Rotater.Rotate(delta);

	mov	eax, DWORD PTR _delta$[ebp]
	push	eax
	mov	ecx, DWORD PTR _this$[ebp]
	add	ecx, 100				; 00000064H
	call	?Rotate@KRotater@@QAEXABU?$tvec2@M@detail@glm@@@Z ; KRotater::Rotate

; 79   : 		UpdateView();

	mov	ecx, DWORD PTR _this$[ebp]
	call	?UpdateView@KCamera@@AAEXXZ		; KCamera::UpdateView

; 80   : 	}

	pop	edi
	pop	esi
	pop	ebx
	add	esp, 204				; 000000ccH
	cmp	ebp, esp
	call	__RTC_CheckEsp
	mov	esp, ebp
	pop	ebp
	ret	4
?Rotate@KCamera@@QAEXABU?$tvec2@M@detail@glm@@@Z ENDP	; KCamera::Rotate
_TEXT	ENDS
PUBLIC	?GetBitMap@BumpMap@@ABEPAUFIBITMAP@@QBD@Z	; BumpMap::GetBitMap
EXTRN	__imp__FreeImage_Unload@4:PROC
EXTRN	__imp__FreeImage_ConvertTo32Bits@4:PROC
EXTRN	__imp__FreeImage_Load@12:PROC
EXTRN	__imp__FreeImage_GetFileType@8:PROC
; Function compile flags: /Odtp /RTCsu /ZI
; File c:\users\kmadsen\google drive\opengl_projects\starter\starter\bumpmap.cpp
;	COMDAT ?GetBitMap@BumpMap@@ABEPAUFIBITMAP@@QBD@Z
_TEXT	SEGMENT
_temp$ = -32						; size = 4
_imageBitmap$ = -20					; size = 4
_this$ = -8						; size = 4
_filename$ = 8						; size = 4
?GetBitMap@BumpMap@@ABEPAUFIBITMAP@@QBD@Z PROC		; BumpMap::GetBitMap, COMDAT
; _this$ = ecx

; 115  : {

	push	ebp
	mov	ebp, esp
	sub	esp, 228				; 000000e4H
	push	ebx
	push	esi
	push	edi
	push	ecx
	lea	edi, DWORD PTR [ebp-228]
	mov	ecx, 57					; 00000039H
	mov	eax, -858993460				; ccccccccH
	rep stosd
	pop	ecx
	mov	DWORD PTR _this$[ebp], ecx

; 116  : 	FIBITMAP* imageBitmap = FreeImage_Load(FreeImage_GetFileType(filename,0), filename);

	mov	esi, esp
	push	0
	mov	eax, DWORD PTR _filename$[ebp]
	push	eax
	mov	edi, esp
	push	0
	mov	ecx, DWORD PTR _filename$[ebp]
	push	ecx
	call	DWORD PTR __imp__FreeImage_GetFileType@8
	cmp	edi, esp
	call	__RTC_CheckEsp
	push	eax
	call	DWORD PTR __imp__FreeImage_Load@12
	cmp	esi, esp
	call	__RTC_CheckEsp
	mov	DWORD PTR _imageBitmap$[ebp], eax

; 117  : 	FIBITMAP* temp = imageBitmap;

	mov	eax, DWORD PTR _imageBitmap$[ebp]
	mov	DWORD PTR _temp$[ebp], eax

; 118  : 	imageBitmap = FreeImage_ConvertTo32Bits(imageBitmap);

	mov	esi, esp
	mov	eax, DWORD PTR _imageBitmap$[ebp]
	push	eax
	call	DWORD PTR __imp__FreeImage_ConvertTo32Bits@4
	cmp	esi, esp
	call	__RTC_CheckEsp
	mov	DWORD PTR _imageBitmap$[ebp], eax

; 119  : 	FreeImage_Unload(temp);

	mov	esi, esp
	mov	eax, DWORD PTR _temp$[ebp]
	push	eax
	call	DWORD PTR __imp__FreeImage_Unload@4
	cmp	esi, esp
	call	__RTC_CheckEsp

; 120  : 
; 121  : 	return imageBitmap;

	mov	eax, DWORD PTR _imageBitmap$[ebp]

; 122  : }

	pop	edi
	pop	esi
	pop	ebx
	add	esp, 228				; 000000e4H
	cmp	ebp, esp
	call	__RTC_CheckEsp
	mov	esp, ebp
	pop	ebp
	ret	4
?GetBitMap@BumpMap@@ABEPAUFIBITMAP@@QBD@Z ENDP		; BumpMap::GetBitMap
_TEXT	ENDS
PUBLIC	??_C@_09GJDHHBFE@NormalTex?$AA@			; `string'
PUBLIC	??_C@_08CMBBCMPF@ColorTex?$AA@			; `string'
PUBLIC	__real@46180400
EXTRN	?SetUniform@GLSLProgram@@QAEXPBDH@Z:PROC	; GLSLProgram::SetUniform
EXTRN	__imp__glTexParameterf@12:PROC
EXTRN	__imp__glTexImage2D@36:PROC
EXTRN	__imp__FreeImage_GetWidth@4:PROC
EXTRN	__imp__FreeImage_GetHeight@4:PROC
EXTRN	__imp__FreeImage_GetBits@4:PROC
EXTRN	__imp__glBindTexture@8:PROC
EXTRN	__imp____glewActiveTexture:DWORD
EXTRN	__imp__glGenTextures@8:PROC
;	COMDAT ??_C@_09GJDHHBFE@NormalTex?$AA@
CONST	SEGMENT
??_C@_09GJDHHBFE@NormalTex?$AA@ DB 'NormalTex', 00H	; `string'
CONST	ENDS
;	COMDAT ??_C@_08CMBBCMPF@ColorTex?$AA@
CONST	SEGMENT
??_C@_08CMBBCMPF@ColorTex?$AA@ DB 'ColorTex', 00H	; `string'
CONST	ENDS
;	COMDAT __real@46180400
CONST	SEGMENT
__real@46180400 DD 046180400r			; 9729
; Function compile flags: /Odtp /RTCsu /ZI
CONST	ENDS
;	COMDAT ?LoadTextures@BumpMap@@AAEXXZ
_TEXT	SEGMENT
_imageBitmap$ = -36					; size = 4
_tid$ = -24						; size = 8
_this$ = -8						; size = 4
?LoadTextures@BumpMap@@AAEXXZ PROC			; BumpMap::LoadTextures, COMDAT
; _this$ = ecx

; 125  : {

	push	ebp
	mov	ebp, esp
	sub	esp, 232				; 000000e8H
	push	ebx
	push	esi
	push	edi
	push	ecx
	lea	edi, DWORD PTR [ebp-232]
	mov	ecx, 58					; 0000003aH
	mov	eax, -858993460				; ccccccccH
	rep stosd
	pop	ecx
	mov	DWORD PTR _this$[ebp], ecx

; 126  : 	const static char* filenames[] = {
; 127  : 		"Textures/ogre_diffuse.png",
; 128  : 		"Textures/ogre_normalmap.png"
; 129  : 	};
; 130  : 
; 131  : 	GLuint tid[2];
; 132  : 	glGenTextures(2, tid);

	mov	esi, esp
	lea	eax, DWORD PTR _tid$[ebp]
	push	eax
	push	2
	call	DWORD PTR __imp__glGenTextures@8
	cmp	esi, esp
	call	__RTC_CheckEsp

; 133  : 
; 134  : 	// Load the diffuse texture
; 135  : 	FIBITMAP* imageBitmap = GetBitMap(filenames[0]);

	mov	eax, DWORD PTR ?filenames@?1??LoadTextures@BumpMap@@AAEXXZ@4PAPBDA
	push	eax
	mov	ecx, DWORD PTR _this$[ebp]
	call	?GetBitMap@BumpMap@@ABEPAUFIBITMAP@@QBD@Z ; BumpMap::GetBitMap
	mov	DWORD PTR _imageBitmap$[ebp], eax

; 136  : 	glActiveTexture(GL_TEXTURE0);

	mov	esi, esp
	push	33984					; 000084c0H
	mov	eax, DWORD PTR __imp____glewActiveTexture
	mov	ecx, DWORD PTR [eax]
	call	ecx
	cmp	esi, esp
	call	__RTC_CheckEsp

; 137  :     glBindTexture(GL_TEXTURE_2D, tid[0]);

	mov	esi, esp
	mov	eax, DWORD PTR _tid$[ebp]
	push	eax
	push	3553					; 00000de1H
	call	DWORD PTR __imp__glBindTexture@8
	cmp	esi, esp
	call	__RTC_CheckEsp

; 138  : 	glTexImage2D(GL_TEXTURE_2D, 0, GL_RGBA, FreeImage_GetWidth(imageBitmap), 
; 139  : 		FreeImage_GetHeight(imageBitmap), 0, GL_BGRA, GL_UNSIGNED_BYTE, FreeImage_GetBits(imageBitmap));

	mov	esi, esp
	mov	eax, DWORD PTR _imageBitmap$[ebp]
	push	eax
	call	DWORD PTR __imp__FreeImage_GetBits@4
	cmp	esi, esp
	call	__RTC_CheckEsp
	mov	esi, esp
	push	eax
	push	5121					; 00001401H
	push	32993					; 000080e1H
	push	0
	mov	edi, esp
	mov	ecx, DWORD PTR _imageBitmap$[ebp]
	push	ecx
	call	DWORD PTR __imp__FreeImage_GetHeight@4
	cmp	edi, esp
	call	__RTC_CheckEsp
	push	eax
	mov	edi, esp
	mov	edx, DWORD PTR _imageBitmap$[ebp]
	push	edx
	call	DWORD PTR __imp__FreeImage_GetWidth@4
	cmp	edi, esp
	call	__RTC_CheckEsp
	push	eax
	push	6408					; 00001908H
	push	0
	push	3553					; 00000de1H
	call	DWORD PTR __imp__glTexImage2D@36
	cmp	esi, esp
	call	__RTC_CheckEsp

; 140  : 	glTexParameterf(GL_TEXTURE_2D, GL_TEXTURE_MAG_FILTER, GL_LINEAR);

	mov	esi, esp
	push	ecx
	fld	DWORD PTR __real@46180400
	fstp	DWORD PTR [esp]
	push	10240					; 00002800H
	push	3553					; 00000de1H
	call	DWORD PTR __imp__glTexParameterf@12
	cmp	esi, esp
	call	__RTC_CheckEsp

; 141  : 	glTexParameterf(GL_TEXTURE_2D, GL_TEXTURE_MIN_FILTER, GL_LINEAR);

	mov	esi, esp
	push	ecx
	fld	DWORD PTR __real@46180400
	fstp	DWORD PTR [esp]
	push	10241					; 00002801H
	push	3553					; 00000de1H
	call	DWORD PTR __imp__glTexParameterf@12
	cmp	esi, esp
	call	__RTC_CheckEsp

; 142  : 	m_Program.SetUniform("ColorTex", 0);

	push	0
	push	OFFSET ??_C@_08CMBBCMPF@ColorTex?$AA@
	mov	ecx, DWORD PTR _this$[ebp]
	add	ecx, 4
	call	?SetUniform@GLSLProgram@@QAEXPBDH@Z	; GLSLProgram::SetUniform

; 143  : 
; 144  : 	// Load the normal map
; 145  : 	imageBitmap = GetBitMap(filenames[1]);

	mov	eax, DWORD PTR ?filenames@?1??LoadTextures@BumpMap@@AAEXXZ@4PAPBDA+4
	push	eax
	mov	ecx, DWORD PTR _this$[ebp]
	call	?GetBitMap@BumpMap@@ABEPAUFIBITMAP@@QBD@Z ; BumpMap::GetBitMap
	mov	DWORD PTR _imageBitmap$[ebp], eax

; 146  : 	glActiveTexture(GL_TEXTURE1);

	mov	esi, esp
	push	33985					; 000084c1H
	mov	eax, DWORD PTR __imp____glewActiveTexture
	mov	ecx, DWORD PTR [eax]
	call	ecx
	cmp	esi, esp
	call	__RTC_CheckEsp

; 147  :     glBindTexture(GL_TEXTURE_2D, tid[1]);

	mov	esi, esp
	mov	eax, DWORD PTR _tid$[ebp+4]
	push	eax
	push	3553					; 00000de1H
	call	DWORD PTR __imp__glBindTexture@8
	cmp	esi, esp
	call	__RTC_CheckEsp

; 148  : 	glTexImage2D(GL_TEXTURE_2D, 0, GL_RGBA, FreeImage_GetWidth(imageBitmap), 
; 149  : 		FreeImage_GetHeight(imageBitmap), 0, GL_BGRA, GL_UNSIGNED_BYTE, FreeImage_GetBits(imageBitmap));

	mov	esi, esp
	mov	eax, DWORD PTR _imageBitmap$[ebp]
	push	eax
	call	DWORD PTR __imp__FreeImage_GetBits@4
	cmp	esi, esp
	call	__RTC_CheckEsp
	mov	esi, esp
	push	eax
	push	5121					; 00001401H
	push	32993					; 000080e1H
	push	0
	mov	edi, esp
	mov	ecx, DWORD PTR _imageBitmap$[ebp]
	push	ecx
	call	DWORD PTR __imp__FreeImage_GetHeight@4
	cmp	edi, esp
	call	__RTC_CheckEsp
	push	eax
	mov	edi, esp
	mov	edx, DWORD PTR _imageBitmap$[ebp]
	push	edx
	call	DWORD PTR __imp__FreeImage_GetWidth@4
	cmp	edi, esp
	call	__RTC_CheckEsp
	push	eax
	push	6408					; 00001908H
	push	0
	push	3553					; 00000de1H
	call	DWORD PTR __imp__glTexImage2D@36
	cmp	esi, esp
	call	__RTC_CheckEsp

; 150  : 	glTexParameterf(GL_TEXTURE_2D, GL_TEXTURE_MAG_FILTER, GL_LINEAR);

	mov	esi, esp
	push	ecx
	fld	DWORD PTR __real@46180400
	fstp	DWORD PTR [esp]
	push	10240					; 00002800H
	push	3553					; 00000de1H
	call	DWORD PTR __imp__glTexParameterf@12
	cmp	esi, esp
	call	__RTC_CheckEsp

; 151  : 	glTexParameterf(GL_TEXTURE_2D, GL_TEXTURE_MIN_FILTER, GL_LINEAR);

	mov	esi, esp
	push	ecx
	fld	DWORD PTR __real@46180400
	fstp	DWORD PTR [esp]
	push	10241					; 00002801H
	push	3553					; 00000de1H
	call	DWORD PTR __imp__glTexParameterf@12
	cmp	esi, esp
	call	__RTC_CheckEsp

; 152  : 	m_Program.SetUniform("NormalTex", 1);

	push	1
	push	OFFSET ??_C@_09GJDHHBFE@NormalTex?$AA@
	mov	ecx, DWORD PTR _this$[ebp]
	add	ecx, 4
	call	?SetUniform@GLSLProgram@@QAEXPBDH@Z	; GLSLProgram::SetUniform

; 153  : }

	push	edx
	mov	ecx, ebp
	push	eax
	lea	edx, DWORD PTR $LN5@LoadTextur
	call	@_RTC_CheckStackVars@8
	pop	eax
	pop	edx
	pop	edi
	pop	esi
	pop	ebx
	add	esp, 232				; 000000e8H
	cmp	ebp, esp
	call	__RTC_CheckEsp
	mov	esp, ebp
	pop	ebp
	ret	0
	npad	1
$LN5@LoadTextur:
	DD	1
	DD	$LN4@LoadTextur
$LN4@LoadTextur:
	DD	-24					; ffffffe8H
	DD	8
	DD	$LN3@LoadTextur
$LN3@LoadTextur:
	DB	116					; 00000074H
	DB	105					; 00000069H
	DB	100					; 00000064H
	DB	0
?LoadTextures@BumpMap@@AAEXXZ ENDP			; BumpMap::LoadTextures
_TEXT	ENDS
PUBLIC	??1?$_String_val@DV?$allocator@D@std@@@std@@QAE@XZ ; std::_String_val<char,std::allocator<char> >::~_String_val<char,std::allocator<char> >
PUBLIC	?_Tidy@?$basic_string@DU?$char_traits@D@std@@V?$allocator@D@2@@std@@QAEX_NI@Z ; std::basic_string<char,std::char_traits<char>,std::allocator<char> >::_Tidy
;	COMDAT xdata$x
; File c:\program files (x86)\microsoft visual studio 10.0\vc\include\xstring
xdata$x	SEGMENT
__unwindtable$??1?$basic_string@DU?$char_traits@D@std@@V?$allocator@D@2@@std@@QAE@XZ DD 0ffffffffH
	DD	FLAT:__unwindfunclet$??1?$basic_string@DU?$char_traits@D@std@@V?$allocator@D@2@@std@@QAE@XZ$0
__ehfuncinfo$??1?$basic_string@DU?$char_traits@D@std@@V?$allocator@D@2@@std@@QAE@XZ DD 019930522H
	DD	01H
	DD	FLAT:__unwindtable$??1?$basic_string@DU?$char_traits@D@std@@V?$allocator@D@2@@std@@QAE@XZ
	DD	2 DUP(00H)
	DD	2 DUP(00H)
	DD	00H
	DD	01H
; Function compile flags: /Odtp /RTCsu /ZI
xdata$x	ENDS
;	COMDAT ??1?$basic_string@DU?$char_traits@D@std@@V?$allocator@D@2@@std@@QAE@XZ
_TEXT	SEGMENT
_this$ = -20						; size = 4
__$EHRec$ = -12						; size = 12
??1?$basic_string@DU?$char_traits@D@std@@V?$allocator@D@2@@std@@QAE@XZ PROC ; std::basic_string<char,std::char_traits<char>,std::allocator<char> >::~basic_string<char,std::char_traits<char>,std::allocator<char> >, COMDAT
; _this$ = ecx

; 752  : 		{	// destroy the string

	push	ebp
	mov	ebp, esp
	push	-1
	push	__ehhandler$??1?$basic_string@DU?$char_traits@D@std@@V?$allocator@D@2@@std@@QAE@XZ
	mov	eax, DWORD PTR fs:0
	push	eax
	sub	esp, 204				; 000000ccH
	push	ebx
	push	esi
	push	edi
	push	ecx
	lea	edi, DWORD PTR [ebp-216]
	mov	ecx, 51					; 00000033H
	mov	eax, -858993460				; ccccccccH
	rep stosd
	pop	ecx
	mov	eax, DWORD PTR ___security_cookie
	xor	eax, ebp
	push	eax
	lea	eax, DWORD PTR __$EHRec$[ebp]
	mov	DWORD PTR fs:0, eax
	mov	DWORD PTR _this$[ebp], ecx
	mov	DWORD PTR __$EHRec$[ebp+8], 0

; 753  : 		_Tidy(true);

	push	0
	push	1
	mov	ecx, DWORD PTR _this$[ebp]
	call	?_Tidy@?$basic_string@DU?$char_traits@D@std@@V?$allocator@D@2@@std@@QAEX_NI@Z ; std::basic_string<char,std::char_traits<char>,std::allocator<char> >::_Tidy

; 754  : 		}

	mov	DWORD PTR __$EHRec$[ebp+8], -1
	mov	ecx, DWORD PTR _this$[ebp]
	call	??1?$_String_val@DV?$allocator@D@std@@@std@@QAE@XZ ; std::_String_val<char,std::allocator<char> >::~_String_val<char,std::allocator<char> >
	mov	ecx, DWORD PTR __$EHRec$[ebp]
	mov	DWORD PTR fs:0, ecx
	pop	ecx
	pop	edi
	pop	esi
	pop	ebx
	add	esp, 216				; 000000d8H
	cmp	ebp, esp
	call	__RTC_CheckEsp
	mov	esp, ebp
	pop	ebp
	ret	0
_TEXT	ENDS
;	COMDAT text$x
text$x	SEGMENT
__unwindfunclet$??1?$basic_string@DU?$char_traits@D@std@@V?$allocator@D@2@@std@@QAE@XZ$0:
	mov	ecx, DWORD PTR _this$[ebp]
	jmp	??1?$_String_val@DV?$allocator@D@std@@@std@@QAE@XZ ; std::_String_val<char,std::allocator<char> >::~_String_val<char,std::allocator<char> >
__ehhandler$??1?$basic_string@DU?$char_traits@D@std@@V?$allocator@D@2@@std@@QAE@XZ:
	mov	edx, DWORD PTR [esp+8]
	lea	eax, DWORD PTR [edx+12]
	mov	ecx, DWORD PTR [edx-220]
	xor	ecx, eax
	call	@__security_check_cookie@4
	mov	eax, OFFSET __ehfuncinfo$??1?$basic_string@DU?$char_traits@D@std@@V?$allocator@D@2@@std@@QAE@XZ
	jmp	___CxxFrameHandler3
text$x	ENDS
??1?$basic_string@DU?$char_traits@D@std@@V?$allocator@D@2@@std@@QAE@XZ ENDP ; std::basic_string<char,std::char_traits<char>,std::allocator<char> >::~basic_string<char,std::char_traits<char>,std::allocator<char> >
PUBLIC	?_Eos@?$basic_string@DU?$char_traits@D@std@@V?$allocator@D@2@@std@@QAEXI@Z ; std::basic_string<char,std::char_traits<char>,std::allocator<char> >::_Eos
PUBLIC	?deallocate@?$allocator@D@std@@QAEXPADI@Z	; std::allocator<char>::deallocate
PUBLIC	?copy@?$char_traits@D@std@@SAPADPADPBDI@Z	; std::char_traits<char>::copy
; Function compile flags: /Odtp /RTCsu /ZI
;	COMDAT ?_Tidy@?$basic_string@DU?$char_traits@D@std@@V?$allocator@D@2@@std@@QAEX_NI@Z
_TEXT	SEGMENT
__Ptr$64763 = -20					; size = 4
_this$ = -8						; size = 4
__Built$ = 8						; size = 1
__Newsize$ = 12						; size = 4
?_Tidy@?$basic_string@DU?$char_traits@D@std@@V?$allocator@D@2@@std@@QAEX_NI@Z PROC ; std::basic_string<char,std::char_traits<char>,std::allocator<char> >::_Tidy, COMDAT
; _this$ = ecx

; 1987 : 		{	// initialize buffer, deallocating any storage

	push	ebp
	mov	ebp, esp
	sub	esp, 216				; 000000d8H
	push	ebx
	push	esi
	push	edi
	push	ecx
	lea	edi, DWORD PTR [ebp-216]
	mov	ecx, 54					; 00000036H
	mov	eax, -858993460				; ccccccccH
	rep stosd
	pop	ecx
	mov	DWORD PTR _this$[ebp], ecx

; 1988 : 		if (!_Built)

	movzx	eax, BYTE PTR __Built$[ebp]
	test	eax, eax
	jne	SHORT $LN4@Tidy
	jmp	SHORT $LN3@Tidy
$LN4@Tidy:

; 1989 : 			;
; 1990 : 		else if (this->_BUF_SIZE <= this->_Myres)

	mov	eax, DWORD PTR _this$[ebp]
	cmp	DWORD PTR [eax+24], 16			; 00000010H
	jb	SHORT $LN3@Tidy

; 1991 : 			{	// copy any leftovers to small buffer and deallocate
; 1992 : 			_Elem *_Ptr = this->_Bx._Ptr;

	mov	eax, DWORD PTR _this$[ebp]
	mov	ecx, DWORD PTR [eax+4]
	mov	DWORD PTR __Ptr$64763[ebp], ecx

; 1993 : 			if (0 < _Newsize)

	cmp	DWORD PTR __Newsize$[ebp], 0
	jbe	SHORT $LN1@Tidy

; 1994 : 				_Traits::copy(this->_Bx._Buf, _Ptr, _Newsize);

	mov	eax, DWORD PTR __Newsize$[ebp]
	push	eax
	mov	ecx, DWORD PTR __Ptr$64763[ebp]
	push	ecx
	mov	edx, DWORD PTR _this$[ebp]
	add	edx, 4
	push	edx
	call	?copy@?$char_traits@D@std@@SAPADPADPBDI@Z ; std::char_traits<char>::copy
	add	esp, 12					; 0000000cH
$LN1@Tidy:

; 1995 : 			this->_Alval.deallocate(_Ptr, this->_Myres + 1);

	mov	eax, DWORD PTR _this$[ebp]
	mov	ecx, DWORD PTR [eax+24]
	add	ecx, 1
	push	ecx
	mov	edx, DWORD PTR __Ptr$64763[ebp]
	push	edx
	mov	ecx, DWORD PTR _this$[ebp]
	add	ecx, 28					; 0000001cH
	call	?deallocate@?$allocator@D@std@@QAEXPADI@Z ; std::allocator<char>::deallocate
$LN3@Tidy:

; 1996 : 			}
; 1997 : 		this->_Myres = this->_BUF_SIZE - 1;

	mov	eax, DWORD PTR _this$[ebp]
	mov	DWORD PTR [eax+24], 15			; 0000000fH

; 1998 : 		_Eos(_Newsize);

	mov	eax, DWORD PTR __Newsize$[ebp]
	push	eax
	mov	ecx, DWORD PTR _this$[ebp]
	call	?_Eos@?$basic_string@DU?$char_traits@D@std@@V?$allocator@D@2@@std@@QAEXI@Z ; std::basic_string<char,std::char_traits<char>,std::allocator<char> >::_Eos

; 1999 : 		}

	pop	edi
	pop	esi
	pop	ebx
	add	esp, 216				; 000000d8H
	cmp	ebp, esp
	call	__RTC_CheckEsp
	mov	esp, ebp
	pop	ebp
	ret	8
?_Tidy@?$basic_string@DU?$char_traits@D@std@@V?$allocator@D@2@@std@@QAEX_NI@Z ENDP ; std::basic_string<char,std::char_traits<char>,std::allocator<char> >::_Tidy
_TEXT	ENDS
EXTRN	_memcpy:PROC
; Function compile flags: /Odtp /RTCsu /ZI
; File c:\program files (x86)\microsoft visual studio 10.0\vc\include\iosfwd
;	COMDAT ?copy@?$char_traits@D@std@@SAPADPADPBDI@Z
_TEXT	SEGMENT
__First1$ = 8						; size = 4
__First2$ = 12						; size = 4
__Count$ = 16						; size = 4
?copy@?$char_traits@D@std@@SAPADPADPBDI@Z PROC		; std::char_traits<char>::copy, COMDAT

; 496  : 		{	// copy [_First1, _First1 + _Count) to [_First2, ...)

	push	ebp
	mov	ebp, esp
	sub	esp, 192				; 000000c0H
	push	ebx
	push	esi
	push	edi
	lea	edi, DWORD PTR [ebp-192]
	mov	ecx, 48					; 00000030H
	mov	eax, -858993460				; ccccccccH
	rep stosd

; 497  : 		return ((_Elem *)_CSTD memcpy(_First1, _First2, _Count));

	mov	eax, DWORD PTR __Count$[ebp]
	push	eax
	mov	ecx, DWORD PTR __First2$[ebp]
	push	ecx
	mov	edx, DWORD PTR __First1$[ebp]
	push	edx
	call	_memcpy
	add	esp, 12					; 0000000cH

; 498  : 		}

	pop	edi
	pop	esi
	pop	ebx
	add	esp, 192				; 000000c0H
	cmp	ebp, esp
	call	__RTC_CheckEsp
	mov	esp, ebp
	pop	ebp
	ret	0
?copy@?$char_traits@D@std@@SAPADPADPBDI@Z ENDP		; std::char_traits<char>::copy
_TEXT	ENDS
PUBLIC	?deallocate@?$allocator@U_Container_proxy@std@@@std@@QAEXPAU_Container_proxy@2@I@Z ; std::allocator<std::_Container_proxy>::deallocate
PUBLIC	??$_Dest_val@V?$allocator@U_Container_proxy@std@@@std@@U_Container_proxy@2@@std@@YAXAAV?$allocator@U_Container_proxy@std@@@0@PAU_Container_proxy@0@@Z ; std::_Dest_val<std::allocator<std::_Container_proxy>,std::_Container_proxy>
PUBLIC	??$?0D@?$allocator@U_Container_proxy@std@@@std@@QAE@ABV?$allocator@D@1@@Z ; std::allocator<std::_Container_proxy>::allocator<std::_Container_proxy><char>
EXTRN	__imp_??1_Container_base12@std@@QAE@XZ:PROC
EXTRN	__imp_?_Orphan_all@_Container_base12@std@@QAEXXZ:PROC
;	COMDAT xdata$x
; File c:\program files (x86)\microsoft visual studio 10.0\vc\include\xstring
xdata$x	SEGMENT
__unwindtable$??1?$_String_val@DV?$allocator@D@std@@@std@@QAE@XZ DD 0ffffffffH
	DD	FLAT:__unwindfunclet$??1?$_String_val@DV?$allocator@D@std@@@std@@QAE@XZ$0
__ehfuncinfo$??1?$_String_val@DV?$allocator@D@std@@@std@@QAE@XZ DD 019930522H
	DD	01H
	DD	FLAT:__unwindtable$??1?$_String_val@DV?$allocator@D@std@@@std@@QAE@XZ
	DD	2 DUP(00H)
	DD	2 DUP(00H)
	DD	00H
	DD	01H
; Function compile flags: /Odtp /RTCsu /ZI
xdata$x	ENDS
;	COMDAT ??1?$_String_val@DV?$allocator@D@std@@@std@@QAE@XZ
_TEXT	SEGMENT
__Alproxy$ = -29					; size = 1
_this$ = -20						; size = 4
__$EHRec$ = -12						; size = 12
??1?$_String_val@DV?$allocator@D@std@@@std@@QAE@XZ PROC	; std::_String_val<char,std::allocator<char> >::~_String_val<char,std::allocator<char> >, COMDAT
; _this$ = ecx

; 475  : 		{	// destroy the object

	push	ebp
	mov	ebp, esp
	push	-1
	push	__ehhandler$??1?$_String_val@DV?$allocator@D@std@@@std@@QAE@XZ
	mov	eax, DWORD PTR fs:0
	push	eax
	sub	esp, 216				; 000000d8H
	push	ebx
	push	esi
	push	edi
	push	ecx
	lea	edi, DWORD PTR [ebp-228]
	mov	ecx, 54					; 00000036H
	mov	eax, -858993460				; ccccccccH
	rep stosd
	pop	ecx
	mov	eax, DWORD PTR ___security_cookie
	xor	eax, ebp
	push	eax
	lea	eax, DWORD PTR __$EHRec$[ebp]
	mov	DWORD PTR fs:0, eax
	mov	DWORD PTR _this$[ebp], ecx
	mov	DWORD PTR __$EHRec$[ebp+8], 0

; 476  : 		typename _Alloc::template rebind<_Container_proxy>::other
; 477  : 			_Alproxy(_Alval);

	mov	eax, DWORD PTR _this$[ebp]
	add	eax, 28					; 0000001cH
	push	eax
	lea	ecx, DWORD PTR __Alproxy$[ebp]
	call	??$?0D@?$allocator@U_Container_proxy@std@@@std@@QAE@ABV?$allocator@D@1@@Z ; std::allocator<std::_Container_proxy>::allocator<std::_Container_proxy><char>

; 478  : 		this->_Orphan_all();

	mov	esi, esp
	mov	ecx, DWORD PTR _this$[ebp]
	call	DWORD PTR __imp_?_Orphan_all@_Container_base12@std@@QAEXXZ
	cmp	esi, esp
	call	__RTC_CheckEsp

; 479  : 		_Dest_val(_Alproxy, this->_Myproxy);

	mov	eax, DWORD PTR _this$[ebp]
	mov	ecx, DWORD PTR [eax]
	push	ecx
	lea	edx, DWORD PTR __Alproxy$[ebp]
	push	edx
	call	??$_Dest_val@V?$allocator@U_Container_proxy@std@@@std@@U_Container_proxy@2@@std@@YAXAAV?$allocator@U_Container_proxy@std@@@0@PAU_Container_proxy@0@@Z ; std::_Dest_val<std::allocator<std::_Container_proxy>,std::_Container_proxy>
	add	esp, 8

; 480  : 		_Alproxy.deallocate(this->_Myproxy, 1);

	push	1
	mov	eax, DWORD PTR _this$[ebp]
	mov	ecx, DWORD PTR [eax]
	push	ecx
	lea	ecx, DWORD PTR __Alproxy$[ebp]
	call	?deallocate@?$allocator@U_Container_proxy@std@@@std@@QAEXPAU_Container_proxy@2@I@Z ; std::allocator<std::_Container_proxy>::deallocate

; 481  : 		this->_Myproxy = 0;

	mov	eax, DWORD PTR _this$[ebp]
	mov	DWORD PTR [eax], 0

; 482  : 		}

	mov	DWORD PTR __$EHRec$[ebp+8], -1
	mov	esi, esp
	mov	ecx, DWORD PTR _this$[ebp]
	call	DWORD PTR __imp_??1_Container_base12@std@@QAE@XZ
	cmp	esi, esp
	call	__RTC_CheckEsp
	push	edx
	mov	ecx, ebp
	push	eax
	lea	edx, DWORD PTR $LN7@String_val
	call	@_RTC_CheckStackVars@8
	pop	eax
	pop	edx
	mov	ecx, DWORD PTR __$EHRec$[ebp]
	mov	DWORD PTR fs:0, ecx
	pop	ecx
	pop	edi
	pop	esi
	pop	ebx
	add	esp, 228				; 000000e4H
	cmp	ebp, esp
	call	__RTC_CheckEsp
	mov	esp, ebp
	pop	ebp
	ret	0
	npad	2
$LN7@String_val:
	DD	1
	DD	$LN6@String_val
$LN6@String_val:
	DD	-29					; ffffffe3H
	DD	1
	DD	$LN4@String_val
$LN4@String_val:
	DB	95					; 0000005fH
	DB	65					; 00000041H
	DB	108					; 0000006cH
	DB	112					; 00000070H
	DB	114					; 00000072H
	DB	111					; 0000006fH
	DB	120					; 00000078H
	DB	121					; 00000079H
	DB	0
_TEXT	ENDS
;	COMDAT text$x
text$x	SEGMENT
__unwindfunclet$??1?$_String_val@DV?$allocator@D@std@@@std@@QAE@XZ$0:
	mov	esi, esp
	mov	ecx, DWORD PTR _this$[ebp]
	call	DWORD PTR __imp_??1_Container_base12@std@@QAE@XZ
	cmp	esi, esp
	jmp	__RTC_CheckEsp
__ehhandler$??1?$_String_val@DV?$allocator@D@std@@@std@@QAE@XZ:
	mov	edx, DWORD PTR [esp+8]
	lea	eax, DWORD PTR [edx+12]
	mov	ecx, DWORD PTR [edx-232]
	xor	ecx, eax
	call	@__security_check_cookie@4
	mov	eax, OFFSET __ehfuncinfo$??1?$_String_val@DV?$allocator@D@std@@@std@@QAE@XZ
	jmp	___CxxFrameHandler3
text$x	ENDS
??1?$_String_val@DV?$allocator@D@std@@@std@@QAE@XZ ENDP	; std::_String_val<char,std::allocator<char> >::~_String_val<char,std::allocator<char> >
PUBLIC	?assign@?$char_traits@D@std@@SAXAADABD@Z	; std::char_traits<char>::assign
PUBLIC	?_Myptr@?$basic_string@DU?$char_traits@D@std@@V?$allocator@D@2@@std@@QAEPADXZ ; std::basic_string<char,std::char_traits<char>,std::allocator<char> >::_Myptr
; Function compile flags: /Odtp /RTCsu /ZI
;	COMDAT ?_Eos@?$basic_string@DU?$char_traits@D@std@@V?$allocator@D@2@@std@@QAEXI@Z
_TEXT	SEGMENT
$T70703 = -209						; size = 1
_this$ = -8						; size = 4
__Newsize$ = 8						; size = 4
?_Eos@?$basic_string@DU?$char_traits@D@std@@V?$allocator@D@2@@std@@QAEXI@Z PROC ; std::basic_string<char,std::char_traits<char>,std::allocator<char> >::_Eos, COMDAT
; _this$ = ecx

; 1952 : 		{	// set new length and null terminator

	push	ebp
	mov	ebp, esp
	sub	esp, 216				; 000000d8H
	push	ebx
	push	esi
	push	edi
	push	ecx
	lea	edi, DWORD PTR [ebp-216]
	mov	ecx, 54					; 00000036H
	mov	eax, -858993460				; ccccccccH
	rep stosd
	pop	ecx
	mov	DWORD PTR _this$[ebp], ecx

; 1953 : 		_Traits::assign(_Myptr()[this->_Mysize = _Newsize], _Elem());

	mov	BYTE PTR $T70703[ebp], 0
	mov	eax, DWORD PTR _this$[ebp]
	mov	ecx, DWORD PTR __Newsize$[ebp]
	mov	DWORD PTR [eax+20], ecx
	lea	edx, DWORD PTR $T70703[ebp]
	push	edx
	mov	ecx, DWORD PTR _this$[ebp]
	call	?_Myptr@?$basic_string@DU?$char_traits@D@std@@V?$allocator@D@2@@std@@QAEPADXZ ; std::basic_string<char,std::char_traits<char>,std::allocator<char> >::_Myptr
	add	eax, DWORD PTR __Newsize$[ebp]
	push	eax
	call	?assign@?$char_traits@D@std@@SAXAADABD@Z ; std::char_traits<char>::assign
	add	esp, 8

; 1954 : 		}

	pop	edi
	pop	esi
	pop	ebx
	add	esp, 216				; 000000d8H
	cmp	ebp, esp
	call	__RTC_CheckEsp
	mov	esp, ebp
	pop	ebp
	ret	4
?_Eos@?$basic_string@DU?$char_traits@D@std@@V?$allocator@D@2@@std@@QAEXI@Z ENDP ; std::basic_string<char,std::char_traits<char>,std::allocator<char> >::_Eos
; Function compile flags: /Odtp /RTCsu /ZI
; File c:\program files (x86)\microsoft visual studio 10.0\vc\include\iosfwd
_TEXT	ENDS
;	COMDAT ?assign@?$char_traits@D@std@@SAXAADABD@Z
_TEXT	SEGMENT
__Left$ = 8						; size = 4
__Right$ = 12						; size = 4
?assign@?$char_traits@D@std@@SAXAADABD@Z PROC		; std::char_traits<char>::assign, COMDAT

; 526  : 		{	// assign an element

	push	ebp
	mov	ebp, esp
	sub	esp, 192				; 000000c0H
	push	ebx
	push	esi
	push	edi
	lea	edi, DWORD PTR [ebp-192]
	mov	ecx, 48					; 00000030H
	mov	eax, -858993460				; ccccccccH
	rep stosd

; 527  : 		_Left = _Right;

	mov	eax, DWORD PTR __Left$[ebp]
	mov	ecx, DWORD PTR __Right$[ebp]
	mov	dl, BYTE PTR [ecx]
	mov	BYTE PTR [eax], dl

; 528  : 		}

	pop	edi
	pop	esi
	pop	ebx
	mov	esp, ebp
	pop	ebp
	ret	0
?assign@?$char_traits@D@std@@SAXAADABD@Z ENDP		; std::char_traits<char>::assign
; Function compile flags: /Odtp /RTCsu /ZI
; File c:\program files (x86)\microsoft visual studio 10.0\vc\include\xstring
_TEXT	ENDS
;	COMDAT ?_Myptr@?$basic_string@DU?$char_traits@D@std@@V?$allocator@D@2@@std@@QAEPADXZ
_TEXT	SEGMENT
tv82 = -208						; size = 4
_this$ = -8						; size = 4
?_Myptr@?$basic_string@DU?$char_traits@D@std@@V?$allocator@D@2@@std@@QAEPADXZ PROC ; std::basic_string<char,std::char_traits<char>,std::allocator<char> >::_Myptr, COMDAT
; _this$ = ecx

; 2002 : 		{	// determine current pointer to buffer for mutable string

	push	ebp
	mov	ebp, esp
	sub	esp, 208				; 000000d0H
	push	ebx
	push	esi
	push	edi
	push	ecx
	lea	edi, DWORD PTR [ebp-208]
	mov	ecx, 52					; 00000034H
	mov	eax, -858993460				; ccccccccH
	rep stosd
	pop	ecx
	mov	DWORD PTR _this$[ebp], ecx

; 2003 : 		return (this->_BUF_SIZE <= this->_Myres ? this->_Bx._Ptr
; 2004 : 			: this->_Bx._Buf);

	mov	eax, DWORD PTR _this$[ebp]
	cmp	DWORD PTR [eax+24], 16			; 00000010H
	jb	SHORT $LN3@Myptr
	mov	ecx, DWORD PTR _this$[ebp]
	mov	edx, DWORD PTR [ecx+4]
	mov	DWORD PTR tv82[ebp], edx
	jmp	SHORT $LN4@Myptr
$LN3@Myptr:
	mov	eax, DWORD PTR _this$[ebp]
	add	eax, 4
	mov	DWORD PTR tv82[ebp], eax
$LN4@Myptr:
	mov	eax, DWORD PTR tv82[ebp]

; 2005 : 		}

	pop	edi
	pop	esi
	pop	ebx
	mov	esp, ebp
	pop	ebp
	ret	0
?_Myptr@?$basic_string@DU?$char_traits@D@std@@V?$allocator@D@2@@std@@QAEPADXZ ENDP ; std::basic_string<char,std::char_traits<char>,std::allocator<char> >::_Myptr
; Function compile flags: /Odtp /RTCsu /ZI
; File c:\program files (x86)\microsoft visual studio 10.0\vc\include\xmemory
_TEXT	ENDS
;	COMDAT ?deallocate@?$allocator@D@std@@QAEXPADI@Z
_TEXT	SEGMENT
_this$ = -8						; size = 4
__Ptr$ = 8						; size = 4
___formal$ = 12						; size = 4
?deallocate@?$allocator@D@std@@QAEXPADI@Z PROC		; std::allocator<char>::deallocate, COMDAT
; _this$ = ecx

; 181  : 		{	// deallocate object at _Ptr, ignore size

	push	ebp
	mov	ebp, esp
	sub	esp, 204				; 000000ccH
	push	ebx
	push	esi
	push	edi
	push	ecx
	lea	edi, DWORD PTR [ebp-204]
	mov	ecx, 51					; 00000033H
	mov	eax, -858993460				; ccccccccH
	rep stosd
	pop	ecx
	mov	DWORD PTR _this$[ebp], ecx

; 182  : 		::operator delete(_Ptr);

	mov	eax, DWORD PTR __Ptr$[ebp]
	push	eax
	call	??3@YAXPAX@Z				; operator delete
	add	esp, 4

; 183  : 		}

	pop	edi
	pop	esi
	pop	ebx
	add	esp, 204				; 000000ccH
	cmp	ebp, esp
	call	__RTC_CheckEsp
	mov	esp, ebp
	pop	ebp
	ret	8
?deallocate@?$allocator@D@std@@QAEXPADI@Z ENDP		; std::allocator<char>::deallocate
; Function compile flags: /Odtp /RTCsu /ZI
_TEXT	ENDS
;	COMDAT ?deallocate@?$allocator@U_Container_proxy@std@@@std@@QAEXPAU_Container_proxy@2@I@Z
_TEXT	SEGMENT
_this$ = -8						; size = 4
__Ptr$ = 8						; size = 4
___formal$ = 12						; size = 4
?deallocate@?$allocator@U_Container_proxy@std@@@std@@QAEXPAU_Container_proxy@2@I@Z PROC ; std::allocator<std::_Container_proxy>::deallocate, COMDAT
; _this$ = ecx

; 181  : 		{	// deallocate object at _Ptr, ignore size

	push	ebp
	mov	ebp, esp
	sub	esp, 204				; 000000ccH
	push	ebx
	push	esi
	push	edi
	push	ecx
	lea	edi, DWORD PTR [ebp-204]
	mov	ecx, 51					; 00000033H
	mov	eax, -858993460				; ccccccccH
	rep stosd
	pop	ecx
	mov	DWORD PTR _this$[ebp], ecx

; 182  : 		::operator delete(_Ptr);

	mov	eax, DWORD PTR __Ptr$[ebp]
	push	eax
	call	??3@YAXPAX@Z				; operator delete
	add	esp, 4

; 183  : 		}

	pop	edi
	pop	esi
	pop	ebx
	add	esp, 204				; 000000ccH
	cmp	ebp, esp
	call	__RTC_CheckEsp
	mov	esp, ebp
	pop	ebp
	ret	8
?deallocate@?$allocator@U_Container_proxy@std@@@std@@QAEXPAU_Container_proxy@2@I@Z ENDP ; std::allocator<std::_Container_proxy>::deallocate
; Function compile flags: /Odtp /RTCsu /ZI
; File c:\opengl\glm-0.9.3.1\glm\core\type_vec2.inl
_TEXT	ENDS
;	COMDAT ??0?$tvec2@M@detail@glm@@QAE@ABM0@Z
_TEXT	SEGMENT
_this$ = -8						; size = 4
_s1$ = 8						; size = 4
_s2$ = 12						; size = 4
??0?$tvec2@M@detail@glm@@QAE@ABM0@Z PROC		; glm::detail::tvec2<float>::tvec2<float>, COMDAT
; _this$ = ecx

; 108  : 	{}

	push	ebp
	mov	ebp, esp
	sub	esp, 204				; 000000ccH
	push	ebx
	push	esi
	push	edi
	push	ecx
	lea	edi, DWORD PTR [ebp-204]
	mov	ecx, 51					; 00000033H
	mov	eax, -858993460				; ccccccccH
	rep stosd
	pop	ecx
	mov	DWORD PTR _this$[ebp], ecx
	mov	eax, DWORD PTR _this$[ebp]
	mov	ecx, DWORD PTR _s1$[ebp]
	fld	DWORD PTR [ecx]
	fstp	DWORD PTR [eax]
	mov	eax, DWORD PTR _this$[ebp]
	mov	ecx, DWORD PTR _s2$[ebp]
	fld	DWORD PTR [ecx]
	fstp	DWORD PTR [eax+4]
	mov	eax, DWORD PTR _this$[ebp]
	pop	edi
	pop	esi
	pop	ebx
	mov	esp, ebp
	pop	ebp
	ret	8
??0?$tvec2@M@detail@glm@@QAE@ABM0@Z ENDP		; glm::detail::tvec2<float>::tvec2<float>
; Function compile flags: /Odtp /RTCsu /ZI
_TEXT	ENDS
;	COMDAT ??0?$tvec2@M@detail@glm@@QAE@ABM@Z
_TEXT	SEGMENT
_this$ = -8						; size = 4
_s$ = 8							; size = 4
??0?$tvec2@M@detail@glm@@QAE@ABM@Z PROC			; glm::detail::tvec2<float>::tvec2<float>, COMDAT
; _this$ = ecx

; 98   : 	{}

	push	ebp
	mov	ebp, esp
	sub	esp, 204				; 000000ccH
	push	ebx
	push	esi
	push	edi
	push	ecx
	lea	edi, DWORD PTR [ebp-204]
	mov	ecx, 51					; 00000033H
	mov	eax, -858993460				; ccccccccH
	rep stosd
	pop	ecx
	mov	DWORD PTR _this$[ebp], ecx
	mov	eax, DWORD PTR _this$[ebp]
	mov	ecx, DWORD PTR _s$[ebp]
	fld	DWORD PTR [ecx]
	fstp	DWORD PTR [eax]
	mov	eax, DWORD PTR _this$[ebp]
	mov	ecx, DWORD PTR _s$[ebp]
	fld	DWORD PTR [ecx]
	fstp	DWORD PTR [eax+4]
	mov	eax, DWORD PTR _this$[ebp]
	pop	edi
	pop	esi
	pop	ebx
	mov	esp, ebp
	pop	ebp
	ret	4
??0?$tvec2@M@detail@glm@@QAE@ABM@Z ENDP			; glm::detail::tvec2<float>::tvec2<float>
; Function compile flags: /Odtp /RTCsu /ZI
_TEXT	ENDS
;	COMDAT ??0?$tvec2@M@detail@glm@@QAE@XZ
_TEXT	SEGMENT
_this$ = -8						; size = 4
??0?$tvec2@M@detail@glm@@QAE@XZ PROC			; glm::detail::tvec2<float>::tvec2<float>, COMDAT
; _this$ = ecx

; 70   : 	{}

	push	ebp
	mov	ebp, esp
	sub	esp, 204				; 000000ccH
	push	ebx
	push	esi
	push	edi
	push	ecx
	lea	edi, DWORD PTR [ebp-204]
	mov	ecx, 51					; 00000033H
	mov	eax, -858993460				; ccccccccH
	rep stosd
	pop	ecx
	mov	DWORD PTR _this$[ebp], ecx
	mov	eax, DWORD PTR _this$[ebp]
	fldz
	fstp	DWORD PTR [eax]
	mov	eax, DWORD PTR _this$[ebp]
	fldz
	fstp	DWORD PTR [eax+4]
	mov	eax, DWORD PTR _this$[ebp]
	pop	edi
	pop	esi
	pop	ebx
	mov	esp, ebp
	pop	ebp
	ret	0
??0?$tvec2@M@detail@glm@@QAE@XZ ENDP			; glm::detail::tvec2<float>::tvec2<float>
; Function compile flags: /Odtp /RTCsu /ZI
_TEXT	ENDS
;	COMDAT ??4?$tvec2@M@detail@glm@@QAEAAU012@ABU012@@Z
_TEXT	SEGMENT
_this$ = -8						; size = 4
_v$ = 8							; size = 4
??4?$tvec2@M@detail@glm@@QAEAAU012@ABU012@@Z PROC	; glm::detail::tvec2<float>::operator=, COMDAT
; _this$ = ecx

; 187  : 	{

	push	ebp
	mov	ebp, esp
	sub	esp, 204				; 000000ccH
	push	ebx
	push	esi
	push	edi
	push	ecx
	lea	edi, DWORD PTR [ebp-204]
	mov	ecx, 51					; 00000033H
	mov	eax, -858993460				; ccccccccH
	rep stosd
	pop	ecx
	mov	DWORD PTR _this$[ebp], ecx

; 188  : 		this->x = v.x;

	mov	eax, DWORD PTR _this$[ebp]
	mov	ecx, DWORD PTR _v$[ebp]
	fld	DWORD PTR [ecx]
	fstp	DWORD PTR [eax]

; 189  : 		this->y = v.y;

	mov	eax, DWORD PTR _this$[ebp]
	mov	ecx, DWORD PTR _v$[ebp]
	fld	DWORD PTR [ecx+4]
	fstp	DWORD PTR [eax+4]

; 190  : 		return *this;

	mov	eax, DWORD PTR _this$[ebp]

; 191  : 	}

	pop	edi
	pop	esi
	pop	ebx
	mov	esp, ebp
	pop	ebp
	ret	4
??4?$tvec2@M@detail@glm@@QAEAAU012@ABU012@@Z ENDP	; glm::detail::tvec2<float>::operator=
; Function compile flags: /Odtp /RTCsu /ZI
; File c:\opengl\glm-0.9.3.1\glm\core\type_vec3.inl
_TEXT	ENDS
;	COMDAT ??0?$tvec3@M@detail@glm@@QAE@ABM00@Z
_TEXT	SEGMENT
_this$ = -8						; size = 4
_s0$ = 8						; size = 4
_s1$ = 12						; size = 4
_s2$ = 16						; size = 4
??0?$tvec3@M@detail@glm@@QAE@ABM00@Z PROC		; glm::detail::tvec3<float>::tvec3<float>, COMDAT
; _this$ = ecx

; 113  : 	{}

	push	ebp
	mov	ebp, esp
	sub	esp, 204				; 000000ccH
	push	ebx
	push	esi
	push	edi
	push	ecx
	lea	edi, DWORD PTR [ebp-204]
	mov	ecx, 51					; 00000033H
	mov	eax, -858993460				; ccccccccH
	rep stosd
	pop	ecx
	mov	DWORD PTR _this$[ebp], ecx
	mov	eax, DWORD PTR _this$[ebp]
	mov	ecx, DWORD PTR _s0$[ebp]
	fld	DWORD PTR [ecx]
	fstp	DWORD PTR [eax]
	mov	eax, DWORD PTR _this$[ebp]
	mov	ecx, DWORD PTR _s1$[ebp]
	fld	DWORD PTR [ecx]
	fstp	DWORD PTR [eax+4]
	mov	eax, DWORD PTR _this$[ebp]
	mov	ecx, DWORD PTR _s2$[ebp]
	fld	DWORD PTR [ecx]
	fstp	DWORD PTR [eax+8]
	mov	eax, DWORD PTR _this$[ebp]
	pop	edi
	pop	esi
	pop	ebx
	mov	esp, ebp
	pop	ebp
	ret	12					; 0000000cH
??0?$tvec3@M@detail@glm@@QAE@ABM00@Z ENDP		; glm::detail::tvec3<float>::tvec3<float>
; Function compile flags: /Odtp /RTCsu /ZI
_TEXT	ENDS
;	COMDAT ??0?$tvec3@M@detail@glm@@QAE@XZ
_TEXT	SEGMENT
_this$ = -8						; size = 4
??0?$tvec3@M@detail@glm@@QAE@XZ PROC			; glm::detail::tvec3<float>::tvec3<float>, COMDAT
; _this$ = ecx

; 71   : 	{}

	push	ebp
	mov	ebp, esp
	sub	esp, 204				; 000000ccH
	push	ebx
	push	esi
	push	edi
	push	ecx
	lea	edi, DWORD PTR [ebp-204]
	mov	ecx, 51					; 00000033H
	mov	eax, -858993460				; ccccccccH
	rep stosd
	pop	ecx
	mov	DWORD PTR _this$[ebp], ecx
	mov	eax, DWORD PTR _this$[ebp]
	fldz
	fstp	DWORD PTR [eax]
	mov	eax, DWORD PTR _this$[ebp]
	fldz
	fstp	DWORD PTR [eax+4]
	mov	eax, DWORD PTR _this$[ebp]
	fldz
	fstp	DWORD PTR [eax+8]
	mov	eax, DWORD PTR _this$[ebp]
	pop	edi
	pop	esi
	pop	ebx
	mov	esp, ebp
	pop	ebp
	ret	0
??0?$tvec3@M@detail@glm@@QAE@XZ ENDP			; glm::detail::tvec3<float>::tvec3<float>
; Function compile flags: /Odtp /RTCsu /ZI
_TEXT	ENDS
;	COMDAT ??4?$tvec3@M@detail@glm@@QAEAAU012@ABU012@@Z
_TEXT	SEGMENT
_this$ = -8						; size = 4
_v$ = 8							; size = 4
??4?$tvec3@M@detail@glm@@QAEAAU012@ABU012@@Z PROC	; glm::detail::tvec3<float>::operator=, COMDAT
; _this$ = ecx

; 236  : 	{

	push	ebp
	mov	ebp, esp
	sub	esp, 204				; 000000ccH
	push	ebx
	push	esi
	push	edi
	push	ecx
	lea	edi, DWORD PTR [ebp-204]
	mov	ecx, 51					; 00000033H
	mov	eax, -858993460				; ccccccccH
	rep stosd
	pop	ecx
	mov	DWORD PTR _this$[ebp], ecx

; 237  : 		this->x = v.x;

	mov	eax, DWORD PTR _this$[ebp]
	mov	ecx, DWORD PTR _v$[ebp]
	fld	DWORD PTR [ecx]
	fstp	DWORD PTR [eax]

; 238  : 		this->y = v.y;

	mov	eax, DWORD PTR _this$[ebp]
	mov	ecx, DWORD PTR _v$[ebp]
	fld	DWORD PTR [ecx+4]
	fstp	DWORD PTR [eax+4]

; 239  : 		this->z = v.z;

	mov	eax, DWORD PTR _this$[ebp]
	mov	ecx, DWORD PTR _v$[ebp]
	fld	DWORD PTR [ecx+8]
	fstp	DWORD PTR [eax+8]

; 240  : 		return *this;

	mov	eax, DWORD PTR _this$[ebp]

; 241  : 	}

	pop	edi
	pop	esi
	pop	ebx
	mov	esp, ebp
	pop	ebp
	ret	4
??4?$tvec3@M@detail@glm@@QAEAAU012@ABU012@@Z ENDP	; glm::detail::tvec3<float>::operator=
; Function compile flags: /Odtp /RTCsu /ZI
; File c:\opengl\glm-0.9.3.1\glm\core\type_vec4.inl
_TEXT	ENDS
;	COMDAT ??0?$tvec4@M@detail@glm@@QAE@ABM000@Z
_TEXT	SEGMENT
_this$ = -8						; size = 4
_s1$ = 8						; size = 4
_s2$ = 12						; size = 4
_s3$ = 16						; size = 4
_s4$ = 20						; size = 4
??0?$tvec4@M@detail@glm@@QAE@ABM000@Z PROC		; glm::detail::tvec4<float>::tvec4<float>, COMDAT
; _this$ = ecx

; 118  : 	{}

	push	ebp
	mov	ebp, esp
	sub	esp, 204				; 000000ccH
	push	ebx
	push	esi
	push	edi
	push	ecx
	lea	edi, DWORD PTR [ebp-204]
	mov	ecx, 51					; 00000033H
	mov	eax, -858993460				; ccccccccH
	rep stosd
	pop	ecx
	mov	DWORD PTR _this$[ebp], ecx
	mov	eax, DWORD PTR _this$[ebp]
	mov	ecx, DWORD PTR _s1$[ebp]
	fld	DWORD PTR [ecx]
	fstp	DWORD PTR [eax]
	mov	eax, DWORD PTR _this$[ebp]
	mov	ecx, DWORD PTR _s2$[ebp]
	fld	DWORD PTR [ecx]
	fstp	DWORD PTR [eax+4]
	mov	eax, DWORD PTR _this$[ebp]
	mov	ecx, DWORD PTR _s3$[ebp]
	fld	DWORD PTR [ecx]
	fstp	DWORD PTR [eax+8]
	mov	eax, DWORD PTR _this$[ebp]
	mov	ecx, DWORD PTR _s4$[ebp]
	fld	DWORD PTR [ecx]
	fstp	DWORD PTR [eax+12]
	mov	eax, DWORD PTR _this$[ebp]
	pop	edi
	pop	esi
	pop	ebx
	mov	esp, ebp
	pop	ebp
	ret	16					; 00000010H
??0?$tvec4@M@detail@glm@@QAE@ABM000@Z ENDP		; glm::detail::tvec4<float>::tvec4<float>
_TEXT	ENDS
PUBLIC	??4?$tvec4@M@detail@glm@@QAEAAU012@ABU012@@Z	; glm::detail::tvec4<float>::operator=
PUBLIC	??_H@YGXPAXIHP6EPAX0@Z@Z			; `vector constructor iterator'
PUBLIC	??0?$tvec4@M@detail@glm@@QAE@XZ			; glm::detail::tvec4<float>::tvec4<float>
; Function compile flags: /Odtp /RTCsu /ZI
; File c:\opengl\glm-0.9.3.1\glm\core\type_mat4x4.inl
;	COMDAT ??0?$tmat4x4@M@detail@glm@@QAE@ABU012@@Z
_TEXT	SEGMENT
_this$ = -8						; size = 4
_m$ = 8							; size = 4
??0?$tmat4x4@M@detail@glm@@QAE@ABU012@@Z PROC		; glm::detail::tmat4x4<float>::tmat4x4<float>, COMDAT
; _this$ = ecx

; 94   :     {

	push	ebp
	mov	ebp, esp
	sub	esp, 204				; 000000ccH
	push	ebx
	push	esi
	push	edi
	push	ecx
	lea	edi, DWORD PTR [ebp-204]
	mov	ecx, 51					; 00000033H
	mov	eax, -858993460				; ccccccccH
	rep stosd
	pop	ecx
	mov	DWORD PTR _this$[ebp], ecx
	push	OFFSET ??0?$tvec4@M@detail@glm@@QAE@XZ	; glm::detail::tvec4<float>::tvec4<float>
	push	4
	push	16					; 00000010H
	mov	eax, DWORD PTR _this$[ebp]
	push	eax
	call	??_H@YGXPAXIHP6EPAX0@Z@Z

; 95   :         this->value[0] = m.value[0];

	mov	eax, DWORD PTR _m$[ebp]
	push	eax
	mov	ecx, DWORD PTR _this$[ebp]
	call	??4?$tvec4@M@detail@glm@@QAEAAU012@ABU012@@Z ; glm::detail::tvec4<float>::operator=

; 96   :         this->value[1] = m.value[1];

	mov	eax, DWORD PTR _m$[ebp]
	add	eax, 16					; 00000010H
	push	eax
	mov	ecx, DWORD PTR _this$[ebp]
	add	ecx, 16					; 00000010H
	call	??4?$tvec4@M@detail@glm@@QAEAAU012@ABU012@@Z ; glm::detail::tvec4<float>::operator=

; 97   :         this->value[2] = m.value[2];

	mov	eax, DWORD PTR _m$[ebp]
	add	eax, 32					; 00000020H
	push	eax
	mov	ecx, DWORD PTR _this$[ebp]
	add	ecx, 32					; 00000020H
	call	??4?$tvec4@M@detail@glm@@QAEAAU012@ABU012@@Z ; glm::detail::tvec4<float>::operator=

; 98   :         this->value[3] = m.value[3];

	mov	eax, DWORD PTR _m$[ebp]
	add	eax, 48					; 00000030H
	push	eax
	mov	ecx, DWORD PTR _this$[ebp]
	add	ecx, 48					; 00000030H
	call	??4?$tvec4@M@detail@glm@@QAEAAU012@ABU012@@Z ; glm::detail::tvec4<float>::operator=

; 99   :     }

	mov	eax, DWORD PTR _this$[ebp]
	pop	edi
	pop	esi
	pop	ebx
	add	esp, 204				; 000000ccH
	cmp	ebp, esp
	call	__RTC_CheckEsp
	mov	esp, ebp
	pop	ebp
	ret	4
??0?$tmat4x4@M@detail@glm@@QAE@ABU012@@Z ENDP		; glm::detail::tmat4x4<float>::tmat4x4<float>
; Function compile flags: /Odtp /RTCsu /ZI
_TEXT	ENDS
;	COMDAT ??0?$tmat4x4@M@detail@glm@@QAE@XZ
_TEXT	SEGMENT
$T70734 = -320						; size = 16
$T70735 = -296						; size = 16
$T70736 = -272						; size = 16
$T70737 = -248						; size = 16
_One$ = -32						; size = 4
_Zero$ = -20						; size = 4
_this$ = -8						; size = 4
??0?$tmat4x4@M@detail@glm@@QAE@XZ PROC			; glm::detail::tmat4x4<float>::tmat4x4<float>, COMDAT
; _this$ = ecx

; 80   :     {

	push	ebp
	mov	ebp, esp
	sub	esp, 324				; 00000144H
	push	ebx
	push	esi
	push	edi
	push	ecx
	lea	edi, DWORD PTR [ebp-324]
	mov	ecx, 81					; 00000051H
	mov	eax, -858993460				; ccccccccH
	rep stosd
	pop	ecx
	mov	DWORD PTR _this$[ebp], ecx
	push	OFFSET ??0?$tvec4@M@detail@glm@@QAE@XZ	; glm::detail::tvec4<float>::tvec4<float>
	push	4
	push	16					; 00000010H
	mov	eax, DWORD PTR _this$[ebp]
	push	eax
	call	??_H@YGXPAXIHP6EPAX0@Z@Z

; 81   : 		value_type Zero(0);

	fldz
	fstp	DWORD PTR _Zero$[ebp]

; 82   : 		value_type One(1);

	fld1
	fstp	DWORD PTR _One$[ebp]

; 83   :         this->value[0] = col_type(One, Zero, Zero, Zero);

	lea	eax, DWORD PTR _Zero$[ebp]
	push	eax
	lea	ecx, DWORD PTR _Zero$[ebp]
	push	ecx
	lea	edx, DWORD PTR _Zero$[ebp]
	push	edx
	lea	eax, DWORD PTR _One$[ebp]
	push	eax
	lea	ecx, DWORD PTR $T70734[ebp]
	call	??0?$tvec4@M@detail@glm@@QAE@ABM000@Z	; glm::detail::tvec4<float>::tvec4<float>
	push	eax
	mov	ecx, DWORD PTR _this$[ebp]
	call	??4?$tvec4@M@detail@glm@@QAEAAU012@ABU012@@Z ; glm::detail::tvec4<float>::operator=

; 84   :         this->value[1] = col_type(Zero, One, Zero, Zero);

	lea	eax, DWORD PTR _Zero$[ebp]
	push	eax
	lea	ecx, DWORD PTR _Zero$[ebp]
	push	ecx
	lea	edx, DWORD PTR _One$[ebp]
	push	edx
	lea	eax, DWORD PTR _Zero$[ebp]
	push	eax
	lea	ecx, DWORD PTR $T70735[ebp]
	call	??0?$tvec4@M@detail@glm@@QAE@ABM000@Z	; glm::detail::tvec4<float>::tvec4<float>
	push	eax
	mov	ecx, DWORD PTR _this$[ebp]
	add	ecx, 16					; 00000010H
	call	??4?$tvec4@M@detail@glm@@QAEAAU012@ABU012@@Z ; glm::detail::tvec4<float>::operator=

; 85   :         this->value[2] = col_type(Zero, Zero, One, Zero);

	lea	eax, DWORD PTR _Zero$[ebp]
	push	eax
	lea	ecx, DWORD PTR _One$[ebp]
	push	ecx
	lea	edx, DWORD PTR _Zero$[ebp]
	push	edx
	lea	eax, DWORD PTR _Zero$[ebp]
	push	eax
	lea	ecx, DWORD PTR $T70736[ebp]
	call	??0?$tvec4@M@detail@glm@@QAE@ABM000@Z	; glm::detail::tvec4<float>::tvec4<float>
	push	eax
	mov	ecx, DWORD PTR _this$[ebp]
	add	ecx, 32					; 00000020H
	call	??4?$tvec4@M@detail@glm@@QAEAAU012@ABU012@@Z ; glm::detail::tvec4<float>::operator=

; 86   :         this->value[3] = col_type(Zero, Zero, Zero, One);

	lea	eax, DWORD PTR _One$[ebp]
	push	eax
	lea	ecx, DWORD PTR _Zero$[ebp]
	push	ecx
	lea	edx, DWORD PTR _Zero$[ebp]
	push	edx
	lea	eax, DWORD PTR _Zero$[ebp]
	push	eax
	lea	ecx, DWORD PTR $T70737[ebp]
	call	??0?$tvec4@M@detail@glm@@QAE@ABM000@Z	; glm::detail::tvec4<float>::tvec4<float>
	push	eax
	mov	ecx, DWORD PTR _this$[ebp]
	add	ecx, 48					; 00000030H
	call	??4?$tvec4@M@detail@glm@@QAEAAU012@ABU012@@Z ; glm::detail::tvec4<float>::operator=

; 87   :     }

	mov	eax, DWORD PTR _this$[ebp]
	push	edx
	mov	ecx, ebp
	push	eax
	lea	edx, DWORD PTR $LN6@tmat4x4
	call	@_RTC_CheckStackVars@8
	pop	eax
	pop	edx
	pop	edi
	pop	esi
	pop	ebx
	add	esp, 324				; 00000144H
	cmp	ebp, esp
	call	__RTC_CheckEsp
	mov	esp, ebp
	pop	ebp
	ret	0
$LN6@tmat4x4:
	DD	2
	DD	$LN5@tmat4x4
$LN5@tmat4x4:
	DD	-20					; ffffffecH
	DD	4
	DD	$LN3@tmat4x4
	DD	-32					; ffffffe0H
	DD	4
	DD	$LN4@tmat4x4
$LN4@tmat4x4:
	DB	79					; 0000004fH
	DB	110					; 0000006eH
	DB	101					; 00000065H
	DB	0
$LN3@tmat4x4:
	DB	90					; 0000005aH
	DB	101					; 00000065H
	DB	114					; 00000072H
	DB	111					; 0000006fH
	DB	0
??0?$tmat4x4@M@detail@glm@@QAE@XZ ENDP			; glm::detail::tmat4x4<float>::tmat4x4<float>
_TEXT	ENDS
PUBLIC	??_C@_1CG@KOFHLCJL@?$AAi?$AA?5?$AA?$DM?$AA?5?$AAt?$AAh?$AAi?$AAs?$AA?9?$AA?$DO?$AAl?$AAe?$AAn?$AAg?$AAt?$AAh?$AA?$CI?$AA?$CJ?$AA?$AA@ ; `string'
PUBLIC	??_C@_1FO@LCBJDNCK@?$AAc?$AA?3?$AA?2?$AAo?$AAp?$AAe?$AAn?$AAg?$AAl?$AA?2?$AAg?$AAl?$AAm?$AA?9?$AA0?$AA?4?$AA9?$AA?4?$AA3?$AA?4?$AA1?$AA?2?$AAg?$AAl?$AAm?$AA?2?$AAc?$AAo?$AAr?$AAe?$AA?2?$AAt@ ; `string'
PUBLIC	?length@?$tmat4x4@M@detail@glm@@QBEIXZ		; glm::detail::tmat4x4<float>::length
EXTRN	__imp___wassert:PROC
;	COMDAT ??_C@_1CG@KOFHLCJL@?$AAi?$AA?5?$AA?$DM?$AA?5?$AAt?$AAh?$AAi?$AAs?$AA?9?$AA?$DO?$AAl?$AAe?$AAn?$AAg?$AAt?$AAh?$AA?$CI?$AA?$CJ?$AA?$AA@
CONST	SEGMENT
??_C@_1CG@KOFHLCJL@?$AAi?$AA?5?$AA?$DM?$AA?5?$AAt?$AAh?$AAi?$AAs?$AA?9?$AA?$DO?$AAl?$AAe?$AAn?$AAg?$AAt?$AAh?$AA?$CI?$AA?$CJ?$AA?$AA@ DB 'i'
	DB	00H, ' ', 00H, '<', 00H, ' ', 00H, 't', 00H, 'h', 00H, 'i', 00H
	DB	's', 00H, '-', 00H, '>', 00H, 'l', 00H, 'e', 00H, 'n', 00H, 'g'
	DB	00H, 't', 00H, 'h', 00H, '(', 00H, ')', 00H, 00H, 00H ; `string'
CONST	ENDS
;	COMDAT ??_C@_1FO@LCBJDNCK@?$AAc?$AA?3?$AA?2?$AAo?$AAp?$AAe?$AAn?$AAg?$AAl?$AA?2?$AAg?$AAl?$AAm?$AA?9?$AA0?$AA?4?$AA9?$AA?4?$AA3?$AA?4?$AA1?$AA?2?$AAg?$AAl?$AAm?$AA?2?$AAc?$AAo?$AAr?$AAe?$AA?2?$AAt@
CONST	SEGMENT
??_C@_1FO@LCBJDNCK@?$AAc?$AA?3?$AA?2?$AAo?$AAp?$AAe?$AAn?$AAg?$AAl?$AA?2?$AAg?$AAl?$AAm?$AA?9?$AA0?$AA?4?$AA9?$AA?4?$AA3?$AA?4?$AA1?$AA?2?$AAg?$AAl?$AAm?$AA?2?$AAc?$AAo?$AAr?$AAe?$AA?2?$AAt@ DB 'c'
	DB	00H, ':', 00H, '\', 00H, 'o', 00H, 'p', 00H, 'e', 00H, 'n', 00H
	DB	'g', 00H, 'l', 00H, '\', 00H, 'g', 00H, 'l', 00H, 'm', 00H, '-'
	DB	00H, '0', 00H, '.', 00H, '9', 00H, '.', 00H, '3', 00H, '.', 00H
	DB	'1', 00H, '\', 00H, 'g', 00H, 'l', 00H, 'm', 00H, '\', 00H, 'c'
	DB	00H, 'o', 00H, 'r', 00H, 'e', 00H, '\', 00H, 't', 00H, 'y', 00H
	DB	'p', 00H, 'e', 00H, '_', 00H, 'm', 00H, 'a', 00H, 't', 00H, '4'
	DB	00H, 'x', 00H, '4', 00H, '.', 00H, 'i', 00H, 'n', 00H, 'l', 00H
	DB	00H, 00H					; `string'
; Function compile flags: /Odtp /RTCsu /ZI
CONST	ENDS
;	COMDAT ??A?$tmat4x4@M@detail@glm@@QAEAAU?$tvec4@M@12@I@Z
_TEXT	SEGMENT
_this$ = -8						; size = 4
_i$ = 8							; size = 4
??A?$tmat4x4@M@detail@glm@@QAEAAU?$tvec4@M@12@I@Z PROC	; glm::detail::tmat4x4<float>::operator[], COMDAT
; _this$ = ecx

; 59   : 	{

	push	ebp
	mov	ebp, esp
	sub	esp, 204				; 000000ccH
	push	ebx
	push	esi
	push	edi
	push	ecx
	lea	edi, DWORD PTR [ebp-204]
	mov	ecx, 51					; 00000033H
	mov	eax, -858993460				; ccccccccH
	rep stosd
	pop	ecx
	mov	DWORD PTR _this$[ebp], ecx

; 60   : 		assert(i < this->length());

	mov	ecx, DWORD PTR _this$[ebp]
	call	?length@?$tmat4x4@M@detail@glm@@QBEIXZ	; glm::detail::tmat4x4<float>::length
	cmp	DWORD PTR _i$[ebp], eax
	jb	SHORT $LN3@operator
	mov	esi, esp
	push	60					; 0000003cH
	push	OFFSET ??_C@_1FO@LCBJDNCK@?$AAc?$AA?3?$AA?2?$AAo?$AAp?$AAe?$AAn?$AAg?$AAl?$AA?2?$AAg?$AAl?$AAm?$AA?9?$AA0?$AA?4?$AA9?$AA?4?$AA3?$AA?4?$AA1?$AA?2?$AAg?$AAl?$AAm?$AA?2?$AAc?$AAo?$AAr?$AAe?$AA?2?$AAt@
	push	OFFSET ??_C@_1CG@KOFHLCJL@?$AAi?$AA?5?$AA?$DM?$AA?5?$AAt?$AAh?$AAi?$AAs?$AA?9?$AA?$DO?$AAl?$AAe?$AAn?$AAg?$AAt?$AAh?$AA?$CI?$AA?$CJ?$AA?$AA@
	call	DWORD PTR __imp___wassert
	add	esp, 12					; 0000000cH
	cmp	esi, esp
	call	__RTC_CheckEsp
$LN3@operator:

; 61   : 		return this->value[i];

	mov	eax, DWORD PTR _i$[ebp]
	shl	eax, 4
	add	eax, DWORD PTR _this$[ebp]

; 62   : 	}

	pop	edi
	pop	esi
	pop	ebx
	add	esp, 204				; 000000ccH
	cmp	ebp, esp
	call	__RTC_CheckEsp
	mov	esp, ebp
	pop	ebp
	ret	4
??A?$tmat4x4@M@detail@glm@@QAEAAU?$tvec4@M@12@I@Z ENDP	; glm::detail::tmat4x4<float>::operator[]
_TEXT	ENDS
PUBLIC	??A?$tmat4x4@M@detail@glm@@QBEABU?$tvec4@M@12@I@Z ; glm::detail::tmat4x4<float>::operator[]
; Function compile flags: /Odtp /RTCsu /ZI
;	COMDAT ??4?$tmat4x4@M@detail@glm@@QAEAAU012@ABU012@@Z
_TEXT	SEGMENT
_this$ = -8						; size = 4
_m$ = 8							; size = 4
??4?$tmat4x4@M@detail@glm@@QAEAAU012@ABU012@@Z PROC	; glm::detail::tmat4x4<float>::operator=, COMDAT
; _this$ = ecx

; 349  :     {

	push	ebp
	mov	ebp, esp
	sub	esp, 204				; 000000ccH
	push	ebx
	push	esi
	push	edi
	push	ecx
	lea	edi, DWORD PTR [ebp-204]
	mov	ecx, 51					; 00000033H
	mov	eax, -858993460				; ccccccccH
	rep stosd
	pop	ecx
	mov	DWORD PTR _this$[ebp], ecx

; 350  :         //memcpy could be faster
; 351  :         //memcpy(&this->value, &m.value, 16 * sizeof(valType));
; 352  :         this->value[0] = m[0];

	push	0
	mov	ecx, DWORD PTR _m$[ebp]
	call	??A?$tmat4x4@M@detail@glm@@QBEABU?$tvec4@M@12@I@Z ; glm::detail::tmat4x4<float>::operator[]
	push	eax
	mov	ecx, DWORD PTR _this$[ebp]
	call	??4?$tvec4@M@detail@glm@@QAEAAU012@ABU012@@Z ; glm::detail::tvec4<float>::operator=

; 353  :         this->value[1] = m[1];

	push	1
	mov	ecx, DWORD PTR _m$[ebp]
	call	??A?$tmat4x4@M@detail@glm@@QBEABU?$tvec4@M@12@I@Z ; glm::detail::tmat4x4<float>::operator[]
	push	eax
	mov	ecx, DWORD PTR _this$[ebp]
	add	ecx, 16					; 00000010H
	call	??4?$tvec4@M@detail@glm@@QAEAAU012@ABU012@@Z ; glm::detail::tvec4<float>::operator=

; 354  :         this->value[2] = m[2];

	push	2
	mov	ecx, DWORD PTR _m$[ebp]
	call	??A?$tmat4x4@M@detail@glm@@QBEABU?$tvec4@M@12@I@Z ; glm::detail::tmat4x4<float>::operator[]
	push	eax
	mov	ecx, DWORD PTR _this$[ebp]
	add	ecx, 32					; 00000020H
	call	??4?$tvec4@M@detail@glm@@QAEAAU012@ABU012@@Z ; glm::detail::tvec4<float>::operator=

; 355  :         this->value[3] = m[3];

	push	3
	mov	ecx, DWORD PTR _m$[ebp]
	call	??A?$tmat4x4@M@detail@glm@@QBEABU?$tvec4@M@12@I@Z ; glm::detail::tmat4x4<float>::operator[]
	push	eax
	mov	ecx, DWORD PTR _this$[ebp]
	add	ecx, 48					; 00000030H
	call	??4?$tvec4@M@detail@glm@@QAEAAU012@ABU012@@Z ; glm::detail::tvec4<float>::operator=

; 356  :         return *this;

	mov	eax, DWORD PTR _this$[ebp]

; 357  :     }

	pop	edi
	pop	esi
	pop	ebx
	add	esp, 204				; 000000ccH
	cmp	ebp, esp
	call	__RTC_CheckEsp
	mov	esp, ebp
	pop	ebp
	ret	4
??4?$tmat4x4@M@detail@glm@@QAEAAU012@ABU012@@Z ENDP	; glm::detail::tmat4x4<float>::operator=
; Function compile flags: /Odtp /RTCsu /ZI
; File c:\opengl\glm-0.9.3.1\glm\core\type_mat3x3.inl
_TEXT	ENDS
;	COMDAT ??0?$tmat3x3@M@detail@glm@@QAE@ABU?$tvec3@M@12@00@Z
_TEXT	SEGMENT
_this$ = -8						; size = 4
_v0$ = 8						; size = 4
_v1$ = 12						; size = 4
_v2$ = 16						; size = 4
??0?$tmat3x3@M@detail@glm@@QAE@ABU?$tvec3@M@12@00@Z PROC ; glm::detail::tmat3x3<float>::tmat3x3<float>, COMDAT
; _this$ = ecx

; 138  :     {

	push	ebp
	mov	ebp, esp
	sub	esp, 204				; 000000ccH
	push	ebx
	push	esi
	push	edi
	push	ecx
	lea	edi, DWORD PTR [ebp-204]
	mov	ecx, 51					; 00000033H
	mov	eax, -858993460				; ccccccccH
	rep stosd
	pop	ecx
	mov	DWORD PTR _this$[ebp], ecx
	push	OFFSET ??0?$tvec3@M@detail@glm@@QAE@XZ	; glm::detail::tvec3<float>::tvec3<float>
	push	3
	push	12					; 0000000cH
	mov	eax, DWORD PTR _this$[ebp]
	push	eax
	call	??_H@YGXPAXIHP6EPAX0@Z@Z

; 139  :         this->value[0] = v0;

	mov	eax, DWORD PTR _v0$[ebp]
	push	eax
	mov	ecx, DWORD PTR _this$[ebp]
	call	??4?$tvec3@M@detail@glm@@QAEAAU012@ABU012@@Z ; glm::detail::tvec3<float>::operator=

; 140  :         this->value[1] = v1;

	mov	eax, DWORD PTR _v1$[ebp]
	push	eax
	mov	ecx, DWORD PTR _this$[ebp]
	add	ecx, 12					; 0000000cH
	call	??4?$tvec3@M@detail@glm@@QAEAAU012@ABU012@@Z ; glm::detail::tvec3<float>::operator=

; 141  :         this->value[2] = v2;

	mov	eax, DWORD PTR _v2$[ebp]
	push	eax
	mov	ecx, DWORD PTR _this$[ebp]
	add	ecx, 24					; 00000018H
	call	??4?$tvec3@M@detail@glm@@QAEAAU012@ABU012@@Z ; glm::detail::tvec3<float>::operator=

; 142  :     }

	mov	eax, DWORD PTR _this$[ebp]
	pop	edi
	pop	esi
	pop	ebx
	add	esp, 204				; 000000ccH
	cmp	ebp, esp
	call	__RTC_CheckEsp
	mov	esp, ebp
	pop	ebp
	ret	12					; 0000000cH
??0?$tmat3x3@M@detail@glm@@QAE@ABU?$tvec3@M@12@00@Z ENDP ; glm::detail::tmat3x3<float>::tmat3x3<float>
; Function compile flags: /Odtp /RTCsu /ZI
; File c:\opengl\glm-0.9.3.1\glm\core\type_mat4x4.inl
_TEXT	ENDS
;	COMDAT ??$?0N@?$tmat4x4@M@detail@glm@@QAE@ABN@Z
_TEXT	SEGMENT
$T70751 = -356						; size = 16
$T70752 = -332						; size = 4
$T70753 = -320						; size = 16
$T70754 = -296						; size = 4
$T70755 = -284						; size = 16
$T70756 = -260						; size = 4
$T70757 = -248						; size = 16
$T70758 = -224						; size = 4
_Zero$ = -20						; size = 4
_this$ = -8						; size = 4
_s$ = 8							; size = 4
??$?0N@?$tmat4x4@M@detail@glm@@QAE@ABN@Z PROC		; glm::detail::tmat4x4<float>::tmat4x4<float><double>, COMDAT
; _this$ = ecx

; 172  : 	{

	push	ebp
	mov	ebp, esp
	sub	esp, 360				; 00000168H
	push	ebx
	push	esi
	push	edi
	push	ecx
	lea	edi, DWORD PTR [ebp-360]
	mov	ecx, 90					; 0000005aH
	mov	eax, -858993460				; ccccccccH
	rep stosd
	pop	ecx
	mov	DWORD PTR _this$[ebp], ecx
	push	OFFSET ??0?$tvec4@M@detail@glm@@QAE@XZ	; glm::detail::tvec4<float>::tvec4<float>
	push	4
	push	16					; 00000010H
	mov	eax, DWORD PTR _this$[ebp]
	push	eax
	call	??_H@YGXPAXIHP6EPAX0@Z@Z

; 173  : 		GLM_STATIC_ASSERT(detail::type<U>::is_float || std::numeric_limits<U>::is_integer, "*mat4x4 constructor only takes float and integer types");
; 174  : 
; 175  : 		value_type const Zero(0);

	fldz
	fstp	DWORD PTR _Zero$[ebp]

; 176  :         this->value[0] = tvec4<T>(value_type(s), Zero, Zero, Zero);

	mov	eax, DWORD PTR _s$[ebp]
	fld	QWORD PTR [eax]
	fstp	DWORD PTR $T70752[ebp]
	lea	ecx, DWORD PTR _Zero$[ebp]
	push	ecx
	lea	edx, DWORD PTR _Zero$[ebp]
	push	edx
	lea	eax, DWORD PTR _Zero$[ebp]
	push	eax
	lea	ecx, DWORD PTR $T70752[ebp]
	push	ecx
	lea	ecx, DWORD PTR $T70751[ebp]
	call	??0?$tvec4@M@detail@glm@@QAE@ABM000@Z	; glm::detail::tvec4<float>::tvec4<float>
	push	eax
	mov	ecx, DWORD PTR _this$[ebp]
	call	??4?$tvec4@M@detail@glm@@QAEAAU012@ABU012@@Z ; glm::detail::tvec4<float>::operator=

; 177  :         this->value[1] = tvec4<T>(Zero, value_type(s), Zero, Zero);

	mov	eax, DWORD PTR _s$[ebp]
	fld	QWORD PTR [eax]
	fstp	DWORD PTR $T70754[ebp]
	lea	ecx, DWORD PTR _Zero$[ebp]
	push	ecx
	lea	edx, DWORD PTR _Zero$[ebp]
	push	edx
	lea	eax, DWORD PTR $T70754[ebp]
	push	eax
	lea	ecx, DWORD PTR _Zero$[ebp]
	push	ecx
	lea	ecx, DWORD PTR $T70753[ebp]
	call	??0?$tvec4@M@detail@glm@@QAE@ABM000@Z	; glm::detail::tvec4<float>::tvec4<float>
	push	eax
	mov	ecx, DWORD PTR _this$[ebp]
	add	ecx, 16					; 00000010H
	call	??4?$tvec4@M@detail@glm@@QAEAAU012@ABU012@@Z ; glm::detail::tvec4<float>::operator=

; 178  :         this->value[2] = tvec4<T>(Zero, Zero, value_type(s), Zero);

	mov	eax, DWORD PTR _s$[ebp]
	fld	QWORD PTR [eax]
	fstp	DWORD PTR $T70756[ebp]
	lea	ecx, DWORD PTR _Zero$[ebp]
	push	ecx
	lea	edx, DWORD PTR $T70756[ebp]
	push	edx
	lea	eax, DWORD PTR _Zero$[ebp]
	push	eax
	lea	ecx, DWORD PTR _Zero$[ebp]
	push	ecx
	lea	ecx, DWORD PTR $T70755[ebp]
	call	??0?$tvec4@M@detail@glm@@QAE@ABM000@Z	; glm::detail::tvec4<float>::tvec4<float>
	push	eax
	mov	ecx, DWORD PTR _this$[ebp]
	add	ecx, 32					; 00000020H
	call	??4?$tvec4@M@detail@glm@@QAEAAU012@ABU012@@Z ; glm::detail::tvec4<float>::operator=

; 179  :         this->value[3] = tvec4<T>(Zero, Zero, Zero, value_type(s));

	mov	eax, DWORD PTR _s$[ebp]
	fld	QWORD PTR [eax]
	fstp	DWORD PTR $T70758[ebp]
	lea	ecx, DWORD PTR $T70758[ebp]
	push	ecx
	lea	edx, DWORD PTR _Zero$[ebp]
	push	edx
	lea	eax, DWORD PTR _Zero$[ebp]
	push	eax
	lea	ecx, DWORD PTR _Zero$[ebp]
	push	ecx
	lea	ecx, DWORD PTR $T70757[ebp]
	call	??0?$tvec4@M@detail@glm@@QAE@ABM000@Z	; glm::detail::tvec4<float>::tvec4<float>
	push	eax
	mov	ecx, DWORD PTR _this$[ebp]
	add	ecx, 48					; 00000030H
	call	??4?$tvec4@M@detail@glm@@QAEAAU012@ABU012@@Z ; glm::detail::tvec4<float>::operator=

; 180  : 	}

	mov	eax, DWORD PTR _this$[ebp]
	push	edx
	mov	ecx, ebp
	push	eax
	lea	edx, DWORD PTR $LN5@tmat4x4@2
	call	@_RTC_CheckStackVars@8
	pop	eax
	pop	edx
	pop	edi
	pop	esi
	pop	ebx
	add	esp, 360				; 00000168H
	cmp	ebp, esp
	call	__RTC_CheckEsp
	mov	esp, ebp
	pop	ebp
	ret	4
	npad	3
$LN5@tmat4x4@2:
	DD	1
	DD	$LN4@tmat4x4@2
$LN4@tmat4x4@2:
	DD	-20					; ffffffecH
	DD	4
	DD	$LN3@tmat4x4@2
$LN3@tmat4x4@2:
	DB	90					; 0000005aH
	DB	101					; 00000065H
	DB	114					; 00000072H
	DB	111					; 0000006fH
	DB	0
??$?0N@?$tmat4x4@M@detail@glm@@QAE@ABN@Z ENDP		; glm::detail::tmat4x4<float>::tmat4x4<float><double>
_TEXT	ENDS
PUBLIC	??$?HM@detail@glm@@YA?AU?$tvec4@M@01@ABU201@0@Z	; glm::detail::operator+<float>
PUBLIC	??$?DM@detail@glm@@YA?AU?$tvec4@M@01@ABU201@ABM@Z ; glm::detail::operator*<float>
PUBLIC	??A?$tvec4@M@detail@glm@@QAEAAMI@Z		; glm::detail::tvec4<float>::operator[]
PUBLIC	??A?$tvec3@M@detail@glm@@QAEAAMI@Z		; glm::detail::tvec3<float>::operator[]
PUBLIC	??0?$tmat4x4@M@detail@glm@@QAE@W4ctor@012@@Z	; glm::detail::tmat4x4<float>::tmat4x4<float>
PUBLIC	??$?DM@detail@glm@@YA?AU?$tvec3@M@01@ABMABU201@@Z ; glm::detail::operator*<float>
PUBLIC	??$sin@M@glm@@YAMABM@Z				; glm::sin<float>
PUBLIC	??$cos@M@glm@@YAMABM@Z				; glm::cos<float>
PUBLIC	??$radians@M@glm@@YAMABM@Z			; glm::radians<float>
PUBLIC	__$ArrayPad$
; Function compile flags: /Odtp /RTCsu /ZI
; File c:\opengl\glm-0.9.3.1\glm\gtc\matrix_transform.inl
;	COMDAT ??$rotate@M@glm@@YA?AU?$tmat4x4@M@detail@0@ABU120@ABMABU?$tvec3@M@20@@Z
_TEXT	SEGMENT
tv650 = -804						; size = 8
tv645 = -804						; size = 8
tv640 = -804						; size = 8
tv632 = -804						; size = 8
tv627 = -804						; size = 8
tv622 = -804						; size = 8
tv653 = -796						; size = 8
tv648 = -796						; size = 8
tv643 = -796						; size = 8
tv638 = -796						; size = 8
tv635 = -796						; size = 8
tv630 = -796						; size = 8
tv625 = -796						; size = 8
tv620 = -796						; size = 8
tv617 = -796						; size = 8
$T70765 = -784						; size = 4
$T70766 = -772						; size = 16
$T70767 = -748						; size = 16
$T70768 = -724						; size = 16
$T70769 = -700						; size = 16
$T70770 = -676						; size = 16
$T70771 = -652						; size = 16
$T70772 = -628						; size = 16
$T70773 = -604						; size = 16
$T70774 = -580						; size = 16
$T70775 = -556						; size = 16
$T70776 = -532						; size = 16
$T70777 = -508						; size = 16
$T70778 = -484						; size = 16
$T70779 = -460						; size = 16
$T70780 = -436						; size = 16
_Result$ = -220						; size = 64
_Rotate$ = -148						; size = 64
_temp$ = -76						; size = 12
_axis$ = -56						; size = 12
_s$ = -36						; size = 4
_c$ = -24						; size = 4
_a$ = -12						; size = 4
__$ArrayPad$ = -4					; size = 4
___$ReturnUdt$ = 8					; size = 4
_m$ = 12						; size = 4
_angle$ = 16						; size = 4
_v$ = 20						; size = 4
??$rotate@M@glm@@YA?AU?$tmat4x4@M@detail@0@ABU120@ABMABU?$tvec3@M@20@@Z PROC ; glm::rotate<float>, COMDAT

; 50   : 	{

	push	ebp
	mov	ebp, esp
	sub	esp, 804				; 00000324H
	push	ebx
	push	esi
	push	edi
	lea	edi, DWORD PTR [ebp-804]
	mov	ecx, 201				; 000000c9H
	mov	eax, -858993460				; ccccccccH
	rep stosd
	mov	eax, DWORD PTR ___security_cookie
	xor	eax, ebp
	mov	DWORD PTR __$ArrayPad$[ebp], eax

; 51   : 		T a = radians(angle);

	mov	eax, DWORD PTR _angle$[ebp]
	push	eax
	call	??$radians@M@glm@@YAMABM@Z		; glm::radians<float>
	add	esp, 4
	fstp	DWORD PTR _a$[ebp]

; 52   : 		T c = cos(a);

	lea	eax, DWORD PTR _a$[ebp]
	push	eax
	call	??$cos@M@glm@@YAMABM@Z			; glm::cos<float>
	add	esp, 4
	fstp	DWORD PTR _c$[ebp]

; 53   : 		T s = sin(a);

	lea	eax, DWORD PTR _a$[ebp]
	push	eax
	call	??$sin@M@glm@@YAMABM@Z			; glm::sin<float>
	add	esp, 4
	fstp	DWORD PTR _s$[ebp]

; 54   : 
; 55   : 		detail::tvec3<T> axis = normalize(v);

	mov	eax, DWORD PTR _v$[ebp]
	push	eax
	lea	ecx, DWORD PTR _axis$[ebp]
	push	ecx
	call	??$normalize@M@glm@@YA?AU?$tvec3@M@detail@0@ABU120@@Z ; glm::normalize<float>
	add	esp, 8

; 56   : 
; 57   : 		detail::tvec3<T> temp = (T(1) - c) * axis;

	fld	DWORD PTR _c$[ebp]
	fld1
	fsubrp	ST(1), ST(0)
	fstp	DWORD PTR $T70765[ebp]
	lea	eax, DWORD PTR _axis$[ebp]
	push	eax
	lea	ecx, DWORD PTR $T70765[ebp]
	push	ecx
	lea	edx, DWORD PTR _temp$[ebp]
	push	edx
	call	??$?DM@detail@glm@@YA?AU?$tvec3@M@01@ABMABU201@@Z ; glm::detail::operator*<float>
	add	esp, 12					; 0000000cH

; 58   : 
; 59   : 		detail::tmat4x4<T> Rotate(detail::tmat4x4<T>::null);

	push	0
	lea	ecx, DWORD PTR _Rotate$[ebp]
	call	??0?$tmat4x4@M@detail@glm@@QAE@W4ctor@012@@Z ; glm::detail::tmat4x4<float>::tmat4x4<float>

; 60   : 		Rotate[0][0] = c + temp[0] * axis[0];

	push	0
	lea	ecx, DWORD PTR _temp$[ebp]
	call	??A?$tvec3@M@detail@glm@@QAEAAMI@Z	; glm::detail::tvec3<float>::operator[]
	mov	esi, eax
	push	0
	lea	ecx, DWORD PTR _axis$[ebp]
	call	??A?$tvec3@M@detail@glm@@QAEAAMI@Z	; glm::detail::tvec3<float>::operator[]
	fld	DWORD PTR [esi]
	fmul	DWORD PTR [eax]
	fadd	DWORD PTR _c$[ebp]
	push	0
	push	0
	lea	ecx, DWORD PTR _Rotate$[ebp]
	fstp	QWORD PTR tv617[ebp]
	call	??A?$tmat4x4@M@detail@glm@@QAEAAU?$tvec4@M@12@I@Z ; glm::detail::tmat4x4<float>::operator[]
	mov	ecx, eax
	call	??A?$tvec4@M@detail@glm@@QAEAAMI@Z	; glm::detail::tvec4<float>::operator[]
	fld	QWORD PTR tv617[ebp]
	fstp	DWORD PTR [eax]

; 61   : 		Rotate[0][1] = 0 + temp[0] * axis[1] + s * axis[2];

	push	0
	lea	ecx, DWORD PTR _temp$[ebp]
	call	??A?$tvec3@M@detail@glm@@QAEAAMI@Z	; glm::detail::tvec3<float>::operator[]
	mov	esi, eax
	push	1
	lea	ecx, DWORD PTR _axis$[ebp]
	call	??A?$tvec3@M@detail@glm@@QAEAAMI@Z	; glm::detail::tvec3<float>::operator[]
	fld	DWORD PTR [esi]
	fmul	DWORD PTR [eax]
	fldz
	faddp	ST(1), ST(0)
	push	2
	lea	ecx, DWORD PTR _axis$[ebp]
	fstp	QWORD PTR tv620[ebp]
	call	??A?$tvec3@M@detail@glm@@QAEAAMI@Z	; glm::detail::tvec3<float>::operator[]
	fld	DWORD PTR _s$[ebp]
	fmul	DWORD PTR [eax]
	fadd	QWORD PTR tv620[ebp]
	push	1
	push	0
	lea	ecx, DWORD PTR _Rotate$[ebp]
	fstp	QWORD PTR tv622[ebp]
	call	??A?$tmat4x4@M@detail@glm@@QAEAAU?$tvec4@M@12@I@Z ; glm::detail::tmat4x4<float>::operator[]
	mov	ecx, eax
	call	??A?$tvec4@M@detail@glm@@QAEAAMI@Z	; glm::detail::tvec4<float>::operator[]
	fld	QWORD PTR tv622[ebp]
	fstp	DWORD PTR [eax]

; 62   : 		Rotate[0][2] = 0 + temp[0] * axis[2] - s * axis[1];

	push	0
	lea	ecx, DWORD PTR _temp$[ebp]
	call	??A?$tvec3@M@detail@glm@@QAEAAMI@Z	; glm::detail::tvec3<float>::operator[]
	mov	esi, eax
	push	2
	lea	ecx, DWORD PTR _axis$[ebp]
	call	??A?$tvec3@M@detail@glm@@QAEAAMI@Z	; glm::detail::tvec3<float>::operator[]
	fld	DWORD PTR [esi]
	fmul	DWORD PTR [eax]
	fldz
	faddp	ST(1), ST(0)
	push	1
	lea	ecx, DWORD PTR _axis$[ebp]
	fstp	QWORD PTR tv625[ebp]
	call	??A?$tvec3@M@detail@glm@@QAEAAMI@Z	; glm::detail::tvec3<float>::operator[]
	fld	DWORD PTR _s$[ebp]
	fmul	DWORD PTR [eax]
	fsubr	QWORD PTR tv625[ebp]
	push	2
	push	0
	lea	ecx, DWORD PTR _Rotate$[ebp]
	fstp	QWORD PTR tv627[ebp]
	call	??A?$tmat4x4@M@detail@glm@@QAEAAU?$tvec4@M@12@I@Z ; glm::detail::tmat4x4<float>::operator[]
	mov	ecx, eax
	call	??A?$tvec4@M@detail@glm@@QAEAAMI@Z	; glm::detail::tvec4<float>::operator[]
	fld	QWORD PTR tv627[ebp]
	fstp	DWORD PTR [eax]

; 63   : 
; 64   : 		Rotate[1][0] = 0 + temp[1] * axis[0] - s * axis[2];

	push	1
	lea	ecx, DWORD PTR _temp$[ebp]
	call	??A?$tvec3@M@detail@glm@@QAEAAMI@Z	; glm::detail::tvec3<float>::operator[]
	mov	esi, eax
	push	0
	lea	ecx, DWORD PTR _axis$[ebp]
	call	??A?$tvec3@M@detail@glm@@QAEAAMI@Z	; glm::detail::tvec3<float>::operator[]
	fld	DWORD PTR [esi]
	fmul	DWORD PTR [eax]
	fldz
	faddp	ST(1), ST(0)
	push	2
	lea	ecx, DWORD PTR _axis$[ebp]
	fstp	QWORD PTR tv630[ebp]
	call	??A?$tvec3@M@detail@glm@@QAEAAMI@Z	; glm::detail::tvec3<float>::operator[]
	fld	DWORD PTR _s$[ebp]
	fmul	DWORD PTR [eax]
	fsubr	QWORD PTR tv630[ebp]
	push	0
	push	1
	lea	ecx, DWORD PTR _Rotate$[ebp]
	fstp	QWORD PTR tv632[ebp]
	call	??A?$tmat4x4@M@detail@glm@@QAEAAU?$tvec4@M@12@I@Z ; glm::detail::tmat4x4<float>::operator[]
	mov	ecx, eax
	call	??A?$tvec4@M@detail@glm@@QAEAAMI@Z	; glm::detail::tvec4<float>::operator[]
	fld	QWORD PTR tv632[ebp]
	fstp	DWORD PTR [eax]

; 65   : 		Rotate[1][1] = c + temp[1] * axis[1];

	push	1
	lea	ecx, DWORD PTR _temp$[ebp]
	call	??A?$tvec3@M@detail@glm@@QAEAAMI@Z	; glm::detail::tvec3<float>::operator[]
	mov	esi, eax
	push	1
	lea	ecx, DWORD PTR _axis$[ebp]
	call	??A?$tvec3@M@detail@glm@@QAEAAMI@Z	; glm::detail::tvec3<float>::operator[]
	fld	DWORD PTR [esi]
	fmul	DWORD PTR [eax]
	fadd	DWORD PTR _c$[ebp]
	push	1
	push	1
	lea	ecx, DWORD PTR _Rotate$[ebp]
	fstp	QWORD PTR tv635[ebp]
	call	??A?$tmat4x4@M@detail@glm@@QAEAAU?$tvec4@M@12@I@Z ; glm::detail::tmat4x4<float>::operator[]
	mov	ecx, eax
	call	??A?$tvec4@M@detail@glm@@QAEAAMI@Z	; glm::detail::tvec4<float>::operator[]
	fld	QWORD PTR tv635[ebp]
	fstp	DWORD PTR [eax]

; 66   : 		Rotate[1][2] = 0 + temp[1] * axis[2] + s * axis[0];

	push	1
	lea	ecx, DWORD PTR _temp$[ebp]
	call	??A?$tvec3@M@detail@glm@@QAEAAMI@Z	; glm::detail::tvec3<float>::operator[]
	mov	esi, eax
	push	2
	lea	ecx, DWORD PTR _axis$[ebp]
	call	??A?$tvec3@M@detail@glm@@QAEAAMI@Z	; glm::detail::tvec3<float>::operator[]
	fld	DWORD PTR [esi]
	fmul	DWORD PTR [eax]
	fldz
	faddp	ST(1), ST(0)
	push	0
	lea	ecx, DWORD PTR _axis$[ebp]
	fstp	QWORD PTR tv638[ebp]
	call	??A?$tvec3@M@detail@glm@@QAEAAMI@Z	; glm::detail::tvec3<float>::operator[]
	fld	DWORD PTR _s$[ebp]
	fmul	DWORD PTR [eax]
	fadd	QWORD PTR tv638[ebp]
	push	2
	push	1
	lea	ecx, DWORD PTR _Rotate$[ebp]
	fstp	QWORD PTR tv640[ebp]
	call	??A?$tmat4x4@M@detail@glm@@QAEAAU?$tvec4@M@12@I@Z ; glm::detail::tmat4x4<float>::operator[]
	mov	ecx, eax
	call	??A?$tvec4@M@detail@glm@@QAEAAMI@Z	; glm::detail::tvec4<float>::operator[]
	fld	QWORD PTR tv640[ebp]
	fstp	DWORD PTR [eax]

; 67   : 
; 68   : 		Rotate[2][0] = 0 + temp[2] * axis[0] + s * axis[1];

	push	2
	lea	ecx, DWORD PTR _temp$[ebp]
	call	??A?$tvec3@M@detail@glm@@QAEAAMI@Z	; glm::detail::tvec3<float>::operator[]
	mov	esi, eax
	push	0
	lea	ecx, DWORD PTR _axis$[ebp]
	call	??A?$tvec3@M@detail@glm@@QAEAAMI@Z	; glm::detail::tvec3<float>::operator[]
	fld	DWORD PTR [esi]
	fmul	DWORD PTR [eax]
	fldz
	faddp	ST(1), ST(0)
	push	1
	lea	ecx, DWORD PTR _axis$[ebp]
	fstp	QWORD PTR tv643[ebp]
	call	??A?$tvec3@M@detail@glm@@QAEAAMI@Z	; glm::detail::tvec3<float>::operator[]
	fld	DWORD PTR _s$[ebp]
	fmul	DWORD PTR [eax]
	fadd	QWORD PTR tv643[ebp]
	push	0
	push	2
	lea	ecx, DWORD PTR _Rotate$[ebp]
	fstp	QWORD PTR tv645[ebp]
	call	??A?$tmat4x4@M@detail@glm@@QAEAAU?$tvec4@M@12@I@Z ; glm::detail::tmat4x4<float>::operator[]
	mov	ecx, eax
	call	??A?$tvec4@M@detail@glm@@QAEAAMI@Z	; glm::detail::tvec4<float>::operator[]
	fld	QWORD PTR tv645[ebp]
	fstp	DWORD PTR [eax]

; 69   : 		Rotate[2][1] = 0 + temp[2] * axis[1] - s * axis[0];

	push	2
	lea	ecx, DWORD PTR _temp$[ebp]
	call	??A?$tvec3@M@detail@glm@@QAEAAMI@Z	; glm::detail::tvec3<float>::operator[]
	mov	esi, eax
	push	1
	lea	ecx, DWORD PTR _axis$[ebp]
	call	??A?$tvec3@M@detail@glm@@QAEAAMI@Z	; glm::detail::tvec3<float>::operator[]
	fld	DWORD PTR [esi]
	fmul	DWORD PTR [eax]
	fldz
	faddp	ST(1), ST(0)
	push	0
	lea	ecx, DWORD PTR _axis$[ebp]
	fstp	QWORD PTR tv648[ebp]
	call	??A?$tvec3@M@detail@glm@@QAEAAMI@Z	; glm::detail::tvec3<float>::operator[]
	fld	DWORD PTR _s$[ebp]
	fmul	DWORD PTR [eax]
	fsubr	QWORD PTR tv648[ebp]
	push	1
	push	2
	lea	ecx, DWORD PTR _Rotate$[ebp]
	fstp	QWORD PTR tv650[ebp]
	call	??A?$tmat4x4@M@detail@glm@@QAEAAU?$tvec4@M@12@I@Z ; glm::detail::tmat4x4<float>::operator[]
	mov	ecx, eax
	call	??A?$tvec4@M@detail@glm@@QAEAAMI@Z	; glm::detail::tvec4<float>::operator[]
	fld	QWORD PTR tv650[ebp]
	fstp	DWORD PTR [eax]

; 70   : 		Rotate[2][2] = c + temp[2] * axis[2];

	push	2
	lea	ecx, DWORD PTR _temp$[ebp]
	call	??A?$tvec3@M@detail@glm@@QAEAAMI@Z	; glm::detail::tvec3<float>::operator[]
	mov	esi, eax
	push	2
	lea	ecx, DWORD PTR _axis$[ebp]
	call	??A?$tvec3@M@detail@glm@@QAEAAMI@Z	; glm::detail::tvec3<float>::operator[]
	fld	DWORD PTR [esi]
	fmul	DWORD PTR [eax]
	fadd	DWORD PTR _c$[ebp]
	push	2
	push	2
	lea	ecx, DWORD PTR _Rotate$[ebp]
	fstp	QWORD PTR tv653[ebp]
	call	??A?$tmat4x4@M@detail@glm@@QAEAAU?$tvec4@M@12@I@Z ; glm::detail::tmat4x4<float>::operator[]
	mov	ecx, eax
	call	??A?$tvec4@M@detail@glm@@QAEAAMI@Z	; glm::detail::tvec4<float>::operator[]
	fld	QWORD PTR tv653[ebp]
	fstp	DWORD PTR [eax]

; 71   : 
; 72   : 		detail::tmat4x4<T> Result(detail::tmat4x4<T>::null);

	push	0
	lea	ecx, DWORD PTR _Result$[ebp]
	call	??0?$tmat4x4@M@detail@glm@@QAE@W4ctor@012@@Z ; glm::detail::tmat4x4<float>::tmat4x4<float>

; 73   : 		Result[0] = m[0] * Rotate[0][0] + m[1] * Rotate[0][1] + m[2] * Rotate[0][2];

	push	2
	push	0
	lea	ecx, DWORD PTR _Rotate$[ebp]
	call	??A?$tmat4x4@M@detail@glm@@QAEAAU?$tvec4@M@12@I@Z ; glm::detail::tmat4x4<float>::operator[]
	mov	ecx, eax
	call	??A?$tvec4@M@detail@glm@@QAEAAMI@Z	; glm::detail::tvec4<float>::operator[]
	push	eax
	push	2
	mov	ecx, DWORD PTR _m$[ebp]
	call	??A?$tmat4x4@M@detail@glm@@QBEABU?$tvec4@M@12@I@Z ; glm::detail::tmat4x4<float>::operator[]
	push	eax
	lea	eax, DWORD PTR $T70766[ebp]
	push	eax
	call	??$?DM@detail@glm@@YA?AU?$tvec4@M@01@ABU201@ABM@Z ; glm::detail::operator*<float>
	add	esp, 12					; 0000000cH
	push	eax
	push	1
	push	0
	lea	ecx, DWORD PTR _Rotate$[ebp]
	call	??A?$tmat4x4@M@detail@glm@@QAEAAU?$tvec4@M@12@I@Z ; glm::detail::tmat4x4<float>::operator[]
	mov	ecx, eax
	call	??A?$tvec4@M@detail@glm@@QAEAAMI@Z	; glm::detail::tvec4<float>::operator[]
	push	eax
	push	1
	mov	ecx, DWORD PTR _m$[ebp]
	call	??A?$tmat4x4@M@detail@glm@@QBEABU?$tvec4@M@12@I@Z ; glm::detail::tmat4x4<float>::operator[]
	push	eax
	lea	ecx, DWORD PTR $T70767[ebp]
	push	ecx
	call	??$?DM@detail@glm@@YA?AU?$tvec4@M@01@ABU201@ABM@Z ; glm::detail::operator*<float>
	add	esp, 12					; 0000000cH
	push	eax
	push	0
	push	0
	lea	ecx, DWORD PTR _Rotate$[ebp]
	call	??A?$tmat4x4@M@detail@glm@@QAEAAU?$tvec4@M@12@I@Z ; glm::detail::tmat4x4<float>::operator[]
	mov	ecx, eax
	call	??A?$tvec4@M@detail@glm@@QAEAAMI@Z	; glm::detail::tvec4<float>::operator[]
	push	eax
	push	0
	mov	ecx, DWORD PTR _m$[ebp]
	call	??A?$tmat4x4@M@detail@glm@@QBEABU?$tvec4@M@12@I@Z ; glm::detail::tmat4x4<float>::operator[]
	push	eax
	lea	edx, DWORD PTR $T70768[ebp]
	push	edx
	call	??$?DM@detail@glm@@YA?AU?$tvec4@M@01@ABU201@ABM@Z ; glm::detail::operator*<float>
	add	esp, 12					; 0000000cH
	push	eax
	lea	eax, DWORD PTR $T70769[ebp]
	push	eax
	call	??$?HM@detail@glm@@YA?AU?$tvec4@M@01@ABU201@0@Z ; glm::detail::operator+<float>
	add	esp, 12					; 0000000cH
	push	eax
	lea	ecx, DWORD PTR $T70770[ebp]
	push	ecx
	call	??$?HM@detail@glm@@YA?AU?$tvec4@M@01@ABU201@0@Z ; glm::detail::operator+<float>
	add	esp, 12					; 0000000cH
	push	eax
	push	0
	lea	ecx, DWORD PTR _Result$[ebp]
	call	??A?$tmat4x4@M@detail@glm@@QAEAAU?$tvec4@M@12@I@Z ; glm::detail::tmat4x4<float>::operator[]
	mov	ecx, eax
	call	??4?$tvec4@M@detail@glm@@QAEAAU012@ABU012@@Z ; glm::detail::tvec4<float>::operator=

; 74   : 		Result[1] = m[0] * Rotate[1][0] + m[1] * Rotate[1][1] + m[2] * Rotate[1][2];

	push	2
	push	1
	lea	ecx, DWORD PTR _Rotate$[ebp]
	call	??A?$tmat4x4@M@detail@glm@@QAEAAU?$tvec4@M@12@I@Z ; glm::detail::tmat4x4<float>::operator[]
	mov	ecx, eax
	call	??A?$tvec4@M@detail@glm@@QAEAAMI@Z	; glm::detail::tvec4<float>::operator[]
	push	eax
	push	2
	mov	ecx, DWORD PTR _m$[ebp]
	call	??A?$tmat4x4@M@detail@glm@@QBEABU?$tvec4@M@12@I@Z ; glm::detail::tmat4x4<float>::operator[]
	push	eax
	lea	eax, DWORD PTR $T70771[ebp]
	push	eax
	call	??$?DM@detail@glm@@YA?AU?$tvec4@M@01@ABU201@ABM@Z ; glm::detail::operator*<float>
	add	esp, 12					; 0000000cH
	push	eax
	push	1
	push	1
	lea	ecx, DWORD PTR _Rotate$[ebp]
	call	??A?$tmat4x4@M@detail@glm@@QAEAAU?$tvec4@M@12@I@Z ; glm::detail::tmat4x4<float>::operator[]
	mov	ecx, eax
	call	??A?$tvec4@M@detail@glm@@QAEAAMI@Z	; glm::detail::tvec4<float>::operator[]
	push	eax
	push	1
	mov	ecx, DWORD PTR _m$[ebp]
	call	??A?$tmat4x4@M@detail@glm@@QBEABU?$tvec4@M@12@I@Z ; glm::detail::tmat4x4<float>::operator[]
	push	eax
	lea	ecx, DWORD PTR $T70772[ebp]
	push	ecx
	call	??$?DM@detail@glm@@YA?AU?$tvec4@M@01@ABU201@ABM@Z ; glm::detail::operator*<float>
	add	esp, 12					; 0000000cH
	push	eax
	push	0
	push	1
	lea	ecx, DWORD PTR _Rotate$[ebp]
	call	??A?$tmat4x4@M@detail@glm@@QAEAAU?$tvec4@M@12@I@Z ; glm::detail::tmat4x4<float>::operator[]
	mov	ecx, eax
	call	??A?$tvec4@M@detail@glm@@QAEAAMI@Z	; glm::detail::tvec4<float>::operator[]
	push	eax
	push	0
	mov	ecx, DWORD PTR _m$[ebp]
	call	??A?$tmat4x4@M@detail@glm@@QBEABU?$tvec4@M@12@I@Z ; glm::detail::tmat4x4<float>::operator[]
	push	eax
	lea	edx, DWORD PTR $T70773[ebp]
	push	edx
	call	??$?DM@detail@glm@@YA?AU?$tvec4@M@01@ABU201@ABM@Z ; glm::detail::operator*<float>
	add	esp, 12					; 0000000cH
	push	eax
	lea	eax, DWORD PTR $T70774[ebp]
	push	eax
	call	??$?HM@detail@glm@@YA?AU?$tvec4@M@01@ABU201@0@Z ; glm::detail::operator+<float>
	add	esp, 12					; 0000000cH
	push	eax
	lea	ecx, DWORD PTR $T70775[ebp]
	push	ecx
	call	??$?HM@detail@glm@@YA?AU?$tvec4@M@01@ABU201@0@Z ; glm::detail::operator+<float>
	add	esp, 12					; 0000000cH
	push	eax
	push	1
	lea	ecx, DWORD PTR _Result$[ebp]
	call	??A?$tmat4x4@M@detail@glm@@QAEAAU?$tvec4@M@12@I@Z ; glm::detail::tmat4x4<float>::operator[]
	mov	ecx, eax
	call	??4?$tvec4@M@detail@glm@@QAEAAU012@ABU012@@Z ; glm::detail::tvec4<float>::operator=

; 75   : 		Result[2] = m[0] * Rotate[2][0] + m[1] * Rotate[2][1] + m[2] * Rotate[2][2];

	push	2
	push	2
	lea	ecx, DWORD PTR _Rotate$[ebp]
	call	??A?$tmat4x4@M@detail@glm@@QAEAAU?$tvec4@M@12@I@Z ; glm::detail::tmat4x4<float>::operator[]
	mov	ecx, eax
	call	??A?$tvec4@M@detail@glm@@QAEAAMI@Z	; glm::detail::tvec4<float>::operator[]
	push	eax
	push	2
	mov	ecx, DWORD PTR _m$[ebp]
	call	??A?$tmat4x4@M@detail@glm@@QBEABU?$tvec4@M@12@I@Z ; glm::detail::tmat4x4<float>::operator[]
	push	eax
	lea	eax, DWORD PTR $T70776[ebp]
	push	eax
	call	??$?DM@detail@glm@@YA?AU?$tvec4@M@01@ABU201@ABM@Z ; glm::detail::operator*<float>
	add	esp, 12					; 0000000cH
	push	eax
	push	1
	push	2
	lea	ecx, DWORD PTR _Rotate$[ebp]
	call	??A?$tmat4x4@M@detail@glm@@QAEAAU?$tvec4@M@12@I@Z ; glm::detail::tmat4x4<float>::operator[]
	mov	ecx, eax
	call	??A?$tvec4@M@detail@glm@@QAEAAMI@Z	; glm::detail::tvec4<float>::operator[]
	push	eax
	push	1
	mov	ecx, DWORD PTR _m$[ebp]
	call	??A?$tmat4x4@M@detail@glm@@QBEABU?$tvec4@M@12@I@Z ; glm::detail::tmat4x4<float>::operator[]
	push	eax
	lea	ecx, DWORD PTR $T70777[ebp]
	push	ecx
	call	??$?DM@detail@glm@@YA?AU?$tvec4@M@01@ABU201@ABM@Z ; glm::detail::operator*<float>
	add	esp, 12					; 0000000cH
	push	eax
	push	0
	push	2
	lea	ecx, DWORD PTR _Rotate$[ebp]
	call	??A?$tmat4x4@M@detail@glm@@QAEAAU?$tvec4@M@12@I@Z ; glm::detail::tmat4x4<float>::operator[]
	mov	ecx, eax
	call	??A?$tvec4@M@detail@glm@@QAEAAMI@Z	; glm::detail::tvec4<float>::operator[]
	push	eax
	push	0
	mov	ecx, DWORD PTR _m$[ebp]
	call	??A?$tmat4x4@M@detail@glm@@QBEABU?$tvec4@M@12@I@Z ; glm::detail::tmat4x4<float>::operator[]
	push	eax
	lea	edx, DWORD PTR $T70778[ebp]
	push	edx
	call	??$?DM@detail@glm@@YA?AU?$tvec4@M@01@ABU201@ABM@Z ; glm::detail::operator*<float>
	add	esp, 12					; 0000000cH
	push	eax
	lea	eax, DWORD PTR $T70779[ebp]
	push	eax
	call	??$?HM@detail@glm@@YA?AU?$tvec4@M@01@ABU201@0@Z ; glm::detail::operator+<float>
	add	esp, 12					; 0000000cH
	push	eax
	lea	ecx, DWORD PTR $T70780[ebp]
	push	ecx
	call	??$?HM@detail@glm@@YA?AU?$tvec4@M@01@ABU201@0@Z ; glm::detail::operator+<float>
	add	esp, 12					; 0000000cH
	push	eax
	push	2
	lea	ecx, DWORD PTR _Result$[ebp]
	call	??A?$tmat4x4@M@detail@glm@@QAEAAU?$tvec4@M@12@I@Z ; glm::detail::tmat4x4<float>::operator[]
	mov	ecx, eax
	call	??4?$tvec4@M@detail@glm@@QAEAAU012@ABU012@@Z ; glm::detail::tvec4<float>::operator=

; 76   : 		Result[3] = m[3];

	push	3
	mov	ecx, DWORD PTR _m$[ebp]
	call	??A?$tmat4x4@M@detail@glm@@QBEABU?$tvec4@M@12@I@Z ; glm::detail::tmat4x4<float>::operator[]
	push	eax
	push	3
	lea	ecx, DWORD PTR _Result$[ebp]
	call	??A?$tmat4x4@M@detail@glm@@QAEAAU?$tvec4@M@12@I@Z ; glm::detail::tmat4x4<float>::operator[]
	mov	ecx, eax
	call	??4?$tvec4@M@detail@glm@@QAEAAU012@ABU012@@Z ; glm::detail::tvec4<float>::operator=

; 77   : 		return Result;

	lea	eax, DWORD PTR _Result$[ebp]
	push	eax
	mov	ecx, DWORD PTR ___$ReturnUdt$[ebp]
	call	??0?$tmat4x4@M@detail@glm@@QAE@ABU012@@Z ; glm::detail::tmat4x4<float>::tmat4x4<float>
	mov	eax, DWORD PTR ___$ReturnUdt$[ebp]

; 78   : 	}

	push	edx
	mov	ecx, ebp
	push	eax
	lea	edx, DWORD PTR $LN9@rotate
	call	@_RTC_CheckStackVars@8
	pop	eax
	pop	edx
	pop	edi
	pop	esi
	pop	ebx
	mov	ecx, DWORD PTR __$ArrayPad$[ebp]
	xor	ecx, ebp
	call	@__security_check_cookie@4
	add	esp, 804				; 00000324H
	cmp	ebp, esp
	call	__RTC_CheckEsp
	mov	esp, ebp
	pop	ebp
	ret	0
	npad	2
$LN9@rotate:
	DD	5
	DD	$LN8@rotate
$LN8@rotate:
	DD	-12					; fffffff4H
	DD	4
	DD	$LN3@rotate
	DD	-56					; ffffffc8H
	DD	12					; 0000000cH
	DD	$LN4@rotate
	DD	-76					; ffffffb4H
	DD	12					; 0000000cH
	DD	$LN5@rotate
	DD	-148					; ffffff6cH
	DD	64					; 00000040H
	DD	$LN6@rotate
	DD	-220					; ffffff24H
	DD	64					; 00000040H
	DD	$LN7@rotate
$LN7@rotate:
	DB	82					; 00000052H
	DB	101					; 00000065H
	DB	115					; 00000073H
	DB	117					; 00000075H
	DB	108					; 0000006cH
	DB	116					; 00000074H
	DB	0
$LN6@rotate:
	DB	82					; 00000052H
	DB	111					; 0000006fH
	DB	116					; 00000074H
	DB	97					; 00000061H
	DB	116					; 00000074H
	DB	101					; 00000065H
	DB	0
$LN5@rotate:
	DB	116					; 00000074H
	DB	101					; 00000065H
	DB	109					; 0000006dH
	DB	112					; 00000070H
	DB	0
$LN4@rotate:
	DB	97					; 00000061H
	DB	120					; 00000078H
	DB	105					; 00000069H
	DB	115					; 00000073H
	DB	0
$LN3@rotate:
	DB	97					; 00000061H
	DB	0
??$rotate@M@glm@@YA?AU?$tmat4x4@M@detail@0@ABU120@ABMABU?$tvec3@M@20@@Z ENDP ; glm::rotate<float>
; Function compile flags: /Odtp /RTCsu /ZI
; File c:\opengl\glm-0.9.3.1\glm\core\type_vec4.inl
_TEXT	ENDS
;	COMDAT ??$?DM@detail@glm@@YA?AU?$tvec4@M@01@ABU201@ABM@Z
_TEXT	SEGMENT
$T70790 = -236						; size = 4
$T70791 = -224						; size = 4
$T70792 = -212						; size = 4
$T70793 = -200						; size = 4
___$ReturnUdt$ = 8					; size = 4
_v$ = 12						; size = 4
_s$ = 16						; size = 4
??$?DM@detail@glm@@YA?AU?$tvec4@M@01@ABU201@ABM@Z PROC	; glm::detail::operator*<float>, COMDAT

; 892  : 	{

	push	ebp
	mov	ebp, esp
	sub	esp, 240				; 000000f0H
	push	ebx
	push	esi
	push	edi
	lea	edi, DWORD PTR [ebp-240]
	mov	ecx, 60					; 0000003cH
	mov	eax, -858993460				; ccccccccH
	rep stosd

; 893  : 		return tvec4<T>(
; 894  : 			v.x * s,
; 895  : 			v.y * s,
; 896  : 			v.z * s,
; 897  : 			v.w * s);

	mov	eax, DWORD PTR _v$[ebp]
	fld	DWORD PTR [eax+12]
	mov	ecx, DWORD PTR _s$[ebp]
	fmul	DWORD PTR [ecx]
	fstp	DWORD PTR $T70790[ebp]
	mov	edx, DWORD PTR _v$[ebp]
	fld	DWORD PTR [edx+8]
	mov	eax, DWORD PTR _s$[ebp]
	fmul	DWORD PTR [eax]
	fstp	DWORD PTR $T70791[ebp]
	mov	ecx, DWORD PTR _v$[ebp]
	fld	DWORD PTR [ecx+4]
	mov	edx, DWORD PTR _s$[ebp]
	fmul	DWORD PTR [edx]
	fstp	DWORD PTR $T70792[ebp]
	mov	eax, DWORD PTR _v$[ebp]
	fld	DWORD PTR [eax]
	mov	ecx, DWORD PTR _s$[ebp]
	fmul	DWORD PTR [ecx]
	fstp	DWORD PTR $T70793[ebp]
	lea	edx, DWORD PTR $T70790[ebp]
	push	edx
	lea	eax, DWORD PTR $T70791[ebp]
	push	eax
	lea	ecx, DWORD PTR $T70792[ebp]
	push	ecx
	lea	edx, DWORD PTR $T70793[ebp]
	push	edx
	mov	ecx, DWORD PTR ___$ReturnUdt$[ebp]
	call	??0?$tvec4@M@detail@glm@@QAE@ABM000@Z	; glm::detail::tvec4<float>::tvec4<float>
	mov	eax, DWORD PTR ___$ReturnUdt$[ebp]

; 898  : 	}

	pop	edi
	pop	esi
	pop	ebx
	add	esp, 240				; 000000f0H
	cmp	ebp, esp
	call	__RTC_CheckEsp
	mov	esp, ebp
	pop	ebp
	ret	0
??$?DM@detail@glm@@YA?AU?$tvec4@M@01@ABU201@ABM@Z ENDP	; glm::detail::operator*<float>
_TEXT	ENDS
PUBLIC	??$inversesqrt@M@glm@@YAMABM@Z			; glm::inversesqrt<float>
; Function compile flags: /Odtp /RTCsu /ZI
; File c:\opengl\glm-0.9.3.1\glm\core\func_geometric.inl
;	COMDAT ??$normalize@M@glm@@YA?AU?$tvec3@M@detail@0@ABU120@@Z
_TEXT	SEGMENT
$T70796 = -212						; size = 4
_sqr$ = -8						; size = 4
___$ReturnUdt$ = 8					; size = 4
_x$ = 12						; size = 4
??$normalize@M@glm@@YA?AU?$tvec3@M@detail@0@ABU120@@Z PROC ; glm::normalize<float>, COMDAT

; 243  :     {

	push	ebp
	mov	ebp, esp
	sub	esp, 216				; 000000d8H
	push	ebx
	push	esi
	push	edi
	lea	edi, DWORD PTR [ebp-216]
	mov	ecx, 54					; 00000036H
	mov	eax, -858993460				; ccccccccH
	rep stosd

; 244  :         GLM_STATIC_ASSERT(detail::type<T>::is_float, "'normalize' only accept floating-point inputs");
; 245  : 
; 246  : 		typename detail::tvec3<T>::value_type sqr = x.x * x.x + x.y * x.y + x.z * x.z;

	mov	eax, DWORD PTR _x$[ebp]
	fld	DWORD PTR [eax]
	mov	ecx, DWORD PTR _x$[ebp]
	fmul	DWORD PTR [ecx]
	mov	edx, DWORD PTR _x$[ebp]
	fld	DWORD PTR [edx+4]
	mov	eax, DWORD PTR _x$[ebp]
	fmul	DWORD PTR [eax+4]
	faddp	ST(1), ST(0)
	mov	ecx, DWORD PTR _x$[ebp]
	fld	DWORD PTR [ecx+8]
	mov	edx, DWORD PTR _x$[ebp]
	fmul	DWORD PTR [edx+8]
	faddp	ST(1), ST(0)
	fstp	DWORD PTR _sqr$[ebp]

; 247  : 	    return x * inversesqrt(sqr);

	lea	eax, DWORD PTR _sqr$[ebp]
	push	eax
	call	??$inversesqrt@M@glm@@YAMABM@Z		; glm::inversesqrt<float>
	add	esp, 4
	fstp	DWORD PTR $T70796[ebp]
	lea	ecx, DWORD PTR $T70796[ebp]
	push	ecx
	mov	edx, DWORD PTR _x$[ebp]
	push	edx
	mov	eax, DWORD PTR ___$ReturnUdt$[ebp]
	push	eax
	call	??$?DM@detail@glm@@YA?AU?$tvec3@M@01@ABU201@ABM@Z ; glm::detail::operator*<float>
	add	esp, 12					; 0000000cH
	mov	eax, DWORD PTR ___$ReturnUdt$[ebp]

; 248  :     }

	push	edx
	mov	ecx, ebp
	push	eax
	lea	edx, DWORD PTR $LN5@normalize
	call	@_RTC_CheckStackVars@8
	pop	eax
	pop	edx
	pop	edi
	pop	esi
	pop	ebx
	add	esp, 216				; 000000d8H
	cmp	ebp, esp
	call	__RTC_CheckEsp
	mov	esp, ebp
	pop	ebp
	ret	0
$LN5@normalize:
	DD	1
	DD	$LN4@normalize
$LN4@normalize:
	DD	-8					; fffffff8H
	DD	4
	DD	$LN3@normalize
$LN3@normalize:
	DB	115					; 00000073H
	DB	113					; 00000071H
	DB	114					; 00000072H
	DB	0
??$normalize@M@glm@@YA?AU?$tvec3@M@detail@0@ABU120@@Z ENDP ; glm::normalize<float>
; Function compile flags: /Odtp /RTCsu /ZI
; File c:\opengl\glm-0.9.3.1\glm\core\type_vec3.inl
_TEXT	ENDS
;	COMDAT ??$?GM@detail@glm@@YA?AU?$tvec3@M@01@ABU201@0@Z
_TEXT	SEGMENT
$T70802 = -224						; size = 4
$T70803 = -212						; size = 4
$T70804 = -200						; size = 4
___$ReturnUdt$ = 8					; size = 4
_v1$ = 12						; size = 4
_v2$ = 16						; size = 4
??$?GM@detail@glm@@YA?AU?$tvec3@M@01@ABU201@0@Z PROC	; glm::detail::operator-<float>, COMDAT

; 716  : 	{

	push	ebp
	mov	ebp, esp
	sub	esp, 228				; 000000e4H
	push	ebx
	push	esi
	push	edi
	lea	edi, DWORD PTR [ebp-228]
	mov	ecx, 57					; 00000039H
	mov	eax, -858993460				; ccccccccH
	rep stosd

; 717  : 		return tvec3<T>(
; 718  : 			v1.x - T(v2.x),
; 719  : 			v1.y - T(v2.y),
; 720  : 			v1.z - T(v2.z));

	mov	eax, DWORD PTR _v1$[ebp]
	fld	DWORD PTR [eax+8]
	mov	ecx, DWORD PTR _v2$[ebp]
	fsub	DWORD PTR [ecx+8]
	fstp	DWORD PTR $T70802[ebp]
	mov	edx, DWORD PTR _v1$[ebp]
	fld	DWORD PTR [edx+4]
	mov	eax, DWORD PTR _v2$[ebp]
	fsub	DWORD PTR [eax+4]
	fstp	DWORD PTR $T70803[ebp]
	mov	ecx, DWORD PTR _v1$[ebp]
	fld	DWORD PTR [ecx]
	mov	edx, DWORD PTR _v2$[ebp]
	fsub	DWORD PTR [edx]
	fstp	DWORD PTR $T70804[ebp]
	lea	eax, DWORD PTR $T70802[ebp]
	push	eax
	lea	ecx, DWORD PTR $T70803[ebp]
	push	ecx
	lea	edx, DWORD PTR $T70804[ebp]
	push	edx
	mov	ecx, DWORD PTR ___$ReturnUdt$[ebp]
	call	??0?$tvec3@M@detail@glm@@QAE@ABM00@Z	; glm::detail::tvec3<float>::tvec3<float>
	mov	eax, DWORD PTR ___$ReturnUdt$[ebp]

; 721  : 	}

	pop	edi
	pop	esi
	pop	ebx
	add	esp, 228				; 000000e4H
	cmp	ebp, esp
	call	__RTC_CheckEsp
	mov	esp, ebp
	pop	ebp
	ret	0
??$?GM@detail@glm@@YA?AU?$tvec3@M@01@ABU201@0@Z ENDP	; glm::detail::operator-<float>
; Function compile flags: /Odtp /RTCsu /ZI
_TEXT	ENDS
;	COMDAT ??$?DM@detail@glm@@YA?AU?$tvec3@M@01@ABU201@ABM@Z
_TEXT	SEGMENT
$T70807 = -224						; size = 4
$T70808 = -212						; size = 4
$T70809 = -200						; size = 4
___$ReturnUdt$ = 8					; size = 4
_v$ = 12						; size = 4
_s$ = 16						; size = 4
??$?DM@detail@glm@@YA?AU?$tvec3@M@01@ABU201@ABM@Z PROC	; glm::detail::operator*<float>, COMDAT

; 730  : 	{

	push	ebp
	mov	ebp, esp
	sub	esp, 228				; 000000e4H
	push	ebx
	push	esi
	push	edi
	lea	edi, DWORD PTR [ebp-228]
	mov	ecx, 57					; 00000039H
	mov	eax, -858993460				; ccccccccH
	rep stosd

; 731  : 		return tvec3<T>(
; 732  : 			v.x * T(s),
; 733  : 			v.y * T(s),
; 734  : 			v.z * T(s));

	mov	eax, DWORD PTR _v$[ebp]
	fld	DWORD PTR [eax+8]
	mov	ecx, DWORD PTR _s$[ebp]
	fmul	DWORD PTR [ecx]
	fstp	DWORD PTR $T70807[ebp]
	mov	edx, DWORD PTR _v$[ebp]
	fld	DWORD PTR [edx+4]
	mov	eax, DWORD PTR _s$[ebp]
	fmul	DWORD PTR [eax]
	fstp	DWORD PTR $T70808[ebp]
	mov	ecx, DWORD PTR _v$[ebp]
	fld	DWORD PTR [ecx]
	mov	edx, DWORD PTR _s$[ebp]
	fmul	DWORD PTR [edx]
	fstp	DWORD PTR $T70809[ebp]
	lea	eax, DWORD PTR $T70807[ebp]
	push	eax
	lea	ecx, DWORD PTR $T70808[ebp]
	push	ecx
	lea	edx, DWORD PTR $T70809[ebp]
	push	edx
	mov	ecx, DWORD PTR ___$ReturnUdt$[ebp]
	call	??0?$tvec3@M@detail@glm@@QAE@ABM00@Z	; glm::detail::tvec3<float>::tvec3<float>
	mov	eax, DWORD PTR ___$ReturnUdt$[ebp]

; 735  : 	}

	pop	edi
	pop	esi
	pop	ebx
	add	esp, 228				; 000000e4H
	cmp	ebp, esp
	call	__RTC_CheckEsp
	mov	esp, ebp
	pop	ebp
	ret	0
??$?DM@detail@glm@@YA?AU?$tvec3@M@01@ABU201@ABM@Z ENDP	; glm::detail::operator*<float>
; Function compile flags: /Odtp /RTCsu /ZI
_TEXT	ENDS
;	COMDAT ??$?YM@?$tvec3@M@detail@glm@@QAEAAU012@ABU012@@Z
_TEXT	SEGMENT
_this$ = -8						; size = 4
_v$ = 8							; size = 4
??$?YM@?$tvec3@M@detail@glm@@QAEAAU012@ABU012@@Z PROC	; glm::detail::tvec3<float>::operator+=<float>, COMDAT
; _this$ = ecx

; 275  : 	{

	push	ebp
	mov	ebp, esp
	sub	esp, 204				; 000000ccH
	push	ebx
	push	esi
	push	edi
	push	ecx
	lea	edi, DWORD PTR [ebp-204]
	mov	ecx, 51					; 00000033H
	mov	eax, -858993460				; ccccccccH
	rep stosd
	pop	ecx
	mov	DWORD PTR _this$[ebp], ecx

; 276  : 		this->x += T(v.x);

	mov	eax, DWORD PTR _this$[ebp]
	fld	DWORD PTR [eax]
	mov	ecx, DWORD PTR _v$[ebp]
	fadd	DWORD PTR [ecx]
	mov	edx, DWORD PTR _this$[ebp]
	fstp	DWORD PTR [edx]

; 277  : 		this->y += T(v.y);

	mov	eax, DWORD PTR _this$[ebp]
	fld	DWORD PTR [eax+4]
	mov	ecx, DWORD PTR _v$[ebp]
	fadd	DWORD PTR [ecx+4]
	mov	edx, DWORD PTR _this$[ebp]
	fstp	DWORD PTR [edx+4]

; 278  : 		this->z += T(v.z);

	mov	eax, DWORD PTR _this$[ebp]
	fld	DWORD PTR [eax+8]
	mov	ecx, DWORD PTR _v$[ebp]
	fadd	DWORD PTR [ecx+8]
	mov	edx, DWORD PTR _this$[ebp]
	fstp	DWORD PTR [edx+8]

; 279  : 		return *this;

	mov	eax, DWORD PTR _this$[ebp]

; 280  : 	}

	pop	edi
	pop	esi
	pop	ebx
	mov	esp, ebp
	pop	ebp
	ret	4
??$?YM@?$tvec3@M@detail@glm@@QAEAAU012@ABU012@@Z ENDP	; glm::detail::tvec3<float>::operator+=<float>
_TEXT	ENDS
PUBLIC	??$translate@M@glm@@YA?AU?$tmat4x4@M@detail@0@ABU120@ABU?$tvec3@M@20@@Z ; glm::translate<float>
PUBLIC	??$?GM@detail@glm@@YA?AU?$tvec3@M@01@ABU201@@Z	; glm::detail::operator-<float>
PUBLIC	??$?0H@?$tmat4x4@M@detail@glm@@QAE@ABH@Z	; glm::detail::tmat4x4<float>::tmat4x4<float><int>
PUBLIC	??$cross@M@glm@@YA?AU?$tvec3@M@detail@0@ABU120@0@Z ; glm::cross<float>
PUBLIC	__$ArrayPad$
; Function compile flags: /Odtp /RTCsu /ZI
; File c:\opengl\glm-0.9.3.1\glm\gtc\matrix_transform.inl
;	COMDAT ??$lookAt@M@glm@@YA?AU?$tmat4x4@M@detail@0@ABU?$tvec3@M@20@00@Z
_TEXT	SEGMENT
tv235 = -424						; size = 4
tv233 = -424						; size = 4
tv231 = -424						; size = 4
$T70815 = -416						; size = 12
$T70816 = -396						; size = 12
$T70817 = -376						; size = 12
$T70818 = -356						; size = 4
$T70819 = -344						; size = 12
_Result$ = -132						; size = 64
_s$ = -60						; size = 12
_u$ = -40						; size = 12
_f$ = -20						; size = 12
__$ArrayPad$ = -4					; size = 4
___$ReturnUdt$ = 8					; size = 4
_eye$ = 12						; size = 4
_center$ = 16						; size = 4
_up$ = 20						; size = 4
??$lookAt@M@glm@@YA?AU?$tmat4x4@M@detail@0@ABU?$tvec3@M@20@00@Z PROC ; glm::lookAt<float>, COMDAT

; 389  : 	{

	push	ebp
	mov	ebp, esp
	sub	esp, 424				; 000001a8H
	push	ebx
	push	esi
	push	edi
	lea	edi, DWORD PTR [ebp-424]
	mov	ecx, 106				; 0000006aH
	mov	eax, -858993460				; ccccccccH
	rep stosd
	mov	eax, DWORD PTR ___security_cookie
	xor	eax, ebp
	mov	DWORD PTR __$ArrayPad$[ebp], eax

; 390  : 		detail::tvec3<T> f = normalize(center - eye);

	mov	eax, DWORD PTR _eye$[ebp]
	push	eax
	mov	ecx, DWORD PTR _center$[ebp]
	push	ecx
	lea	edx, DWORD PTR $T70815[ebp]
	push	edx
	call	??$?GM@detail@glm@@YA?AU?$tvec3@M@01@ABU201@0@Z ; glm::detail::operator-<float>
	add	esp, 12					; 0000000cH
	push	eax
	lea	eax, DWORD PTR _f$[ebp]
	push	eax
	call	??$normalize@M@glm@@YA?AU?$tvec3@M@detail@0@ABU120@@Z ; glm::normalize<float>
	add	esp, 8

; 391  : 		detail::tvec3<T> u = normalize(up);

	mov	eax, DWORD PTR _up$[ebp]
	push	eax
	lea	ecx, DWORD PTR _u$[ebp]
	push	ecx
	call	??$normalize@M@glm@@YA?AU?$tvec3@M@detail@0@ABU120@@Z ; glm::normalize<float>
	add	esp, 8

; 392  : 		detail::tvec3<T> s = normalize(cross(f, u));

	lea	eax, DWORD PTR _u$[ebp]
	push	eax
	lea	ecx, DWORD PTR _f$[ebp]
	push	ecx
	lea	edx, DWORD PTR $T70816[ebp]
	push	edx
	call	??$cross@M@glm@@YA?AU?$tvec3@M@detail@0@ABU120@0@Z ; glm::cross<float>
	add	esp, 12					; 0000000cH
	push	eax
	lea	eax, DWORD PTR _s$[ebp]
	push	eax
	call	??$normalize@M@glm@@YA?AU?$tvec3@M@detail@0@ABU120@@Z ; glm::normalize<float>
	add	esp, 8

; 393  : 		u = cross(s, f);

	lea	eax, DWORD PTR _f$[ebp]
	push	eax
	lea	ecx, DWORD PTR _s$[ebp]
	push	ecx
	lea	edx, DWORD PTR $T70817[ebp]
	push	edx
	call	??$cross@M@glm@@YA?AU?$tvec3@M@detail@0@ABU120@0@Z ; glm::cross<float>
	add	esp, 12					; 0000000cH
	push	eax
	lea	ecx, DWORD PTR _u$[ebp]
	call	??4?$tvec3@M@detail@glm@@QAEAAU012@ABU012@@Z ; glm::detail::tvec3<float>::operator=

; 394  : 
; 395  : 		detail::tmat4x4<T> Result(1);

	mov	DWORD PTR $T70818[ebp], 1
	lea	eax, DWORD PTR $T70818[ebp]
	push	eax
	lea	ecx, DWORD PTR _Result$[ebp]
	call	??$?0H@?$tmat4x4@M@detail@glm@@QAE@ABH@Z ; glm::detail::tmat4x4<float>::tmat4x4<float><int>

; 396  : 		Result[0][0] = s.x;

	push	0
	push	0
	lea	ecx, DWORD PTR _Result$[ebp]
	call	??A?$tmat4x4@M@detail@glm@@QAEAAU?$tvec4@M@12@I@Z ; glm::detail::tmat4x4<float>::operator[]
	mov	ecx, eax
	call	??A?$tvec4@M@detail@glm@@QAEAAMI@Z	; glm::detail::tvec4<float>::operator[]
	fld	DWORD PTR _s$[ebp]
	fstp	DWORD PTR [eax]

; 397  : 		Result[1][0] = s.y;

	push	0
	push	1
	lea	ecx, DWORD PTR _Result$[ebp]
	call	??A?$tmat4x4@M@detail@glm@@QAEAAU?$tvec4@M@12@I@Z ; glm::detail::tmat4x4<float>::operator[]
	mov	ecx, eax
	call	??A?$tvec4@M@detail@glm@@QAEAAMI@Z	; glm::detail::tvec4<float>::operator[]
	fld	DWORD PTR _s$[ebp+4]
	fstp	DWORD PTR [eax]

; 398  : 		Result[2][0] = s.z;

	push	0
	push	2
	lea	ecx, DWORD PTR _Result$[ebp]
	call	??A?$tmat4x4@M@detail@glm@@QAEAAU?$tvec4@M@12@I@Z ; glm::detail::tmat4x4<float>::operator[]
	mov	ecx, eax
	call	??A?$tvec4@M@detail@glm@@QAEAAMI@Z	; glm::detail::tvec4<float>::operator[]
	fld	DWORD PTR _s$[ebp+8]
	fstp	DWORD PTR [eax]

; 399  : 		Result[0][1] = u.x;

	push	1
	push	0
	lea	ecx, DWORD PTR _Result$[ebp]
	call	??A?$tmat4x4@M@detail@glm@@QAEAAU?$tvec4@M@12@I@Z ; glm::detail::tmat4x4<float>::operator[]
	mov	ecx, eax
	call	??A?$tvec4@M@detail@glm@@QAEAAMI@Z	; glm::detail::tvec4<float>::operator[]
	fld	DWORD PTR _u$[ebp]
	fstp	DWORD PTR [eax]

; 400  : 		Result[1][1] = u.y;

	push	1
	push	1
	lea	ecx, DWORD PTR _Result$[ebp]
	call	??A?$tmat4x4@M@detail@glm@@QAEAAU?$tvec4@M@12@I@Z ; glm::detail::tmat4x4<float>::operator[]
	mov	ecx, eax
	call	??A?$tvec4@M@detail@glm@@QAEAAMI@Z	; glm::detail::tvec4<float>::operator[]
	fld	DWORD PTR _u$[ebp+4]
	fstp	DWORD PTR [eax]

; 401  : 		Result[2][1] = u.z;

	push	1
	push	2
	lea	ecx, DWORD PTR _Result$[ebp]
	call	??A?$tmat4x4@M@detail@glm@@QAEAAU?$tvec4@M@12@I@Z ; glm::detail::tmat4x4<float>::operator[]
	mov	ecx, eax
	call	??A?$tvec4@M@detail@glm@@QAEAAMI@Z	; glm::detail::tvec4<float>::operator[]
	fld	DWORD PTR _u$[ebp+8]
	fstp	DWORD PTR [eax]

; 402  : 		Result[0][2] =-f.x;

	fld	DWORD PTR _f$[ebp]
	fchs
	push	2
	push	0
	lea	ecx, DWORD PTR _Result$[ebp]
	fstp	DWORD PTR tv231[ebp]
	call	??A?$tmat4x4@M@detail@glm@@QAEAAU?$tvec4@M@12@I@Z ; glm::detail::tmat4x4<float>::operator[]
	mov	ecx, eax
	call	??A?$tvec4@M@detail@glm@@QAEAAMI@Z	; glm::detail::tvec4<float>::operator[]
	fld	DWORD PTR tv231[ebp]
	fstp	DWORD PTR [eax]

; 403  : 		Result[1][2] =-f.y;

	fld	DWORD PTR _f$[ebp+4]
	fchs
	push	2
	push	1
	lea	ecx, DWORD PTR _Result$[ebp]
	fstp	DWORD PTR tv233[ebp]
	call	??A?$tmat4x4@M@detail@glm@@QAEAAU?$tvec4@M@12@I@Z ; glm::detail::tmat4x4<float>::operator[]
	mov	ecx, eax
	call	??A?$tvec4@M@detail@glm@@QAEAAMI@Z	; glm::detail::tvec4<float>::operator[]
	fld	DWORD PTR tv233[ebp]
	fstp	DWORD PTR [eax]

; 404  : 		Result[2][2] =-f.z;

	fld	DWORD PTR _f$[ebp+8]
	fchs
	push	2
	push	2
	lea	ecx, DWORD PTR _Result$[ebp]
	fstp	DWORD PTR tv235[ebp]
	call	??A?$tmat4x4@M@detail@glm@@QAEAAU?$tvec4@M@12@I@Z ; glm::detail::tmat4x4<float>::operator[]
	mov	ecx, eax
	call	??A?$tvec4@M@detail@glm@@QAEAAMI@Z	; glm::detail::tvec4<float>::operator[]
	fld	DWORD PTR tv235[ebp]
	fstp	DWORD PTR [eax]

; 405  : 	/*  Test this instead of translate3D
; 406  : 		Result[3][0] =-dot(s, eye);
; 407  : 		Result[3][1] =-dot(y, eye);
; 408  : 		Result[3][2] = dot(f, eye);
; 409  : 	*/  
; 410  : 		return translate(Result, -eye);

	mov	eax, DWORD PTR _eye$[ebp]
	push	eax
	lea	ecx, DWORD PTR $T70819[ebp]
	push	ecx
	call	??$?GM@detail@glm@@YA?AU?$tvec3@M@01@ABU201@@Z ; glm::detail::operator-<float>
	add	esp, 8
	push	eax
	lea	edx, DWORD PTR _Result$[ebp]
	push	edx
	mov	eax, DWORD PTR ___$ReturnUdt$[ebp]
	push	eax
	call	??$translate@M@glm@@YA?AU?$tmat4x4@M@detail@0@ABU120@ABU?$tvec3@M@20@@Z ; glm::translate<float>
	add	esp, 12					; 0000000cH
	mov	eax, DWORD PTR ___$ReturnUdt$[ebp]

; 411  : 	}

	push	edx
	mov	ecx, ebp
	push	eax
	lea	edx, DWORD PTR $LN8@lookAt
	call	@_RTC_CheckStackVars@8
	pop	eax
	pop	edx
	pop	edi
	pop	esi
	pop	ebx
	mov	ecx, DWORD PTR __$ArrayPad$[ebp]
	xor	ecx, ebp
	call	@__security_check_cookie@4
	add	esp, 424				; 000001a8H
	cmp	ebp, esp
	call	__RTC_CheckEsp
	mov	esp, ebp
	pop	ebp
	ret	0
	npad	2
$LN8@lookAt:
	DD	4
	DD	$LN7@lookAt
$LN7@lookAt:
	DD	-20					; ffffffecH
	DD	12					; 0000000cH
	DD	$LN3@lookAt
	DD	-40					; ffffffd8H
	DD	12					; 0000000cH
	DD	$LN4@lookAt
	DD	-60					; ffffffc4H
	DD	12					; 0000000cH
	DD	$LN5@lookAt
	DD	-132					; ffffff7cH
	DD	64					; 00000040H
	DD	$LN6@lookAt
$LN6@lookAt:
	DB	82					; 00000052H
	DB	101					; 00000065H
	DB	115					; 00000073H
	DB	117					; 00000075H
	DB	108					; 0000006cH
	DB	116					; 00000074H
	DB	0
$LN5@lookAt:
	DB	115					; 00000073H
	DB	0
$LN4@lookAt:
	DB	117					; 00000075H
	DB	0
$LN3@lookAt:
	DB	102					; 00000066H
	DB	0
??$lookAt@M@glm@@YA?AU?$tmat4x4@M@detail@0@ABU?$tvec3@M@20@00@Z ENDP ; glm::lookAt<float>
_TEXT	ENDS
PUBLIC	??A?$tvec4@M@detail@glm@@QBEABMI@Z		; glm::detail::tvec4<float>::operator[]
PUBLIC	??0?$tvec4@M@detail@glm@@QAE@ABU012@@Z		; glm::detail::tvec4<float>::tvec4<float>
PUBLIC	__$ArrayPad$
; Function compile flags: /Odtp /RTCsu /ZI
; File c:\opengl\glm-0.9.3.1\glm\core\type_mat4x4.inl
;	COMDAT ??$?DM@detail@glm@@YA?AU?$tmat4x4@M@01@ABU201@0@Z
_TEXT	SEGMENT
$T70829 = -1128						; size = 16
$T70830 = -1104						; size = 16
$T70831 = -1080						; size = 16
$T70832 = -1056						; size = 16
$T70833 = -1032						; size = 16
$T70834 = -1008						; size = 16
$T70835 = -984						; size = 16
$T70836 = -960						; size = 16
$T70837 = -936						; size = 16
$T70838 = -912						; size = 16
$T70839 = -888						; size = 16
$T70840 = -864						; size = 16
$T70841 = -840						; size = 16
$T70842 = -816						; size = 16
$T70843 = -792						; size = 16
$T70844 = -768						; size = 16
$T70845 = -744						; size = 16
$T70846 = -720						; size = 16
$T70847 = -696						; size = 16
$T70848 = -672						; size = 16
$T70849 = -648						; size = 16
$T70850 = -624						; size = 16
$T70851 = -600						; size = 16
$T70852 = -576						; size = 16
$T70853 = -552						; size = 16
$T70854 = -528						; size = 16
$T70855 = -504						; size = 16
$T70856 = -480						; size = 16
_Result$ = -264						; size = 64
_SrcB3$ = -192						; size = 16
_SrcB2$ = -168						; size = 16
_SrcB1$ = -144						; size = 16
_SrcB0$ = -120						; size = 16
_SrcA3$ = -96						; size = 16
_SrcA2$ = -72						; size = 16
_SrcA1$ = -48						; size = 16
_SrcA0$ = -24						; size = 16
__$ArrayPad$ = -4					; size = 4
___$ReturnUdt$ = 8					; size = 4
_m1$ = 12						; size = 4
_m2$ = 16						; size = 4
??$?DM@detail@glm@@YA?AU?$tmat4x4@M@01@ABU201@0@Z PROC	; glm::detail::operator*<float>, COMDAT

; 762  :     {

	push	ebp
	mov	ebp, esp
	sub	esp, 1132				; 0000046cH
	push	ebx
	push	esi
	push	edi
	lea	edi, DWORD PTR [ebp-1132]
	mov	ecx, 283				; 0000011bH
	mov	eax, -858993460				; ccccccccH
	rep stosd
	mov	eax, DWORD PTR ___security_cookie
	xor	eax, ebp
	mov	DWORD PTR __$ArrayPad$[ebp], eax

; 763  : 		typename tmat4x4<T>::col_type const SrcA0 = m1[0];

	push	0
	mov	ecx, DWORD PTR _m1$[ebp]
	call	??A?$tmat4x4@M@detail@glm@@QBEABU?$tvec4@M@12@I@Z ; glm::detail::tmat4x4<float>::operator[]
	push	eax
	lea	ecx, DWORD PTR _SrcA0$[ebp]
	call	??0?$tvec4@M@detail@glm@@QAE@ABU012@@Z	; glm::detail::tvec4<float>::tvec4<float>

; 764  : 		typename tmat4x4<T>::col_type const SrcA1 = m1[1];

	push	1
	mov	ecx, DWORD PTR _m1$[ebp]
	call	??A?$tmat4x4@M@detail@glm@@QBEABU?$tvec4@M@12@I@Z ; glm::detail::tmat4x4<float>::operator[]
	push	eax
	lea	ecx, DWORD PTR _SrcA1$[ebp]
	call	??0?$tvec4@M@detail@glm@@QAE@ABU012@@Z	; glm::detail::tvec4<float>::tvec4<float>

; 765  : 		typename tmat4x4<T>::col_type const SrcA2 = m1[2];

	push	2
	mov	ecx, DWORD PTR _m1$[ebp]
	call	??A?$tmat4x4@M@detail@glm@@QBEABU?$tvec4@M@12@I@Z ; glm::detail::tmat4x4<float>::operator[]
	push	eax
	lea	ecx, DWORD PTR _SrcA2$[ebp]
	call	??0?$tvec4@M@detail@glm@@QAE@ABU012@@Z	; glm::detail::tvec4<float>::tvec4<float>

; 766  : 		typename tmat4x4<T>::col_type const SrcA3 = m1[3];

	push	3
	mov	ecx, DWORD PTR _m1$[ebp]
	call	??A?$tmat4x4@M@detail@glm@@QBEABU?$tvec4@M@12@I@Z ; glm::detail::tmat4x4<float>::operator[]
	push	eax
	lea	ecx, DWORD PTR _SrcA3$[ebp]
	call	??0?$tvec4@M@detail@glm@@QAE@ABU012@@Z	; glm::detail::tvec4<float>::tvec4<float>

; 767  : 
; 768  : 		typename tmat4x4<T>::col_type const SrcB0 = m2[0];

	push	0
	mov	ecx, DWORD PTR _m2$[ebp]
	call	??A?$tmat4x4@M@detail@glm@@QBEABU?$tvec4@M@12@I@Z ; glm::detail::tmat4x4<float>::operator[]
	push	eax
	lea	ecx, DWORD PTR _SrcB0$[ebp]
	call	??0?$tvec4@M@detail@glm@@QAE@ABU012@@Z	; glm::detail::tvec4<float>::tvec4<float>

; 769  : 		typename tmat4x4<T>::col_type const SrcB1 = m2[1];

	push	1
	mov	ecx, DWORD PTR _m2$[ebp]
	call	??A?$tmat4x4@M@detail@glm@@QBEABU?$tvec4@M@12@I@Z ; glm::detail::tmat4x4<float>::operator[]
	push	eax
	lea	ecx, DWORD PTR _SrcB1$[ebp]
	call	??0?$tvec4@M@detail@glm@@QAE@ABU012@@Z	; glm::detail::tvec4<float>::tvec4<float>

; 770  : 		typename tmat4x4<T>::col_type const SrcB2 = m2[2];

	push	2
	mov	ecx, DWORD PTR _m2$[ebp]
	call	??A?$tmat4x4@M@detail@glm@@QBEABU?$tvec4@M@12@I@Z ; glm::detail::tmat4x4<float>::operator[]
	push	eax
	lea	ecx, DWORD PTR _SrcB2$[ebp]
	call	??0?$tvec4@M@detail@glm@@QAE@ABU012@@Z	; glm::detail::tvec4<float>::tvec4<float>

; 771  : 		typename tmat4x4<T>::col_type const SrcB3 = m2[3];

	push	3
	mov	ecx, DWORD PTR _m2$[ebp]
	call	??A?$tmat4x4@M@detail@glm@@QBEABU?$tvec4@M@12@I@Z ; glm::detail::tmat4x4<float>::operator[]
	push	eax
	lea	ecx, DWORD PTR _SrcB3$[ebp]
	call	??0?$tvec4@M@detail@glm@@QAE@ABU012@@Z	; glm::detail::tvec4<float>::tvec4<float>

; 772  : 
; 773  :         tmat4x4<T> Result(tmat4x4<T>::null);

	push	0
	lea	ecx, DWORD PTR _Result$[ebp]
	call	??0?$tmat4x4@M@detail@glm@@QAE@W4ctor@012@@Z ; glm::detail::tmat4x4<float>::tmat4x4<float>

; 774  : 		Result[0] = SrcA0 * SrcB0[0] + SrcA1 * SrcB0[1] + SrcA2 * SrcB0[2] + SrcA3 * SrcB0[3];

	push	3
	lea	ecx, DWORD PTR _SrcB0$[ebp]
	call	??A?$tvec4@M@detail@glm@@QBEABMI@Z	; glm::detail::tvec4<float>::operator[]
	push	eax
	lea	eax, DWORD PTR _SrcA3$[ebp]
	push	eax
	lea	ecx, DWORD PTR $T70829[ebp]
	push	ecx
	call	??$?DM@detail@glm@@YA?AU?$tvec4@M@01@ABU201@ABM@Z ; glm::detail::operator*<float>
	add	esp, 12					; 0000000cH
	push	eax
	push	2
	lea	ecx, DWORD PTR _SrcB0$[ebp]
	call	??A?$tvec4@M@detail@glm@@QBEABMI@Z	; glm::detail::tvec4<float>::operator[]
	push	eax
	lea	edx, DWORD PTR _SrcA2$[ebp]
	push	edx
	lea	eax, DWORD PTR $T70830[ebp]
	push	eax
	call	??$?DM@detail@glm@@YA?AU?$tvec4@M@01@ABU201@ABM@Z ; glm::detail::operator*<float>
	add	esp, 12					; 0000000cH
	push	eax
	push	1
	lea	ecx, DWORD PTR _SrcB0$[ebp]
	call	??A?$tvec4@M@detail@glm@@QBEABMI@Z	; glm::detail::tvec4<float>::operator[]
	push	eax
	lea	ecx, DWORD PTR _SrcA1$[ebp]
	push	ecx
	lea	edx, DWORD PTR $T70831[ebp]
	push	edx
	call	??$?DM@detail@glm@@YA?AU?$tvec4@M@01@ABU201@ABM@Z ; glm::detail::operator*<float>
	add	esp, 12					; 0000000cH
	push	eax
	push	0
	lea	ecx, DWORD PTR _SrcB0$[ebp]
	call	??A?$tvec4@M@detail@glm@@QBEABMI@Z	; glm::detail::tvec4<float>::operator[]
	push	eax
	lea	eax, DWORD PTR _SrcA0$[ebp]
	push	eax
	lea	ecx, DWORD PTR $T70832[ebp]
	push	ecx
	call	??$?DM@detail@glm@@YA?AU?$tvec4@M@01@ABU201@ABM@Z ; glm::detail::operator*<float>
	add	esp, 12					; 0000000cH
	push	eax
	lea	edx, DWORD PTR $T70833[ebp]
	push	edx
	call	??$?HM@detail@glm@@YA?AU?$tvec4@M@01@ABU201@0@Z ; glm::detail::operator+<float>
	add	esp, 12					; 0000000cH
	push	eax
	lea	eax, DWORD PTR $T70834[ebp]
	push	eax
	call	??$?HM@detail@glm@@YA?AU?$tvec4@M@01@ABU201@0@Z ; glm::detail::operator+<float>
	add	esp, 12					; 0000000cH
	push	eax
	lea	ecx, DWORD PTR $T70835[ebp]
	push	ecx
	call	??$?HM@detail@glm@@YA?AU?$tvec4@M@01@ABU201@0@Z ; glm::detail::operator+<float>
	add	esp, 12					; 0000000cH
	push	eax
	push	0
	lea	ecx, DWORD PTR _Result$[ebp]
	call	??A?$tmat4x4@M@detail@glm@@QAEAAU?$tvec4@M@12@I@Z ; glm::detail::tmat4x4<float>::operator[]
	mov	ecx, eax
	call	??4?$tvec4@M@detail@glm@@QAEAAU012@ABU012@@Z ; glm::detail::tvec4<float>::operator=

; 775  : 		Result[1] = SrcA0 * SrcB1[0] + SrcA1 * SrcB1[1] + SrcA2 * SrcB1[2] + SrcA3 * SrcB1[3];

	push	3
	lea	ecx, DWORD PTR _SrcB1$[ebp]
	call	??A?$tvec4@M@detail@glm@@QBEABMI@Z	; glm::detail::tvec4<float>::operator[]
	push	eax
	lea	eax, DWORD PTR _SrcA3$[ebp]
	push	eax
	lea	ecx, DWORD PTR $T70836[ebp]
	push	ecx
	call	??$?DM@detail@glm@@YA?AU?$tvec4@M@01@ABU201@ABM@Z ; glm::detail::operator*<float>
	add	esp, 12					; 0000000cH
	push	eax
	push	2
	lea	ecx, DWORD PTR _SrcB1$[ebp]
	call	??A?$tvec4@M@detail@glm@@QBEABMI@Z	; glm::detail::tvec4<float>::operator[]
	push	eax
	lea	edx, DWORD PTR _SrcA2$[ebp]
	push	edx
	lea	eax, DWORD PTR $T70837[ebp]
	push	eax
	call	??$?DM@detail@glm@@YA?AU?$tvec4@M@01@ABU201@ABM@Z ; glm::detail::operator*<float>
	add	esp, 12					; 0000000cH
	push	eax
	push	1
	lea	ecx, DWORD PTR _SrcB1$[ebp]
	call	??A?$tvec4@M@detail@glm@@QBEABMI@Z	; glm::detail::tvec4<float>::operator[]
	push	eax
	lea	ecx, DWORD PTR _SrcA1$[ebp]
	push	ecx
	lea	edx, DWORD PTR $T70838[ebp]
	push	edx
	call	??$?DM@detail@glm@@YA?AU?$tvec4@M@01@ABU201@ABM@Z ; glm::detail::operator*<float>
	add	esp, 12					; 0000000cH
	push	eax
	push	0
	lea	ecx, DWORD PTR _SrcB1$[ebp]
	call	??A?$tvec4@M@detail@glm@@QBEABMI@Z	; glm::detail::tvec4<float>::operator[]
	push	eax
	lea	eax, DWORD PTR _SrcA0$[ebp]
	push	eax
	lea	ecx, DWORD PTR $T70839[ebp]
	push	ecx
	call	??$?DM@detail@glm@@YA?AU?$tvec4@M@01@ABU201@ABM@Z ; glm::detail::operator*<float>
	add	esp, 12					; 0000000cH
	push	eax
	lea	edx, DWORD PTR $T70840[ebp]
	push	edx
	call	??$?HM@detail@glm@@YA?AU?$tvec4@M@01@ABU201@0@Z ; glm::detail::operator+<float>
	add	esp, 12					; 0000000cH
	push	eax
	lea	eax, DWORD PTR $T70841[ebp]
	push	eax
	call	??$?HM@detail@glm@@YA?AU?$tvec4@M@01@ABU201@0@Z ; glm::detail::operator+<float>
	add	esp, 12					; 0000000cH
	push	eax
	lea	ecx, DWORD PTR $T70842[ebp]
	push	ecx
	call	??$?HM@detail@glm@@YA?AU?$tvec4@M@01@ABU201@0@Z ; glm::detail::operator+<float>
	add	esp, 12					; 0000000cH
	push	eax
	push	1
	lea	ecx, DWORD PTR _Result$[ebp]
	call	??A?$tmat4x4@M@detail@glm@@QAEAAU?$tvec4@M@12@I@Z ; glm::detail::tmat4x4<float>::operator[]
	mov	ecx, eax
	call	??4?$tvec4@M@detail@glm@@QAEAAU012@ABU012@@Z ; glm::detail::tvec4<float>::operator=

; 776  : 		Result[2] = SrcA0 * SrcB2[0] + SrcA1 * SrcB2[1] + SrcA2 * SrcB2[2] + SrcA3 * SrcB2[3];

	push	3
	lea	ecx, DWORD PTR _SrcB2$[ebp]
	call	??A?$tvec4@M@detail@glm@@QBEABMI@Z	; glm::detail::tvec4<float>::operator[]
	push	eax
	lea	eax, DWORD PTR _SrcA3$[ebp]
	push	eax
	lea	ecx, DWORD PTR $T70843[ebp]
	push	ecx
	call	??$?DM@detail@glm@@YA?AU?$tvec4@M@01@ABU201@ABM@Z ; glm::detail::operator*<float>
	add	esp, 12					; 0000000cH
	push	eax
	push	2
	lea	ecx, DWORD PTR _SrcB2$[ebp]
	call	??A?$tvec4@M@detail@glm@@QBEABMI@Z	; glm::detail::tvec4<float>::operator[]
	push	eax
	lea	edx, DWORD PTR _SrcA2$[ebp]
	push	edx
	lea	eax, DWORD PTR $T70844[ebp]
	push	eax
	call	??$?DM@detail@glm@@YA?AU?$tvec4@M@01@ABU201@ABM@Z ; glm::detail::operator*<float>
	add	esp, 12					; 0000000cH
	push	eax
	push	1
	lea	ecx, DWORD PTR _SrcB2$[ebp]
	call	??A?$tvec4@M@detail@glm@@QBEABMI@Z	; glm::detail::tvec4<float>::operator[]
	push	eax
	lea	ecx, DWORD PTR _SrcA1$[ebp]
	push	ecx
	lea	edx, DWORD PTR $T70845[ebp]
	push	edx
	call	??$?DM@detail@glm@@YA?AU?$tvec4@M@01@ABU201@ABM@Z ; glm::detail::operator*<float>
	add	esp, 12					; 0000000cH
	push	eax
	push	0
	lea	ecx, DWORD PTR _SrcB2$[ebp]
	call	??A?$tvec4@M@detail@glm@@QBEABMI@Z	; glm::detail::tvec4<float>::operator[]
	push	eax
	lea	eax, DWORD PTR _SrcA0$[ebp]
	push	eax
	lea	ecx, DWORD PTR $T70846[ebp]
	push	ecx
	call	??$?DM@detail@glm@@YA?AU?$tvec4@M@01@ABU201@ABM@Z ; glm::detail::operator*<float>
	add	esp, 12					; 0000000cH
	push	eax
	lea	edx, DWORD PTR $T70847[ebp]
	push	edx
	call	??$?HM@detail@glm@@YA?AU?$tvec4@M@01@ABU201@0@Z ; glm::detail::operator+<float>
	add	esp, 12					; 0000000cH
	push	eax
	lea	eax, DWORD PTR $T70848[ebp]
	push	eax
	call	??$?HM@detail@glm@@YA?AU?$tvec4@M@01@ABU201@0@Z ; glm::detail::operator+<float>
	add	esp, 12					; 0000000cH
	push	eax
	lea	ecx, DWORD PTR $T70849[ebp]
	push	ecx
	call	??$?HM@detail@glm@@YA?AU?$tvec4@M@01@ABU201@0@Z ; glm::detail::operator+<float>
	add	esp, 12					; 0000000cH
	push	eax
	push	2
	lea	ecx, DWORD PTR _Result$[ebp]
	call	??A?$tmat4x4@M@detail@glm@@QAEAAU?$tvec4@M@12@I@Z ; glm::detail::tmat4x4<float>::operator[]
	mov	ecx, eax
	call	??4?$tvec4@M@detail@glm@@QAEAAU012@ABU012@@Z ; glm::detail::tvec4<float>::operator=

; 777  : 		Result[3] = SrcA0 * SrcB3[0] + SrcA1 * SrcB3[1] + SrcA2 * SrcB3[2] + SrcA3 * SrcB3[3];

	push	3
	lea	ecx, DWORD PTR _SrcB3$[ebp]
	call	??A?$tvec4@M@detail@glm@@QBEABMI@Z	; glm::detail::tvec4<float>::operator[]
	push	eax
	lea	eax, DWORD PTR _SrcA3$[ebp]
	push	eax
	lea	ecx, DWORD PTR $T70850[ebp]
	push	ecx
	call	??$?DM@detail@glm@@YA?AU?$tvec4@M@01@ABU201@ABM@Z ; glm::detail::operator*<float>
	add	esp, 12					; 0000000cH
	push	eax
	push	2
	lea	ecx, DWORD PTR _SrcB3$[ebp]
	call	??A?$tvec4@M@detail@glm@@QBEABMI@Z	; glm::detail::tvec4<float>::operator[]
	push	eax
	lea	edx, DWORD PTR _SrcA2$[ebp]
	push	edx
	lea	eax, DWORD PTR $T70851[ebp]
	push	eax
	call	??$?DM@detail@glm@@YA?AU?$tvec4@M@01@ABU201@ABM@Z ; glm::detail::operator*<float>
	add	esp, 12					; 0000000cH
	push	eax
	push	1
	lea	ecx, DWORD PTR _SrcB3$[ebp]
	call	??A?$tvec4@M@detail@glm@@QBEABMI@Z	; glm::detail::tvec4<float>::operator[]
	push	eax
	lea	ecx, DWORD PTR _SrcA1$[ebp]
	push	ecx
	lea	edx, DWORD PTR $T70852[ebp]
	push	edx
	call	??$?DM@detail@glm@@YA?AU?$tvec4@M@01@ABU201@ABM@Z ; glm::detail::operator*<float>
	add	esp, 12					; 0000000cH
	push	eax
	push	0
	lea	ecx, DWORD PTR _SrcB3$[ebp]
	call	??A?$tvec4@M@detail@glm@@QBEABMI@Z	; glm::detail::tvec4<float>::operator[]
	push	eax
	lea	eax, DWORD PTR _SrcA0$[ebp]
	push	eax
	lea	ecx, DWORD PTR $T70853[ebp]
	push	ecx
	call	??$?DM@detail@glm@@YA?AU?$tvec4@M@01@ABU201@ABM@Z ; glm::detail::operator*<float>
	add	esp, 12					; 0000000cH
	push	eax
	lea	edx, DWORD PTR $T70854[ebp]
	push	edx
	call	??$?HM@detail@glm@@YA?AU?$tvec4@M@01@ABU201@0@Z ; glm::detail::operator+<float>
	add	esp, 12					; 0000000cH
	push	eax
	lea	eax, DWORD PTR $T70855[ebp]
	push	eax
	call	??$?HM@detail@glm@@YA?AU?$tvec4@M@01@ABU201@0@Z ; glm::detail::operator+<float>
	add	esp, 12					; 0000000cH
	push	eax
	lea	ecx, DWORD PTR $T70856[ebp]
	push	ecx
	call	??$?HM@detail@glm@@YA?AU?$tvec4@M@01@ABU201@0@Z ; glm::detail::operator+<float>
	add	esp, 12					; 0000000cH
	push	eax
	push	3
	lea	ecx, DWORD PTR _Result$[ebp]
	call	??A?$tmat4x4@M@detail@glm@@QAEAAU?$tvec4@M@12@I@Z ; glm::detail::tmat4x4<float>::operator[]
	mov	ecx, eax
	call	??4?$tvec4@M@detail@glm@@QAEAAU012@ABU012@@Z ; glm::detail::tvec4<float>::operator=

; 778  :         return Result;

	lea	eax, DWORD PTR _Result$[ebp]
	push	eax
	mov	ecx, DWORD PTR ___$ReturnUdt$[ebp]
	call	??0?$tmat4x4@M@detail@glm@@QAE@ABU012@@Z ; glm::detail::tmat4x4<float>::tmat4x4<float>
	mov	eax, DWORD PTR ___$ReturnUdt$[ebp]

; 779  :     }

	push	edx
	mov	ecx, ebp
	push	eax
	lea	edx, DWORD PTR $LN13@operator@2
	call	@_RTC_CheckStackVars@8
	pop	eax
	pop	edx
	pop	edi
	pop	esi
	pop	ebx
	mov	ecx, DWORD PTR __$ArrayPad$[ebp]
	xor	ecx, ebp
	call	@__security_check_cookie@4
	add	esp, 1132				; 0000046cH
	cmp	ebp, esp
	call	__RTC_CheckEsp
	mov	esp, ebp
	pop	ebp
	ret	0
	npad	1
$LN13@operator@2:
	DD	9
	DD	$LN12@operator@2
$LN12@operator@2:
	DD	-24					; ffffffe8H
	DD	16					; 00000010H
	DD	$LN3@operator@2
	DD	-48					; ffffffd0H
	DD	16					; 00000010H
	DD	$LN4@operator@2
	DD	-72					; ffffffb8H
	DD	16					; 00000010H
	DD	$LN5@operator@2
	DD	-96					; ffffffa0H
	DD	16					; 00000010H
	DD	$LN6@operator@2
	DD	-120					; ffffff88H
	DD	16					; 00000010H
	DD	$LN7@operator@2
	DD	-144					; ffffff70H
	DD	16					; 00000010H
	DD	$LN8@operator@2
	DD	-168					; ffffff58H
	DD	16					; 00000010H
	DD	$LN9@operator@2
	DD	-192					; ffffff40H
	DD	16					; 00000010H
	DD	$LN10@operator@2
	DD	-264					; fffffef8H
	DD	64					; 00000040H
	DD	$LN11@operator@2
$LN11@operator@2:
	DB	82					; 00000052H
	DB	101					; 00000065H
	DB	115					; 00000073H
	DB	117					; 00000075H
	DB	108					; 0000006cH
	DB	116					; 00000074H
	DB	0
$LN10@operator@2:
	DB	83					; 00000053H
	DB	114					; 00000072H
	DB	99					; 00000063H
	DB	66					; 00000042H
	DB	51					; 00000033H
	DB	0
$LN9@operator@2:
	DB	83					; 00000053H
	DB	114					; 00000072H
	DB	99					; 00000063H
	DB	66					; 00000042H
	DB	50					; 00000032H
	DB	0
$LN8@operator@2:
	DB	83					; 00000053H
	DB	114					; 00000072H
	DB	99					; 00000063H
	DB	66					; 00000042H
	DB	49					; 00000031H
	DB	0
$LN7@operator@2:
	DB	83					; 00000053H
	DB	114					; 00000072H
	DB	99					; 00000063H
	DB	66					; 00000042H
	DB	48					; 00000030H
	DB	0
$LN6@operator@2:
	DB	83					; 00000053H
	DB	114					; 00000072H
	DB	99					; 00000063H
	DB	65					; 00000041H
	DB	51					; 00000033H
	DB	0
$LN5@operator@2:
	DB	83					; 00000053H
	DB	114					; 00000072H
	DB	99					; 00000063H
	DB	65					; 00000041H
	DB	50					; 00000032H
	DB	0
$LN4@operator@2:
	DB	83					; 00000053H
	DB	114					; 00000072H
	DB	99					; 00000063H
	DB	65					; 00000041H
	DB	49					; 00000031H
	DB	0
$LN3@operator@2:
	DB	83					; 00000053H
	DB	114					; 00000072H
	DB	99					; 00000063H
	DB	65					; 00000041H
	DB	48					; 00000030H
	DB	0
??$?DM@detail@glm@@YA?AU?$tmat4x4@M@01@ABU201@0@Z ENDP	; glm::detail::operator*<float>
_TEXT	ENDS
PUBLIC	__real@bf800000
PUBLIC	??0?$tmat4x4@M@detail@glm@@QAE@ABM@Z		; glm::detail::tmat4x4<float>::tmat4x4<float>
PUBLIC	??$tan@M@glm@@YAMABM@Z				; glm::tan<float>
PUBLIC	__real@4000000000000000
PUBLIC	__$ArrayPad$
;	COMDAT __real@bf800000
; File c:\opengl\glm-0.9.3.1\glm\gtc\matrix_transform.inl
CONST	SEGMENT
__real@bf800000 DD 0bf800000r			; -1
CONST	ENDS
;	COMDAT __real@4000000000000000
CONST	SEGMENT
__real@4000000000000000 DQ 04000000000000000r	; 2
; Function compile flags: /Odtp /RTCsu /ZI
CONST	ENDS
;	COMDAT ??$perspective@M@glm@@YA?AU?$tmat4x4@M@detail@0@ABM000@Z
_TEXT	SEGMENT
tv259 = -372						; size = 8
tv257 = -372						; size = 4
tv254 = -372						; size = 8
tv251 = -372						; size = 8
tv233 = -368						; size = 4
$T70871 = -360						; size = 4
$T70872 = -348						; size = 4
$T70873 = -336						; size = 4
_Result$ = -132						; size = 64
_top$ = -60						; size = 4
_bottom$ = -48						; size = 4
_right$ = -36						; size = 4
_left$ = -24						; size = 4
_range$ = -12						; size = 4
__$ArrayPad$ = -4					; size = 4
___$ReturnUdt$ = 8					; size = 4
_fovy$ = 12						; size = 4
_aspect$ = 16						; size = 4
_zNear$ = 20						; size = 4
_zFar$ = 24						; size = 4
??$perspective@M@glm@@YA?AU?$tmat4x4@M@detail@0@ABM000@Z PROC ; glm::perspective<float>, COMDAT

; 230  : 	{

	push	ebp
	mov	ebp, esp
	sub	esp, 372				; 00000174H
	push	ebx
	push	esi
	push	edi
	lea	edi, DWORD PTR [ebp-372]
	mov	ecx, 93					; 0000005dH
	mov	eax, -858993460				; ccccccccH
	rep stosd
	mov	eax, DWORD PTR ___security_cookie
	xor	eax, ebp
	mov	DWORD PTR __$ArrayPad$[ebp], eax

; 231  : 		valType range = tan(radians(fovy / valType(2))) * zNear;	

	mov	eax, DWORD PTR _fovy$[ebp]
	fld	DWORD PTR [eax]
	fdiv	QWORD PTR __real@4000000000000000
	fstp	DWORD PTR $T70872[ebp]
	lea	ecx, DWORD PTR $T70872[ebp]
	push	ecx
	call	??$radians@M@glm@@YAMABM@Z		; glm::radians<float>
	add	esp, 4
	fstp	DWORD PTR $T70871[ebp]
	lea	edx, DWORD PTR $T70871[ebp]
	push	edx
	call	??$tan@M@glm@@YAMABM@Z			; glm::tan<float>
	add	esp, 4
	mov	eax, DWORD PTR _zNear$[ebp]
	fmul	DWORD PTR [eax]
	fstp	DWORD PTR _range$[ebp]

; 232  : 		valType left = -range * aspect;

	fld	DWORD PTR _range$[ebp]
	fchs
	mov	eax, DWORD PTR _aspect$[ebp]
	fmul	DWORD PTR [eax]
	fstp	DWORD PTR _left$[ebp]

; 233  : 		valType right = range * aspect;

	fld	DWORD PTR _range$[ebp]
	mov	eax, DWORD PTR _aspect$[ebp]
	fmul	DWORD PTR [eax]
	fstp	DWORD PTR _right$[ebp]

; 234  : 		valType bottom = -range;

	fld	DWORD PTR _range$[ebp]
	fchs
	fstp	DWORD PTR _bottom$[ebp]

; 235  : 		valType top = range;

	fld	DWORD PTR _range$[ebp]
	fstp	DWORD PTR _top$[ebp]

; 236  : 
; 237  : 		detail::tmat4x4<valType> Result(valType(0));

	fldz
	fstp	DWORD PTR $T70873[ebp]
	lea	eax, DWORD PTR $T70873[ebp]
	push	eax
	lea	ecx, DWORD PTR _Result$[ebp]
	call	??0?$tmat4x4@M@detail@glm@@QAE@ABM@Z	; glm::detail::tmat4x4<float>::tmat4x4<float>

; 238  : 		Result[0][0] = (valType(2) * zNear) / (right - left);

	mov	eax, DWORD PTR _zNear$[ebp]
	fld	DWORD PTR [eax]
	fmul	QWORD PTR __real@4000000000000000
	fld	DWORD PTR _right$[ebp]
	fsub	DWORD PTR _left$[ebp]
	fdivp	ST(1), ST(0)
	push	0
	push	0
	lea	ecx, DWORD PTR _Result$[ebp]
	fstp	QWORD PTR tv251[ebp]
	call	??A?$tmat4x4@M@detail@glm@@QAEAAU?$tvec4@M@12@I@Z ; glm::detail::tmat4x4<float>::operator[]
	mov	ecx, eax
	call	??A?$tvec4@M@detail@glm@@QAEAAMI@Z	; glm::detail::tvec4<float>::operator[]
	fld	QWORD PTR tv251[ebp]
	fstp	DWORD PTR [eax]

; 239  : 		Result[1][1] = (valType(2) * zNear) / (top - bottom);

	mov	eax, DWORD PTR _zNear$[ebp]
	fld	DWORD PTR [eax]
	fmul	QWORD PTR __real@4000000000000000
	fld	DWORD PTR _top$[ebp]
	fsub	DWORD PTR _bottom$[ebp]
	fdivp	ST(1), ST(0)
	push	1
	push	1
	lea	ecx, DWORD PTR _Result$[ebp]
	fstp	QWORD PTR tv254[ebp]
	call	??A?$tmat4x4@M@detail@glm@@QAEAAU?$tvec4@M@12@I@Z ; glm::detail::tmat4x4<float>::operator[]
	mov	ecx, eax
	call	??A?$tvec4@M@detail@glm@@QAEAAMI@Z	; glm::detail::tvec4<float>::operator[]
	fld	QWORD PTR tv254[ebp]
	fstp	DWORD PTR [eax]

; 240  : 		Result[2][2] = - (zFar + zNear) / (zFar - zNear);

	mov	eax, DWORD PTR _zFar$[ebp]
	fld	DWORD PTR [eax]
	mov	ecx, DWORD PTR _zNear$[ebp]
	fadd	DWORD PTR [ecx]
	fchs
	mov	edx, DWORD PTR _zFar$[ebp]
	fld	DWORD PTR [edx]
	mov	eax, DWORD PTR _zNear$[ebp]
	fsub	DWORD PTR [eax]
	fdivp	ST(1), ST(0)
	fstp	DWORD PTR tv233[ebp]
	fld	DWORD PTR tv233[ebp]
	push	2
	push	2
	lea	ecx, DWORD PTR _Result$[ebp]
	fstp	DWORD PTR tv257[ebp]
	call	??A?$tmat4x4@M@detail@glm@@QAEAAU?$tvec4@M@12@I@Z ; glm::detail::tmat4x4<float>::operator[]
	mov	ecx, eax
	call	??A?$tvec4@M@detail@glm@@QAEAAMI@Z	; glm::detail::tvec4<float>::operator[]
	fld	DWORD PTR tv257[ebp]
	fstp	DWORD PTR [eax]

; 241  : 		Result[2][3] = - valType(1);

	push	3
	push	2
	lea	ecx, DWORD PTR _Result$[ebp]
	call	??A?$tmat4x4@M@detail@glm@@QAEAAU?$tvec4@M@12@I@Z ; glm::detail::tmat4x4<float>::operator[]
	mov	ecx, eax
	call	??A?$tvec4@M@detail@glm@@QAEAAMI@Z	; glm::detail::tvec4<float>::operator[]
	fld	DWORD PTR __real@bf800000
	fstp	DWORD PTR [eax]

; 242  : 		Result[3][2] = - (valType(2) * zFar * zNear) / (zFar - zNear);

	mov	eax, DWORD PTR _zFar$[ebp]
	fld	DWORD PTR [eax]
	fmul	QWORD PTR __real@4000000000000000
	mov	ecx, DWORD PTR _zNear$[ebp]
	fmul	DWORD PTR [ecx]
	fchs
	mov	edx, DWORD PTR _zFar$[ebp]
	fld	DWORD PTR [edx]
	mov	eax, DWORD PTR _zNear$[ebp]
	fsub	DWORD PTR [eax]
	fdivp	ST(1), ST(0)
	push	2
	push	3
	lea	ecx, DWORD PTR _Result$[ebp]
	fstp	QWORD PTR tv259[ebp]
	call	??A?$tmat4x4@M@detail@glm@@QAEAAU?$tvec4@M@12@I@Z ; glm::detail::tmat4x4<float>::operator[]
	mov	ecx, eax
	call	??A?$tvec4@M@detail@glm@@QAEAAMI@Z	; glm::detail::tvec4<float>::operator[]
	fld	QWORD PTR tv259[ebp]
	fstp	DWORD PTR [eax]

; 243  : 		return Result;

	lea	eax, DWORD PTR _Result$[ebp]
	push	eax
	mov	ecx, DWORD PTR ___$ReturnUdt$[ebp]
	call	??0?$tmat4x4@M@detail@glm@@QAE@ABU012@@Z ; glm::detail::tmat4x4<float>::tmat4x4<float>
	mov	eax, DWORD PTR ___$ReturnUdt$[ebp]

; 244  : 	}

	push	edx
	mov	ecx, ebp
	push	eax
	lea	edx, DWORD PTR $LN5@perspectiv
	call	@_RTC_CheckStackVars@8
	pop	eax
	pop	edx
	pop	edi
	pop	esi
	pop	ebx
	mov	ecx, DWORD PTR __$ArrayPad$[ebp]
	xor	ecx, ebp
	call	@__security_check_cookie@4
	add	esp, 372				; 00000174H
	cmp	ebp, esp
	call	__RTC_CheckEsp
	mov	esp, ebp
	pop	ebp
	ret	0
$LN5@perspectiv:
	DD	1
	DD	$LN4@perspectiv
$LN4@perspectiv:
	DD	-132					; ffffff7cH
	DD	64					; 00000040H
	DD	$LN3@perspectiv
$LN3@perspectiv:
	DB	82					; 00000052H
	DB	101					; 00000065H
	DB	115					; 00000073H
	DB	117					; 00000075H
	DB	108					; 0000006cH
	DB	116					; 00000074H
	DB	0
??$perspective@M@glm@@YA?AU?$tmat4x4@M@detail@0@ABM000@Z ENDP ; glm::perspective<float>
; Function compile flags: /Odtp /RTCsu /ZI
; File c:\opengl\glm-0.9.3.1\glm\core\type_vec3.inl
_TEXT	ENDS
;	COMDAT ??$?0M@?$tvec3@M@detail@glm@@QAE@ABU?$tvec4@M@12@@Z
_TEXT	SEGMENT
_this$ = -8						; size = 4
_v$ = 8							; size = 4
??$?0M@?$tvec3@M@detail@glm@@QAE@ABU?$tvec4@M@12@@Z PROC ; glm::detail::tvec3<float>::tvec3<float><float>, COMDAT
; _this$ = ecx

; 226  : 	{}

	push	ebp
	mov	ebp, esp
	sub	esp, 204				; 000000ccH
	push	ebx
	push	esi
	push	edi
	push	ecx
	lea	edi, DWORD PTR [ebp-204]
	mov	ecx, 51					; 00000033H
	mov	eax, -858993460				; ccccccccH
	rep stosd
	pop	ecx
	mov	DWORD PTR _this$[ebp], ecx
	mov	eax, DWORD PTR _this$[ebp]
	mov	ecx, DWORD PTR _v$[ebp]
	fld	DWORD PTR [ecx]
	fstp	DWORD PTR [eax]
	mov	eax, DWORD PTR _this$[ebp]
	mov	ecx, DWORD PTR _v$[ebp]
	fld	DWORD PTR [ecx+4]
	fstp	DWORD PTR [eax+4]
	mov	eax, DWORD PTR _this$[ebp]
	mov	ecx, DWORD PTR _v$[ebp]
	fld	DWORD PTR [ecx+8]
	fstp	DWORD PTR [eax+8]
	mov	eax, DWORD PTR _this$[ebp]
	pop	edi
	pop	esi
	pop	ebx
	mov	esp, ebp
	pop	ebp
	ret	4
??$?0M@?$tvec3@M@detail@glm@@QAE@ABU?$tvec4@M@12@@Z ENDP ; glm::detail::tvec3<float>::tvec3<float><float>
; Function compile flags: /Odtp /RTCsu /ZI
; File c:\opengl\glm-0.9.3.1\glm\core\type_vec2.inl
_TEXT	ENDS
;	COMDAT ??$?GM@detail@glm@@YA?AU?$tvec2@M@01@ABU201@0@Z
_TEXT	SEGMENT
$T70885 = -212						; size = 4
$T70886 = -200						; size = 4
___$ReturnUdt$ = 8					; size = 4
_v1$ = 12						; size = 4
_v2$ = 16						; size = 4
??$?GM@detail@glm@@YA?AU?$tvec2@M@01@ABU201@0@Z PROC	; glm::detail::operator-<float>, COMDAT

; 623  : 	{

	push	ebp
	mov	ebp, esp
	sub	esp, 216				; 000000d8H
	push	ebx
	push	esi
	push	edi
	lea	edi, DWORD PTR [ebp-216]
	mov	ecx, 54					; 00000036H
	mov	eax, -858993460				; ccccccccH
	rep stosd

; 624  : 		return tvec2<T>(
; 625  : 			v1.x - T(v2.x),
; 626  : 			v1.y - T(v2.y));

	mov	eax, DWORD PTR _v1$[ebp]
	fld	DWORD PTR [eax+4]
	mov	ecx, DWORD PTR _v2$[ebp]
	fsub	DWORD PTR [ecx+4]
	fstp	DWORD PTR $T70885[ebp]
	mov	edx, DWORD PTR _v1$[ebp]
	fld	DWORD PTR [edx]
	mov	eax, DWORD PTR _v2$[ebp]
	fsub	DWORD PTR [eax]
	fstp	DWORD PTR $T70886[ebp]
	lea	ecx, DWORD PTR $T70885[ebp]
	push	ecx
	lea	edx, DWORD PTR $T70886[ebp]
	push	edx
	mov	ecx, DWORD PTR ___$ReturnUdt$[ebp]
	call	??0?$tvec2@M@detail@glm@@QAE@ABM0@Z	; glm::detail::tvec2<float>::tvec2<float>
	mov	eax, DWORD PTR ___$ReturnUdt$[ebp]

; 627  : 	}

	pop	edi
	pop	esi
	pop	ebx
	add	esp, 216				; 000000d8H
	cmp	ebp, esp
	call	__RTC_CheckEsp
	mov	esp, ebp
	pop	ebp
	ret	0
??$?GM@detail@glm@@YA?AU?$tvec2@M@01@ABU201@0@Z ENDP	; glm::detail::operator-<float>
; Function compile flags: /Odtp /RTCsu /ZI
; File c:\program files (x86)\microsoft visual studio 10.0\vc\include\xmemory
_TEXT	ENDS
;	COMDAT ??$?0D@?$allocator@U_Container_proxy@std@@@std@@QAE@ABV?$allocator@D@1@@Z
_TEXT	SEGMENT
_this$ = -8						; size = 4
___formal$ = 8						; size = 4
??$?0D@?$allocator@U_Container_proxy@std@@@std@@QAE@ABV?$allocator@D@1@@Z PROC ; std::allocator<std::_Container_proxy>::allocator<std::_Container_proxy><char>, COMDAT
; _this$ = ecx

; 170  : 		_ALLOCATOR(const _ALLOCATOR<_Other>&) _THROW0()

	push	ebp
	mov	ebp, esp
	sub	esp, 204				; 000000ccH
	push	ebx
	push	esi
	push	edi
	push	ecx
	lea	edi, DWORD PTR [ebp-204]
	mov	ecx, 51					; 00000033H
	mov	eax, -858993460				; ccccccccH
	rep stosd
	pop	ecx
	mov	DWORD PTR _this$[ebp], ecx

; 171  : 		{	// construct from a related allocator (do nothing)
; 172  : 		}

	mov	eax, DWORD PTR _this$[ebp]
	pop	edi
	pop	esi
	pop	ebx
	mov	esp, ebp
	pop	ebp
	ret	4
??$?0D@?$allocator@U_Container_proxy@std@@@std@@QAE@ABV?$allocator@D@1@@Z ENDP ; std::allocator<std::_Container_proxy>::allocator<std::_Container_proxy><char>
_TEXT	ENDS
PUBLIC	?destroy@?$allocator@U_Container_proxy@std@@@std@@QAEXPAU_Container_proxy@2@@Z ; std::allocator<std::_Container_proxy>::destroy
; Function compile flags: /Odtp /RTCsu /ZI
;	COMDAT ??$_Dest_val@V?$allocator@U_Container_proxy@std@@@std@@U_Container_proxy@2@@std@@YAXAAV?$allocator@U_Container_proxy@std@@@0@PAU_Container_proxy@0@@Z
_TEXT	SEGMENT
__Alval$ = 8						; size = 4
__Pdest$ = 12						; size = 4
??$_Dest_val@V?$allocator@U_Container_proxy@std@@@std@@U_Container_proxy@2@@std@@YAXAAV?$allocator@U_Container_proxy@std@@@0@PAU_Container_proxy@0@@Z PROC ; std::_Dest_val<std::allocator<std::_Container_proxy>,std::_Container_proxy>, COMDAT

; 286  : 	{	// destroy using allocator

	push	ebp
	mov	ebp, esp
	sub	esp, 192				; 000000c0H
	push	ebx
	push	esi
	push	edi
	lea	edi, DWORD PTR [ebp-192]
	mov	ecx, 48					; 00000030H
	mov	eax, -858993460				; ccccccccH
	rep stosd

; 287  : 	_Alval.destroy(_Pdest);

	mov	eax, DWORD PTR __Pdest$[ebp]
	push	eax
	mov	ecx, DWORD PTR __Alval$[ebp]
	call	?destroy@?$allocator@U_Container_proxy@std@@@std@@QAEXPAU_Container_proxy@2@@Z ; std::allocator<std::_Container_proxy>::destroy

; 288  : 	}

	pop	edi
	pop	esi
	pop	ebx
	add	esp, 192				; 000000c0H
	cmp	ebp, esp
	call	__RTC_CheckEsp
	mov	esp, ebp
	pop	ebp
	ret	0
??$_Dest_val@V?$allocator@U_Container_proxy@std@@@std@@U_Container_proxy@2@@std@@YAXAAV?$allocator@U_Container_proxy@std@@@0@PAU_Container_proxy@0@@Z ENDP ; std::_Dest_val<std::allocator<std::_Container_proxy>,std::_Container_proxy>
; Function compile flags: /Odtp /RTCsu /ZI
_TEXT	ENDS
;	COMDAT ??_H@YGXPAXIHP6EPAX0@Z@Z
_TEXT	SEGMENT
___t$ = 8						; size = 4
___s$ = 12						; size = 4
___n$ = 16						; size = 4
___f$ = 20						; size = 4
??_H@YGXPAXIHP6EPAX0@Z@Z PROC				; `vector constructor iterator', COMDAT
	push	ebp
	mov	ebp, esp
	sub	esp, 192				; 000000c0H
	push	ebx
	push	esi
	push	edi
	lea	edi, DWORD PTR [ebp-192]
	mov	ecx, 48					; 00000030H
	mov	eax, -858993460				; ccccccccH
	rep stosd
$LN2@vector:
	mov	eax, DWORD PTR ___n$[ebp]
	sub	eax, 1
	mov	DWORD PTR ___n$[ebp], eax
	js	SHORT $LN3@vector
	mov	esi, esp
	mov	ecx, DWORD PTR ___t$[ebp]
	call	DWORD PTR ___f$[ebp]
	cmp	esi, esp
	call	__RTC_CheckEsp
	mov	eax, DWORD PTR ___t$[ebp]
	add	eax, DWORD PTR ___s$[ebp]
	mov	DWORD PTR ___t$[ebp], eax
	jmp	SHORT $LN2@vector
$LN3@vector:
	pop	edi
	pop	esi
	pop	ebx
	add	esp, 192				; 000000c0H
	cmp	ebp, esp
	call	__RTC_CheckEsp
	mov	esp, ebp
	pop	ebp
	ret	16					; 00000010H
??_H@YGXPAXIHP6EPAX0@Z@Z ENDP				; `vector constructor iterator'
_TEXT	ENDS
PUBLIC	??$_Destroy@U_Container_proxy@std@@@std@@YAXPAU_Container_proxy@0@@Z ; std::_Destroy<std::_Container_proxy>
; Function compile flags: /Odtp /RTCsu /ZI
;	COMDAT ?destroy@?$allocator@U_Container_proxy@std@@@std@@QAEXPAU_Container_proxy@2@@Z
_TEXT	SEGMENT
_this$ = -8						; size = 4
__Ptr$ = 8						; size = 4
?destroy@?$allocator@U_Container_proxy@std@@@std@@QAEXPAU_Container_proxy@2@@Z PROC ; std::allocator<std::_Container_proxy>::destroy, COMDAT
; _this$ = ecx

; 212  : 		{	// destroy object at _Ptr

	push	ebp
	mov	ebp, esp
	sub	esp, 204				; 000000ccH
	push	ebx
	push	esi
	push	edi
	push	ecx
	lea	edi, DWORD PTR [ebp-204]
	mov	ecx, 51					; 00000033H
	mov	eax, -858993460				; ccccccccH
	rep stosd
	pop	ecx
	mov	DWORD PTR _this$[ebp], ecx

; 213  : 		_Destroy(_Ptr);

	mov	eax, DWORD PTR __Ptr$[ebp]
	push	eax
	call	??$_Destroy@U_Container_proxy@std@@@std@@YAXPAU_Container_proxy@0@@Z ; std::_Destroy<std::_Container_proxy>
	add	esp, 4

; 214  : 		}

	pop	edi
	pop	esi
	pop	ebx
	add	esp, 204				; 000000ccH
	cmp	ebp, esp
	call	__RTC_CheckEsp
	mov	esp, ebp
	pop	ebp
	ret	4
?destroy@?$allocator@U_Container_proxy@std@@@std@@QAEXPAU_Container_proxy@2@@Z ENDP ; std::allocator<std::_Container_proxy>::destroy
_TEXT	ENDS
PUBLIC	??_C@_1FK@IBGOADNM@?$AAc?$AA?3?$AA?2?$AAo?$AAp?$AAe?$AAn?$AAg?$AAl?$AA?2?$AAg?$AAl?$AAm?$AA?9?$AA0?$AA?4?$AA9?$AA?4?$AA3?$AA?4?$AA1?$AA?2?$AAg?$AAl?$AAm?$AA?2?$AAc?$AAo?$AAr?$AAe?$AA?2?$AAt@ ; `string'
PUBLIC	?length@?$tvec3@M@detail@glm@@QBEIXZ		; glm::detail::tvec3<float>::length
;	COMDAT ??_C@_1FK@IBGOADNM@?$AAc?$AA?3?$AA?2?$AAo?$AAp?$AAe?$AAn?$AAg?$AAl?$AA?2?$AAg?$AAl?$AAm?$AA?9?$AA0?$AA?4?$AA9?$AA?4?$AA3?$AA?4?$AA1?$AA?2?$AAg?$AAl?$AAm?$AA?2?$AAc?$AAo?$AAr?$AAe?$AA?2?$AAt@
; File c:\opengl\glm-0.9.3.1\glm\core\type_vec3.inl
CONST	SEGMENT
??_C@_1FK@IBGOADNM@?$AAc?$AA?3?$AA?2?$AAo?$AAp?$AAe?$AAn?$AAg?$AAl?$AA?2?$AAg?$AAl?$AAm?$AA?9?$AA0?$AA?4?$AA9?$AA?4?$AA3?$AA?4?$AA1?$AA?2?$AAg?$AAl?$AAm?$AA?2?$AAc?$AAo?$AAr?$AAe?$AA?2?$AAt@ DB 'c'
	DB	00H, ':', 00H, '\', 00H, 'o', 00H, 'p', 00H, 'e', 00H, 'n', 00H
	DB	'g', 00H, 'l', 00H, '\', 00H, 'g', 00H, 'l', 00H, 'm', 00H, '-'
	DB	00H, '0', 00H, '.', 00H, '9', 00H, '.', 00H, '3', 00H, '.', 00H
	DB	'1', 00H, '\', 00H, 'g', 00H, 'l', 00H, 'm', 00H, '\', 00H, 'c'
	DB	00H, 'o', 00H, 'r', 00H, 'e', 00H, '\', 00H, 't', 00H, 'y', 00H
	DB	'p', 00H, 'e', 00H, '_', 00H, 'v', 00H, 'e', 00H, 'c', 00H, '3'
	DB	00H, '.', 00H, 'i', 00H, 'n', 00H, 'l', 00H, 00H, 00H ; `string'
; Function compile flags: /Odtp /RTCsu /ZI
CONST	ENDS
;	COMDAT ??A?$tvec3@M@detail@glm@@QAEAAMI@Z
_TEXT	SEGMENT
_this$ = -8						; size = 4
_i$ = 8							; size = 4
??A?$tvec3@M@detail@glm@@QAEAAMI@Z PROC			; glm::detail::tvec3<float>::operator[], COMDAT
; _this$ = ecx

; 47   : 	{

	push	ebp
	mov	ebp, esp
	sub	esp, 204				; 000000ccH
	push	ebx
	push	esi
	push	edi
	push	ecx
	lea	edi, DWORD PTR [ebp-204]
	mov	ecx, 51					; 00000033H
	mov	eax, -858993460				; ccccccccH
	rep stosd
	pop	ecx
	mov	DWORD PTR _this$[ebp], ecx

; 48   : 		assert(i < this->length());

	mov	ecx, DWORD PTR _this$[ebp]
	call	?length@?$tvec3@M@detail@glm@@QBEIXZ	; glm::detail::tvec3<float>::length
	cmp	DWORD PTR _i$[ebp], eax
	jb	SHORT $LN3@operator@3
	mov	esi, esp
	push	48					; 00000030H
	push	OFFSET ??_C@_1FK@IBGOADNM@?$AAc?$AA?3?$AA?2?$AAo?$AAp?$AAe?$AAn?$AAg?$AAl?$AA?2?$AAg?$AAl?$AAm?$AA?9?$AA0?$AA?4?$AA9?$AA?4?$AA3?$AA?4?$AA1?$AA?2?$AAg?$AAl?$AAm?$AA?2?$AAc?$AAo?$AAr?$AAe?$AA?2?$AAt@
	push	OFFSET ??_C@_1CG@KOFHLCJL@?$AAi?$AA?5?$AA?$DM?$AA?5?$AAt?$AAh?$AAi?$AAs?$AA?9?$AA?$DO?$AAl?$AAe?$AAn?$AAg?$AAt?$AAh?$AA?$CI?$AA?$CJ?$AA?$AA@
	call	DWORD PTR __imp___wassert
	add	esp, 12					; 0000000cH
	cmp	esi, esp
	call	__RTC_CheckEsp
$LN3@operator@3:

; 49   : 		return (&x)[i];

	mov	eax, DWORD PTR _i$[ebp]
	mov	ecx, DWORD PTR _this$[ebp]
	lea	eax, DWORD PTR [ecx+eax*4]

; 50   : 	}

	pop	edi
	pop	esi
	pop	ebx
	add	esp, 204				; 000000ccH
	cmp	ebp, esp
	call	__RTC_CheckEsp
	mov	esp, ebp
	pop	ebp
	ret	4
??A?$tvec3@M@detail@glm@@QAEAAMI@Z ENDP			; glm::detail::tvec3<float>::operator[]
_TEXT	ENDS
PUBLIC	??_C@_1FK@PFPGOKFD@?$AAc?$AA?3?$AA?2?$AAo?$AAp?$AAe?$AAn?$AAg?$AAl?$AA?2?$AAg?$AAl?$AAm?$AA?9?$AA0?$AA?4?$AA9?$AA?4?$AA3?$AA?4?$AA1?$AA?2?$AAg?$AAl?$AAm?$AA?2?$AAc?$AAo?$AAr?$AAe?$AA?2?$AAt@ ; `string'
PUBLIC	?length@?$tvec4@M@detail@glm@@QBEIXZ		; glm::detail::tvec4<float>::length
;	COMDAT ??_C@_1FK@PFPGOKFD@?$AAc?$AA?3?$AA?2?$AAo?$AAp?$AAe?$AAn?$AAg?$AAl?$AA?2?$AAg?$AAl?$AAm?$AA?9?$AA0?$AA?4?$AA9?$AA?4?$AA3?$AA?4?$AA1?$AA?2?$AAg?$AAl?$AAm?$AA?2?$AAc?$AAo?$AAr?$AAe?$AA?2?$AAt@
; File c:\opengl\glm-0.9.3.1\glm\core\type_vec4.inl
CONST	SEGMENT
??_C@_1FK@PFPGOKFD@?$AAc?$AA?3?$AA?2?$AAo?$AAp?$AAe?$AAn?$AAg?$AAl?$AA?2?$AAg?$AAl?$AAm?$AA?9?$AA0?$AA?4?$AA9?$AA?4?$AA3?$AA?4?$AA1?$AA?2?$AAg?$AAl?$AAm?$AA?2?$AAc?$AAo?$AAr?$AAe?$AA?2?$AAt@ DB 'c'
	DB	00H, ':', 00H, '\', 00H, 'o', 00H, 'p', 00H, 'e', 00H, 'n', 00H
	DB	'g', 00H, 'l', 00H, '\', 00H, 'g', 00H, 'l', 00H, 'm', 00H, '-'
	DB	00H, '0', 00H, '.', 00H, '9', 00H, '.', 00H, '3', 00H, '.', 00H
	DB	'1', 00H, '\', 00H, 'g', 00H, 'l', 00H, 'm', 00H, '\', 00H, 'c'
	DB	00H, 'o', 00H, 'r', 00H, 'e', 00H, '\', 00H, 't', 00H, 'y', 00H
	DB	'p', 00H, 'e', 00H, '_', 00H, 'v', 00H, 'e', 00H, 'c', 00H, '4'
	DB	00H, '.', 00H, 'i', 00H, 'n', 00H, 'l', 00H, 00H, 00H ; `string'
; Function compile flags: /Odtp /RTCsu /ZI
CONST	ENDS
;	COMDAT ??A?$tvec4@M@detail@glm@@QBEABMI@Z
_TEXT	SEGMENT
_this$ = -8						; size = 4
_i$ = 8							; size = 4
??A?$tvec4@M@detail@glm@@QBEABMI@Z PROC			; glm::detail::tvec4<float>::operator[], COMDAT
; _this$ = ecx

; 58   : 	{

	push	ebp
	mov	ebp, esp
	sub	esp, 204				; 000000ccH
	push	ebx
	push	esi
	push	edi
	push	ecx
	lea	edi, DWORD PTR [ebp-204]
	mov	ecx, 51					; 00000033H
	mov	eax, -858993460				; ccccccccH
	rep stosd
	pop	ecx
	mov	DWORD PTR _this$[ebp], ecx

; 59   : 		assert(i < this->length());

	mov	ecx, DWORD PTR _this$[ebp]
	call	?length@?$tvec4@M@detail@glm@@QBEIXZ	; glm::detail::tvec4<float>::length
	cmp	DWORD PTR _i$[ebp], eax
	jb	SHORT $LN3@operator@4
	mov	esi, esp
	push	59					; 0000003bH
	push	OFFSET ??_C@_1FK@PFPGOKFD@?$AAc?$AA?3?$AA?2?$AAo?$AAp?$AAe?$AAn?$AAg?$AAl?$AA?2?$AAg?$AAl?$AAm?$AA?9?$AA0?$AA?4?$AA9?$AA?4?$AA3?$AA?4?$AA1?$AA?2?$AAg?$AAl?$AAm?$AA?2?$AAc?$AAo?$AAr?$AAe?$AA?2?$AAt@
	push	OFFSET ??_C@_1CG@KOFHLCJL@?$AAi?$AA?5?$AA?$DM?$AA?5?$AAt?$AAh?$AAi?$AAs?$AA?9?$AA?$DO?$AAl?$AAe?$AAn?$AAg?$AAt?$AAh?$AA?$CI?$AA?$CJ?$AA?$AA@
	call	DWORD PTR __imp___wassert
	add	esp, 12					; 0000000cH
	cmp	esi, esp
	call	__RTC_CheckEsp
$LN3@operator@4:

; 60   : 		return (&x)[i];

	mov	eax, DWORD PTR _i$[ebp]
	mov	ecx, DWORD PTR _this$[ebp]
	lea	eax, DWORD PTR [ecx+eax*4]

; 61   : 	}

	pop	edi
	pop	esi
	pop	ebx
	add	esp, 204				; 000000ccH
	cmp	ebp, esp
	call	__RTC_CheckEsp
	mov	esp, ebp
	pop	ebp
	ret	4
??A?$tvec4@M@detail@glm@@QBEABMI@Z ENDP			; glm::detail::tvec4<float>::operator[]
; Function compile flags: /Odtp /RTCsu /ZI
_TEXT	ENDS
;	COMDAT ??A?$tvec4@M@detail@glm@@QAEAAMI@Z
_TEXT	SEGMENT
_this$ = -8						; size = 4
_i$ = 8							; size = 4
??A?$tvec4@M@detail@glm@@QAEAAMI@Z PROC			; glm::detail::tvec4<float>::operator[], COMDAT
; _this$ = ecx

; 47   : 	{

	push	ebp
	mov	ebp, esp
	sub	esp, 204				; 000000ccH
	push	ebx
	push	esi
	push	edi
	push	ecx
	lea	edi, DWORD PTR [ebp-204]
	mov	ecx, 51					; 00000033H
	mov	eax, -858993460				; ccccccccH
	rep stosd
	pop	ecx
	mov	DWORD PTR _this$[ebp], ecx

; 48   : 		assert(i < this->length());

	mov	ecx, DWORD PTR _this$[ebp]
	call	?length@?$tvec4@M@detail@glm@@QBEIXZ	; glm::detail::tvec4<float>::length
	cmp	DWORD PTR _i$[ebp], eax
	jb	SHORT $LN3@operator@5
	mov	esi, esp
	push	48					; 00000030H
	push	OFFSET ??_C@_1FK@PFPGOKFD@?$AAc?$AA?3?$AA?2?$AAo?$AAp?$AAe?$AAn?$AAg?$AAl?$AA?2?$AAg?$AAl?$AAm?$AA?9?$AA0?$AA?4?$AA9?$AA?4?$AA3?$AA?4?$AA1?$AA?2?$AAg?$AAl?$AAm?$AA?2?$AAc?$AAo?$AAr?$AAe?$AA?2?$AAt@
	push	OFFSET ??_C@_1CG@KOFHLCJL@?$AAi?$AA?5?$AA?$DM?$AA?5?$AAt?$AAh?$AAi?$AAs?$AA?9?$AA?$DO?$AAl?$AAe?$AAn?$AAg?$AAt?$AAh?$AA?$CI?$AA?$CJ?$AA?$AA@
	call	DWORD PTR __imp___wassert
	add	esp, 12					; 0000000cH
	cmp	esi, esp
	call	__RTC_CheckEsp
$LN3@operator@5:

; 49   : 		return (&x)[i];

	mov	eax, DWORD PTR _i$[ebp]
	mov	ecx, DWORD PTR _this$[ebp]
	lea	eax, DWORD PTR [ecx+eax*4]

; 50   : 	}

	pop	edi
	pop	esi
	pop	ebx
	add	esp, 204				; 000000ccH
	cmp	ebp, esp
	call	__RTC_CheckEsp
	mov	esp, ebp
	pop	ebp
	ret	4
??A?$tvec4@M@detail@glm@@QAEAAMI@Z ENDP			; glm::detail::tvec4<float>::operator[]
; Function compile flags: /Odtp /RTCsu /ZI
_TEXT	ENDS
;	COMDAT ??0?$tvec4@M@detail@glm@@QAE@ABU012@@Z
_TEXT	SEGMENT
_this$ = -8						; size = 4
_v$ = 8							; size = 4
??0?$tvec4@M@detail@glm@@QAE@ABU012@@Z PROC		; glm::detail::tvec4<float>::tvec4<float>, COMDAT
; _this$ = ecx

; 90   : 	{}

	push	ebp
	mov	ebp, esp
	sub	esp, 204				; 000000ccH
	push	ebx
	push	esi
	push	edi
	push	ecx
	lea	edi, DWORD PTR [ebp-204]
	mov	ecx, 51					; 00000033H
	mov	eax, -858993460				; ccccccccH
	rep stosd
	pop	ecx
	mov	DWORD PTR _this$[ebp], ecx
	mov	eax, DWORD PTR _this$[ebp]
	mov	ecx, DWORD PTR _v$[ebp]
	fld	DWORD PTR [ecx]
	fstp	DWORD PTR [eax]
	mov	eax, DWORD PTR _this$[ebp]
	mov	ecx, DWORD PTR _v$[ebp]
	fld	DWORD PTR [ecx+4]
	fstp	DWORD PTR [eax+4]
	mov	eax, DWORD PTR _this$[ebp]
	mov	ecx, DWORD PTR _v$[ebp]
	fld	DWORD PTR [ecx+8]
	fstp	DWORD PTR [eax+8]
	mov	eax, DWORD PTR _this$[ebp]
	mov	ecx, DWORD PTR _v$[ebp]
	fld	DWORD PTR [ecx+12]
	fstp	DWORD PTR [eax+12]
	mov	eax, DWORD PTR _this$[ebp]
	pop	edi
	pop	esi
	pop	ebx
	mov	esp, ebp
	pop	ebp
	ret	4
??0?$tvec4@M@detail@glm@@QAE@ABU012@@Z ENDP		; glm::detail::tvec4<float>::tvec4<float>
; Function compile flags: /Odtp /RTCsu /ZI
_TEXT	ENDS
;	COMDAT ??0?$tvec4@M@detail@glm@@QAE@XZ
_TEXT	SEGMENT
_this$ = -8						; size = 4
??0?$tvec4@M@detail@glm@@QAE@XZ PROC			; glm::detail::tvec4<float>::tvec4<float>, COMDAT
; _this$ = ecx

; 72   : 	{}

	push	ebp
	mov	ebp, esp
	sub	esp, 204				; 000000ccH
	push	ebx
	push	esi
	push	edi
	push	ecx
	lea	edi, DWORD PTR [ebp-204]
	mov	ecx, 51					; 00000033H
	mov	eax, -858993460				; ccccccccH
	rep stosd
	pop	ecx
	mov	DWORD PTR _this$[ebp], ecx
	mov	eax, DWORD PTR _this$[ebp]
	fldz
	fstp	DWORD PTR [eax]
	mov	eax, DWORD PTR _this$[ebp]
	fldz
	fstp	DWORD PTR [eax+4]
	mov	eax, DWORD PTR _this$[ebp]
	fldz
	fstp	DWORD PTR [eax+8]
	mov	eax, DWORD PTR _this$[ebp]
	fldz
	fstp	DWORD PTR [eax+12]
	mov	eax, DWORD PTR _this$[ebp]
	pop	edi
	pop	esi
	pop	ebx
	mov	esp, ebp
	pop	ebp
	ret	0
??0?$tvec4@M@detail@glm@@QAE@XZ ENDP			; glm::detail::tvec4<float>::tvec4<float>
; Function compile flags: /Odtp /RTCsu /ZI
_TEXT	ENDS
;	COMDAT ??4?$tvec4@M@detail@glm@@QAEAAU012@ABU012@@Z
_TEXT	SEGMENT
_this$ = -8						; size = 4
_v$ = 8							; size = 4
??4?$tvec4@M@detail@glm@@QAEAAU012@ABU012@@Z PROC	; glm::detail::tvec4<float>::operator=, COMDAT
; _this$ = ecx

; 375  : 	{

	push	ebp
	mov	ebp, esp
	sub	esp, 204				; 000000ccH
	push	ebx
	push	esi
	push	edi
	push	ecx
	lea	edi, DWORD PTR [ebp-204]
	mov	ecx, 51					; 00000033H
	mov	eax, -858993460				; ccccccccH
	rep stosd
	pop	ecx
	mov	DWORD PTR _this$[ebp], ecx

; 376  : 		this->x = v.x;

	mov	eax, DWORD PTR _this$[ebp]
	mov	ecx, DWORD PTR _v$[ebp]
	fld	DWORD PTR [ecx]
	fstp	DWORD PTR [eax]

; 377  : 		this->y = v.y;

	mov	eax, DWORD PTR _this$[ebp]
	mov	ecx, DWORD PTR _v$[ebp]
	fld	DWORD PTR [ecx+4]
	fstp	DWORD PTR [eax+4]

; 378  : 		this->z = v.z;

	mov	eax, DWORD PTR _this$[ebp]
	mov	ecx, DWORD PTR _v$[ebp]
	fld	DWORD PTR [ecx+8]
	fstp	DWORD PTR [eax+8]

; 379  : 		this->w = v.w;

	mov	eax, DWORD PTR _this$[ebp]
	mov	ecx, DWORD PTR _v$[ebp]
	fld	DWORD PTR [ecx+12]
	fstp	DWORD PTR [eax+12]

; 380  : 		return *this;

	mov	eax, DWORD PTR _this$[ebp]

; 381  : 	}

	pop	edi
	pop	esi
	pop	ebx
	mov	esp, ebp
	pop	ebp
	ret	4
??4?$tvec4@M@detail@glm@@QAEAAU012@ABU012@@Z ENDP	; glm::detail::tvec4<float>::operator=
; Function compile flags: /Odtp /RTCsu /ZI
; File c:\opengl\glm-0.9.3.1\glm\core\type_mat4x4.inl
_TEXT	ENDS
;	COMDAT ?length@?$tmat4x4@M@detail@glm@@QBEIXZ
_TEXT	SEGMENT
_this$ = -8						; size = 4
?length@?$tmat4x4@M@detail@glm@@QBEIXZ PROC		; glm::detail::tmat4x4<float>::length, COMDAT
; _this$ = ecx

; 34   :     {

	push	ebp
	mov	ebp, esp
	sub	esp, 204				; 000000ccH
	push	ebx
	push	esi
	push	edi
	push	ecx
	lea	edi, DWORD PTR [ebp-204]
	mov	ecx, 51					; 00000033H
	mov	eax, -858993460				; ccccccccH
	rep stosd
	pop	ecx
	mov	DWORD PTR _this$[ebp], ecx

; 35   :         return 4;

	mov	eax, 4

; 36   :     }

	pop	edi
	pop	esi
	pop	ebx
	mov	esp, ebp
	pop	ebp
	ret	0
?length@?$tmat4x4@M@detail@glm@@QBEIXZ ENDP		; glm::detail::tmat4x4<float>::length
; Function compile flags: /Odtp /RTCsu /ZI
_TEXT	ENDS
;	COMDAT ??0?$tmat4x4@M@detail@glm@@QAE@ABM@Z
_TEXT	SEGMENT
$T70914 = -308						; size = 16
$T70915 = -284						; size = 16
$T70916 = -260						; size = 16
$T70917 = -236						; size = 16
_Zero$ = -20						; size = 4
_this$ = -8						; size = 4
_s$ = 8							; size = 4
??0?$tmat4x4@M@detail@glm@@QAE@ABM@Z PROC		; glm::detail::tmat4x4<float>::tmat4x4<float>, COMDAT
; _this$ = ecx

; 113  :     {

	push	ebp
	mov	ebp, esp
	sub	esp, 312				; 00000138H
	push	ebx
	push	esi
	push	edi
	push	ecx
	lea	edi, DWORD PTR [ebp-312]
	mov	ecx, 78					; 0000004eH
	mov	eax, -858993460				; ccccccccH
	rep stosd
	pop	ecx
	mov	DWORD PTR _this$[ebp], ecx
	push	OFFSET ??0?$tvec4@M@detail@glm@@QAE@XZ	; glm::detail::tvec4<float>::tvec4<float>
	push	4
	push	16					; 00000010H
	mov	eax, DWORD PTR _this$[ebp]
	push	eax
	call	??_H@YGXPAXIHP6EPAX0@Z@Z

; 114  : 		value_type const Zero(0);

	fldz
	fstp	DWORD PTR _Zero$[ebp]

; 115  :         this->value[0] = col_type(s, Zero, Zero, Zero);

	lea	eax, DWORD PTR _Zero$[ebp]
	push	eax
	lea	ecx, DWORD PTR _Zero$[ebp]
	push	ecx
	lea	edx, DWORD PTR _Zero$[ebp]
	push	edx
	mov	eax, DWORD PTR _s$[ebp]
	push	eax
	lea	ecx, DWORD PTR $T70914[ebp]
	call	??0?$tvec4@M@detail@glm@@QAE@ABM000@Z	; glm::detail::tvec4<float>::tvec4<float>
	push	eax
	mov	ecx, DWORD PTR _this$[ebp]
	call	??4?$tvec4@M@detail@glm@@QAEAAU012@ABU012@@Z ; glm::detail::tvec4<float>::operator=

; 116  :         this->value[1] = col_type(Zero, s, Zero, Zero);

	lea	eax, DWORD PTR _Zero$[ebp]
	push	eax
	lea	ecx, DWORD PTR _Zero$[ebp]
	push	ecx
	mov	edx, DWORD PTR _s$[ebp]
	push	edx
	lea	eax, DWORD PTR _Zero$[ebp]
	push	eax
	lea	ecx, DWORD PTR $T70915[ebp]
	call	??0?$tvec4@M@detail@glm@@QAE@ABM000@Z	; glm::detail::tvec4<float>::tvec4<float>
	push	eax
	mov	ecx, DWORD PTR _this$[ebp]
	add	ecx, 16					; 00000010H
	call	??4?$tvec4@M@detail@glm@@QAEAAU012@ABU012@@Z ; glm::detail::tvec4<float>::operator=

; 117  :         this->value[2] = col_type(Zero, Zero, s, Zero);

	lea	eax, DWORD PTR _Zero$[ebp]
	push	eax
	mov	ecx, DWORD PTR _s$[ebp]
	push	ecx
	lea	edx, DWORD PTR _Zero$[ebp]
	push	edx
	lea	eax, DWORD PTR _Zero$[ebp]
	push	eax
	lea	ecx, DWORD PTR $T70916[ebp]
	call	??0?$tvec4@M@detail@glm@@QAE@ABM000@Z	; glm::detail::tvec4<float>::tvec4<float>
	push	eax
	mov	ecx, DWORD PTR _this$[ebp]
	add	ecx, 32					; 00000020H
	call	??4?$tvec4@M@detail@glm@@QAEAAU012@ABU012@@Z ; glm::detail::tvec4<float>::operator=

; 118  :         this->value[3] = col_type(Zero, Zero, Zero, s);

	mov	eax, DWORD PTR _s$[ebp]
	push	eax
	lea	ecx, DWORD PTR _Zero$[ebp]
	push	ecx
	lea	edx, DWORD PTR _Zero$[ebp]
	push	edx
	lea	eax, DWORD PTR _Zero$[ebp]
	push	eax
	lea	ecx, DWORD PTR $T70917[ebp]
	call	??0?$tvec4@M@detail@glm@@QAE@ABM000@Z	; glm::detail::tvec4<float>::tvec4<float>
	push	eax
	mov	ecx, DWORD PTR _this$[ebp]
	add	ecx, 48					; 00000030H
	call	??4?$tvec4@M@detail@glm@@QAEAAU012@ABU012@@Z ; glm::detail::tvec4<float>::operator=

; 119  :     }

	mov	eax, DWORD PTR _this$[ebp]
	push	edx
	mov	ecx, ebp
	push	eax
	lea	edx, DWORD PTR $LN5@tmat4x4@3
	call	@_RTC_CheckStackVars@8
	pop	eax
	pop	edx
	pop	edi
	pop	esi
	pop	ebx
	add	esp, 312				; 00000138H
	cmp	ebp, esp
	call	__RTC_CheckEsp
	mov	esp, ebp
	pop	ebp
	ret	4
	npad	3
$LN5@tmat4x4@3:
	DD	1
	DD	$LN4@tmat4x4@3
$LN4@tmat4x4@3:
	DD	-20					; ffffffecH
	DD	4
	DD	$LN3@tmat4x4@3
$LN3@tmat4x4@3:
	DB	90					; 0000005aH
	DB	101					; 00000065H
	DB	114					; 00000072H
	DB	111					; 0000006fH
	DB	0
??0?$tmat4x4@M@detail@glm@@QAE@ABM@Z ENDP		; glm::detail::tmat4x4<float>::tmat4x4<float>
; Function compile flags: /Odtp /RTCsu /ZI
_TEXT	ENDS
;	COMDAT ??0?$tmat4x4@M@detail@glm@@QAE@W4ctor@012@@Z
_TEXT	SEGMENT
_this$ = -8						; size = 4
___formal$ = 8						; size = 4
??0?$tmat4x4@M@detail@glm@@QAE@W4ctor@012@@Z PROC	; glm::detail::tmat4x4<float>::tmat4x4<float>, COMDAT
; _this$ = ecx

; 106  :     {}

	push	ebp
	mov	ebp, esp
	sub	esp, 204				; 000000ccH
	push	ebx
	push	esi
	push	edi
	push	ecx
	lea	edi, DWORD PTR [ebp-204]
	mov	ecx, 51					; 00000033H
	mov	eax, -858993460				; ccccccccH
	rep stosd
	pop	ecx
	mov	DWORD PTR _this$[ebp], ecx
	push	OFFSET ??0?$tvec4@M@detail@glm@@QAE@XZ	; glm::detail::tvec4<float>::tvec4<float>
	push	4
	push	16					; 00000010H
	mov	eax, DWORD PTR _this$[ebp]
	push	eax
	call	??_H@YGXPAXIHP6EPAX0@Z@Z
	mov	eax, DWORD PTR _this$[ebp]
	pop	edi
	pop	esi
	pop	ebx
	add	esp, 204				; 000000ccH
	cmp	ebp, esp
	call	__RTC_CheckEsp
	mov	esp, ebp
	pop	ebp
	ret	4
??0?$tmat4x4@M@detail@glm@@QAE@W4ctor@012@@Z ENDP	; glm::detail::tmat4x4<float>::tmat4x4<float>
; Function compile flags: /Odtp /RTCsu /ZI
_TEXT	ENDS
;	COMDAT ??A?$tmat4x4@M@detail@glm@@QBEABU?$tvec4@M@12@I@Z
_TEXT	SEGMENT
_this$ = -8						; size = 4
_i$ = 8							; size = 4
??A?$tmat4x4@M@detail@glm@@QBEABU?$tvec4@M@12@I@Z PROC	; glm::detail::tmat4x4<float>::operator[], COMDAT
; _this$ = ecx

; 70   : 	{

	push	ebp
	mov	ebp, esp
	sub	esp, 204				; 000000ccH
	push	ebx
	push	esi
	push	edi
	push	ecx
	lea	edi, DWORD PTR [ebp-204]
	mov	ecx, 51					; 00000033H
	mov	eax, -858993460				; ccccccccH
	rep stosd
	pop	ecx
	mov	DWORD PTR _this$[ebp], ecx

; 71   : 		assert(i < this->length());

	mov	ecx, DWORD PTR _this$[ebp]
	call	?length@?$tmat4x4@M@detail@glm@@QBEIXZ	; glm::detail::tmat4x4<float>::length
	cmp	DWORD PTR _i$[ebp], eax
	jb	SHORT $LN3@operator@6
	mov	esi, esp
	push	71					; 00000047H
	push	OFFSET ??_C@_1FO@LCBJDNCK@?$AAc?$AA?3?$AA?2?$AAo?$AAp?$AAe?$AAn?$AAg?$AAl?$AA?2?$AAg?$AAl?$AAm?$AA?9?$AA0?$AA?4?$AA9?$AA?4?$AA3?$AA?4?$AA1?$AA?2?$AAg?$AAl?$AAm?$AA?2?$AAc?$AAo?$AAr?$AAe?$AA?2?$AAt@
	push	OFFSET ??_C@_1CG@KOFHLCJL@?$AAi?$AA?5?$AA?$DM?$AA?5?$AAt?$AAh?$AAi?$AAs?$AA?9?$AA?$DO?$AAl?$AAe?$AAn?$AAg?$AAt?$AAh?$AA?$CI?$AA?$CJ?$AA?$AA@
	call	DWORD PTR __imp___wassert
	add	esp, 12					; 0000000cH
	cmp	esi, esp
	call	__RTC_CheckEsp
$LN3@operator@6:

; 72   : 		return this->value[i];

	mov	eax, DWORD PTR _i$[ebp]
	shl	eax, 4
	add	eax, DWORD PTR _this$[ebp]

; 73   : 	}

	pop	edi
	pop	esi
	pop	ebx
	add	esp, 204				; 000000ccH
	cmp	ebp, esp
	call	__RTC_CheckEsp
	mov	esp, ebp
	pop	ebp
	ret	4
??A?$tmat4x4@M@detail@glm@@QBEABU?$tvec4@M@12@I@Z ENDP	; glm::detail::tmat4x4<float>::operator[]
_TEXT	ENDS
PUBLIC	__real@4066800000000000
PUBLIC	__real@40490fdb
;	COMDAT __real@4066800000000000
; File c:\opengl\glm-0.9.3.1\glm\core\func_trigonometric.inl
CONST	SEGMENT
__real@4066800000000000 DQ 04066800000000000r	; 180
CONST	ENDS
;	COMDAT __real@40490fdb
CONST	SEGMENT
__real@40490fdb DD 040490fdbr			; 3.14159
; Function compile flags: /Odtp /RTCsu /ZI
CONST	ENDS
;	COMDAT ??$radians@M@glm@@YAMABM@Z
_TEXT	SEGMENT
tv73 = -208						; size = 4
_pi$ = -8						; size = 4
_degrees$ = 8						; size = 4
??$radians@M@glm@@YAMABM@Z PROC				; glm::radians<float>, COMDAT

; 39   : 	{

	push	ebp
	mov	ebp, esp
	sub	esp, 208				; 000000d0H
	push	ebx
	push	esi
	push	edi
	lea	edi, DWORD PTR [ebp-208]
	mov	ecx, 52					; 00000034H
	mov	eax, -858993460				; ccccccccH
	rep stosd

; 40   : 		GLM_STATIC_ASSERT(detail::type<genType>::is_float, "'radians' only accept floating-point input");
; 41   : 
; 42   : 		genType const pi = genType(3.1415926535897932384626433832795);

	fld	DWORD PTR __real@40490fdb
	fstp	DWORD PTR _pi$[ebp]

; 43   : 		return degrees * (pi / genType(180));

	fld	DWORD PTR _pi$[ebp]
	fdiv	QWORD PTR __real@4066800000000000
	mov	eax, DWORD PTR _degrees$[ebp]
	fmul	DWORD PTR [eax]
	fstp	DWORD PTR tv73[ebp]
	fld	DWORD PTR tv73[ebp]

; 44   : 	}

	pop	edi
	pop	esi
	pop	ebx
	mov	esp, ebp
	pop	ebp
	ret	0
??$radians@M@glm@@YAMABM@Z ENDP				; glm::radians<float>
_TEXT	ENDS
PUBLIC	?cos@@YAMM@Z					; cos
; Function compile flags: /Odtp /RTCsu /ZI
;	COMDAT ??$cos@M@glm@@YAMABM@Z
_TEXT	SEGMENT
_angle$ = 8						; size = 4
??$cos@M@glm@@YAMABM@Z PROC				; glm::cos<float>, COMDAT

; 80   : 	{

	push	ebp
	mov	ebp, esp
	sub	esp, 192				; 000000c0H
	push	ebx
	push	esi
	push	edi
	lea	edi, DWORD PTR [ebp-192]
	mov	ecx, 48					; 00000030H
	mov	eax, -858993460				; ccccccccH
	rep stosd

; 81   : 		GLM_STATIC_ASSERT(detail::type<genType>::is_float, "'cos' only accept floating-point input");
; 82   : 
; 83   : 		return ::std::cos(angle);

	mov	eax, DWORD PTR _angle$[ebp]
	push	ecx
	fld	DWORD PTR [eax]
	fstp	DWORD PTR [esp]
	call	?cos@@YAMM@Z				; cos
	add	esp, 4

; 84   : 	}

	pop	edi
	pop	esi
	pop	ebx
	add	esp, 192				; 000000c0H
	cmp	ebp, esp
	call	__RTC_CheckEsp
	mov	esp, ebp
	pop	ebp
	ret	0
??$cos@M@glm@@YAMABM@Z ENDP				; glm::cos<float>
_TEXT	ENDS
PUBLIC	_cosf
; Function compile flags: /Odtp /RTCsu /ZI
; File c:\program files (x86)\microsoft visual studio 10.0\vc\include\math.h
;	COMDAT ?cos@@YAMM@Z
_TEXT	SEGMENT
__X$ = 8						; size = 4
?cos@@YAMM@Z PROC					; cos, COMDAT

; 512  :         {return (cosf(_X)); }

	push	ebp
	mov	ebp, esp
	sub	esp, 192				; 000000c0H
	push	ebx
	push	esi
	push	edi
	lea	edi, DWORD PTR [ebp-192]
	mov	ecx, 48					; 00000030H
	mov	eax, -858993460				; ccccccccH
	rep stosd
	push	ecx
	fld	DWORD PTR __X$[ebp]
	fstp	DWORD PTR [esp]
	call	_cosf
	add	esp, 4
	pop	edi
	pop	esi
	pop	ebx
	add	esp, 192				; 000000c0H
	cmp	ebp, esp
	call	__RTC_CheckEsp
	mov	esp, ebp
	pop	ebp
	ret	0
?cos@@YAMM@Z ENDP					; cos
_TEXT	ENDS
EXTRN	_cos:PROC
; Function compile flags: /Odtp /RTCsu /ZI
;	COMDAT _cosf
_TEXT	SEGMENT
tv73 = -196						; size = 4
__X$ = 8						; size = 4
_cosf	PROC						; COMDAT

; 410  :         {return ((float)cos((double)_X)); }

	push	ebp
	mov	ebp, esp
	sub	esp, 196				; 000000c4H
	push	ebx
	push	esi
	push	edi
	lea	edi, DWORD PTR [ebp-196]
	mov	ecx, 49					; 00000031H
	mov	eax, -858993460				; ccccccccH
	rep stosd
	fld	DWORD PTR __X$[ebp]
	sub	esp, 8
	fstp	QWORD PTR [esp]
	call	_cos
	add	esp, 8
	fstp	DWORD PTR tv73[ebp]
	fld	DWORD PTR tv73[ebp]
	pop	edi
	pop	esi
	pop	ebx
	add	esp, 196				; 000000c4H
	cmp	ebp, esp
	call	__RTC_CheckEsp
	mov	esp, ebp
	pop	ebp
	ret	0
_cosf	ENDP
_TEXT	ENDS
PUBLIC	?sin@@YAMM@Z					; sin
; Function compile flags: /Odtp /RTCsu /ZI
; File c:\opengl\glm-0.9.3.1\glm\core\func_trigonometric.inl
;	COMDAT ??$sin@M@glm@@YAMABM@Z
_TEXT	SEGMENT
_angle$ = 8						; size = 4
??$sin@M@glm@@YAMABM@Z PROC				; glm::sin<float>, COMDAT

; 69   : 	{

	push	ebp
	mov	ebp, esp
	sub	esp, 192				; 000000c0H
	push	ebx
	push	esi
	push	edi
	lea	edi, DWORD PTR [ebp-192]
	mov	ecx, 48					; 00000030H
	mov	eax, -858993460				; ccccccccH
	rep stosd

; 70   : 		GLM_STATIC_ASSERT(detail::type<genType>::is_float, "'sin' only accept floating-point input");
; 71   : 
; 72   : 		return ::std::sin(angle);

	mov	eax, DWORD PTR _angle$[ebp]
	push	ecx
	fld	DWORD PTR [eax]
	fstp	DWORD PTR [esp]
	call	?sin@@YAMM@Z				; sin
	add	esp, 4

; 73   : 	}

	pop	edi
	pop	esi
	pop	ebx
	add	esp, 192				; 000000c0H
	cmp	ebp, esp
	call	__RTC_CheckEsp
	mov	esp, ebp
	pop	ebp
	ret	0
??$sin@M@glm@@YAMABM@Z ENDP				; glm::sin<float>
_TEXT	ENDS
PUBLIC	_sinf
; Function compile flags: /Odtp /RTCsu /ZI
; File c:\program files (x86)\microsoft visual studio 10.0\vc\include\math.h
;	COMDAT ?sin@@YAMM@Z
_TEXT	SEGMENT
__X$ = 8						; size = 4
?sin@@YAMM@Z PROC					; sin, COMDAT

; 538  :         {return (sinf(_X)); }

	push	ebp
	mov	ebp, esp
	sub	esp, 192				; 000000c0H
	push	ebx
	push	esi
	push	edi
	lea	edi, DWORD PTR [ebp-192]
	mov	ecx, 48					; 00000030H
	mov	eax, -858993460				; ccccccccH
	rep stosd
	push	ecx
	fld	DWORD PTR __X$[ebp]
	fstp	DWORD PTR [esp]
	call	_sinf
	add	esp, 4
	pop	edi
	pop	esi
	pop	ebx
	add	esp, 192				; 000000c0H
	cmp	ebp, esp
	call	__RTC_CheckEsp
	mov	esp, ebp
	pop	ebp
	ret	0
?sin@@YAMM@Z ENDP					; sin
_TEXT	ENDS
EXTRN	_sin:PROC
; Function compile flags: /Odtp /RTCsu /ZI
;	COMDAT _sinf
_TEXT	SEGMENT
tv73 = -196						; size = 4
__X$ = 8						; size = 4
_sinf	PROC						; COMDAT

; 430  :         {return ((float)sin((double)_X)); }

	push	ebp
	mov	ebp, esp
	sub	esp, 196				; 000000c4H
	push	ebx
	push	esi
	push	edi
	lea	edi, DWORD PTR [ebp-196]
	mov	ecx, 49					; 00000031H
	mov	eax, -858993460				; ccccccccH
	rep stosd
	fld	DWORD PTR __X$[ebp]
	sub	esp, 8
	fstp	QWORD PTR [esp]
	call	_sin
	add	esp, 8
	fstp	DWORD PTR tv73[ebp]
	fld	DWORD PTR tv73[ebp]
	pop	edi
	pop	esi
	pop	ebx
	add	esp, 196				; 000000c4H
	cmp	ebp, esp
	call	__RTC_CheckEsp
	mov	esp, ebp
	pop	ebp
	ret	0
_sinf	ENDP
; Function compile flags: /Odtp /RTCsu /ZI
; File c:\opengl\glm-0.9.3.1\glm\core\type_vec3.inl
_TEXT	ENDS
;	COMDAT ??$?DM@detail@glm@@YA?AU?$tvec3@M@01@ABMABU201@@Z
_TEXT	SEGMENT
$T70946 = -224						; size = 4
$T70947 = -212						; size = 4
$T70948 = -200						; size = 4
___$ReturnUdt$ = 8					; size = 4
_s$ = 12						; size = 4
_v$ = 16						; size = 4
??$?DM@detail@glm@@YA?AU?$tvec3@M@01@ABMABU201@@Z PROC	; glm::detail::operator*<float>, COMDAT

; 743  : 	{

	push	ebp
	mov	ebp, esp
	sub	esp, 228				; 000000e4H
	push	ebx
	push	esi
	push	edi
	lea	edi, DWORD PTR [ebp-228]
	mov	ecx, 57					; 00000039H
	mov	eax, -858993460				; ccccccccH
	rep stosd

; 744  : 		return tvec3<T>(
; 745  : 			T(s) * v.x,
; 746  : 			T(s) * v.y,
; 747  : 			T(s) * v.z);

	mov	eax, DWORD PTR _s$[ebp]
	fld	DWORD PTR [eax]
	mov	ecx, DWORD PTR _v$[ebp]
	fmul	DWORD PTR [ecx+8]
	fstp	DWORD PTR $T70946[ebp]
	mov	edx, DWORD PTR _s$[ebp]
	fld	DWORD PTR [edx]
	mov	eax, DWORD PTR _v$[ebp]
	fmul	DWORD PTR [eax+4]
	fstp	DWORD PTR $T70947[ebp]
	mov	ecx, DWORD PTR _s$[ebp]
	fld	DWORD PTR [ecx]
	mov	edx, DWORD PTR _v$[ebp]
	fmul	DWORD PTR [edx]
	fstp	DWORD PTR $T70948[ebp]
	lea	eax, DWORD PTR $T70946[ebp]
	push	eax
	lea	ecx, DWORD PTR $T70947[ebp]
	push	ecx
	lea	edx, DWORD PTR $T70948[ebp]
	push	edx
	mov	ecx, DWORD PTR ___$ReturnUdt$[ebp]
	call	??0?$tvec3@M@detail@glm@@QAE@ABM00@Z	; glm::detail::tvec3<float>::tvec3<float>
	mov	eax, DWORD PTR ___$ReturnUdt$[ebp]

; 748  : 	}

	pop	edi
	pop	esi
	pop	ebx
	add	esp, 228				; 000000e4H
	cmp	ebp, esp
	call	__RTC_CheckEsp
	mov	esp, ebp
	pop	ebp
	ret	0
??$?DM@detail@glm@@YA?AU?$tvec3@M@01@ABMABU201@@Z ENDP	; glm::detail::operator*<float>
; Function compile flags: /Odtp /RTCsu /ZI
; File c:\opengl\glm-0.9.3.1\glm\core\type_vec4.inl
_TEXT	ENDS
;	COMDAT ??$?HM@detail@glm@@YA?AU?$tvec4@M@01@ABU201@0@Z
_TEXT	SEGMENT
$T70951 = -236						; size = 4
$T70952 = -224						; size = 4
$T70953 = -212						; size = 4
$T70954 = -200						; size = 4
___$ReturnUdt$ = 8					; size = 4
_v1$ = 12						; size = 4
_v2$ = 16						; size = 4
??$?HM@detail@glm@@YA?AU?$tvec4@M@01@ABU201@0@Z PROC	; glm::detail::operator+<float>, COMDAT

; 834  : 	{

	push	ebp
	mov	ebp, esp
	sub	esp, 240				; 000000f0H
	push	ebx
	push	esi
	push	edi
	lea	edi, DWORD PTR [ebp-240]
	mov	ecx, 60					; 0000003cH
	mov	eax, -858993460				; ccccccccH
	rep stosd

; 835  : 		return tvec4<T>(
; 836  : 			v1.x + v2.x,
; 837  : 			v1.y + v2.y,
; 838  : 			v1.z + v2.z,
; 839  : 			v1.w + v2.w);

	mov	eax, DWORD PTR _v1$[ebp]
	fld	DWORD PTR [eax+12]
	mov	ecx, DWORD PTR _v2$[ebp]
	fadd	DWORD PTR [ecx+12]
	fstp	DWORD PTR $T70951[ebp]
	mov	edx, DWORD PTR _v1$[ebp]
	fld	DWORD PTR [edx+8]
	mov	eax, DWORD PTR _v2$[ebp]
	fadd	DWORD PTR [eax+8]
	fstp	DWORD PTR $T70952[ebp]
	mov	ecx, DWORD PTR _v1$[ebp]
	fld	DWORD PTR [ecx+4]
	mov	edx, DWORD PTR _v2$[ebp]
	fadd	DWORD PTR [edx+4]
	fstp	DWORD PTR $T70953[ebp]
	mov	eax, DWORD PTR _v1$[ebp]
	fld	DWORD PTR [eax]
	mov	ecx, DWORD PTR _v2$[ebp]
	fadd	DWORD PTR [ecx]
	fstp	DWORD PTR $T70954[ebp]
	lea	edx, DWORD PTR $T70951[ebp]
	push	edx
	lea	eax, DWORD PTR $T70952[ebp]
	push	eax
	lea	ecx, DWORD PTR $T70953[ebp]
	push	ecx
	lea	edx, DWORD PTR $T70954[ebp]
	push	edx
	mov	ecx, DWORD PTR ___$ReturnUdt$[ebp]
	call	??0?$tvec4@M@detail@glm@@QAE@ABM000@Z	; glm::detail::tvec4<float>::tvec4<float>
	mov	eax, DWORD PTR ___$ReturnUdt$[ebp]

; 840  : 	}

	pop	edi
	pop	esi
	pop	ebx
	add	esp, 240				; 000000f0H
	cmp	ebp, esp
	call	__RTC_CheckEsp
	mov	esp, ebp
	pop	ebp
	ret	0
??$?HM@detail@glm@@YA?AU?$tvec4@M@01@ABU201@0@Z ENDP	; glm::detail::operator+<float>
_TEXT	ENDS
PUBLIC	?sqrt@@YAMM@Z					; sqrt
; Function compile flags: /Odtp /RTCsu /ZI
; File c:\opengl\glm-0.9.3.1\glm\core\func_exponential.inl
;	COMDAT ??$inversesqrt@M@glm@@YAMABM@Z
_TEXT	SEGMENT
tv76 = -196						; size = 4
_x$ = 8							; size = 4
??$inversesqrt@M@glm@@YAMABM@Z PROC			; glm::inversesqrt<float>, COMDAT

; 149  :     {

	push	ebp
	mov	ebp, esp
	sub	esp, 196				; 000000c4H
	push	ebx
	push	esi
	push	edi
	lea	edi, DWORD PTR [ebp-196]
	mov	ecx, 49					; 00000031H
	mov	eax, -858993460				; ccccccccH
	rep stosd

; 150  : 		GLM_STATIC_ASSERT(detail::type<genType>::is_float, "'inversesqrt' only accept floating-point input");
; 151  : 
; 152  :         return genType(1) / ::std::sqrt(x);

	mov	eax, DWORD PTR _x$[ebp]
	push	ecx
	fld	DWORD PTR [eax]
	fstp	DWORD PTR [esp]
	call	?sqrt@@YAMM@Z				; sqrt
	add	esp, 4
	fld1
	fdivrp	ST(1), ST(0)
	fstp	DWORD PTR tv76[ebp]
	fld	DWORD PTR tv76[ebp]

; 153  :     }

	pop	edi
	pop	esi
	pop	ebx
	add	esp, 196				; 000000c4H
	cmp	ebp, esp
	call	__RTC_CheckEsp
	mov	esp, ebp
	pop	ebp
	ret	0
??$inversesqrt@M@glm@@YAMABM@Z ENDP			; glm::inversesqrt<float>
_TEXT	ENDS
PUBLIC	_sqrtf
; Function compile flags: /Odtp /RTCsu /ZI
; File c:\program files (x86)\microsoft visual studio 10.0\vc\include\math.h
;	COMDAT ?sqrt@@YAMM@Z
_TEXT	SEGMENT
__X$ = 8						; size = 4
?sqrt@@YAMM@Z PROC					; sqrt, COMDAT

; 542  :         {return (sqrtf(_X)); }

	push	ebp
	mov	ebp, esp
	sub	esp, 192				; 000000c0H
	push	ebx
	push	esi
	push	edi
	lea	edi, DWORD PTR [ebp-192]
	mov	ecx, 48					; 00000030H
	mov	eax, -858993460				; ccccccccH
	rep stosd
	push	ecx
	fld	DWORD PTR __X$[ebp]
	fstp	DWORD PTR [esp]
	call	_sqrtf
	add	esp, 4
	pop	edi
	pop	esi
	pop	ebx
	add	esp, 192				; 000000c0H
	cmp	ebp, esp
	call	__RTC_CheckEsp
	mov	esp, ebp
	pop	ebp
	ret	0
?sqrt@@YAMM@Z ENDP					; sqrt
_TEXT	ENDS
EXTRN	_sqrt:PROC
; Function compile flags: /Odtp /RTCsu /ZI
;	COMDAT _sqrtf
_TEXT	SEGMENT
tv73 = -196						; size = 4
__X$ = 8						; size = 4
_sqrtf	PROC						; COMDAT

; 434  :         {return ((float)sqrt((double)_X)); }

	push	ebp
	mov	ebp, esp
	sub	esp, 196				; 000000c4H
	push	ebx
	push	esi
	push	edi
	lea	edi, DWORD PTR [ebp-196]
	mov	ecx, 49					; 00000031H
	mov	eax, -858993460				; ccccccccH
	rep stosd
	fld	DWORD PTR __X$[ebp]
	sub	esp, 8
	fstp	QWORD PTR [esp]
	call	_sqrt
	add	esp, 8
	fstp	DWORD PTR tv73[ebp]
	fld	DWORD PTR tv73[ebp]
	pop	edi
	pop	esi
	pop	ebx
	add	esp, 196				; 000000c4H
	cmp	ebp, esp
	call	__RTC_CheckEsp
	mov	esp, ebp
	pop	ebp
	ret	0
_sqrtf	ENDP
; Function compile flags: /Odtp /RTCsu /ZI
; File c:\opengl\glm-0.9.3.1\glm\core\func_geometric.inl
_TEXT	ENDS
;	COMDAT ??$cross@M@glm@@YA?AU?$tvec3@M@detail@0@ABU120@0@Z
_TEXT	SEGMENT
$T70963 = -224						; size = 4
$T70964 = -212						; size = 4
$T70965 = -200						; size = 4
___$ReturnUdt$ = 8					; size = 4
_x$ = 12						; size = 4
_y$ = 16						; size = 4
??$cross@M@glm@@YA?AU?$tvec3@M@detail@0@ABU120@0@Z PROC	; glm::cross<float>, COMDAT

; 204  :     {

	push	ebp
	mov	ebp, esp
	sub	esp, 228				; 000000e4H
	push	ebx
	push	esi
	push	edi
	lea	edi, DWORD PTR [ebp-228]
	mov	ecx, 57					; 00000039H
	mov	eax, -858993460				; ccccccccH
	rep stosd

; 205  : 		GLM_STATIC_ASSERT(detail::type<T>::is_float, "'cross' only accept floating-point inputs");
; 206  : 
; 207  :         return detail::tvec3<T>(
; 208  :             x.y * y.z - y.y * x.z,
; 209  :             x.z * y.x - y.z * x.x,
; 210  :             x.x * y.y - y.x * x.y);

	mov	eax, DWORD PTR _x$[ebp]
	fld	DWORD PTR [eax]
	mov	ecx, DWORD PTR _y$[ebp]
	fmul	DWORD PTR [ecx+4]
	mov	edx, DWORD PTR _y$[ebp]
	fld	DWORD PTR [edx]
	mov	eax, DWORD PTR _x$[ebp]
	fmul	DWORD PTR [eax+4]
	fsubp	ST(1), ST(0)
	fstp	DWORD PTR $T70963[ebp]
	mov	ecx, DWORD PTR _x$[ebp]
	fld	DWORD PTR [ecx+8]
	mov	edx, DWORD PTR _y$[ebp]
	fmul	DWORD PTR [edx]
	mov	eax, DWORD PTR _y$[ebp]
	fld	DWORD PTR [eax+8]
	mov	ecx, DWORD PTR _x$[ebp]
	fmul	DWORD PTR [ecx]
	fsubp	ST(1), ST(0)
	fstp	DWORD PTR $T70964[ebp]
	mov	edx, DWORD PTR _x$[ebp]
	fld	DWORD PTR [edx+4]
	mov	eax, DWORD PTR _y$[ebp]
	fmul	DWORD PTR [eax+8]
	mov	ecx, DWORD PTR _y$[ebp]
	fld	DWORD PTR [ecx+4]
	mov	edx, DWORD PTR _x$[ebp]
	fmul	DWORD PTR [edx+8]
	fsubp	ST(1), ST(0)
	fstp	DWORD PTR $T70965[ebp]
	lea	eax, DWORD PTR $T70963[ebp]
	push	eax
	lea	ecx, DWORD PTR $T70964[ebp]
	push	ecx
	lea	edx, DWORD PTR $T70965[ebp]
	push	edx
	mov	ecx, DWORD PTR ___$ReturnUdt$[ebp]
	call	??0?$tvec3@M@detail@glm@@QAE@ABM00@Z	; glm::detail::tvec3<float>::tvec3<float>
	mov	eax, DWORD PTR ___$ReturnUdt$[ebp]

; 211  :     }

	pop	edi
	pop	esi
	pop	ebx
	add	esp, 228				; 000000e4H
	cmp	ebp, esp
	call	__RTC_CheckEsp
	mov	esp, ebp
	pop	ebp
	ret	0
??$cross@M@glm@@YA?AU?$tvec3@M@detail@0@ABU120@0@Z ENDP	; glm::cross<float>
; Function compile flags: /Odtp /RTCsu /ZI
; File c:\opengl\glm-0.9.3.1\glm\core\type_mat4x4.inl
_TEXT	ENDS
;	COMDAT ??$?0H@?$tmat4x4@M@detail@glm@@QAE@ABH@Z
_TEXT	SEGMENT
$T70968 = -356						; size = 16
$T70969 = -332						; size = 4
$T70970 = -320						; size = 16
$T70971 = -296						; size = 4
$T70972 = -284						; size = 16
$T70973 = -260						; size = 4
$T70974 = -248						; size = 16
$T70975 = -224						; size = 4
_Zero$ = -20						; size = 4
_this$ = -8						; size = 4
_s$ = 8							; size = 4
??$?0H@?$tmat4x4@M@detail@glm@@QAE@ABH@Z PROC		; glm::detail::tmat4x4<float>::tmat4x4<float><int>, COMDAT
; _this$ = ecx

; 172  : 	{

	push	ebp
	mov	ebp, esp
	sub	esp, 360				; 00000168H
	push	ebx
	push	esi
	push	edi
	push	ecx
	lea	edi, DWORD PTR [ebp-360]
	mov	ecx, 90					; 0000005aH
	mov	eax, -858993460				; ccccccccH
	rep stosd
	pop	ecx
	mov	DWORD PTR _this$[ebp], ecx
	push	OFFSET ??0?$tvec4@M@detail@glm@@QAE@XZ	; glm::detail::tvec4<float>::tvec4<float>
	push	4
	push	16					; 00000010H
	mov	eax, DWORD PTR _this$[ebp]
	push	eax
	call	??_H@YGXPAXIHP6EPAX0@Z@Z

; 173  : 		GLM_STATIC_ASSERT(detail::type<U>::is_float || std::numeric_limits<U>::is_integer, "*mat4x4 constructor only takes float and integer types");
; 174  : 
; 175  : 		value_type const Zero(0);

	fldz
	fstp	DWORD PTR _Zero$[ebp]

; 176  :         this->value[0] = tvec4<T>(value_type(s), Zero, Zero, Zero);

	mov	eax, DWORD PTR _s$[ebp]
	fild	DWORD PTR [eax]
	fstp	DWORD PTR $T70969[ebp]
	lea	ecx, DWORD PTR _Zero$[ebp]
	push	ecx
	lea	edx, DWORD PTR _Zero$[ebp]
	push	edx
	lea	eax, DWORD PTR _Zero$[ebp]
	push	eax
	lea	ecx, DWORD PTR $T70969[ebp]
	push	ecx
	lea	ecx, DWORD PTR $T70968[ebp]
	call	??0?$tvec4@M@detail@glm@@QAE@ABM000@Z	; glm::detail::tvec4<float>::tvec4<float>
	push	eax
	mov	ecx, DWORD PTR _this$[ebp]
	call	??4?$tvec4@M@detail@glm@@QAEAAU012@ABU012@@Z ; glm::detail::tvec4<float>::operator=

; 177  :         this->value[1] = tvec4<T>(Zero, value_type(s), Zero, Zero);

	mov	eax, DWORD PTR _s$[ebp]
	fild	DWORD PTR [eax]
	fstp	DWORD PTR $T70971[ebp]
	lea	ecx, DWORD PTR _Zero$[ebp]
	push	ecx
	lea	edx, DWORD PTR _Zero$[ebp]
	push	edx
	lea	eax, DWORD PTR $T70971[ebp]
	push	eax
	lea	ecx, DWORD PTR _Zero$[ebp]
	push	ecx
	lea	ecx, DWORD PTR $T70970[ebp]
	call	??0?$tvec4@M@detail@glm@@QAE@ABM000@Z	; glm::detail::tvec4<float>::tvec4<float>
	push	eax
	mov	ecx, DWORD PTR _this$[ebp]
	add	ecx, 16					; 00000010H
	call	??4?$tvec4@M@detail@glm@@QAEAAU012@ABU012@@Z ; glm::detail::tvec4<float>::operator=

; 178  :         this->value[2] = tvec4<T>(Zero, Zero, value_type(s), Zero);

	mov	eax, DWORD PTR _s$[ebp]
	fild	DWORD PTR [eax]
	fstp	DWORD PTR $T70973[ebp]
	lea	ecx, DWORD PTR _Zero$[ebp]
	push	ecx
	lea	edx, DWORD PTR $T70973[ebp]
	push	edx
	lea	eax, DWORD PTR _Zero$[ebp]
	push	eax
	lea	ecx, DWORD PTR _Zero$[ebp]
	push	ecx
	lea	ecx, DWORD PTR $T70972[ebp]
	call	??0?$tvec4@M@detail@glm@@QAE@ABM000@Z	; glm::detail::tvec4<float>::tvec4<float>
	push	eax
	mov	ecx, DWORD PTR _this$[ebp]
	add	ecx, 32					; 00000020H
	call	??4?$tvec4@M@detail@glm@@QAEAAU012@ABU012@@Z ; glm::detail::tvec4<float>::operator=

; 179  :         this->value[3] = tvec4<T>(Zero, Zero, Zero, value_type(s));

	mov	eax, DWORD PTR _s$[ebp]
	fild	DWORD PTR [eax]
	fstp	DWORD PTR $T70975[ebp]
	lea	ecx, DWORD PTR $T70975[ebp]
	push	ecx
	lea	edx, DWORD PTR _Zero$[ebp]
	push	edx
	lea	eax, DWORD PTR _Zero$[ebp]
	push	eax
	lea	ecx, DWORD PTR _Zero$[ebp]
	push	ecx
	lea	ecx, DWORD PTR $T70974[ebp]
	call	??0?$tvec4@M@detail@glm@@QAE@ABM000@Z	; glm::detail::tvec4<float>::tvec4<float>
	push	eax
	mov	ecx, DWORD PTR _this$[ebp]
	add	ecx, 48					; 00000030H
	call	??4?$tvec4@M@detail@glm@@QAEAAU012@ABU012@@Z ; glm::detail::tvec4<float>::operator=

; 180  : 	}

	mov	eax, DWORD PTR _this$[ebp]
	push	edx
	mov	ecx, ebp
	push	eax
	lea	edx, DWORD PTR $LN5@tmat4x4@4
	call	@_RTC_CheckStackVars@8
	pop	eax
	pop	edx
	pop	edi
	pop	esi
	pop	ebx
	add	esp, 360				; 00000168H
	cmp	ebp, esp
	call	__RTC_CheckEsp
	mov	esp, ebp
	pop	ebp
	ret	4
	npad	3
$LN5@tmat4x4@4:
	DD	1
	DD	$LN4@tmat4x4@4
$LN4@tmat4x4@4:
	DD	-20					; ffffffecH
	DD	4
	DD	$LN3@tmat4x4@4
$LN3@tmat4x4@4:
	DB	90					; 0000005aH
	DB	101					; 00000065H
	DB	114					; 00000072H
