; Listing generated by Microsoft (R) Optimizing Compiler Version 16.00.40219.01 

	TITLE	C:\Users\kmadsen\Google Drive\OpenGL_Projects\Starter\Starter\PerspectiveProjection.cpp
	.686P
	.XMM
	include listing.inc
	.model	flat

INCLUDELIB MSVCRTD
INCLUDELIB OLDNAMES

PUBLIC	?SetPerspective@PerspectiveProjection@@QAEXMMMM@Z ; PerspectiveProjection::SetPerspective
PUBLIC	??0?$tvec3@M@detail@glm@@QAE@XZ			; glm::detail::tvec3<float>::tvec3<float>
PUBLIC	??0?$tmat4x4@M@detail@glm@@QAE@XZ		; glm::detail::tmat4x4<float>::tmat4x4<float>
PUBLIC	??_7PerspectiveProjection@@6B@			; PerspectiveProjection::`vftable'
PUBLIC	??0PerspectiveProjection@@QAE@MMMM@Z		; PerspectiveProjection::PerspectiveProjection
PUBLIC	??_R4PerspectiveProjection@@6B@			; PerspectiveProjection::`RTTI Complete Object Locator'
PUBLIC	??_R0?AVPerspectiveProjection@@@8		; PerspectiveProjection `RTTI Type Descriptor'
PUBLIC	??_R3PerspectiveProjection@@8			; PerspectiveProjection::`RTTI Class Hierarchy Descriptor'
PUBLIC	??_R2PerspectiveProjection@@8			; PerspectiveProjection::`RTTI Base Class Array'
PUBLIC	??_R1A@?0A@EA@PerspectiveProjection@@8		; PerspectiveProjection::`RTTI Base Class Descriptor at (0,-1,0,64)'
EXTRN	__fltused:DWORD
EXTRN	__RTC_CheckEsp:PROC
EXTRN	__RTC_Shutdown:PROC
EXTRN	__RTC_InitBase:PROC
EXTRN	??_7type_info@@6B@:QWORD			; type_info::`vftable'
EXTRN	??_EPerspectiveProjection@@UAEPAXI@Z:PROC	; PerspectiveProjection::`vector deleting destructor'
;	COMDAT ??_R1A@?0A@EA@PerspectiveProjection@@8
; File c:\users\kmadsen\google drive\opengl_projects\starter\starter\perspectiveprojection.cpp
rdata$r	SEGMENT
??_R1A@?0A@EA@PerspectiveProjection@@8 DD FLAT:??_R0?AVPerspectiveProjection@@@8 ; PerspectiveProjection::`RTTI Base Class Descriptor at (0,-1,0,64)'
	DD	00H
	DD	00H
	DD	0ffffffffH
	DD	00H
	DD	040H
	DD	FLAT:??_R3PerspectiveProjection@@8
rdata$r	ENDS
;	COMDAT ??_R2PerspectiveProjection@@8
rdata$r	SEGMENT
??_R2PerspectiveProjection@@8 DD FLAT:??_R1A@?0A@EA@PerspectiveProjection@@8 ; PerspectiveProjection::`RTTI Base Class Array'
rdata$r	ENDS
;	COMDAT ??_R3PerspectiveProjection@@8
rdata$r	SEGMENT
??_R3PerspectiveProjection@@8 DD 00H			; PerspectiveProjection::`RTTI Class Hierarchy Descriptor'
	DD	00H
	DD	01H
	DD	FLAT:??_R2PerspectiveProjection@@8
rdata$r	ENDS
;	COMDAT ??_R0?AVPerspectiveProjection@@@8
_DATA	SEGMENT
??_R0?AVPerspectiveProjection@@@8 DD FLAT:??_7type_info@@6B@ ; PerspectiveProjection `RTTI Type Descriptor'
	DD	00H
	DB	'.?AVPerspectiveProjection@@', 00H
_DATA	ENDS
;	COMDAT ??_R4PerspectiveProjection@@6B@
rdata$r	SEGMENT
??_R4PerspectiveProjection@@6B@ DD 00H			; PerspectiveProjection::`RTTI Complete Object Locator'
	DD	00H
	DD	00H
	DD	FLAT:??_R0?AVPerspectiveProjection@@@8
	DD	FLAT:??_R3PerspectiveProjection@@8
rdata$r	ENDS
;	COMDAT ??_7PerspectiveProjection@@6B@
CONST	SEGMENT
??_7PerspectiveProjection@@6B@ DD FLAT:??_R4PerspectiveProjection@@6B@ ; PerspectiveProjection::`vftable'
	DD	FLAT:??_EPerspectiveProjection@@UAEPAXI@Z
CONST	ENDS
;	COMDAT rtc$TMZ
rtc$TMZ	SEGMENT
__RTC_Shutdown.rtc$TMZ DD FLAT:__RTC_Shutdown
rtc$TMZ	ENDS
;	COMDAT rtc$IMZ
rtc$IMZ	SEGMENT
__RTC_InitBase.rtc$IMZ DD FLAT:__RTC_InitBase
; Function compile flags: /Odtp /RTCsu /ZI
rtc$IMZ	ENDS
;	COMDAT ??0PerspectiveProjection@@QAE@MMMM@Z
_TEXT	SEGMENT
_this$ = -8						; size = 4
_fov$ = 8						; size = 4
_ar$ = 12						; size = 4
_near$ = 16						; size = 4
_far$ = 20						; size = 4
??0PerspectiveProjection@@QAE@MMMM@Z PROC		; PerspectiveProjection::PerspectiveProjection, COMDAT
; _this$ = ecx

; 8    : {

	push	ebp
	mov	ebp, esp
	sub	esp, 204				; 000000ccH
	push	ebx
	push	esi
	push	edi
	push	ecx
	lea	edi, DWORD PTR [ebp-204]
	mov	ecx, 51					; 00000033H
	mov	eax, -858993460				; ccccccccH
	rep stosd
	pop	ecx
	mov	DWORD PTR _this$[ebp], ecx
	mov	eax, DWORD PTR _this$[ebp]
	mov	DWORD PTR [eax], OFFSET ??_7PerspectiveProjection@@6B@
	mov	ecx, DWORD PTR _this$[ebp]
	add	ecx, 4
	call	??0?$tmat4x4@M@detail@glm@@QAE@XZ	; glm::detail::tmat4x4<float>::tmat4x4<float>
	mov	ecx, DWORD PTR _this$[ebp]
	add	ecx, 68					; 00000044H
	call	??0?$tmat4x4@M@detail@glm@@QAE@XZ	; glm::detail::tmat4x4<float>::tmat4x4<float>
	mov	ecx, DWORD PTR _this$[ebp]
	add	ecx, 132				; 00000084H
	call	??0?$tvec3@M@detail@glm@@QAE@XZ		; glm::detail::tvec3<float>::tvec3<float>

; 9    : 	SetPerspective(fov, ar, near, far);

	push	ecx
	fld	DWORD PTR _far$[ebp]
	fstp	DWORD PTR [esp]
	push	ecx
	fld	DWORD PTR _near$[ebp]
	fstp	DWORD PTR [esp]
	push	ecx
	fld	DWORD PTR _ar$[ebp]
	fstp	DWORD PTR [esp]
	push	ecx
	fld	DWORD PTR _fov$[ebp]
	fstp	DWORD PTR [esp]
	mov	ecx, DWORD PTR _this$[ebp]
	call	?SetPerspective@PerspectiveProjection@@QAEXMMMM@Z ; PerspectiveProjection::SetPerspective

; 10   : }

	mov	eax, DWORD PTR _this$[ebp]
	pop	edi
	pop	esi
	pop	ebx
	add	esp, 204				; 000000ccH
	cmp	ebp, esp
	call	__RTC_CheckEsp
	mov	esp, ebp
	pop	ebp
	ret	16					; 00000010H
??0PerspectiveProjection@@QAE@MMMM@Z ENDP		; PerspectiveProjection::PerspectiveProjection
_TEXT	ENDS
PUBLIC	??1PerspectiveProjection@@UAE@XZ		; PerspectiveProjection::~PerspectiveProjection
EXTRN	??3@YAXPAX@Z:PROC				; operator delete
; Function compile flags: /Odtp /RTCsu /ZI
;	COMDAT ??_GPerspectiveProjection@@UAEPAXI@Z
_TEXT	SEGMENT
_this$ = -8						; size = 4
___flags$ = 8						; size = 4
??_GPerspectiveProjection@@UAEPAXI@Z PROC		; PerspectiveProjection::`scalar deleting destructor', COMDAT
; _this$ = ecx
	push	ebp
	mov	ebp, esp
	sub	esp, 204				; 000000ccH
	push	ebx
	push	esi
	push	edi
	push	ecx
	lea	edi, DWORD PTR [ebp-204]
	mov	ecx, 51					; 00000033H
	mov	eax, -858993460				; ccccccccH
	rep stosd
	pop	ecx
	mov	DWORD PTR _this$[ebp], ecx
	mov	ecx, DWORD PTR _this$[ebp]
	call	??1PerspectiveProjection@@UAE@XZ	; PerspectiveProjection::~PerspectiveProjection
	mov	eax, DWORD PTR ___flags$[ebp]
	and	eax, 1
	je	SHORT $LN1@scalar
	mov	eax, DWORD PTR _this$[ebp]
	push	eax
	call	??3@YAXPAX@Z				; operator delete
	add	esp, 4
$LN1@scalar:
	mov	eax, DWORD PTR _this$[ebp]
	pop	edi
	pop	esi
	pop	ebx
	add	esp, 204				; 000000ccH
	cmp	ebp, esp
	call	__RTC_CheckEsp
	mov	esp, ebp
	pop	ebp
	ret	4
??_GPerspectiveProjection@@UAEPAXI@Z ENDP		; PerspectiveProjection::`scalar deleting destructor'
; Function compile flags: /Odtp /RTCsu /ZI
_TEXT	ENDS
;	COMDAT ??1PerspectiveProjection@@UAE@XZ
_TEXT	SEGMENT
_this$ = -8						; size = 4
??1PerspectiveProjection@@UAE@XZ PROC			; PerspectiveProjection::~PerspectiveProjection, COMDAT
; _this$ = ecx

; 13   : {

	push	ebp
	mov	ebp, esp
	sub	esp, 204				; 000000ccH
	push	ebx
	push	esi
	push	edi
	push	ecx
	lea	edi, DWORD PTR [ebp-204]
	mov	ecx, 51					; 00000033H
	mov	eax, -858993460				; ccccccccH
	rep stosd
	pop	ecx
	mov	DWORD PTR _this$[ebp], ecx
	mov	eax, DWORD PTR _this$[ebp]
	mov	DWORD PTR [eax], OFFSET ??_7PerspectiveProjection@@6B@

; 14   : }

	pop	edi
	pop	esi
	pop	ebx
	mov	esp, ebp
	pop	ebp
	ret	0
??1PerspectiveProjection@@UAE@XZ ENDP			; PerspectiveProjection::~PerspectiveProjection
_TEXT	ENDS
PUBLIC	?GetPerspectiveMatrix@PerspectiveProjection@@QBEABU?$tmat4x4@M@detail@glm@@XZ ; PerspectiveProjection::GetPerspectiveMatrix
; Function compile flags: /Odtp /RTCsu /ZI
;	COMDAT ?GetPerspectiveMatrix@PerspectiveProjection@@QBEABU?$tmat4x4@M@detail@glm@@XZ
_TEXT	SEGMENT
_this$ = -8						; size = 4
?GetPerspectiveMatrix@PerspectiveProjection@@QBEABU?$tmat4x4@M@detail@glm@@XZ PROC ; PerspectiveProjection::GetPerspectiveMatrix, COMDAT
; _this$ = ecx

; 17   : {

	push	ebp
	mov	ebp, esp
	sub	esp, 204				; 000000ccH
	push	ebx
	push	esi
	push	edi
	push	ecx
	lea	edi, DWORD PTR [ebp-204]
	mov	ecx, 51					; 00000033H
	mov	eax, -858993460				; ccccccccH
	rep stosd
	pop	ecx
	mov	DWORD PTR _this$[ebp], ecx

; 18   : 	return m_Perspective;

	mov	eax, DWORD PTR _this$[ebp]
	add	eax, 4

; 19   : }

	pop	edi
	pop	esi
	pop	ebx
	mov	esp, ebp
	pop	ebp
	ret	0
?GetPerspectiveMatrix@PerspectiveProjection@@QBEABU?$tmat4x4@M@detail@glm@@XZ ENDP ; PerspectiveProjection::GetPerspectiveMatrix
_TEXT	ENDS
PUBLIC	??4?$tmat4x4@M@detail@glm@@QAEAAU012@ABU012@@Z	; glm::detail::tmat4x4<float>::operator=
PUBLIC	??$perspective@M@glm@@YA?AU?$tmat4x4@M@detail@0@ABM000@Z ; glm::perspective<float>
PUBLIC	__$ArrayPad$
EXTRN	___security_cookie:DWORD
EXTRN	@__security_check_cookie@4:PROC
; Function compile flags: /Odtp /RTCsu /ZI
;	COMDAT ?SetPerspective@PerspectiveProjection@@QAEXMMMM@Z
_TEXT	SEGMENT
$T40170 = -276						; size = 64
_this$ = -12						; size = 4
__$ArrayPad$ = -4					; size = 4
_fov$ = 8						; size = 4
_ar$ = 12						; size = 4
_near$ = 16						; size = 4
_far$ = 20						; size = 4
?SetPerspective@PerspectiveProjection@@QAEXMMMM@Z PROC	; PerspectiveProjection::SetPerspective, COMDAT
; _this$ = ecx

; 22   : {

	push	ebp
	mov	ebp, esp
	sub	esp, 280				; 00000118H
	push	ebx
	push	esi
	push	edi
	push	ecx
	lea	edi, DWORD PTR [ebp-280]
	mov	ecx, 70					; 00000046H
	mov	eax, -858993460				; ccccccccH
	rep stosd
	pop	ecx
	mov	eax, DWORD PTR ___security_cookie
	xor	eax, ebp
	mov	DWORD PTR __$ArrayPad$[ebp], eax
	mov	DWORD PTR _this$[ebp], ecx

; 23   : 	m_Perspective = glm::perspective(fov, ar, near, far);

	lea	eax, DWORD PTR _far$[ebp]
	push	eax
	lea	ecx, DWORD PTR _near$[ebp]
	push	ecx
	lea	edx, DWORD PTR _ar$[ebp]
	push	edx
	lea	eax, DWORD PTR _fov$[ebp]
	push	eax
	lea	ecx, DWORD PTR $T40170[ebp]
	push	ecx
	call	??$perspective@M@glm@@YA?AU?$tmat4x4@M@detail@0@ABM000@Z ; glm::perspective<float>
	add	esp, 20					; 00000014H
	push	eax
	mov	ecx, DWORD PTR _this$[ebp]
	add	ecx, 4
	call	??4?$tmat4x4@M@detail@glm@@QAEAAU012@ABU012@@Z ; glm::detail::tmat4x4<float>::operator=

; 24   : }

	pop	edi
	pop	esi
	pop	ebx
	mov	ecx, DWORD PTR __$ArrayPad$[ebp]
	xor	ecx, ebp
	call	@__security_check_cookie@4
	add	esp, 280				; 00000118H
	cmp	ebp, esp
	call	__RTC_CheckEsp
	mov	esp, ebp
	pop	ebp
	ret	16					; 00000010H
?SetPerspective@PerspectiveProjection@@QAEXMMMM@Z ENDP	; PerspectiveProjection::SetPerspective
_TEXT	ENDS
PUBLIC	?GetViewMatrix@PerspectiveProjection@@QBEABU?$tmat4x4@M@detail@glm@@XZ ; PerspectiveProjection::GetViewMatrix
; Function compile flags: /Odtp /RTCsu /ZI
;	COMDAT ?GetViewMatrix@PerspectiveProjection@@QBEABU?$tmat4x4@M@detail@glm@@XZ
_TEXT	SEGMENT
_this$ = -8						; size = 4
?GetViewMatrix@PerspectiveProjection@@QBEABU?$tmat4x4@M@detail@glm@@XZ PROC ; PerspectiveProjection::GetViewMatrix, COMDAT
; _this$ = ecx

; 27   : {

	push	ebp
	mov	ebp, esp
	sub	esp, 204				; 000000ccH
	push	ebx
	push	esi
	push	edi
	push	ecx
	lea	edi, DWORD PTR [ebp-204]
	mov	ecx, 51					; 00000033H
	mov	eax, -858993460				; ccccccccH
	rep stosd
	pop	ecx
	mov	DWORD PTR _this$[ebp], ecx

; 28   : 	return m_View;

	mov	eax, DWORD PTR _this$[ebp]
	add	eax, 68					; 00000044H

; 29   : }

	pop	edi
	pop	esi
	pop	ebx
	mov	esp, ebp
	pop	ebp
	ret	0
?GetViewMatrix@PerspectiveProjection@@QBEABU?$tmat4x4@M@detail@glm@@XZ ENDP ; PerspectiveProjection::GetViewMatrix
_TEXT	ENDS
PUBLIC	??$lookAt@M@glm@@YA?AU?$tmat4x4@M@detail@0@ABU?$tvec3@M@20@00@Z ; glm::lookAt<float>
PUBLIC	??4?$tvec3@M@detail@glm@@QAEAAU012@ABU012@@Z	; glm::detail::tvec3<float>::operator=
PUBLIC	__$ArrayPad$
PUBLIC	?SetView@PerspectiveProjection@@QAEXABU?$tvec3@M@detail@glm@@00@Z ; PerspectiveProjection::SetView
; Function compile flags: /Odtp /RTCsu /ZI
;	COMDAT ?SetView@PerspectiveProjection@@QAEXABU?$tvec3@M@detail@glm@@00@Z
_TEXT	SEGMENT
$T40204 = -276						; size = 64
_this$ = -12						; size = 4
__$ArrayPad$ = -4					; size = 4
_origin$ = 8						; size = 4
_at$ = 12						; size = 4
_up$ = 16						; size = 4
?SetView@PerspectiveProjection@@QAEXABU?$tvec3@M@detail@glm@@00@Z PROC ; PerspectiveProjection::SetView, COMDAT
; _this$ = ecx

; 32   : {

	push	ebp
	mov	ebp, esp
	sub	esp, 280				; 00000118H
	push	ebx
	push	esi
	push	edi
	push	ecx
	lea	edi, DWORD PTR [ebp-280]
	mov	ecx, 70					; 00000046H
	mov	eax, -858993460				; ccccccccH
	rep stosd
	pop	ecx
	mov	eax, DWORD PTR ___security_cookie
	xor	eax, ebp
	mov	DWORD PTR __$ArrayPad$[ebp], eax
	mov	DWORD PTR _this$[ebp], ecx

; 33   : 	m_Origin = origin;

	mov	eax, DWORD PTR _origin$[ebp]
	push	eax
	mov	ecx, DWORD PTR _this$[ebp]
	add	ecx, 132				; 00000084H
	call	??4?$tvec3@M@detail@glm@@QAEAAU012@ABU012@@Z ; glm::detail::tvec3<float>::operator=

; 34   : 	m_View = glm::lookAt(origin, at, up);

	mov	eax, DWORD PTR _up$[ebp]
	push	eax
	mov	ecx, DWORD PTR _at$[ebp]
	push	ecx
	mov	edx, DWORD PTR _origin$[ebp]
	push	edx
	lea	eax, DWORD PTR $T40204[ebp]
	push	eax
	call	??$lookAt@M@glm@@YA?AU?$tmat4x4@M@detail@0@ABU?$tvec3@M@20@00@Z ; glm::lookAt<float>
	add	esp, 16					; 00000010H
	push	eax
	mov	ecx, DWORD PTR _this$[ebp]
	add	ecx, 68					; 00000044H
	call	??4?$tmat4x4@M@detail@glm@@QAEAAU012@ABU012@@Z ; glm::detail::tmat4x4<float>::operator=

; 35   : }

	pop	edi
	pop	esi
	pop	ebx
	mov	ecx, DWORD PTR __$ArrayPad$[ebp]
	xor	ecx, ebp
	call	@__security_check_cookie@4
	add	esp, 280				; 00000118H
	cmp	ebp, esp
	call	__RTC_CheckEsp
	mov	esp, ebp
	pop	ebp
	ret	12					; 0000000cH
?SetView@PerspectiveProjection@@QAEXABU?$tvec3@M@detail@glm@@00@Z ENDP ; PerspectiveProjection::SetView
_TEXT	ENDS
PUBLIC	?GetOrigin@PerspectiveProjection@@QBEABU?$tvec3@M@detail@glm@@XZ ; PerspectiveProjection::GetOrigin
; Function compile flags: /Odtp /RTCsu /ZI
;	COMDAT ?GetOrigin@PerspectiveProjection@@QBEABU?$tvec3@M@detail@glm@@XZ
_TEXT	SEGMENT
_this$ = -8						; size = 4
?GetOrigin@PerspectiveProjection@@QBEABU?$tvec3@M@detail@glm@@XZ PROC ; PerspectiveProjection::GetOrigin, COMDAT
; _this$ = ecx

; 38   : {

	push	ebp
	mov	ebp, esp
	sub	esp, 204				; 000000ccH
	push	ebx
	push	esi
	push	edi
	push	ecx
	lea	edi, DWORD PTR [ebp-204]
	mov	ecx, 51					; 00000033H
	mov	eax, -858993460				; ccccccccH
	rep stosd
	pop	ecx
	mov	DWORD PTR _this$[ebp], ecx

; 39   : 	return m_Origin;

	mov	eax, DWORD PTR _this$[ebp]
	add	eax, 132				; 00000084H

; 40   : }

	pop	edi
	pop	esi
	pop	ebx
	mov	esp, ebp
	pop	ebp
	ret	0
?GetOrigin@PerspectiveProjection@@QBEABU?$tvec3@M@detail@glm@@XZ ENDP ; PerspectiveProjection::GetOrigin
_TEXT	ENDS
PUBLIC	__real@00000000
;	COMDAT __real@00000000
; File c:\opengl\glm-0.9.3.1\glm\core\type_vec3.inl
CONST	SEGMENT
__real@00000000 DD 000000000r			; 0
; Function compile flags: /Odtp /RTCsu /ZI
CONST	ENDS
;	COMDAT ??0?$tvec3@M@detail@glm@@QAE@XZ
_TEXT	SEGMENT
_this$ = -8						; size = 4
??0?$tvec3@M@detail@glm@@QAE@XZ PROC			; glm::detail::tvec3<float>::tvec3<float>, COMDAT
; _this$ = ecx

; 71   : 	{}

	push	ebp
	mov	ebp, esp
	sub	esp, 204				; 000000ccH
	push	ebx
	push	esi
	push	edi
	push	ecx
	lea	edi, DWORD PTR [ebp-204]
	mov	ecx, 51					; 00000033H
	mov	eax, -858993460				; ccccccccH
	rep stosd
	pop	ecx
	mov	DWORD PTR _this$[ebp], ecx
	mov	eax, DWORD PTR _this$[ebp]
	fldz
	fstp	DWORD PTR [eax]
	mov	eax, DWORD PTR _this$[ebp]
	fldz
	fstp	DWORD PTR [eax+4]
	mov	eax, DWORD PTR _this$[ebp]
	fldz
	fstp	DWORD PTR [eax+8]
	mov	eax, DWORD PTR _this$[ebp]
	pop	edi
	pop	esi
	pop	ebx
	mov	esp, ebp
	pop	ebp
	ret	0
??0?$tvec3@M@detail@glm@@QAE@XZ ENDP			; glm::detail::tvec3<float>::tvec3<float>
; Function compile flags: /Odtp /RTCsu /ZI
_TEXT	ENDS
;	COMDAT ??4?$tvec3@M@detail@glm@@QAEAAU012@ABU012@@Z
_TEXT	SEGMENT
_this$ = -8						; size = 4
_v$ = 8							; size = 4
??4?$tvec3@M@detail@glm@@QAEAAU012@ABU012@@Z PROC	; glm::detail::tvec3<float>::operator=, COMDAT
; _this$ = ecx

; 236  : 	{

	push	ebp
	mov	ebp, esp
	sub	esp, 204				; 000000ccH
	push	ebx
	push	esi
	push	edi
	push	ecx
	lea	edi, DWORD PTR [ebp-204]
	mov	ecx, 51					; 00000033H
	mov	eax, -858993460				; ccccccccH
	rep stosd
	pop	ecx
	mov	DWORD PTR _this$[ebp], ecx

; 237  : 		this->x = v.x;

	mov	eax, DWORD PTR _this$[ebp]
	mov	ecx, DWORD PTR _v$[ebp]
	fld	DWORD PTR [ecx]
	fstp	DWORD PTR [eax]

; 238  : 		this->y = v.y;

	mov	eax, DWORD PTR _this$[ebp]
	mov	ecx, DWORD PTR _v$[ebp]
	fld	DWORD PTR [ecx+4]
	fstp	DWORD PTR [eax+4]

; 239  : 		this->z = v.z;

	mov	eax, DWORD PTR _this$[ebp]
	mov	ecx, DWORD PTR _v$[ebp]
	fld	DWORD PTR [ecx+8]
	fstp	DWORD PTR [eax+8]

; 240  : 		return *this;

	mov	eax, DWORD PTR _this$[ebp]

; 241  : 	}

	pop	edi
	pop	esi
	pop	ebx
	mov	esp, ebp
	pop	ebp
	ret	4
??4?$tvec3@M@detail@glm@@QAEAAU012@ABU012@@Z ENDP	; glm::detail::tvec3<float>::operator=
_TEXT	ENDS
PUBLIC	??4?$tvec4@M@detail@glm@@QAEAAU012@ABU012@@Z	; glm::detail::tvec4<float>::operator=
PUBLIC	??0?$tvec4@M@detail@glm@@QAE@ABM000@Z		; glm::detail::tvec4<float>::tvec4<float>
PUBLIC	__real@3f800000
PUBLIC	??_H@YGXPAXIHP6EPAX0@Z@Z			; `vector constructor iterator'
PUBLIC	??0?$tvec4@M@detail@glm@@QAE@XZ			; glm::detail::tvec4<float>::tvec4<float>
EXTRN	@_RTC_CheckStackVars@8:PROC
;	COMDAT __real@3f800000
; File c:\opengl\glm-0.9.3.1\glm\core\type_mat4x4.inl
CONST	SEGMENT
__real@3f800000 DD 03f800000r			; 1
; Function compile flags: /Odtp /RTCsu /ZI
CONST	ENDS
;	COMDAT ??0?$tmat4x4@M@detail@glm@@QAE@XZ
_TEXT	SEGMENT
$T42449 = -320						; size = 16
$T42450 = -296						; size = 16
$T42451 = -272						; size = 16
$T42452 = -248						; size = 16
_One$ = -32						; size = 4
_Zero$ = -20						; size = 4
_this$ = -8						; size = 4
??0?$tmat4x4@M@detail@glm@@QAE@XZ PROC			; glm::detail::tmat4x4<float>::tmat4x4<float>, COMDAT
; _this$ = ecx

; 80   :     {

	push	ebp
	mov	ebp, esp
	sub	esp, 324				; 00000144H
	push	ebx
	push	esi
	push	edi
	push	ecx
	lea	edi, DWORD PTR [ebp-324]
	mov	ecx, 81					; 00000051H
	mov	eax, -858993460				; ccccccccH
	rep stosd
	pop	ecx
	mov	DWORD PTR _this$[ebp], ecx
	push	OFFSET ??0?$tvec4@M@detail@glm@@QAE@XZ	; glm::detail::tvec4<float>::tvec4<float>
	push	4
	push	16					; 00000010H
	mov	eax, DWORD PTR _this$[ebp]
	push	eax
	call	??_H@YGXPAXIHP6EPAX0@Z@Z

; 81   : 		value_type Zero(0);

	fldz
	fstp	DWORD PTR _Zero$[ebp]

; 82   : 		value_type One(1);

	fld1
	fstp	DWORD PTR _One$[ebp]

; 83   :         this->value[0] = col_type(One, Zero, Zero, Zero);

	lea	eax, DWORD PTR _Zero$[ebp]
	push	eax
	lea	ecx, DWORD PTR _Zero$[ebp]
	push	ecx
	lea	edx, DWORD PTR _Zero$[ebp]
	push	edx
	lea	eax, DWORD PTR _One$[ebp]
	push	eax
	lea	ecx, DWORD PTR $T42449[ebp]
	call	??0?$tvec4@M@detail@glm@@QAE@ABM000@Z	; glm::detail::tvec4<float>::tvec4<float>
	push	eax
	mov	ecx, DWORD PTR _this$[ebp]
	call	??4?$tvec4@M@detail@glm@@QAEAAU012@ABU012@@Z ; glm::detail::tvec4<float>::operator=

; 84   :         this->value[1] = col_type(Zero, One, Zero, Zero);

	lea	eax, DWORD PTR _Zero$[ebp]
	push	eax
	lea	ecx, DWORD PTR _Zero$[ebp]
	push	ecx
	lea	edx, DWORD PTR _One$[ebp]
	push	edx
	lea	eax, DWORD PTR _Zero$[ebp]
	push	eax
	lea	ecx, DWORD PTR $T42450[ebp]
	call	??0?$tvec4@M@detail@glm@@QAE@ABM000@Z	; glm::detail::tvec4<float>::tvec4<float>
	push	eax
	mov	ecx, DWORD PTR _this$[ebp]
	add	ecx, 16					; 00000010H
	call	??4?$tvec4@M@detail@glm@@QAEAAU012@ABU012@@Z ; glm::detail::tvec4<float>::operator=

; 85   :         this->value[2] = col_type(Zero, Zero, One, Zero);

	lea	eax, DWORD PTR _Zero$[ebp]
	push	eax
	lea	ecx, DWORD PTR _One$[ebp]
	push	ecx
	lea	edx, DWORD PTR _Zero$[ebp]
	push	edx
	lea	eax, DWORD PTR _Zero$[ebp]
	push	eax
	lea	ecx, DWORD PTR $T42451[ebp]
	call	??0?$tvec4@M@detail@glm@@QAE@ABM000@Z	; glm::detail::tvec4<float>::tvec4<float>
	push	eax
	mov	ecx, DWORD PTR _this$[ebp]
	add	ecx, 32					; 00000020H
	call	??4?$tvec4@M@detail@glm@@QAEAAU012@ABU012@@Z ; glm::detail::tvec4<float>::operator=

; 86   :         this->value[3] = col_type(Zero, Zero, Zero, One);

	lea	eax, DWORD PTR _One$[ebp]
	push	eax
	lea	ecx, DWORD PTR _Zero$[ebp]
	push	ecx
	lea	edx, DWORD PTR _Zero$[ebp]
	push	edx
	lea	eax, DWORD PTR _Zero$[ebp]
	push	eax
	lea	ecx, DWORD PTR $T42452[ebp]
	call	??0?$tvec4@M@detail@glm@@QAE@ABM000@Z	; glm::detail::tvec4<float>::tvec4<float>
	push	eax
	mov	ecx, DWORD PTR _this$[ebp]
	add	ecx, 48					; 00000030H
	call	??4?$tvec4@M@detail@glm@@QAEAAU012@ABU012@@Z ; glm::detail::tvec4<float>::operator=

; 87   :     }

	mov	eax, DWORD PTR _this$[ebp]
	push	edx
	mov	ecx, ebp
	push	eax
	lea	edx, DWORD PTR $LN6@tmat4x4
	call	@_RTC_CheckStackVars@8
	pop	eax
	pop	edx
	pop	edi
	pop	esi
	pop	ebx
	add	esp, 324				; 00000144H
	cmp	ebp, esp
	call	__RTC_CheckEsp
	mov	esp, ebp
	pop	ebp
	ret	0
$LN6@tmat4x4:
	DD	2
	DD	$LN5@tmat4x4
$LN5@tmat4x4:
	DD	-20					; ffffffecH
	DD	4
	DD	$LN3@tmat4x4
	DD	-32					; ffffffe0H
	DD	4
	DD	$LN4@tmat4x4
$LN4@tmat4x4:
	DB	79					; 0000004fH
	DB	110					; 0000006eH
	DB	101					; 00000065H
	DB	0
$LN3@tmat4x4:
	DB	90					; 0000005aH
	DB	101					; 00000065H
	DB	114					; 00000072H
	DB	111					; 0000006fH
	DB	0
??0?$tmat4x4@M@detail@glm@@QAE@XZ ENDP			; glm::detail::tmat4x4<float>::tmat4x4<float>
; Function compile flags: /Odtp /RTCsu /ZI
; File c:\opengl\glm-0.9.3.1\glm\core\type_vec4.inl
_TEXT	ENDS
;	COMDAT ??0?$tvec4@M@detail@glm@@QAE@ABM000@Z
_TEXT	SEGMENT
_this$ = -8						; size = 4
_s1$ = 8						; size = 4
_s2$ = 12						; size = 4
_s3$ = 16						; size = 4
_s4$ = 20						; size = 4
??0?$tvec4@M@detail@glm@@QAE@ABM000@Z PROC		; glm::detail::tvec4<float>::tvec4<float>, COMDAT
; _this$ = ecx

; 118  : 	{}

	push	ebp
	mov	ebp, esp
	sub	esp, 204				; 000000ccH
	push	ebx
	push	esi
	push	edi
	push	ecx
	lea	edi, DWORD PTR [ebp-204]
	mov	ecx, 51					; 00000033H
	mov	eax, -858993460				; ccccccccH
	rep stosd
	pop	ecx
	mov	DWORD PTR _this$[ebp], ecx
	mov	eax, DWORD PTR _this$[ebp]
	mov	ecx, DWORD PTR _s1$[ebp]
	fld	DWORD PTR [ecx]
	fstp	DWORD PTR [eax]
	mov	eax, DWORD PTR _this$[ebp]
	mov	ecx, DWORD PTR _s2$[ebp]
	fld	DWORD PTR [ecx]
	fstp	DWORD PTR [eax+4]
	mov	eax, DWORD PTR _this$[ebp]
	mov	ecx, DWORD PTR _s3$[ebp]
	fld	DWORD PTR [ecx]
	fstp	DWORD PTR [eax+8]
	mov	eax, DWORD PTR _this$[ebp]
	mov	ecx, DWORD PTR _s4$[ebp]
	fld	DWORD PTR [ecx]
	fstp	DWORD PTR [eax+12]
	mov	eax, DWORD PTR _this$[ebp]
	pop	edi
	pop	esi
	pop	ebx
	mov	esp, ebp
	pop	ebp
	ret	16					; 00000010H
??0?$tvec4@M@detail@glm@@QAE@ABM000@Z ENDP		; glm::detail::tvec4<float>::tvec4<float>
_TEXT	ENDS
PUBLIC	??A?$tmat4x4@M@detail@glm@@QBEABU?$tvec4@M@12@I@Z ; glm::detail::tmat4x4<float>::operator[]
; Function compile flags: /Odtp /RTCsu /ZI
; File c:\opengl\glm-0.9.3.1\glm\core\type_mat4x4.inl
;	COMDAT ??4?$tmat4x4@M@detail@glm@@QAEAAU012@ABU012@@Z
_TEXT	SEGMENT
_this$ = -8						; size = 4
_m$ = 8							; size = 4
??4?$tmat4x4@M@detail@glm@@QAEAAU012@ABU012@@Z PROC	; glm::detail::tmat4x4<float>::operator=, COMDAT
; _this$ = ecx

; 349  :     {

	push	ebp
	mov	ebp, esp
	sub	esp, 204				; 000000ccH
	push	ebx
	push	esi
	push	edi
	push	ecx
	lea	edi, DWORD PTR [ebp-204]
	mov	ecx, 51					; 00000033H
	mov	eax, -858993460				; ccccccccH
	rep stosd
	pop	ecx
	mov	DWORD PTR _this$[ebp], ecx

; 350  :         //memcpy could be faster
; 351  :         //memcpy(&this->value, &m.value, 16 * sizeof(valType));
; 352  :         this->value[0] = m[0];

	push	0
	mov	ecx, DWORD PTR _m$[ebp]
	call	??A?$tmat4x4@M@detail@glm@@QBEABU?$tvec4@M@12@I@Z ; glm::detail::tmat4x4<float>::operator[]
	push	eax
	mov	ecx, DWORD PTR _this$[ebp]
	call	??4?$tvec4@M@detail@glm@@QAEAAU012@ABU012@@Z ; glm::detail::tvec4<float>::operator=

; 353  :         this->value[1] = m[1];

	push	1
	mov	ecx, DWORD PTR _m$[ebp]
	call	??A?$tmat4x4@M@detail@glm@@QBEABU?$tvec4@M@12@I@Z ; glm::detail::tmat4x4<float>::operator[]
	push	eax
	mov	ecx, DWORD PTR _this$[ebp]
	add	ecx, 16					; 00000010H
	call	??4?$tvec4@M@detail@glm@@QAEAAU012@ABU012@@Z ; glm::detail::tvec4<float>::operator=

; 354  :         this->value[2] = m[2];

	push	2
	mov	ecx, DWORD PTR _m$[ebp]
	call	??A?$tmat4x4@M@detail@glm@@QBEABU?$tvec4@M@12@I@Z ; glm::detail::tmat4x4<float>::operator[]
	push	eax
	mov	ecx, DWORD PTR _this$[ebp]
	add	ecx, 32					; 00000020H
	call	??4?$tvec4@M@detail@glm@@QAEAAU012@ABU012@@Z ; glm::detail::tvec4<float>::operator=

; 355  :         this->value[3] = m[3];

	push	3
	mov	ecx, DWORD PTR _m$[ebp]
	call	??A?$tmat4x4@M@detail@glm@@QBEABU?$tvec4@M@12@I@Z ; glm::detail::tmat4x4<float>::operator[]
	push	eax
	mov	ecx, DWORD PTR _this$[ebp]
	add	ecx, 48					; 00000030H
	call	??4?$tvec4@M@detail@glm@@QAEAAU012@ABU012@@Z ; glm::detail::tvec4<float>::operator=

; 356  :         return *this;

	mov	eax, DWORD PTR _this$[ebp]

; 357  :     }

	pop	edi
	pop	esi
	pop	ebx
	add	esp, 204				; 000000ccH
	cmp	ebp, esp
	call	__RTC_CheckEsp
	mov	esp, ebp
	pop	ebp
	ret	4
??4?$tmat4x4@M@detail@glm@@QAEAAU012@ABU012@@Z ENDP	; glm::detail::tmat4x4<float>::operator=
_TEXT	ENDS
PUBLIC	??0?$tmat4x4@M@detail@glm@@QAE@ABU012@@Z	; glm::detail::tmat4x4<float>::tmat4x4<float>
PUBLIC	__real@bf800000
PUBLIC	??A?$tvec4@M@detail@glm@@QAEAAMI@Z		; glm::detail::tvec4<float>::operator[]
PUBLIC	??A?$tmat4x4@M@detail@glm@@QAEAAU?$tvec4@M@12@I@Z ; glm::detail::tmat4x4<float>::operator[]
PUBLIC	??0?$tmat4x4@M@detail@glm@@QAE@ABM@Z		; glm::detail::tmat4x4<float>::tmat4x4<float>
PUBLIC	??$tan@M@glm@@YAMABM@Z				; glm::tan<float>
PUBLIC	??$radians@M@glm@@YAMABM@Z			; glm::radians<float>
PUBLIC	__real@4000000000000000
PUBLIC	__$ArrayPad$
;	COMDAT __real@bf800000
; File c:\opengl\glm-0.9.3.1\glm\gtc\matrix_transform.inl
CONST	SEGMENT
__real@bf800000 DD 0bf800000r			; -1
CONST	ENDS
;	COMDAT __real@4000000000000000
CONST	SEGMENT
__real@4000000000000000 DQ 04000000000000000r	; 2
; Function compile flags: /Odtp /RTCsu /ZI
CONST	ENDS
;	COMDAT ??$perspective@M@glm@@YA?AU?$tmat4x4@M@detail@0@ABM000@Z
_TEXT	SEGMENT
tv259 = -372						; size = 8
tv257 = -372						; size = 4
tv254 = -372						; size = 8
tv251 = -372						; size = 8
tv233 = -368						; size = 4
$T42467 = -360						; size = 4
$T42468 = -348						; size = 4
$T42469 = -336						; size = 4
_Result$ = -132						; size = 64
_top$ = -60						; size = 4
_bottom$ = -48						; size = 4
_right$ = -36						; size = 4
_left$ = -24						; size = 4
_range$ = -12						; size = 4
__$ArrayPad$ = -4					; size = 4
___$ReturnUdt$ = 8					; size = 4
_fovy$ = 12						; size = 4
_aspect$ = 16						; size = 4
_zNear$ = 20						; size = 4
_zFar$ = 24						; size = 4
??$perspective@M@glm@@YA?AU?$tmat4x4@M@detail@0@ABM000@Z PROC ; glm::perspective<float>, COMDAT

; 230  : 	{

	push	ebp
	mov	ebp, esp
	sub	esp, 372				; 00000174H
	push	ebx
	push	esi
	push	edi
	lea	edi, DWORD PTR [ebp-372]
	mov	ecx, 93					; 0000005dH
	mov	eax, -858993460				; ccccccccH
	rep stosd
	mov	eax, DWORD PTR ___security_cookie
	xor	eax, ebp
	mov	DWORD PTR __$ArrayPad$[ebp], eax

; 231  : 		valType range = tan(radians(fovy / valType(2))) * zNear;	

	mov	eax, DWORD PTR _fovy$[ebp]
	fld	DWORD PTR [eax]
	fdiv	QWORD PTR __real@4000000000000000
	fstp	DWORD PTR $T42468[ebp]
	lea	ecx, DWORD PTR $T42468[ebp]
	push	ecx
	call	??$radians@M@glm@@YAMABM@Z		; glm::radians<float>
	add	esp, 4
	fstp	DWORD PTR $T42467[ebp]
	lea	edx, DWORD PTR $T42467[ebp]
	push	edx
	call	??$tan@M@glm@@YAMABM@Z			; glm::tan<float>
	add	esp, 4
	mov	eax, DWORD PTR _zNear$[ebp]
	fmul	DWORD PTR [eax]
	fstp	DWORD PTR _range$[ebp]

; 232  : 		valType left = -range * aspect;

	fld	DWORD PTR _range$[ebp]
	fchs
	mov	eax, DWORD PTR _aspect$[ebp]
	fmul	DWORD PTR [eax]
	fstp	DWORD PTR _left$[ebp]

; 233  : 		valType right = range * aspect;

	fld	DWORD PTR _range$[ebp]
	mov	eax, DWORD PTR _aspect$[ebp]
	fmul	DWORD PTR [eax]
	fstp	DWORD PTR _right$[ebp]

; 234  : 		valType bottom = -range;

	fld	DWORD PTR _range$[ebp]
	fchs
	fstp	DWORD PTR _bottom$[ebp]

; 235  : 		valType top = range;

	fld	DWORD PTR _range$[ebp]
	fstp	DWORD PTR _top$[ebp]

; 236  : 
; 237  : 		detail::tmat4x4<valType> Result(valType(0));

	fldz
	fstp	DWORD PTR $T42469[ebp]
	lea	eax, DWORD PTR $T42469[ebp]
	push	eax
	lea	ecx, DWORD PTR _Result$[ebp]
	call	??0?$tmat4x4@M@detail@glm@@QAE@ABM@Z	; glm::detail::tmat4x4<float>::tmat4x4<float>

; 238  : 		Result[0][0] = (valType(2) * zNear) / (right - left);

	mov	eax, DWORD PTR _zNear$[ebp]
	fld	DWORD PTR [eax]
	fmul	QWORD PTR __real@4000000000000000
	fld	DWORD PTR _right$[ebp]
	fsub	DWORD PTR _left$[ebp]
	fdivp	ST(1), ST(0)
	push	0
	push	0
	lea	ecx, DWORD PTR _Result$[ebp]
	fstp	QWORD PTR tv251[ebp]
	call	??A?$tmat4x4@M@detail@glm@@QAEAAU?$tvec4@M@12@I@Z ; glm::detail::tmat4x4<float>::operator[]
	mov	ecx, eax
	call	??A?$tvec4@M@detail@glm@@QAEAAMI@Z	; glm::detail::tvec4<float>::operator[]
	fld	QWORD PTR tv251[ebp]
	fstp	DWORD PTR [eax]

; 239  : 		Result[1][1] = (valType(2) * zNear) / (top - bottom);

	mov	eax, DWORD PTR _zNear$[ebp]
	fld	DWORD PTR [eax]
	fmul	QWORD PTR __real@4000000000000000
	fld	DWORD PTR _top$[ebp]
	fsub	DWORD PTR _bottom$[ebp]
	fdivp	ST(1), ST(0)
	push	1
	push	1
	lea	ecx, DWORD PTR _Result$[ebp]
	fstp	QWORD PTR tv254[ebp]
	call	??A?$tmat4x4@M@detail@glm@@QAEAAU?$tvec4@M@12@I@Z ; glm::detail::tmat4x4<float>::operator[]
	mov	ecx, eax
	call	??A?$tvec4@M@detail@glm@@QAEAAMI@Z	; glm::detail::tvec4<float>::operator[]
	fld	QWORD PTR tv254[ebp]
	fstp	DWORD PTR [eax]

; 240  : 		Result[2][2] = - (zFar + zNear) / (zFar - zNear);

	mov	eax, DWORD PTR _zFar$[ebp]
	fld	DWORD PTR [eax]
	mov	ecx, DWORD PTR _zNear$[ebp]
	fadd	DWORD PTR [ecx]
	fchs
	mov	edx, DWORD PTR _zFar$[ebp]
	fld	DWORD PTR [edx]
	mov	eax, DWORD PTR _zNear$[ebp]
	fsub	DWORD PTR [eax]
	fdivp	ST(1), ST(0)
	fstp	DWORD PTR tv233[ebp]
	fld	DWORD PTR tv233[ebp]
	push	2
	push	2
	lea	ecx, DWORD PTR _Result$[ebp]
	fstp	DWORD PTR tv257[ebp]
	call	??A?$tmat4x4@M@detail@glm@@QAEAAU?$tvec4@M@12@I@Z ; glm::detail::tmat4x4<float>::operator[]
	mov	ecx, eax
	call	??A?$tvec4@M@detail@glm@@QAEAAMI@Z	; glm::detail::tvec4<float>::operator[]
	fld	DWORD PTR tv257[ebp]
	fstp	DWORD PTR [eax]

; 241  : 		Result[2][3] = - valType(1);

	push	3
	push	2
	lea	ecx, DWORD PTR _Result$[ebp]
	call	??A?$tmat4x4@M@detail@glm@@QAEAAU?$tvec4@M@12@I@Z ; glm::detail::tmat4x4<float>::operator[]
	mov	ecx, eax
	call	??A?$tvec4@M@detail@glm@@QAEAAMI@Z	; glm::detail::tvec4<float>::operator[]
	fld	DWORD PTR __real@bf800000
	fstp	DWORD PTR [eax]

; 242  : 		Result[3][2] = - (valType(2) * zFar * zNear) / (zFar - zNear);

	mov	eax, DWORD PTR _zFar$[ebp]
	fld	DWORD PTR [eax]
	fmul	QWORD PTR __real@4000000000000000
	mov	ecx, DWORD PTR _zNear$[ebp]
	fmul	DWORD PTR [ecx]
	fchs
	mov	edx, DWORD PTR _zFar$[ebp]
	fld	DWORD PTR [edx]
	mov	eax, DWORD PTR _zNear$[ebp]
	fsub	DWORD PTR [eax]
	fdivp	ST(1), ST(0)
	push	2
	push	3
	lea	ecx, DWORD PTR _Result$[ebp]
	fstp	QWORD PTR tv259[ebp]
	call	??A?$tmat4x4@M@detail@glm@@QAEAAU?$tvec4@M@12@I@Z ; glm::detail::tmat4x4<float>::operator[]
	mov	ecx, eax
	call	??A?$tvec4@M@detail@glm@@QAEAAMI@Z	; glm::detail::tvec4<float>::operator[]
	fld	QWORD PTR tv259[ebp]
	fstp	DWORD PTR [eax]

; 243  : 		return Result;

	lea	eax, DWORD PTR _Result$[ebp]
	push	eax
	mov	ecx, DWORD PTR ___$ReturnUdt$[ebp]
	call	??0?$tmat4x4@M@detail@glm@@QAE@ABU012@@Z ; glm::detail::tmat4x4<float>::tmat4x4<float>
	mov	eax, DWORD PTR ___$ReturnUdt$[ebp]

; 244  : 	}

	push	edx
	mov	ecx, ebp
	push	eax
	lea	edx, DWORD PTR $LN5@perspectiv
	call	@_RTC_CheckStackVars@8
	pop	eax
	pop	edx
	pop	edi
	pop	esi
	pop	ebx
	mov	ecx, DWORD PTR __$ArrayPad$[ebp]
	xor	ecx, ebp
	call	@__security_check_cookie@4
	add	esp, 372				; 00000174H
	cmp	ebp, esp
	call	__RTC_CheckEsp
	mov	esp, ebp
	pop	ebp
	ret	0
$LN5@perspectiv:
	DD	1
	DD	$LN4@perspectiv
$LN4@perspectiv:
	DD	-132					; ffffff7cH
	DD	64					; 00000040H
	DD	$LN3@perspectiv
$LN3@perspectiv:
	DB	82					; 00000052H
	DB	101					; 00000065H
	DB	115					; 00000073H
	DB	117					; 00000075H
	DB	108					; 0000006cH
	DB	116					; 00000074H
	DB	0
??$perspective@M@glm@@YA?AU?$tmat4x4@M@detail@0@ABM000@Z ENDP ; glm::perspective<float>
_TEXT	ENDS
PUBLIC	??$translate@M@glm@@YA?AU?$tmat4x4@M@detail@0@ABU120@ABU?$tvec3@M@20@@Z ; glm::translate<float>
PUBLIC	??$?GM@detail@glm@@YA?AU?$tvec3@M@01@ABU201@@Z	; glm::detail::operator-<float>
PUBLIC	??$?0H@?$tmat4x4@M@detail@glm@@QAE@ABH@Z	; glm::detail::tmat4x4<float>::tmat4x4<float><int>
PUBLIC	??$cross@M@glm@@YA?AU?$tvec3@M@detail@0@ABU120@0@Z ; glm::cross<float>
PUBLIC	??$normalize@M@glm@@YA?AU?$tvec3@M@detail@0@ABU120@@Z ; glm::normalize<float>
PUBLIC	??$?GM@detail@glm@@YA?AU?$tvec3@M@01@ABU201@0@Z	; glm::detail::operator-<float>
PUBLIC	__$ArrayPad$
; Function compile flags: /Odtp /RTCsu /ZI
;	COMDAT ??$lookAt@M@glm@@YA?AU?$tmat4x4@M@detail@0@ABU?$tvec3@M@20@00@Z
_TEXT	SEGMENT
tv235 = -424						; size = 4
tv233 = -424						; size = 4
tv231 = -424						; size = 4
$T42480 = -416						; size = 12
$T42481 = -396						; size = 12
$T42482 = -376						; size = 12
$T42483 = -356						; size = 4
$T42484 = -344						; size = 12
_Result$ = -132						; size = 64
_s$ = -60						; size = 12
_u$ = -40						; size = 12
_f$ = -20						; size = 12
__$ArrayPad$ = -4					; size = 4
___$ReturnUdt$ = 8					; size = 4
_eye$ = 12						; size = 4
_center$ = 16						; size = 4
_up$ = 20						; size = 4
??$lookAt@M@glm@@YA?AU?$tmat4x4@M@detail@0@ABU?$tvec3@M@20@00@Z PROC ; glm::lookAt<float>, COMDAT

; 389  : 	{

	push	ebp
	mov	ebp, esp
	sub	esp, 424				; 000001a8H
	push	ebx
	push	esi
	push	edi
	lea	edi, DWORD PTR [ebp-424]
	mov	ecx, 106				; 0000006aH
	mov	eax, -858993460				; ccccccccH
	rep stosd
	mov	eax, DWORD PTR ___security_cookie
	xor	eax, ebp
	mov	DWORD PTR __$ArrayPad$[ebp], eax

; 390  : 		detail::tvec3<T> f = normalize(center - eye);

	mov	eax, DWORD PTR _eye$[ebp]
	push	eax
	mov	ecx, DWORD PTR _center$[ebp]
	push	ecx
	lea	edx, DWORD PTR $T42480[ebp]
	push	edx
	call	??$?GM@detail@glm@@YA?AU?$tvec3@M@01@ABU201@0@Z ; glm::detail::operator-<float>
	add	esp, 12					; 0000000cH
	push	eax
	lea	eax, DWORD PTR _f$[ebp]
	push	eax
	call	??$normalize@M@glm@@YA?AU?$tvec3@M@detail@0@ABU120@@Z ; glm::normalize<float>
	add	esp, 8

; 391  : 		detail::tvec3<T> u = normalize(up);

	mov	eax, DWORD PTR _up$[ebp]
	push	eax
	lea	ecx, DWORD PTR _u$[ebp]
	push	ecx
	call	??$normalize@M@glm@@YA?AU?$tvec3@M@detail@0@ABU120@@Z ; glm::normalize<float>
	add	esp, 8

; 392  : 		detail::tvec3<T> s = normalize(cross(f, u));

	lea	eax, DWORD PTR _u$[ebp]
	push	eax
	lea	ecx, DWORD PTR _f$[ebp]
	push	ecx
	lea	edx, DWORD PTR $T42481[ebp]
	push	edx
	call	??$cross@M@glm@@YA?AU?$tvec3@M@detail@0@ABU120@0@Z ; glm::cross<float>
	add	esp, 12					; 0000000cH
	push	eax
	lea	eax, DWORD PTR _s$[ebp]
	push	eax
	call	??$normalize@M@glm@@YA?AU?$tvec3@M@detail@0@ABU120@@Z ; glm::normalize<float>
	add	esp, 8

; 393  : 		u = cross(s, f);

	lea	eax, DWORD PTR _f$[ebp]
	push	eax
	lea	ecx, DWORD PTR _s$[ebp]
	push	ecx
	lea	edx, DWORD PTR $T42482[ebp]
	push	edx
	call	??$cross@M@glm@@YA?AU?$tvec3@M@detail@0@ABU120@0@Z ; glm::cross<float>
	add	esp, 12					; 0000000cH
	push	eax
	lea	ecx, DWORD PTR _u$[ebp]
	call	??4?$tvec3@M@detail@glm@@QAEAAU012@ABU012@@Z ; glm::detail::tvec3<float>::operator=

; 394  : 
; 395  : 		detail::tmat4x4<T> Result(1);

	mov	DWORD PTR $T42483[ebp], 1
	lea	eax, DWORD PTR $T42483[ebp]
	push	eax
	lea	ecx, DWORD PTR _Result$[ebp]
	call	??$?0H@?$tmat4x4@M@detail@glm@@QAE@ABH@Z ; glm::detail::tmat4x4<float>::tmat4x4<float><int>

; 396  : 		Result[0][0] = s.x;

	push	0
	push	0
	lea	ecx, DWORD PTR _Result$[ebp]
	call	??A?$tmat4x4@M@detail@glm@@QAEAAU?$tvec4@M@12@I@Z ; glm::detail::tmat4x4<float>::operator[]
	mov	ecx, eax
	call	??A?$tvec4@M@detail@glm@@QAEAAMI@Z	; glm::detail::tvec4<float>::operator[]
	fld	DWORD PTR _s$[ebp]
	fstp	DWORD PTR [eax]

; 397  : 		Result[1][0] = s.y;

	push	0
	push	1
	lea	ecx, DWORD PTR _Result$[ebp]
	call	??A?$tmat4x4@M@detail@glm@@QAEAAU?$tvec4@M@12@I@Z ; glm::detail::tmat4x4<float>::operator[]
	mov	ecx, eax
	call	??A?$tvec4@M@detail@glm@@QAEAAMI@Z	; glm::detail::tvec4<float>::operator[]
	fld	DWORD PTR _s$[ebp+4]
	fstp	DWORD PTR [eax]

; 398  : 		Result[2][0] = s.z;

	push	0
	push	2
	lea	ecx, DWORD PTR _Result$[ebp]
	call	??A?$tmat4x4@M@detail@glm@@QAEAAU?$tvec4@M@12@I@Z ; glm::detail::tmat4x4<float>::operator[]
	mov	ecx, eax
	call	??A?$tvec4@M@detail@glm@@QAEAAMI@Z	; glm::detail::tvec4<float>::operator[]
	fld	DWORD PTR _s$[ebp+8]
	fstp	DWORD PTR [eax]

; 399  : 		Result[0][1] = u.x;

	push	1
	push	0
	lea	ecx, DWORD PTR _Result$[ebp]
	call	??A?$tmat4x4@M@detail@glm@@QAEAAU?$tvec4@M@12@I@Z ; glm::detail::tmat4x4<float>::operator[]
	mov	ecx, eax
	call	??A?$tvec4@M@detail@glm@@QAEAAMI@Z	; glm::detail::tvec4<float>::operator[]
	fld	DWORD PTR _u$[ebp]
	fstp	DWORD PTR [eax]

; 400  : 		Result[1][1] = u.y;

	push	1
	push	1
	lea	ecx, DWORD PTR _Result$[ebp]
	call	??A?$tmat4x4@M@detail@glm@@QAEAAU?$tvec4@M@12@I@Z ; glm::detail::tmat4x4<float>::operator[]
	mov	ecx, eax
	call	??A?$tvec4@M@detail@glm@@QAEAAMI@Z	; glm::detail::tvec4<float>::operator[]
	fld	DWORD PTR _u$[ebp+4]
	fstp	DWORD PTR [eax]

; 401  : 		Result[2][1] = u.z;

	push	1
	push	2
	lea	ecx, DWORD PTR _Result$[ebp]
	call	??A?$tmat4x4@M@detail@glm@@QAEAAU?$tvec4@M@12@I@Z ; glm::detail::tmat4x4<float>::operator[]
	mov	ecx, eax
	call	??A?$tvec4@M@detail@glm@@QAEAAMI@Z	; glm::detail::tvec4<float>::operator[]
	fld	DWORD PTR _u$[ebp+8]
	fstp	DWORD PTR [eax]

; 402  : 		Result[0][2] =-f.x;

	fld	DWORD PTR _f$[ebp]
	fchs
	push	2
	push	0
	lea	ecx, DWORD PTR _Result$[ebp]
	fstp	DWORD PTR tv231[ebp]
	call	??A?$tmat4x4@M@detail@glm@@QAEAAU?$tvec4@M@12@I@Z ; glm::detail::tmat4x4<float>::operator[]
	mov	ecx, eax
	call	??A?$tvec4@M@detail@glm@@QAEAAMI@Z	; glm::detail::tvec4<float>::operator[]
	fld	DWORD PTR tv231[ebp]
	fstp	DWORD PTR [eax]

; 403  : 		Result[1][2] =-f.y;

	fld	DWORD PTR _f$[ebp+4]
	fchs
	push	2
	push	1
	lea	ecx, DWORD PTR _Result$[ebp]
	fstp	DWORD PTR tv233[ebp]
	call	??A?$tmat4x4@M@detail@glm@@QAEAAU?$tvec4@M@12@I@Z ; glm::detail::tmat4x4<float>::operator[]
	mov	ecx, eax
	call	??A?$tvec4@M@detail@glm@@QAEAAMI@Z	; glm::detail::tvec4<float>::operator[]
	fld	DWORD PTR tv233[ebp]
	fstp	DWORD PTR [eax]

; 404  : 		Result[2][2] =-f.z;

	fld	DWORD PTR _f$[ebp+8]
	fchs
	push	2
	push	2
	lea	ecx, DWORD PTR _Result$[ebp]
	fstp	DWORD PTR tv235[ebp]
	call	??A?$tmat4x4@M@detail@glm@@QAEAAU?$tvec4@M@12@I@Z ; glm::detail::tmat4x4<float>::operator[]
	mov	ecx, eax
	call	??A?$tvec4@M@detail@glm@@QAEAAMI@Z	; glm::detail::tvec4<float>::operator[]
	fld	DWORD PTR tv235[ebp]
	fstp	DWORD PTR [eax]

; 405  : 	/*  Test this instead of translate3D
; 406  : 		Result[3][0] =-dot(s, eye);
; 407  : 		Result[3][1] =-dot(y, eye);
; 408  : 		Result[3][2] = dot(f, eye);
; 409  : 	*/  
; 410  : 		return translate(Result, -eye);

	mov	eax, DWORD PTR _eye$[ebp]
	push	eax
	lea	ecx, DWORD PTR $T42484[ebp]
	push	ecx
	call	??$?GM@detail@glm@@YA?AU?$tvec3@M@01@ABU201@@Z ; glm::detail::operator-<float>
	add	esp, 8
	push	eax
	lea	edx, DWORD PTR _Result$[ebp]
	push	edx
	mov	eax, DWORD PTR ___$ReturnUdt$[ebp]
	push	eax
	call	??$translate@M@glm@@YA?AU?$tmat4x4@M@detail@0@ABU120@ABU?$tvec3@M@20@@Z ; glm::translate<float>
	add	esp, 12					; 0000000cH
	mov	eax, DWORD PTR ___$ReturnUdt$[ebp]

; 411  : 	}

	push	edx
	mov	ecx, ebp
	push	eax
	lea	edx, DWORD PTR $LN8@lookAt
	call	@_RTC_CheckStackVars@8
	pop	eax
	pop	edx
	pop	edi
	pop	esi
	pop	ebx
	mov	ecx, DWORD PTR __$ArrayPad$[ebp]
	xor	ecx, ebp
	call	@__security_check_cookie@4
	add	esp, 424				; 000001a8H
	cmp	ebp, esp
	call	__RTC_CheckEsp
	mov	esp, ebp
	pop	ebp
	ret	0
	npad	2
$LN8@lookAt:
	DD	4
	DD	$LN7@lookAt
$LN7@lookAt:
	DD	-20					; ffffffecH
	DD	12					; 0000000cH
	DD	$LN3@lookAt
	DD	-40					; ffffffd8H
	DD	12					; 0000000cH
	DD	$LN4@lookAt
	DD	-60					; ffffffc4H
	DD	12					; 0000000cH
	DD	$LN5@lookAt
	DD	-132					; ffffff7cH
	DD	64					; 00000040H
	DD	$LN6@lookAt
$LN6@lookAt:
	DB	82					; 00000052H
	DB	101					; 00000065H
	DB	115					; 00000073H
	DB	117					; 00000075H
	DB	108					; 0000006cH
	DB	116					; 00000074H
	DB	0
$LN5@lookAt:
	DB	115					; 00000073H
	DB	0
$LN4@lookAt:
	DB	117					; 00000075H
	DB	0
$LN3@lookAt:
	DB	102					; 00000066H
	DB	0
??$lookAt@M@glm@@YA?AU?$tmat4x4@M@detail@0@ABU?$tvec3@M@20@00@Z ENDP ; glm::lookAt<float>
; Function compile flags: /Odtp /RTCsu /ZI
_TEXT	ENDS
;	COMDAT ??_H@YGXPAXIHP6EPAX0@Z@Z
_TEXT	SEGMENT
___t$ = 8						; size = 4
___s$ = 12						; size = 4
___n$ = 16						; size = 4
___f$ = 20						; size = 4
??_H@YGXPAXIHP6EPAX0@Z@Z PROC				; `vector constructor iterator', COMDAT
	push	ebp
	mov	ebp, esp
	sub	esp, 192				; 000000c0H
	push	ebx
	push	esi
	push	edi
	lea	edi, DWORD PTR [ebp-192]
	mov	ecx, 48					; 00000030H
	mov	eax, -858993460				; ccccccccH
	rep stosd
$LN2@vector:
	mov	eax, DWORD PTR ___n$[ebp]
	sub	eax, 1
	mov	DWORD PTR ___n$[ebp], eax
	js	SHORT $LN3@vector
	mov	esi, esp
	mov	ecx, DWORD PTR ___t$[ebp]
	call	DWORD PTR ___f$[ebp]
	cmp	esi, esp
	call	__RTC_CheckEsp
	mov	eax, DWORD PTR ___t$[ebp]
	add	eax, DWORD PTR ___s$[ebp]
	mov	DWORD PTR ___t$[ebp], eax
	jmp	SHORT $LN2@vector
$LN3@vector:
	pop	edi
	pop	esi
	pop	ebx
	add	esp, 192				; 000000c0H
	cmp	ebp, esp
	call	__RTC_CheckEsp
	mov	esp, ebp
	pop	ebp
	ret	16					; 00000010H
??_H@YGXPAXIHP6EPAX0@Z@Z ENDP				; `vector constructor iterator'
_TEXT	ENDS
PUBLIC	??_C@_1CG@KOFHLCJL@?$AAi?$AA?5?$AA?$DM?$AA?5?$AAt?$AAh?$AAi?$AAs?$AA?9?$AA?$DO?$AAl?$AAe?$AAn?$AAg?$AAt?$AAh?$AA?$CI?$AA?$CJ?$AA?$AA@ ; `string'
PUBLIC	??_C@_1FK@PFPGOKFD@?$AAc?$AA?3?$AA?2?$AAo?$AAp?$AAe?$AAn?$AAg?$AAl?$AA?2?$AAg?$AAl?$AAm?$AA?9?$AA0?$AA?4?$AA9?$AA?4?$AA3?$AA?4?$AA1?$AA?2?$AAg?$AAl?$AAm?$AA?2?$AAc?$AAo?$AAr?$AAe?$AA?2?$AAt@ ; `string'
PUBLIC	?length@?$tvec4@M@detail@glm@@QBEIXZ		; glm::detail::tvec4<float>::length
EXTRN	__imp___wassert:PROC
;	COMDAT ??_C@_1CG@KOFHLCJL@?$AAi?$AA?5?$AA?$DM?$AA?5?$AAt?$AAh?$AAi?$AAs?$AA?9?$AA?$DO?$AAl?$AAe?$AAn?$AAg?$AAt?$AAh?$AA?$CI?$AA?$CJ?$AA?$AA@
; File c:\opengl\glm-0.9.3.1\glm\core\type_vec4.inl
CONST	SEGMENT
??_C@_1CG@KOFHLCJL@?$AAi?$AA?5?$AA?$DM?$AA?5?$AAt?$AAh?$AAi?$AAs?$AA?9?$AA?$DO?$AAl?$AAe?$AAn?$AAg?$AAt?$AAh?$AA?$CI?$AA?$CJ?$AA?$AA@ DB 'i'
	DB	00H, ' ', 00H, '<', 00H, ' ', 00H, 't', 00H, 'h', 00H, 'i', 00H
	DB	's', 00H, '-', 00H, '>', 00H, 'l', 00H, 'e', 00H, 'n', 00H, 'g'
	DB	00H, 't', 00H, 'h', 00H, '(', 00H, ')', 00H, 00H, 00H ; `string'
CONST	ENDS
;	COMDAT ??_C@_1FK@PFPGOKFD@?$AAc?$AA?3?$AA?2?$AAo?$AAp?$AAe?$AAn?$AAg?$AAl?$AA?2?$AAg?$AAl?$AAm?$AA?9?$AA0?$AA?4?$AA9?$AA?4?$AA3?$AA?4?$AA1?$AA?2?$AAg?$AAl?$AAm?$AA?2?$AAc?$AAo?$AAr?$AAe?$AA?2?$AAt@
CONST	SEGMENT
??_C@_1FK@PFPGOKFD@?$AAc?$AA?3?$AA?2?$AAo?$AAp?$AAe?$AAn?$AAg?$AAl?$AA?2?$AAg?$AAl?$AAm?$AA?9?$AA0?$AA?4?$AA9?$AA?4?$AA3?$AA?4?$AA1?$AA?2?$AAg?$AAl?$AAm?$AA?2?$AAc?$AAo?$AAr?$AAe?$AA?2?$AAt@ DB 'c'
	DB	00H, ':', 00H, '\', 00H, 'o', 00H, 'p', 00H, 'e', 00H, 'n', 00H
	DB	'g', 00H, 'l', 00H, '\', 00H, 'g', 00H, 'l', 00H, 'm', 00H, '-'
	DB	00H, '0', 00H, '.', 00H, '9', 00H, '.', 00H, '3', 00H, '.', 00H
	DB	'1', 00H, '\', 00H, 'g', 00H, 'l', 00H, 'm', 00H, '\', 00H, 'c'
	DB	00H, 'o', 00H, 'r', 00H, 'e', 00H, '\', 00H, 't', 00H, 'y', 00H
	DB	'p', 00H, 'e', 00H, '_', 00H, 'v', 00H, 'e', 00H, 'c', 00H, '4'
	DB	00H, '.', 00H, 'i', 00H, 'n', 00H, 'l', 00H, 00H, 00H ; `string'
; Function compile flags: /Odtp /RTCsu /ZI
CONST	ENDS
;	COMDAT ??A?$tvec4@M@detail@glm@@QAEAAMI@Z
_TEXT	SEGMENT
_this$ = -8						; size = 4
_i$ = 8							; size = 4
??A?$tvec4@M@detail@glm@@QAEAAMI@Z PROC			; glm::detail::tvec4<float>::operator[], COMDAT
; _this$ = ecx

; 47   : 	{

	push	ebp
	mov	ebp, esp
	sub	esp, 204				; 000000ccH
	push	ebx
	push	esi
	push	edi
	push	ecx
	lea	edi, DWORD PTR [ebp-204]
	mov	ecx, 51					; 00000033H
	mov	eax, -858993460				; ccccccccH
	rep stosd
	pop	ecx
	mov	DWORD PTR _this$[ebp], ecx

; 48   : 		assert(i < this->length());

	mov	ecx, DWORD PTR _this$[ebp]
	call	?length@?$tvec4@M@detail@glm@@QBEIXZ	; glm::detail::tvec4<float>::length
	cmp	DWORD PTR _i$[ebp], eax
	jb	SHORT $LN3@operator
	mov	esi, esp
	push	48					; 00000030H
	push	OFFSET ??_C@_1FK@PFPGOKFD@?$AAc?$AA?3?$AA?2?$AAo?$AAp?$AAe?$AAn?$AAg?$AAl?$AA?2?$AAg?$AAl?$AAm?$AA?9?$AA0?$AA?4?$AA9?$AA?4?$AA3?$AA?4?$AA1?$AA?2?$AAg?$AAl?$AAm?$AA?2?$AAc?$AAo?$AAr?$AAe?$AA?2?$AAt@
	push	OFFSET ??_C@_1CG@KOFHLCJL@?$AAi?$AA?5?$AA?$DM?$AA?5?$AAt?$AAh?$AAi?$AAs?$AA?9?$AA?$DO?$AAl?$AAe?$AAn?$AAg?$AAt?$AAh?$AA?$CI?$AA?$CJ?$AA?$AA@
	call	DWORD PTR __imp___wassert
	add	esp, 12					; 0000000cH
	cmp	esi, esp
	call	__RTC_CheckEsp
$LN3@operator:

; 49   : 		return (&x)[i];

	mov	eax, DWORD PTR _i$[ebp]
	mov	ecx, DWORD PTR _this$[ebp]
	lea	eax, DWORD PTR [ecx+eax*4]

; 50   : 	}

	pop	edi
	pop	esi
	pop	ebx
	add	esp, 204				; 000000ccH
	cmp	ebp, esp
	call	__RTC_CheckEsp
	mov	esp, ebp
	pop	ebp
	ret	4
??A?$tvec4@M@detail@glm@@QAEAAMI@Z ENDP			; glm::detail::tvec4<float>::operator[]
; Function compile flags: /Odtp /RTCsu /ZI
_TEXT	ENDS
;	COMDAT ??0?$tvec4@M@detail@glm@@QAE@XZ
_TEXT	SEGMENT
_this$ = -8						; size = 4
??0?$tvec4@M@detail@glm@@QAE@XZ PROC			; glm::detail::tvec4<float>::tvec4<float>, COMDAT
; _this$ = ecx

; 72   : 	{}

	push	ebp
	mov	ebp, esp
	sub	esp, 204				; 000000ccH
	push	ebx
	push	esi
	push	edi
	push	ecx
	lea	edi, DWORD PTR [ebp-204]
	mov	ecx, 51					; 00000033H
	mov	eax, -858993460				; ccccccccH
	rep stosd
	pop	ecx
	mov	DWORD PTR _this$[ebp], ecx
	mov	eax, DWORD PTR _this$[ebp]
	fldz
	fstp	DWORD PTR [eax]
	mov	eax, DWORD PTR _this$[ebp]
	fldz
	fstp	DWORD PTR [eax+4]
	mov	eax, DWORD PTR _this$[ebp]
	fldz
	fstp	DWORD PTR [eax+8]
	mov	eax, DWORD PTR _this$[ebp]
	fldz
	fstp	DWORD PTR [eax+12]
	mov	eax, DWORD PTR _this$[ebp]
	pop	edi
	pop	esi
	pop	ebx
	mov	esp, ebp
	pop	ebp
	ret	0
??0?$tvec4@M@detail@glm@@QAE@XZ ENDP			; glm::detail::tvec4<float>::tvec4<float>
; Function compile flags: /Odtp /RTCsu /ZI
_TEXT	ENDS
;	COMDAT ??4?$tvec4@M@detail@glm@@QAEAAU012@ABU012@@Z
_TEXT	SEGMENT
_this$ = -8						; size = 4
_v$ = 8							; size = 4
??4?$tvec4@M@detail@glm@@QAEAAU012@ABU012@@Z PROC	; glm::detail::tvec4<float>::operator=, COMDAT
; _this$ = ecx

; 375  : 	{

	push	ebp
	mov	ebp, esp
	sub	esp, 204				; 000000ccH
	push	ebx
	push	esi
	push	edi
	push	ecx
	lea	edi, DWORD PTR [ebp-204]
	mov	ecx, 51					; 00000033H
	mov	eax, -858993460				; ccccccccH
	rep stosd
	pop	ecx
	mov	DWORD PTR _this$[ebp], ecx

; 376  : 		this->x = v.x;

	mov	eax, DWORD PTR _this$[ebp]
	mov	ecx, DWORD PTR _v$[ebp]
	fld	DWORD PTR [ecx]
	fstp	DWORD PTR [eax]

; 377  : 		this->y = v.y;

	mov	eax, DWORD PTR _this$[ebp]
	mov	ecx, DWORD PTR _v$[ebp]
	fld	DWORD PTR [ecx+4]
	fstp	DWORD PTR [eax+4]

; 378  : 		this->z = v.z;

	mov	eax, DWORD PTR _this$[ebp]
	mov	ecx, DWORD PTR _v$[ebp]
	fld	DWORD PTR [ecx+8]
	fstp	DWORD PTR [eax+8]

; 379  : 		this->w = v.w;

	mov	eax, DWORD PTR _this$[ebp]
	mov	ecx, DWORD PTR _v$[ebp]
	fld	DWORD PTR [ecx+12]
	fstp	DWORD PTR [eax+12]

; 380  : 		return *this;

	mov	eax, DWORD PTR _this$[ebp]

; 381  : 	}

	pop	edi
	pop	esi
	pop	ebx
	mov	esp, ebp
	pop	ebp
	ret	4
??4?$tvec4@M@detail@glm@@QAEAAU012@ABU012@@Z ENDP	; glm::detail::tvec4<float>::operator=
; Function compile flags: /Odtp /RTCsu /ZI
; File c:\opengl\glm-0.9.3.1\glm\core\type_mat4x4.inl
_TEXT	ENDS
;	COMDAT ??0?$tmat4x4@M@detail@glm@@QAE@ABM@Z
_TEXT	SEGMENT
$T42502 = -308						; size = 16
$T42503 = -284						; size = 16
$T42504 = -260						; size = 16
$T42505 = -236						; size = 16
_Zero$ = -20						; size = 4
_this$ = -8						; size = 4
_s$ = 8							; size = 4
??0?$tmat4x4@M@detail@glm@@QAE@ABM@Z PROC		; glm::detail::tmat4x4<float>::tmat4x4<float>, COMDAT
; _this$ = ecx

; 113  :     {

	push	ebp
	mov	ebp, esp
	sub	esp, 312				; 00000138H
	push	ebx
	push	esi
	push	edi
	push	ecx
	lea	edi, DWORD PTR [ebp-312]
	mov	ecx, 78					; 0000004eH
	mov	eax, -858993460				; ccccccccH
	rep stosd
	pop	ecx
	mov	DWORD PTR _this$[ebp], ecx
	push	OFFSET ??0?$tvec4@M@detail@glm@@QAE@XZ	; glm::detail::tvec4<float>::tvec4<float>
	push	4
	push	16					; 00000010H
	mov	eax, DWORD PTR _this$[ebp]
	push	eax
	call	??_H@YGXPAXIHP6EPAX0@Z@Z

; 114  : 		value_type const Zero(0);

	fldz
	fstp	DWORD PTR _Zero$[ebp]

; 115  :         this->value[0] = col_type(s, Zero, Zero, Zero);

	lea	eax, DWORD PTR _Zero$[ebp]
	push	eax
	lea	ecx, DWORD PTR _Zero$[ebp]
	push	ecx
	lea	edx, DWORD PTR _Zero$[ebp]
	push	edx
	mov	eax, DWORD PTR _s$[ebp]
	push	eax
	lea	ecx, DWORD PTR $T42502[ebp]
	call	??0?$tvec4@M@detail@glm@@QAE@ABM000@Z	; glm::detail::tvec4<float>::tvec4<float>
	push	eax
	mov	ecx, DWORD PTR _this$[ebp]
	call	??4?$tvec4@M@detail@glm@@QAEAAU012@ABU012@@Z ; glm::detail::tvec4<float>::operator=

; 116  :         this->value[1] = col_type(Zero, s, Zero, Zero);

	lea	eax, DWORD PTR _Zero$[ebp]
	push	eax
	lea	ecx, DWORD PTR _Zero$[ebp]
	push	ecx
	mov	edx, DWORD PTR _s$[ebp]
	push	edx
	lea	eax, DWORD PTR _Zero$[ebp]
	push	eax
	lea	ecx, DWORD PTR $T42503[ebp]
	call	??0?$tvec4@M@detail@glm@@QAE@ABM000@Z	; glm::detail::tvec4<float>::tvec4<float>
	push	eax
	mov	ecx, DWORD PTR _this$[ebp]
	add	ecx, 16					; 00000010H
	call	??4?$tvec4@M@detail@glm@@QAEAAU012@ABU012@@Z ; glm::detail::tvec4<float>::operator=

; 117  :         this->value[2] = col_type(Zero, Zero, s, Zero);

	lea	eax, DWORD PTR _Zero$[ebp]
	push	eax
	mov	ecx, DWORD PTR _s$[ebp]
	push	ecx
	lea	edx, DWORD PTR _Zero$[ebp]
	push	edx
	lea	eax, DWORD PTR _Zero$[ebp]
	push	eax
	lea	ecx, DWORD PTR $T42504[ebp]
	call	??0?$tvec4@M@detail@glm@@QAE@ABM000@Z	; glm::detail::tvec4<float>::tvec4<float>
	push	eax
	mov	ecx, DWORD PTR _this$[ebp]
	add	ecx, 32					; 00000020H
	call	??4?$tvec4@M@detail@glm@@QAEAAU012@ABU012@@Z ; glm::detail::tvec4<float>::operator=

; 118  :         this->value[3] = col_type(Zero, Zero, Zero, s);

	mov	eax, DWORD PTR _s$[ebp]
	push	eax
	lea	ecx, DWORD PTR _Zero$[ebp]
	push	ecx
	lea	edx, DWORD PTR _Zero$[ebp]
	push	edx
	lea	eax, DWORD PTR _Zero$[ebp]
	push	eax
	lea	ecx, DWORD PTR $T42505[ebp]
	call	??0?$tvec4@M@detail@glm@@QAE@ABM000@Z	; glm::detail::tvec4<float>::tvec4<float>
	push	eax
	mov	ecx, DWORD PTR _this$[ebp]
	add	ecx, 48					; 00000030H
	call	??4?$tvec4@M@detail@glm@@QAEAAU012@ABU012@@Z ; glm::detail::tvec4<float>::operator=

; 119  :     }

	mov	eax, DWORD PTR _this$[ebp]
	push	edx
	mov	ecx, ebp
	push	eax
	lea	edx, DWORD PTR $LN5@tmat4x4@2
	call	@_RTC_CheckStackVars@8
	pop	eax
	pop	edx
	pop	edi
	pop	esi
	pop	ebx
	add	esp, 312				; 00000138H
	cmp	ebp, esp
	call	__RTC_CheckEsp
	mov	esp, ebp
	pop	ebp
	ret	4
	npad	3
$LN5@tmat4x4@2:
	DD	1
	DD	$LN4@tmat4x4@2
$LN4@tmat4x4@2:
	DD	-20					; ffffffecH
	DD	4
	DD	$LN3@tmat4x4@2
$LN3@tmat4x4@2:
	DB	90					; 0000005aH
	DB	101					; 00000065H
	DB	114					; 00000072H
	DB	111					; 0000006fH
	DB	0
??0?$tmat4x4@M@detail@glm@@QAE@ABM@Z ENDP		; glm::detail::tmat4x4<float>::tmat4x4<float>
; Function compile flags: /Odtp /RTCsu /ZI
_TEXT	ENDS
;	COMDAT ??0?$tmat4x4@M@detail@glm@@QAE@ABU012@@Z
_TEXT	SEGMENT
_this$ = -8						; size = 4
_m$ = 8							; size = 4
??0?$tmat4x4@M@detail@glm@@QAE@ABU012@@Z PROC		; glm::detail::tmat4x4<float>::tmat4x4<float>, COMDAT
; _this$ = ecx

; 94   :     {

	push	ebp
	mov	ebp, esp
	sub	esp, 204				; 000000ccH
	push	ebx
	push	esi
	push	edi
	push	ecx
	lea	edi, DWORD PTR [ebp-204]
	mov	ecx, 51					; 00000033H
	mov	eax, -858993460				; ccccccccH
	rep stosd
	pop	ecx
	mov	DWORD PTR _this$[ebp], ecx
	push	OFFSET ??0?$tvec4@M@detail@glm@@QAE@XZ	; glm::detail::tvec4<float>::tvec4<float>
	push	4
	push	16					; 00000010H
	mov	eax, DWORD PTR _this$[ebp]
	push	eax
	call	??_H@YGXPAXIHP6EPAX0@Z@Z

; 95   :         this->value[0] = m.value[0];

	mov	eax, DWORD PTR _m$[ebp]
	push	eax
	mov	ecx, DWORD PTR _this$[ebp]
	call	??4?$tvec4@M@detail@glm@@QAEAAU012@ABU012@@Z ; glm::detail::tvec4<float>::operator=

; 96   :         this->value[1] = m.value[1];

	mov	eax, DWORD PTR _m$[ebp]
	add	eax, 16					; 00000010H
	push	eax
	mov	ecx, DWORD PTR _this$[ebp]
	add	ecx, 16					; 00000010H
	call	??4?$tvec4@M@detail@glm@@QAEAAU012@ABU012@@Z ; glm::detail::tvec4<float>::operator=

; 97   :         this->value[2] = m.value[2];

	mov	eax, DWORD PTR _m$[ebp]
	add	eax, 32					; 00000020H
	push	eax
	mov	ecx, DWORD PTR _this$[ebp]
	add	ecx, 32					; 00000020H
	call	??4?$tvec4@M@detail@glm@@QAEAAU012@ABU012@@Z ; glm::detail::tvec4<float>::operator=

; 98   :         this->value[3] = m.value[3];

	mov	eax, DWORD PTR _m$[ebp]
	add	eax, 48					; 00000030H
	push	eax
	mov	ecx, DWORD PTR _this$[ebp]
	add	ecx, 48					; 00000030H
	call	??4?$tvec4@M@detail@glm@@QAEAAU012@ABU012@@Z ; glm::detail::tvec4<float>::operator=

; 99   :     }

	mov	eax, DWORD PTR _this$[ebp]
	pop	edi
	pop	esi
	pop	ebx
	add	esp, 204				; 000000ccH
	cmp	ebp, esp
	call	__RTC_CheckEsp
	mov	esp, ebp
	pop	ebp
	ret	4
??0?$tmat4x4@M@detail@glm@@QAE@ABU012@@Z ENDP		; glm::detail::tmat4x4<float>::tmat4x4<float>
_TEXT	ENDS
PUBLIC	??_C@_1FO@LCBJDNCK@?$AAc?$AA?3?$AA?2?$AAo?$AAp?$AAe?$AAn?$AAg?$AAl?$AA?2?$AAg?$AAl?$AAm?$AA?9?$AA0?$AA?4?$AA9?$AA?4?$AA3?$AA?4?$AA1?$AA?2?$AAg?$AAl?$AAm?$AA?2?$AAc?$AAo?$AAr?$AAe?$AA?2?$AAt@ ; `string'
PUBLIC	?length@?$tmat4x4@M@detail@glm@@QBEIXZ		; glm::detail::tmat4x4<float>::length
;	COMDAT ??_C@_1FO@LCBJDNCK@?$AAc?$AA?3?$AA?2?$AAo?$AAp?$AAe?$AAn?$AAg?$AAl?$AA?2?$AAg?$AAl?$AAm?$AA?9?$AA0?$AA?4?$AA9?$AA?4?$AA3?$AA?4?$AA1?$AA?2?$AAg?$AAl?$AAm?$AA?2?$AAc?$AAo?$AAr?$AAe?$AA?2?$AAt@
CONST	SEGMENT
??_C@_1FO@LCBJDNCK@?$AAc?$AA?3?$AA?2?$AAo?$AAp?$AAe?$AAn?$AAg?$AAl?$AA?2?$AAg?$AAl?$AAm?$AA?9?$AA0?$AA?4?$AA9?$AA?4?$AA3?$AA?4?$AA1?$AA?2?$AAg?$AAl?$AAm?$AA?2?$AAc?$AAo?$AAr?$AAe?$AA?2?$AAt@ DB 'c'
	DB	00H, ':', 00H, '\', 00H, 'o', 00H, 'p', 00H, 'e', 00H, 'n', 00H
	DB	'g', 00H, 'l', 00H, '\', 00H, 'g', 00H, 'l', 00H, 'm', 00H, '-'
	DB	00H, '0', 00H, '.', 00H, '9', 00H, '.', 00H, '3', 00H, '.', 00H
	DB	'1', 00H, '\', 00H, 'g', 00H, 'l', 00H, 'm', 00H, '\', 00H, 'c'
	DB	00H, 'o', 00H, 'r', 00H, 'e', 00H, '\', 00H, 't', 00H, 'y', 00H
	DB	'p', 00H, 'e', 00H, '_', 00H, 'm', 00H, 'a', 00H, 't', 00H, '4'
	DB	00H, 'x', 00H, '4', 00H, '.', 00H, 'i', 00H, 'n', 00H, 'l', 00H
	DB	00H, 00H					; `string'
; Function compile flags: /Odtp /RTCsu /ZI
CONST	ENDS
;	COMDAT ??A?$tmat4x4@M@detail@glm@@QBEABU?$tvec4@M@12@I@Z
_TEXT	SEGMENT
_this$ = -8						; size = 4
_i$ = 8							; size = 4
??A?$tmat4x4@M@detail@glm@@QBEABU?$tvec4@M@12@I@Z PROC	; glm::detail::tmat4x4<float>::operator[], COMDAT
; _this$ = ecx

; 70   : 	{

	push	ebp
	mov	ebp, esp
	sub	esp, 204				; 000000ccH
	push	ebx
	push	esi
	push	edi
	push	ecx
	lea	edi, DWORD PTR [ebp-204]
	mov	ecx, 51					; 00000033H
	mov	eax, -858993460				; ccccccccH
	rep stosd
	pop	ecx
	mov	DWORD PTR _this$[ebp], ecx

; 71   : 		assert(i < this->length());

	mov	ecx, DWORD PTR _this$[ebp]
	call	?length@?$tmat4x4@M@detail@glm@@QBEIXZ	; glm::detail::tmat4x4<float>::length
	cmp	DWORD PTR _i$[ebp], eax
	jb	SHORT $LN3@operator@2
	mov	esi, esp
	push	71					; 00000047H
	push	OFFSET ??_C@_1FO@LCBJDNCK@?$AAc?$AA?3?$AA?2?$AAo?$AAp?$AAe?$AAn?$AAg?$AAl?$AA?2?$AAg?$AAl?$AAm?$AA?9?$AA0?$AA?4?$AA9?$AA?4?$AA3?$AA?4?$AA1?$AA?2?$AAg?$AAl?$AAm?$AA?2?$AAc?$AAo?$AAr?$AAe?$AA?2?$AAt@
	push	OFFSET ??_C@_1CG@KOFHLCJL@?$AAi?$AA?5?$AA?$DM?$AA?5?$AAt?$AAh?$AAi?$AAs?$AA?9?$AA?$DO?$AAl?$AAe?$AAn?$AAg?$AAt?$AAh?$AA?$CI?$AA?$CJ?$AA?$AA@
	call	DWORD PTR __imp___wassert
	add	esp, 12					; 0000000cH
	cmp	esi, esp
	call	__RTC_CheckEsp
$LN3@operator@2:

; 72   : 		return this->value[i];

	mov	eax, DWORD PTR _i$[ebp]
	shl	eax, 4
	add	eax, DWORD PTR _this$[ebp]

; 73   : 	}

	pop	edi
	pop	esi
	pop	ebx
	add	esp, 204				; 000000ccH
	cmp	ebp, esp
	call	__RTC_CheckEsp
	mov	esp, ebp
	pop	ebp
	ret	4
??A?$tmat4x4@M@detail@glm@@QBEABU?$tvec4@M@12@I@Z ENDP	; glm::detail::tmat4x4<float>::operator[]
; Function compile flags: /Odtp /RTCsu /ZI
_TEXT	ENDS
;	COMDAT ??A?$tmat4x4@M@detail@glm@@QAEAAU?$tvec4@M@12@I@Z
_TEXT	SEGMENT
_this$ = -8						; size = 4
_i$ = 8							; size = 4
??A?$tmat4x4@M@detail@glm@@QAEAAU?$tvec4@M@12@I@Z PROC	; glm::detail::tmat4x4<float>::operator[], COMDAT
; _this$ = ecx

; 59   : 	{

	push	ebp
	mov	ebp, esp
	sub	esp, 204				; 000000ccH
	push	ebx
	push	esi
	push	edi
	push	ecx
	lea	edi, DWORD PTR [ebp-204]
	mov	ecx, 51					; 00000033H
	mov	eax, -858993460				; ccccccccH
	rep stosd
	pop	ecx
	mov	DWORD PTR _this$[ebp], ecx

; 60   : 		assert(i < this->length());

	mov	ecx, DWORD PTR _this$[ebp]
	call	?length@?$tmat4x4@M@detail@glm@@QBEIXZ	; glm::detail::tmat4x4<float>::length
	cmp	DWORD PTR _i$[ebp], eax
	jb	SHORT $LN3@operator@3
	mov	esi, esp
	push	60					; 0000003cH
	push	OFFSET ??_C@_1FO@LCBJDNCK@?$AAc?$AA?3?$AA?2?$AAo?$AAp?$AAe?$AAn?$AAg?$AAl?$AA?2?$AAg?$AAl?$AAm?$AA?9?$AA0?$AA?4?$AA9?$AA?4?$AA3?$AA?4?$AA1?$AA?2?$AAg?$AAl?$AAm?$AA?2?$AAc?$AAo?$AAr?$AAe?$AA?2?$AAt@
	push	OFFSET ??_C@_1CG@KOFHLCJL@?$AAi?$AA?5?$AA?$DM?$AA?5?$AAt?$AAh?$AAi?$AAs?$AA?9?$AA?$DO?$AAl?$AAe?$AAn?$AAg?$AAt?$AAh?$AA?$CI?$AA?$CJ?$AA?$AA@
	call	DWORD PTR __imp___wassert
	add	esp, 12					; 0000000cH
	cmp	esi, esp
	call	__RTC_CheckEsp
$LN3@operator@3:

; 61   : 		return this->value[i];

	mov	eax, DWORD PTR _i$[ebp]
	shl	eax, 4
	add	eax, DWORD PTR _this$[ebp]

; 62   : 	}

	pop	edi
	pop	esi
	pop	ebx
	add	esp, 204				; 000000ccH
	cmp	ebp, esp
	call	__RTC_CheckEsp
	mov	esp, ebp
	pop	ebp
	ret	4
??A?$tmat4x4@M@detail@glm@@QAEAAU?$tvec4@M@12@I@Z ENDP	; glm::detail::tmat4x4<float>::operator[]
_TEXT	ENDS
PUBLIC	__real@4066800000000000
PUBLIC	__real@40490fdb
;	COMDAT __real@4066800000000000
; File c:\opengl\glm-0.9.3.1\glm\core\func_trigonometric.inl
CONST	SEGMENT
__real@4066800000000000 DQ 04066800000000000r	; 180
CONST	ENDS
;	COMDAT __real@40490fdb
CONST	SEGMENT
__real@40490fdb DD 040490fdbr			; 3.14159
; Function compile flags: /Odtp /RTCsu /ZI
CONST	ENDS
;	COMDAT ??$radians@M@glm@@YAMABM@Z
_TEXT	SEGMENT
tv73 = -208						; size = 4
_pi$ = -8						; size = 4
_degrees$ = 8						; size = 4
??$radians@M@glm@@YAMABM@Z PROC				; glm::radians<float>, COMDAT

; 39   : 	{

	push	ebp
	mov	ebp, esp
	sub	esp, 208				; 000000d0H
	push	ebx
	push	esi
	push	edi
	lea	edi, DWORD PTR [ebp-208]
	mov	ecx, 52					; 00000034H
	mov	eax, -858993460				; ccccccccH
	rep stosd

; 40   : 		GLM_STATIC_ASSERT(detail::type<genType>::is_float, "'radians' only accept floating-point input");
; 41   : 
; 42   : 		genType const pi = genType(3.1415926535897932384626433832795);

	fld	DWORD PTR __real@40490fdb
	fstp	DWORD PTR _pi$[ebp]

; 43   : 		return degrees * (pi / genType(180));

	fld	DWORD PTR _pi$[ebp]
	fdiv	QWORD PTR __real@4066800000000000
	mov	eax, DWORD PTR _degrees$[ebp]
	fmul	DWORD PTR [eax]
	fstp	DWORD PTR tv73[ebp]
	fld	DWORD PTR tv73[ebp]

; 44   : 	}

	pop	edi
	pop	esi
	pop	ebx
	mov	esp, ebp
	pop	ebp
	ret	0
??$radians@M@glm@@YAMABM@Z ENDP				; glm::radians<float>
_TEXT	ENDS
PUBLIC	?tan@@YAMM@Z					; tan
; Function compile flags: /Odtp /RTCsu /ZI
;	COMDAT ??$tan@M@glm@@YAMABM@Z
_TEXT	SEGMENT
_angle$ = 8						; size = 4
??$tan@M@glm@@YAMABM@Z PROC				; glm::tan<float>, COMDAT

; 94   : 	{

	push	ebp
	mov	ebp, esp
	sub	esp, 192				; 000000c0H
	push	ebx
	push	esi
	push	edi
	lea	edi, DWORD PTR [ebp-192]
	mov	ecx, 48					; 00000030H
	mov	eax, -858993460				; ccccccccH
	rep stosd

; 95   : 		GLM_STATIC_ASSERT(detail::type<genType>::is_float, "'tan' only accept floating-point input");
; 96   : 
; 97   : 		return ::std::tan(angle);

	mov	eax, DWORD PTR _angle$[ebp]
	push	ecx
	fld	DWORD PTR [eax]
	fstp	DWORD PTR [esp]
	call	?tan@@YAMM@Z				; tan
	add	esp, 4

; 98   : 	}

	pop	edi
	pop	esi
	pop	ebx
	add	esp, 192				; 000000c0H
	cmp	ebp, esp
	call	__RTC_CheckEsp
	mov	esp, ebp
	pop	ebp
	ret	0
??$tan@M@glm@@YAMABM@Z ENDP				; glm::tan<float>
_TEXT	ENDS
PUBLIC	_tanf
; Function compile flags: /Odtp /RTCsu /ZI
; File c:\program files (x86)\microsoft visual studio 10.0\vc\include\math.h
;	COMDAT ?tan@@YAMM@Z
_TEXT	SEGMENT
__X$ = 8						; size = 4
?tan@@YAMM@Z PROC					; tan, COMDAT

; 544  :         {return (tanf(_X)); }

	push	ebp
	mov	ebp, esp
	sub	esp, 192				; 000000c0H
	push	ebx
	push	esi
	push	edi
	lea	edi, DWORD PTR [ebp-192]
	mov	ecx, 48					; 00000030H
	mov	eax, -858993460				; ccccccccH
	rep stosd
	push	ecx
	fld	DWORD PTR __X$[ebp]
	fstp	DWORD PTR [esp]
	call	_tanf
	add	esp, 4
	pop	edi
	pop	esi
	pop	ebx
	add	esp, 192				; 000000c0H
	cmp	ebp, esp
	call	__RTC_CheckEsp
	mov	esp, ebp
	pop	ebp
	ret	0
?tan@@YAMM@Z ENDP					; tan
_TEXT	ENDS
EXTRN	_tan:PROC
; Function compile flags: /Odtp /RTCsu /ZI
;	COMDAT _tanf
_TEXT	SEGMENT
tv73 = -196						; size = 4
__X$ = 8						; size = 4
_tanf	PROC						; COMDAT

; 436  :         {return ((float)tan((double)_X)); }

	push	ebp
	mov	ebp, esp
	sub	esp, 196				; 000000c4H
	push	ebx
	push	esi
	push	edi
	lea	edi, DWORD PTR [ebp-196]
	mov	ecx, 49					; 00000031H
	mov	eax, -858993460				; ccccccccH
	rep stosd
	fld	DWORD PTR __X$[ebp]
	sub	esp, 8
	fstp	QWORD PTR [esp]
	call	_tan
	add	esp, 8
	fstp	DWORD PTR tv73[ebp]
	fld	DWORD PTR tv73[ebp]
	pop	edi
	pop	esi
	pop	ebx
	add	esp, 196				; 000000c4H
	cmp	ebp, esp
	call	__RTC_CheckEsp
	mov	esp, ebp
	pop	ebp
	ret	0
_tanf	ENDP
_TEXT	ENDS
PUBLIC	??0?$tvec3@M@detail@glm@@QAE@ABM00@Z		; glm::detail::tvec3<float>::tvec3<float>
; Function compile flags: /Odtp /RTCsu /ZI
; File c:\opengl\glm-0.9.3.1\glm\core\type_vec3.inl
;	COMDAT ??$?GM@detail@glm@@YA?AU?$tvec3@M@01@ABU201@0@Z
_TEXT	SEGMENT
$T42531 = -224						; size = 4
$T42532 = -212						; size = 4
$T42533 = -200						; size = 4
___$ReturnUdt$ = 8					; size = 4
_v1$ = 12						; size = 4
_v2$ = 16						; size = 4
??$?GM@detail@glm@@YA?AU?$tvec3@M@01@ABU201@0@Z PROC	; glm::detail::operator-<float>, COMDAT

; 716  : 	{

	push	ebp
	mov	ebp, esp
	sub	esp, 228				; 000000e4H
	push	ebx
	push	esi
	push	edi
	lea	edi, DWORD PTR [ebp-228]
	mov	ecx, 57					; 00000039H
	mov	eax, -858993460				; ccccccccH
	rep stosd

; 717  : 		return tvec3<T>(
; 718  : 			v1.x - T(v2.x),
; 719  : 			v1.y - T(v2.y),
; 720  : 			v1.z - T(v2.z));

	mov	eax, DWORD PTR _v1$[ebp]
	fld	DWORD PTR [eax+8]
	mov	ecx, DWORD PTR _v2$[ebp]
	fsub	DWORD PTR [ecx+8]
	fstp	DWORD PTR $T42531[ebp]
	mov	edx, DWORD PTR _v1$[ebp]
	fld	DWORD PTR [edx+4]
	mov	eax, DWORD PTR _v2$[ebp]
	fsub	DWORD PTR [eax+4]
	fstp	DWORD PTR $T42532[ebp]
	mov	ecx, DWORD PTR _v1$[ebp]
	fld	DWORD PTR [ecx]
	mov	edx, DWORD PTR _v2$[ebp]
	fsub	DWORD PTR [edx]
	fstp	DWORD PTR $T42533[ebp]
	lea	eax, DWORD PTR $T42531[ebp]
	push	eax
	lea	ecx, DWORD PTR $T42532[ebp]
	push	ecx
	lea	edx, DWORD PTR $T42533[ebp]
	push	edx
	mov	ecx, DWORD PTR ___$ReturnUdt$[ebp]
	call	??0?$tvec3@M@detail@glm@@QAE@ABM00@Z	; glm::detail::tvec3<float>::tvec3<float>
	mov	eax, DWORD PTR ___$ReturnUdt$[ebp]

; 721  : 	}

	pop	edi
	pop	esi
	pop	ebx
	add	esp, 228				; 000000e4H
	cmp	ebp, esp
	call	__RTC_CheckEsp
	mov	esp, ebp
	pop	ebp
	ret	0
??$?GM@detail@glm@@YA?AU?$tvec3@M@01@ABU201@0@Z ENDP	; glm::detail::operator-<float>
; Function compile flags: /Odtp /RTCsu /ZI
_TEXT	ENDS
;	COMDAT ??0?$tvec3@M@detail@glm@@QAE@ABM00@Z
_TEXT	SEGMENT
_this$ = -8						; size = 4
_s0$ = 8						; size = 4
_s1$ = 12						; size = 4
_s2$ = 16						; size = 4
??0?$tvec3@M@detail@glm@@QAE@ABM00@Z PROC		; glm::detail::tvec3<float>::tvec3<float>, COMDAT
; _this$ = ecx

; 113  : 	{}

	push	ebp
	mov	ebp, esp
	sub	esp, 204				; 000000ccH
	push	ebx
	push	esi
	push	edi
	push	ecx
	lea	edi, DWORD PTR [ebp-204]
	mov	ecx, 51					; 00000033H
	mov	eax, -858993460				; ccccccccH
	rep stosd
	pop	ecx
	mov	DWORD PTR _this$[ebp], ecx
	mov	eax, DWORD PTR _this$[ebp]
	mov	ecx, DWORD PTR _s0$[ebp]
	fld	DWORD PTR [ecx]
	fstp	DWORD PTR [eax]
	mov	eax, DWORD PTR _this$[ebp]
	mov	ecx, DWORD PTR _s1$[ebp]
	fld	DWORD PTR [ecx]
	fstp	DWORD PTR [eax+4]
	mov	eax, DWORD PTR _this$[ebp]
	mov	ecx, DWORD PTR _s2$[ebp]
	fld	DWORD PTR [ecx]
	fstp	DWORD PTR [eax+8]
	mov	eax, DWORD PTR _this$[ebp]
	pop	edi
	pop	esi
	pop	ebx
	mov	esp, ebp
	pop	ebp
	ret	12					; 0000000cH
??0?$tvec3@M@detail@glm@@QAE@ABM00@Z ENDP		; glm::detail::tvec3<float>::tvec3<float>
_TEXT	ENDS
PUBLIC	??$?DM@detail@glm@@YA?AU?$tvec3@M@01@ABU201@ABM@Z ; glm::detail::operator*<float>
PUBLIC	??$inversesqrt@M@glm@@YAMABM@Z			; glm::inversesqrt<float>
; Function compile flags: /Odtp /RTCsu /ZI
; File c:\opengl\glm-0.9.3.1\glm\core\func_geometric.inl
;	COMDAT ??$normalize@M@glm@@YA?AU?$tvec3@M@detail@0@ABU120@@Z
_TEXT	SEGMENT
$T42538 = -212						; size = 4
_sqr$ = -8						; size = 4
___$ReturnUdt$ = 8					; size = 4
_x$ = 12						; size = 4
??$normalize@M@glm@@YA?AU?$tvec3@M@detail@0@ABU120@@Z PROC ; glm::normalize<float>, COMDAT

; 243  :     {

	push	ebp
	mov	ebp, esp
	sub	esp, 216				; 000000d8H
	push	ebx
	push	esi
	push	edi
	lea	edi, DWORD PTR [ebp-216]
	mov	ecx, 54					; 00000036H
	mov	eax, -858993460				; ccccccccH
	rep stosd

; 244  :         GLM_STATIC_ASSERT(detail::type<T>::is_float, "'normalize' only accept floating-point inputs");
; 245  : 
; 246  : 		typename detail::tvec3<T>::value_type sqr = x.x * x.x + x.y * x.y + x.z * x.z;

	mov	eax, DWORD PTR _x$[ebp]
	fld	DWORD PTR [eax]
	mov	ecx, DWORD PTR _x$[ebp]
	fmul	DWORD PTR [ecx]
	mov	edx, DWORD PTR _x$[ebp]
	fld	DWORD PTR [edx+4]
	mov	eax, DWORD PTR _x$[ebp]
	fmul	DWORD PTR [eax+4]
	faddp	ST(1), ST(0)
	mov	ecx, DWORD PTR _x$[ebp]
	fld	DWORD PTR [ecx+8]
	mov	edx, DWORD PTR _x$[ebp]
	fmul	DWORD PTR [edx+8]
	faddp	ST(1), ST(0)
	fstp	DWORD PTR _sqr$[ebp]

; 247  : 	    return x * inversesqrt(sqr);

	lea	eax, DWORD PTR _sqr$[ebp]
	push	eax
	call	??$inversesqrt@M@glm@@YAMABM@Z		; glm::inversesqrt<float>
	add	esp, 4
	fstp	DWORD PTR $T42538[ebp]
	lea	ecx, DWORD PTR $T42538[ebp]
	push	ecx
	mov	edx, DWORD PTR _x$[ebp]
	push	edx
	mov	eax, DWORD PTR ___$ReturnUdt$[ebp]
	push	eax
	call	??$?DM@detail@glm@@YA?AU?$tvec3@M@01@ABU201@ABM@Z ; glm::detail::operator*<float>
	add	esp, 12					; 0000000cH
	mov	eax, DWORD PTR ___$ReturnUdt$[ebp]

; 248  :     }

	push	edx
	mov	ecx, ebp
	push	eax
	lea	edx, DWORD PTR $LN5@normalize
	call	@_RTC_CheckStackVars@8
	pop	eax
	pop	edx
	pop	edi
	pop	esi
	pop	ebx
	add	esp, 216				; 000000d8H
	cmp	ebp, esp
	call	__RTC_CheckEsp
	mov	esp, ebp
	pop	ebp
	ret	0
$LN5@normalize:
	DD	1
	DD	$LN4@normalize
$LN4@normalize:
	DD	-8					; fffffff8H
	DD	4
	DD	$LN3@normalize
$LN3@normalize:
	DB	115					; 00000073H
	DB	113					; 00000071H
	DB	114					; 00000072H
	DB	0
??$normalize@M@glm@@YA?AU?$tvec3@M@detail@0@ABU120@@Z ENDP ; glm::normalize<float>
; Function compile flags: /Odtp /RTCsu /ZI
_TEXT	ENDS
;	COMDAT ??$cross@M@glm@@YA?AU?$tvec3@M@detail@0@ABU120@0@Z
_TEXT	SEGMENT
$T42544 = -224						; size = 4
$T42545 = -212						; size = 4
$T42546 = -200						; size = 4
___$ReturnUdt$ = 8					; size = 4
_x$ = 12						; size = 4
_y$ = 16						; size = 4
??$cross@M@glm@@YA?AU?$tvec3@M@detail@0@ABU120@0@Z PROC	; glm::cross<float>, COMDAT

; 204  :     {

	push	ebp
	mov	ebp, esp
	sub	esp, 228				; 000000e4H
	push	ebx
	push	esi
	push	edi
	lea	edi, DWORD PTR [ebp-228]
	mov	ecx, 57					; 00000039H
	mov	eax, -858993460				; ccccccccH
	rep stosd

; 205  : 		GLM_STATIC_ASSERT(detail::type<T>::is_float, "'cross' only accept floating-point inputs");
; 206  : 
; 207  :         return detail::tvec3<T>(
; 208  :             x.y * y.z - y.y * x.z,
; 209  :             x.z * y.x - y.z * x.x,
; 210  :             x.x * y.y - y.x * x.y);

	mov	eax, DWORD PTR _x$[ebp]
	fld	DWORD PTR [eax]
	mov	ecx, DWORD PTR _y$[ebp]
	fmul	DWORD PTR [ecx+4]
	mov	edx, DWORD PTR _y$[ebp]
	fld	DWORD PTR [edx]
	mov	eax, DWORD PTR _x$[ebp]
	fmul	DWORD PTR [eax+4]
	fsubp	ST(1), ST(0)
	fstp	DWORD PTR $T42544[ebp]
	mov	ecx, DWORD PTR _x$[ebp]
	fld	DWORD PTR [ecx+8]
	mov	edx, DWORD PTR _y$[ebp]
	fmul	DWORD PTR [edx]
	mov	eax, DWORD PTR _y$[ebp]
	fld	DWORD PTR [eax+8]
	mov	ecx, DWORD PTR _x$[ebp]
	fmul	DWORD PTR [ecx]
	fsubp	ST(1), ST(0)
	fstp	DWORD PTR $T42545[ebp]
	mov	edx, DWORD PTR _x$[ebp]
	fld	DWORD PTR [edx+4]
	mov	eax, DWORD PTR _y$[ebp]
	fmul	DWORD PTR [eax+8]
	mov	ecx, DWORD PTR _y$[ebp]
	fld	DWORD PTR [ecx+4]
	mov	edx, DWORD PTR _x$[ebp]
	fmul	DWORD PTR [edx+8]
	fsubp	ST(1), ST(0)
	fstp	DWORD PTR $T42546[ebp]
	lea	eax, DWORD PTR $T42544[ebp]
	push	eax
	lea	ecx, DWORD PTR $T42545[ebp]
	push	ecx
	lea	edx, DWORD PTR $T42546[ebp]
	push	edx
	mov	ecx, DWORD PTR ___$ReturnUdt$[ebp]
	call	??0?$tvec3@M@detail@glm@@QAE@ABM00@Z	; glm::detail::tvec3<float>::tvec3<float>
	mov	eax, DWORD PTR ___$ReturnUdt$[ebp]

; 211  :     }

	pop	edi
	pop	esi
	pop	ebx
	add	esp, 228				; 000000e4H
	cmp	ebp, esp
	call	__RTC_CheckEsp
	mov	esp, ebp
	pop	ebp
	ret	0
??$cross@M@glm@@YA?AU?$tvec3@M@detail@0@ABU120@0@Z ENDP	; glm::cross<float>
; Function compile flags: /Odtp /RTCsu /ZI
; File c:\opengl\glm-0.9.3.1\glm\core\type_mat4x4.inl
_TEXT	ENDS
;	COMDAT ??$?0H@?$tmat4x4@M@detail@glm@@QAE@ABH@Z
_TEXT	SEGMENT
$T42549 = -356						; size = 16
$T42550 = -332						; size = 4
$T42551 = -320						; size = 16
$T42552 = -296						; size = 4
$T42553 = -284						; size = 16
$T42554 = -260						; size = 4
$T42555 = -248						; size = 16
$T42556 = -224						; size = 4
_Zero$ = -20						; size = 4
_this$ = -8						; size = 4
_s$ = 8							; size = 4
??$?0H@?$tmat4x4@M@detail@glm@@QAE@ABH@Z PROC		; glm::detail::tmat4x4<float>::tmat4x4<float><int>, COMDAT
; _this$ = ecx

; 172  : 	{

	push	ebp
	mov	ebp, esp
	sub	esp, 360				; 00000168H
	push	ebx
	push	esi
	push	edi
	push	ecx
	lea	edi, DWORD PTR [ebp-360]
	mov	ecx, 90					; 0000005aH
	mov	eax, -858993460				; ccccccccH
	rep stosd
	pop	ecx
	mov	DWORD PTR _this$[ebp], ecx
	push	OFFSET ??0?$tvec4@M@detail@glm@@QAE@XZ	; glm::detail::tvec4<float>::tvec4<float>
	push	4
	push	16					; 00000010H
	mov	eax, DWORD PTR _this$[ebp]
	push	eax
	call	??_H@YGXPAXIHP6EPAX0@Z@Z

; 173  : 		GLM_STATIC_ASSERT(detail::type<U>::is_float || std::numeric_limits<U>::is_integer, "*mat4x4 constructor only takes float and integer types");
; 174  : 
; 175  : 		value_type const Zero(0);

	fldz
	fstp	DWORD PTR _Zero$[ebp]

; 176  :         this->value[0] = tvec4<T>(value_type(s), Zero, Zero, Zero);

	mov	eax, DWORD PTR _s$[ebp]
	fild	DWORD PTR [eax]
	fstp	DWORD PTR $T42550[ebp]
	lea	ecx, DWORD PTR _Zero$[ebp]
	push	ecx
	lea	edx, DWORD PTR _Zero$[ebp]
	push	edx
	lea	eax, DWORD PTR _Zero$[ebp]
	push	eax
	lea	ecx, DWORD PTR $T42550[ebp]
	push	ecx
	lea	ecx, DWORD PTR $T42549[ebp]
	call	??0?$tvec4@M@detail@glm@@QAE@ABM000@Z	; glm::detail::tvec4<float>::tvec4<float>
	push	eax
	mov	ecx, DWORD PTR _this$[ebp]
	call	??4?$tvec4@M@detail@glm@@QAEAAU012@ABU012@@Z ; glm::detail::tvec4<float>::operator=

; 177  :         this->value[1] = tvec4<T>(Zero, value_type(s), Zero, Zero);

	mov	eax, DWORD PTR _s$[ebp]
	fild	DWORD PTR [eax]
	fstp	DWORD PTR $T42552[ebp]
	lea	ecx, DWORD PTR _Zero$[ebp]
	push	ecx
	lea	edx, DWORD PTR _Zero$[ebp]
	push	edx
	lea	eax, DWORD PTR $T42552[ebp]
	push	eax
	lea	ecx, DWORD PTR _Zero$[ebp]
	push	ecx
	lea	ecx, DWORD PTR $T42551[ebp]
	call	??0?$tvec4@M@detail@glm@@QAE@ABM000@Z	; glm::detail::tvec4<float>::tvec4<float>
	push	eax
	mov	ecx, DWORD PTR _this$[ebp]
	add	ecx, 16					; 00000010H
	call	??4?$tvec4@M@detail@glm@@QAEAAU012@ABU012@@Z ; glm::detail::tvec4<float>::operator=

; 178  :         this->value[2] = tvec4<T>(Zero, Zero, value_type(s), Zero);

	mov	eax, DWORD PTR _s$[ebp]
	fild	DWORD PTR [eax]
	fstp	DWORD PTR $T42554[ebp]
	lea	ecx, DWORD PTR _Zero$[ebp]
	push	ecx
	lea	edx, DWORD PTR $T42554[ebp]
	push	edx
	lea	eax, DWORD PTR _Zero$[ebp]
	push	eax
	lea	ecx, DWORD PTR _Zero$[ebp]
	push	ecx
	lea	ecx, DWORD PTR $T42553[ebp]
	call	??0?$tvec4@M@detail@glm@@QAE@ABM000@Z	; glm::detail::tvec4<float>::tvec4<float>
	push	eax
	mov	ecx, DWORD PTR _this$[ebp]
	add	ecx, 32					; 00000020H
	call	??4?$tvec4@M@detail@glm@@QAEAAU012@ABU012@@Z ; glm::detail::tvec4<float>::operator=

; 179  :         this->value[3] = tvec4<T>(Zero, Zero, Zero, value_type(s));

	mov	eax, DWORD PTR _s$[ebp]
	fild	DWORD PTR [eax]
	fstp	DWORD PTR $T42556[ebp]
	lea	ecx, DWORD PTR $T42556[ebp]
	push	ecx
	lea	edx, DWORD PTR _Zero$[ebp]
	push	edx
	lea	eax, DWORD PTR _Zero$[ebp]
	push	eax
	lea	ecx, DWORD PTR _Zero$[ebp]
	push	ecx
	lea	ecx, DWORD PTR $T42555[ebp]
	call	??0?$tvec4@M@detail@glm@@QAE@ABM000@Z	; glm::detail::tvec4<float>::tvec4<float>
	push	eax
	mov	ecx, DWORD PTR _this$[ebp]
	add	ecx, 48					; 00000030H
	call	??4?$tvec4@M@detail@glm@@QAEAAU012@ABU012@@Z ; glm::detail::tvec4<float>::operator=

; 180  : 	}

	mov	eax, DWORD PTR _this$[ebp]
	push	edx
	mov	ecx, ebp
	push	eax
	lea	edx, DWORD PTR $LN5@tmat4x4@3
	call	@_RTC_CheckStackVars@8
	pop	eax
	pop	edx
	pop	edi
	pop	esi
	pop	ebx
	add	esp, 360				; 00000168H
	cmp	ebp, esp
	call	__RTC_CheckEsp
	mov	esp, ebp
	pop	ebp
	ret	4
	npad	3
$LN5@tmat4x4@3:
	DD	1
	DD	$LN4@tmat4x4@3
$LN4@tmat4x4@3:
	DD	-20					; ffffffecH
	DD	4
	DD	$LN3@tmat4x4@3
$LN3@tmat4x4@3:
	DB	90					; 0000005aH
	DB	101					; 00000065H
	DB	114					; 00000072H
	DB	111					; 0000006fH
	DB	0
??$?0H@?$tmat4x4@M@detail@glm@@QAE@ABH@Z ENDP		; glm::detail::tmat4x4<float>::tmat4x4<float><int>
; Function compile flags: /Odtp /RTCsu /ZI
; File c:\opengl\glm-0.9.3.1\glm\core\type_vec3.inl
_TEXT	ENDS
;	COMDAT ??$?GM@detail@glm@@YA?AU?$tvec3@M@01@ABU201@@Z
_TEXT	SEGMENT
$T42562 = -224						; size = 4
$T42563 = -212						; size = 4
$T42564 = -200						; size = 4
___$ReturnUdt$ = 8					; size = 4
_v$ = 12						; size = 4
??$?GM@detail@glm@@YA?AU?$tvec3@M@01@ABU201@@Z PROC	; glm::detail::operator-<float>, COMDAT

; 809  : 	{

	push	ebp
	mov	ebp, esp
	sub	esp, 228				; 000000e4H
	push	ebx
	push	esi
	push	edi
	lea	edi, DWORD PTR [ebp-228]
	mov	ecx, 57					; 00000039H
	mov	eax, -858993460				; ccccccccH
	rep stosd

; 810  : 		return tvec3<T>(
; 811  : 			-v.x, 
; 812  : 			-v.y, 
; 813  : 			-v.z);

	mov	eax, DWORD PTR _v$[ebp]
	fld	DWORD PTR [eax+8]
	fchs
	fstp	DWORD PTR $T42562[ebp]
	mov	ecx, DWORD PTR _v$[ebp]
	fld	DWORD PTR [ecx+4]
	fchs
	fstp	DWORD PTR $T42563[ebp]
	mov	edx, DWORD PTR _v$[ebp]
	fld	DWORD PTR [edx]
	fchs
	fstp	DWORD PTR $T42564[ebp]
	lea	eax, DWORD PTR $T42562[ebp]
	push	eax
	lea	ecx, DWORD PTR $T42563[ebp]
	push	ecx
	lea	edx, DWORD PTR $T42564[ebp]
	push	edx
	mov	ecx, DWORD PTR ___$ReturnUdt$[ebp]
	call	??0?$tvec3@M@detail@glm@@QAE@ABM00@Z	; glm::detail::tvec3<float>::tvec3<float>
	mov	eax, DWORD PTR ___$ReturnUdt$[ebp]

; 814  : 	}

	pop	edi
	pop	esi
	pop	ebx
	add	esp, 228				; 000000e4H
	cmp	ebp, esp
	call	__RTC_CheckEsp
	mov	esp, ebp
	pop	ebp
	ret	0
??$?GM@detail@glm@@YA?AU?$tvec3@M@01@ABU201@@Z ENDP	; glm::detail::operator-<float>
_TEXT	ENDS
PUBLIC	??$?HM@detail@glm@@YA?AU?$tvec4@M@01@ABU201@0@Z	; glm::detail::operator+<float>
PUBLIC	??$?DM@detail@glm@@YA?AU?$tvec4@M@01@ABU201@ABM@Z ; glm::detail::operator*<float>
PUBLIC	??A?$tvec3@M@detail@glm@@QBEABMI@Z		; glm::detail::tvec3<float>::operator[]
PUBLIC	__$ArrayPad$
; Function compile flags: /Odtp /RTCsu /ZI
; File c:\opengl\glm-0.9.3.1\glm\gtc\matrix_transform.inl
;	COMDAT ??$translate@M@glm@@YA?AU?$tmat4x4@M@detail@0@ABU120@ABU?$tvec3@M@20@@Z
_TEXT	SEGMENT
$T42568 = -408						; size = 16
$T42569 = -384						; size = 16
$T42570 = -360						; size = 16
$T42571 = -336						; size = 16
$T42572 = -312						; size = 16
$T42573 = -288						; size = 16
_Result$ = -72						; size = 64
__$ArrayPad$ = -4					; size = 4
___$ReturnUdt$ = 8					; size = 4
_m$ = 12						; size = 4
_v$ = 16						; size = 4
??$translate@M@glm@@YA?AU?$tmat4x4@M@detail@0@ABU120@ABU?$tvec3@M@20@@Z PROC ; glm::translate<float>, COMDAT

; 37   : 	{

	push	ebp
	mov	ebp, esp
	sub	esp, 412				; 0000019cH
	push	ebx
	push	esi
	push	edi
	lea	edi, DWORD PTR [ebp-412]
	mov	ecx, 103				; 00000067H
	mov	eax, -858993460				; ccccccccH
	rep stosd
	mov	eax, DWORD PTR ___security_cookie
	xor	eax, ebp
	mov	DWORD PTR __$ArrayPad$[ebp], eax

; 38   : 		detail::tmat4x4<T> Result(m);

	mov	eax, DWORD PTR _m$[ebp]
	push	eax
	lea	ecx, DWORD PTR _Result$[ebp]
	call	??0?$tmat4x4@M@detail@glm@@QAE@ABU012@@Z ; glm::detail::tmat4x4<float>::tmat4x4<float>

; 39   : 		Result[3] = m[0] * v[0] + m[1] * v[1] + m[2] * v[2] + m[3];

	push	3
	mov	ecx, DWORD PTR _m$[ebp]
	call	??A?$tmat4x4@M@detail@glm@@QBEABU?$tvec4@M@12@I@Z ; glm::detail::tmat4x4<float>::operator[]
	push	eax
	push	2
	mov	ecx, DWORD PTR _v$[ebp]
	call	??A?$tvec3@M@detail@glm@@QBEABMI@Z	; glm::detail::tvec3<float>::operator[]
	push	eax
	push	2
	mov	ecx, DWORD PTR _m$[ebp]
	call	??A?$tmat4x4@M@detail@glm@@QBEABU?$tvec4@M@12@I@Z ; glm::detail::tmat4x4<float>::operator[]
	push	eax
	lea	eax, DWORD PTR $T42568[ebp]
	push	eax
	call	??$?DM@detail@glm@@YA?AU?$tvec4@M@01@ABU201@ABM@Z ; glm::detail::operator*<float>
	add	esp, 12					; 0000000cH
	push	eax
	push	1
	mov	ecx, DWORD PTR _v$[ebp]
	call	??A?$tvec3@M@detail@glm@@QBEABMI@Z	; glm::detail::tvec3<float>::operator[]
	push	eax
	push	1
	mov	ecx, DWORD PTR _m$[ebp]
	call	??A?$tmat4x4@M@detail@glm@@QBEABU?$tvec4@M@12@I@Z ; glm::detail::tmat4x4<float>::operator[]
	push	eax
	lea	ecx, DWORD PTR $T42569[ebp]
	push	ecx
	call	??$?DM@detail@glm@@YA?AU?$tvec4@M@01@ABU201@ABM@Z ; glm::detail::operator*<float>
	add	esp, 12					; 0000000cH
	push	eax
	push	0
	mov	ecx, DWORD PTR _v$[ebp]
	call	??A?$tvec3@M@detail@glm@@QBEABMI@Z	; glm::detail::tvec3<float>::operator[]
	push	eax
	push	0
	mov	ecx, DWORD PTR _m$[ebp]
	call	??A?$tmat4x4@M@detail@glm@@QBEABU?$tvec4@M@12@I@Z ; glm::detail::tmat4x4<float>::operator[]
	push	eax
	lea	edx, DWORD PTR $T42570[ebp]
	push	edx
	call	??$?DM@detail@glm@@YA?AU?$tvec4@M@01@ABU201@ABM@Z ; glm::detail::operator*<float>
	add	esp, 12					; 0000000cH
	push	eax
	lea	eax, DWORD PTR $T42571[ebp]
	push	eax
	call	??$?HM@detail@glm@@YA?AU?$tvec4@M@01@ABU201@0@Z ; glm::detail::operator+<float>
	add	esp, 12					; 0000000cH
	push	eax
	lea	ecx, DWORD PTR $T42572[ebp]
	push	ecx
	call	??$?HM@detail@glm@@YA?AU?$tvec4@M@01@ABU201@0@Z ; glm::detail::operator+<float>
	add	esp, 12					; 0000000cH
	push	eax
	lea	edx, DWORD PTR $T42573[ebp]
	push	edx
	call	??$?HM@detail@glm@@YA?AU?$tvec4@M@01@ABU201@0@Z ; glm::detail::operator+<float>
	add	esp, 12					; 0000000cH
	push	eax
	push	3
	lea	ecx, DWORD PTR _Result$[ebp]
	call	??A?$tmat4x4@M@detail@glm@@QAEAAU?$tvec4@M@12@I@Z ; glm::detail::tmat4x4<float>::operator[]
	mov	ecx, eax
	call	??4?$tvec4@M@detail@glm@@QAEAAU012@ABU012@@Z ; glm::detail::tvec4<float>::operator=

; 40   : 		return Result;

	lea	eax, DWORD PTR _Result$[ebp]
	push	eax
	mov	ecx, DWORD PTR ___$ReturnUdt$[ebp]
	call	??0?$tmat4x4@M@detail@glm@@QAE@ABU012@@Z ; glm::detail::tmat4x4<float>::tmat4x4<float>
	mov	eax, DWORD PTR ___$ReturnUdt$[ebp]

; 41   : 	}

	push	edx
	mov	ecx, ebp
	push	eax
	lea	edx, DWORD PTR $LN5@translate
	call	@_RTC_CheckStackVars@8
	pop	eax
	pop	edx
	pop	edi
	pop	esi
	pop	ebx
	mov	ecx, DWORD PTR __$ArrayPad$[ebp]
	xor	ecx, ebp
	call	@__security_check_cookie@4
	add	esp, 412				; 0000019cH
	cmp	ebp, esp
	call	__RTC_CheckEsp
	mov	esp, ebp
	pop	ebp
	ret	0
$LN5@translate:
	DD	1
	DD	$LN4@translate
$LN4@translate:
	DD	-72					; ffffffb8H
	DD	64					; 00000040H
	DD	$LN3@translate
$LN3@translate:
	DB	82					; 00000052H
	DB	101					; 00000065H
	DB	115					; 00000073H
	DB	117					; 00000075H
	DB	108					; 0000006cH
	DB	116					; 00000074H
	DB	0
??$translate@M@glm@@YA?AU?$tmat4x4@M@detail@0@ABU120@ABU?$tvec3@M@20@@Z ENDP ; glm::translate<float>
; Function compile flags: /Odtp /RTCsu /ZI
; File c:\opengl\glm-0.9.3.1\glm\core\type_vec4.inl
_TEXT	ENDS
;	COMDAT ??$?DM@detail@glm@@YA?AU?$tvec4@M@01@ABU201@ABM@Z
_TEXT	SEGMENT
$T42579 = -236						; size = 4
$T42580 = -224						; size = 4
$T42581 = -212						; size = 4
$T42582 = -200						; size = 4
___$ReturnUdt$ = 8					; size = 4
_v$ = 12						; size = 4
_s$ = 16						; size = 4
??$?DM@detail@glm@@YA?AU?$tvec4@M@01@ABU201@ABM@Z PROC	; glm::detail::operator*<float>, COMDAT

; 892  : 	{

	push	ebp
	mov	ebp, esp
	sub	esp, 240				; 000000f0H
	push	ebx
	push	esi
	push	edi
	lea	edi, DWORD PTR [ebp-240]
	mov	ecx, 60					; 0000003cH
	mov	eax, -858993460				; ccccccccH
	rep stosd

; 893  : 		return tvec4<T>(
; 894  : 			v.x * s,
; 895  : 			v.y * s,
; 896  : 			v.z * s,
; 897  : 			v.w * s);

	mov	eax, DWORD PTR _v$[ebp]
	fld	DWORD PTR [eax+12]
	mov	ecx, DWORD PTR _s$[ebp]
	fmul	DWORD PTR [ecx]
	fstp	DWORD PTR $T42579[ebp]
	mov	edx, DWORD PTR _v$[ebp]
	fld	DWORD PTR [edx+8]
	mov	eax, DWORD PTR _s$[ebp]
	fmul	DWORD PTR [eax]
	fstp	DWORD PTR $T42580[ebp]
	mov	ecx, DWORD PTR _v$[ebp]
	fld	DWORD PTR [ecx+4]
	mov	edx, DWORD PTR _s$[ebp]
	fmul	DWORD PTR [edx]
	fstp	DWORD PTR $T42581[ebp]
	mov	eax, DWORD PTR _v$[ebp]
	fld	DWORD PTR [eax]
	mov	ecx, DWORD PTR _s$[ebp]
	fmul	DWORD PTR [ecx]
	fstp	DWORD PTR $T42582[ebp]
	lea	edx, DWORD PTR $T42579[ebp]
	push	edx
	lea	eax, DWORD PTR $T42580[ebp]
	push	eax
	lea	ecx, DWORD PTR $T42581[ebp]
	push	ecx
	lea	edx, DWORD PTR $T42582[ebp]
	push	edx
	mov	ecx, DWORD PTR ___$ReturnUdt$[ebp]
	call	??0?$tvec4@M@detail@glm@@QAE@ABM000@Z	; glm::detail::tvec4<float>::tvec4<float>
	mov	eax, DWORD PTR ___$ReturnUdt$[ebp]

; 898  : 	}

	pop	edi
	pop	esi
	pop	ebx
	add	esp, 240				; 000000f0H
	cmp	ebp, esp
	call	__RTC_CheckEsp
	mov	esp, ebp
	pop	ebp
	ret	0
??$?DM@detail@glm@@YA?AU?$tvec4@M@01@ABU201@ABM@Z ENDP	; glm::detail::operator*<float>
; Function compile flags: /Odtp /RTCsu /ZI
_TEXT	ENDS
;	COMDAT ?length@?$tvec4@M@detail@glm@@QBEIXZ
_TEXT	SEGMENT
_this$ = -8						; size = 4
?length@?$tvec4@M@detail@glm@@QBEIXZ PROC		; glm::detail::tvec4<float>::length, COMDAT
; _this$ = ecx

; 34   : 	{

	push	ebp
	mov	ebp, esp
	sub	esp, 204				; 000000ccH
	push	ebx
	push	esi
	push	edi
	push	ecx
	lea	edi, DWORD PTR [ebp-204]
	mov	ecx, 51					; 00000033H
	mov	eax, -858993460				; ccccccccH
	rep stosd
	pop	ecx
	mov	DWORD PTR _this$[ebp], ecx

; 35   : 		return 4;

	mov	eax, 4

; 36   : 	}

	pop	edi
	pop	esi
	pop	ebx
	mov	esp, ebp
	pop	ebp
	ret	0
?length@?$tvec4@M@detail@glm@@QBEIXZ ENDP		; glm::detail::tvec4<float>::length
; Function compile flags: /Odtp /RTCsu /ZI
; File c:\opengl\glm-0.9.3.1\glm\core\type_mat4x4.inl
_TEXT	ENDS
;	COMDAT ?length@?$tmat4x4@M@detail@glm@@QBEIXZ
_TEXT	SEGMENT
_this$ = -8						; size = 4
?length@?$tmat4x4@M@detail@glm@@QBEIXZ PROC		; glm::detail::tmat4x4<float>::length, COMDAT
; _this$ = ecx

; 34   :     {

	push	ebp
	mov	ebp, esp
	sub	esp, 204				; 000000ccH
	push	ebx
	push	esi
	push	edi
	push	ecx
	lea	edi, DWORD PTR [ebp-204]
	mov	ecx, 51					; 00000033H
	mov	eax, -858993460				; ccccccccH
	rep stosd
	pop	ecx
	mov	DWORD PTR _this$[ebp], ecx

; 35   :         return 4;

	mov	eax, 4

; 36   :     }

	pop	edi
	pop	esi
	pop	ebx
	mov	esp, ebp
	pop	ebp
	ret	0
?length@?$tmat4x4@M@detail@glm@@QBEIXZ ENDP		; glm::detail::tmat4x4<float>::length
_TEXT	ENDS
PUBLIC	??_C@_1FK@IBGOADNM@?$AAc?$AA?3?$AA?2?$AAo?$AAp?$AAe?$AAn?$AAg?$AAl?$AA?2?$AAg?$AAl?$AAm?$AA?9?$AA0?$AA?4?$AA9?$AA?4?$AA3?$AA?4?$AA1?$AA?2?$AAg?$AAl?$AAm?$AA?2?$AAc?$AAo?$AAr?$AAe?$AA?2?$AAt@ ; `string'
PUBLIC	?length@?$tvec3@M@detail@glm@@QBEIXZ		; glm::detail::tvec3<float>::length
;	COMDAT ??_C@_1FK@IBGOADNM@?$AAc?$AA?3?$AA?2?$AAo?$AAp?$AAe?$AAn?$AAg?$AAl?$AA?2?$AAg?$AAl?$AAm?$AA?9?$AA0?$AA?4?$AA9?$AA?4?$AA3?$AA?4?$AA1?$AA?2?$AAg?$AAl?$AAm?$AA?2?$AAc?$AAo?$AAr?$AAe?$AA?2?$AAt@
; File c:\opengl\glm-0.9.3.1\glm\core\type_vec3.inl
CONST	SEGMENT
??_C@_1FK@IBGOADNM@?$AAc?$AA?3?$AA?2?$AAo?$AAp?$AAe?$AAn?$AAg?$AAl?$AA?2?$AAg?$AAl?$AAm?$AA?9?$AA0?$AA?4?$AA9?$AA?4?$AA3?$AA?4?$AA1?$AA?2?$AAg?$AAl?$AAm?$AA?2?$AAc?$AAo?$AAr?$AAe?$AA?2?$AAt@ DB 'c'
	DB	00H, ':', 00H, '\', 00H, 'o', 00H, 'p', 00H, 'e', 00H, 'n', 00H
	DB	'g', 00H, 'l', 00H, '\', 00H, 'g', 00H, 'l', 00H, 'm', 00H, '-'
	DB	00H, '0', 00H, '.', 00H, '9', 00H, '.', 00H, '3', 00H, '.', 00H
	DB	'1', 00H, '\', 00H, 'g', 00H, 'l', 00H, 'm', 00H, '\', 00H, 'c'
	DB	00H, 'o', 00H, 'r', 00H, 'e', 00H, '\', 00H, 't', 00H, 'y', 00H
	DB	'p', 00H, 'e', 00H, '_', 00H, 'v', 00H, 'e', 00H, 'c', 00H, '3'
	DB	00H, '.', 00H, 'i', 00H, 'n', 00H, 'l', 00H, 00H, 00H ; `string'
; Function compile flags: /Odtp /RTCsu /ZI
CONST	ENDS
;	COMDAT ??A?$tvec3@M@detail@glm@@QBEABMI@Z
_TEXT	SEGMENT
_this$ = -8						; size = 4
_i$ = 8							; size = 4
??A?$tvec3@M@detail@glm@@QBEABMI@Z PROC			; glm::detail::tvec3<float>::operator[], COMDAT
; _this$ = ecx

; 58   : 	{

	push	ebp
	mov	ebp, esp
	sub	esp, 204				; 000000ccH
	push	ebx
	push	esi
	push	edi
	push	ecx
	lea	edi, DWORD PTR [ebp-204]
	mov	ecx, 51					; 00000033H
	mov	eax, -858993460				; ccccccccH
	rep stosd
	pop	ecx
	mov	DWORD PTR _this$[ebp], ecx

; 59   : 		assert(i < this->length());

	mov	ecx, DWORD PTR _this$[ebp]
	call	?length@?$tvec3@M@detail@glm@@QBEIXZ	; glm::detail::tvec3<float>::length
	cmp	DWORD PTR _i$[ebp], eax
	jb	SHORT $LN3@operator@4
	mov	esi, esp
	push	59					; 0000003bH
	push	OFFSET ??_C@_1FK@IBGOADNM@?$AAc?$AA?3?$AA?2?$AAo?$AAp?$AAe?$AAn?$AAg?$AAl?$AA?2?$AAg?$AAl?$AAm?$AA?9?$AA0?$AA?4?$AA9?$AA?4?$AA3?$AA?4?$AA1?$AA?2?$AAg?$AAl?$AAm?$AA?2?$AAc?$AAo?$AAr?$AAe?$AA?2?$AAt@
	push	OFFSET ??_C@_1CG@KOFHLCJL@?$AAi?$AA?5?$AA?$DM?$AA?5?$AAt?$AAh?$AAi?$AAs?$AA?9?$AA?$DO?$AAl?$AAe?$AAn?$AAg?$AAt?$AAh?$AA?$CI?$AA?$CJ?$AA?$AA@
	call	DWORD PTR __imp___wassert
	add	esp, 12					; 0000000cH
	cmp	esi, esp
	call	__RTC_CheckEsp
$LN3@operator@4:

; 60   : 		return (&x)[i];

	mov	eax, DWORD PTR _i$[ebp]
	mov	ecx, DWORD PTR _this$[ebp]
	lea	eax, DWORD PTR [ecx+eax*4]

; 61   : 	}

	pop	edi
	pop	esi
	pop	ebx
	add	esp, 204				; 000000ccH
	cmp	ebp, esp
	call	__RTC_CheckEsp
	mov	esp, ebp
	pop	ebp
	ret	4
??A?$tvec3@M@detail@glm@@QBEABMI@Z ENDP			; glm::detail::tvec3<float>::operator[]
_TEXT	ENDS
PUBLIC	__real@3ff0000000000000
PUBLIC	?sqrt@@YAMM@Z					; sqrt
;	COMDAT __real@3ff0000000000000
; File c:\opengl\glm-0.9.3.1\glm\core\func_exponential.inl
CONST	SEGMENT
__real@3ff0000000000000 DQ 03ff0000000000000r	; 1
; Function compile flags: /Odtp /RTCsu /ZI
CONST	ENDS
;	COMDAT ??$inversesqrt@M@glm@@YAMABM@Z
_TEXT	SEGMENT
tv76 = -196						; size = 4
_x$ = 8							; size = 4
??$inversesqrt@M@glm@@YAMABM@Z PROC			; glm::inversesqrt<float>, COMDAT

; 149  :     {

	push	ebp
	mov	ebp, esp
	sub	esp, 196				; 000000c4H
	push	ebx
	push	esi
	push	edi
	lea	edi, DWORD PTR [ebp-196]
	mov	ecx, 49					; 00000031H
	mov	eax, -858993460				; ccccccccH
	rep stosd

; 150  : 		GLM_STATIC_ASSERT(detail::type<genType>::is_float, "'inversesqrt' only accept floating-point input");
; 151  : 
; 152  :         return genType(1) / ::std::sqrt(x);

	mov	eax, DWORD PTR _x$[ebp]
	push	ecx
	fld	DWORD PTR [eax]
	fstp	DWORD PTR [esp]
	call	?sqrt@@YAMM@Z				; sqrt
	add	esp, 4
	fld1
	fdivrp	ST(1), ST(0)
	fstp	DWORD PTR tv76[ebp]
	fld	DWORD PTR tv76[ebp]

; 153  :     }

	pop	edi
	pop	esi
	pop	ebx
	add	esp, 196				; 000000c4H
	cmp	ebp, esp
	call	__RTC_CheckEsp
	mov	esp, ebp
	pop	ebp
	ret	0
??$inversesqrt@M@glm@@YAMABM@Z ENDP			; glm::inversesqrt<float>
_TEXT	ENDS
PUBLIC	_sqrtf
; Function compile flags: /Odtp /RTCsu /ZI
; File c:\program files (x86)\microsoft visual studio 10.0\vc\include\math.h
;	COMDAT ?sqrt@@YAMM@Z
_TEXT	SEGMENT
__X$ = 8						; size = 4
?sqrt@@YAMM@Z PROC					; sqrt, COMDAT

; 542  :         {return (sqrtf(_X)); }

	push	ebp
	mov	ebp, esp
	sub	esp, 192				; 000000c0H
	push	ebx
	push	esi
	push	edi
	lea	edi, DWORD PTR [ebp-192]
	mov	ecx, 48					; 00000030H
	mov	eax, -858993460				; ccccccccH
	rep stosd
	push	ecx
	fld	DWORD PTR __X$[ebp]
	fstp	DWORD PTR [esp]
	call	_sqrtf
	add	esp, 4
	pop	edi
	pop	esi
	pop	ebx
	add	esp, 192				; 000000c0H
	cmp	ebp, esp
	call	__RTC_CheckEsp
	mov	esp, ebp
	pop	ebp
	ret	0
?sqrt@@YAMM@Z ENDP					; sqrt
_TEXT	ENDS
EXTRN	_sqrt:PROC
; Function compile flags: /Odtp /RTCsu /ZI
;	COMDAT _sqrtf
_TEXT	SEGMENT
tv73 = -196						; size = 4
__X$ = 8						; size = 4
_sqrtf	PROC						; COMDAT

; 434  :         {return ((float)sqrt((double)_X)); }

	push	ebp
	mov	ebp, esp
	sub	esp, 196				; 000000c4H
	push	ebx
	push	esi
	push	edi
	lea	edi, DWORD PTR [ebp-196]
	mov	ecx, 49					; 00000031H
	mov	eax, -858993460				; ccccccccH
	rep stosd
	fld	DWORD PTR __X$[ebp]
	sub	esp, 8
	fstp	QWORD PTR [esp]
	call	_sqrt
	add	esp, 8
	fstp	DWORD PTR tv73[ebp]
	fld	DWORD PTR tv73[ebp]
	pop	edi
	pop	esi
	pop	ebx
	add	esp, 196				; 000000c4H
	cmp	ebp, esp
	call	__RTC_CheckEsp
	mov	esp, ebp
	pop	ebp
	ret	0
_sqrtf	ENDP
; Function compile flags: /Odtp /RTCsu /ZI
; File c:\opengl\glm-0.9.3.1\glm\core\type_vec3.inl
_TEXT	ENDS
;	COMDAT ??$?DM@detail@glm@@YA?AU?$tvec3@M@01@ABU201@ABM@Z
_TEXT	SEGMENT
$T42600 = -224						; size = 4
$T42601 = -212						; size = 4
$T42602 = -200						; size = 4
___$ReturnUdt$ = 8					; size = 4
_v$ = 12						; size = 4
_s$ = 16						; size = 4
??$?DM@detail@glm@@YA?AU?$tvec3@M@01@ABU201@ABM@Z PROC	; glm::detail::operator*<float>, COMDAT

; 730  : 	{

	push	ebp
	mov	ebp, esp
	sub	esp, 228				; 000000e4H
	push	ebx
	push	esi
	push	edi
	lea	edi, DWORD PTR [ebp-228]
	mov	ecx, 57					; 00000039H
	mov	eax, -858993460				; ccccccccH
	rep stosd

; 731  : 		return tvec3<T>(
; 732  : 			v.x * T(s),
; 733  : 			v.y * T(s),
; 734  : 			v.z * T(s));

	mov	eax, DWORD PTR _v$[ebp]
	fld	DWORD PTR [eax+8]
	mov	ecx, DWORD PTR _s$[ebp]
	fmul	DWORD PTR [ecx]
	fstp	DWORD PTR $T42600[ebp]
	mov	edx, DWORD PTR _v$[ebp]
	fld	DWORD PTR [edx+4]
	mov	eax, DWORD PTR _s$[ebp]
	fmul	DWORD PTR [eax]
	fstp	DWORD PTR $T42601[ebp]
	mov	ecx, DWORD PTR _v$[ebp]
	fld	DWORD PTR [ecx]
	mov	edx, DWORD PTR _s$[ebp]
	fmul	DWORD PTR [edx]
	fstp	DWORD PTR $T42602[ebp]
	lea	eax, DWORD PTR $T42600[ebp]
	push	eax
	lea	ecx, DWORD PTR $T42601[ebp]
	push	ecx
	lea	edx, DWORD PTR $T42602[ebp]
	push	edx
	mov	ecx, DWORD PTR ___$ReturnUdt$[ebp]
	call	??0?$tvec3@M@detail@glm@@QAE@ABM00@Z	; glm::detail::tvec3<float>::tvec3<float>
	mov	eax, DWORD PTR ___$ReturnUdt$[ebp]

; 735  : 	}

	pop	edi
	pop	esi
	pop	ebx
	add	esp, 228				; 000000e4H
	cmp	ebp, esp
	call	__RTC_CheckEsp
	mov	esp, ebp
	pop	ebp
	ret	0
??$?DM@detail@glm@@YA?AU?$tvec3@M@01@ABU201@ABM@Z ENDP	; glm::detail::operator*<float>
; Function compile flags: /Odtp /RTCsu /ZI
; File c:\opengl\glm-0.9.3.1\glm\core\type_vec4.inl
_TEXT	ENDS
;	COMDAT ??$?HM@detail@glm@@YA?AU?$tvec4@M@01@ABU201@0@Z
_TEXT	SEGMENT
$T42605 = -236						; size = 4
$T42606 = -224						; size = 4
$T42607 = -212						; size = 4
$T42608 = -200						; size = 4
___$ReturnUdt$ = 8					; size = 4
_v1$ = 12						; size = 4
_v2$ = 16						; size = 4
??$?HM@detail@glm@@YA?AU?$tvec4@M@01@ABU201@0@Z PROC	; glm::detail::operator+<float>, COMDAT

; 834  : 	{

	push	ebp
	mov	ebp, esp
	sub	esp, 240				; 000000f0H
	push	ebx
	push	esi
	push	edi
	lea	edi, DWORD PTR [ebp-240]
	mov	ecx, 60					; 0000003cH
	mov	eax, -858993460				; ccccccccH
	rep stosd

; 835  : 		return tvec4<T>(
; 836  : 			v1.x + v2.x,
; 837  : 			v1.y + v2.y,
; 838  : 			v1.z + v2.z,
; 839  : 			v1.w + v2.w);

	mov	eax, DWORD PTR _v1$[ebp]
	fld	DWORD PTR [eax+12]
	mov	ecx, DWORD PTR _v2$[ebp]
	fadd	DWORD PTR [ecx+12]
	fstp	DWORD PTR $T42605[ebp]
	mov	edx, DWORD PTR _v1$[ebp]
	fld	DWORD PTR [edx+8]
	mov	eax, DWORD PTR _v2$[ebp]
	fadd	DWORD PTR [eax+8]
	fstp	DWORD PTR $T42606[ebp]
	mov	ecx, DWORD PTR _v1$[ebp]
	fld	DWORD PTR [ecx+4]
	mov	edx, DWORD PTR _v2$[ebp]
	fadd	DWORD PTR [edx+4]
	fstp	DWORD PTR $T42607[ebp]
	mov	eax, DWORD PTR _v1$[ebp]
	fld	DWORD PTR [eax]
	mov	ecx, DWORD PTR _v2$[ebp]
	fadd	DWORD PTR [ecx]
	fstp	DWORD PTR $T42608[ebp]
	lea	edx, DWORD PTR $T42605[ebp]
	push	edx
	lea	eax, DWORD PTR $T42606[ebp]
	push	eax
	lea	ecx, DWORD PTR $T42607[ebp]
	push	ecx
	lea	edx, DWORD PTR $T42608[ebp]
	push	edx
	mov	ecx, DWORD PTR ___$ReturnUdt$[ebp]
	call	??0?$tvec4@M@detail@glm@@QAE@ABM000@Z	; glm::detail::tvec4<float>::tvec4<float>
	mov	eax, DWORD PTR ___$ReturnUdt$[ebp]

; 840  : 	}

	pop	edi
	pop	esi
	pop	ebx
	add	esp, 240				; 000000f0H
	cmp	ebp, esp
	call	__RTC_CheckEsp
	mov	esp, ebp
	pop	ebp
	ret	0
??$?HM@detail@glm@@YA?AU?$tvec4@M@01@ABU201@0@Z ENDP	; glm::detail::operator+<float>
; Function compile flags: /Odtp /RTCsu /ZI
; File c:\opengl\glm-0.9.3.1\glm\core\type_vec3.inl
_TEXT	ENDS
;	COMDAT ?length@?$tvec3@M@detail@glm@@QBEIXZ
_TEXT	SEGMENT
_this$ = -8						; size = 4
?length@?$tvec3@M@detail@glm@@QBEIXZ PROC		; glm::detail::tvec3<float>::length, COMDAT
; _this$ = ecx

; 34   : 	{

	push	ebp
	mov	ebp, esp
	sub	esp, 204				; 000000ccH
	push	ebx
	push	esi
	push	edi
	push	ecx
	lea	edi, DWORD PTR [ebp-204]
	mov	ecx, 51					; 00000033H
	mov	eax, -858993460				; ccccccccH
	rep stosd
	pop	ecx
	mov	DWORD PTR _this$[ebp], ecx

; 35   : 		return 3;

	mov	eax, 3

; 36   : 	}

	pop	edi
	pop	esi
	pop	ebx
	mov	esp, ebp
	pop	ebp
	ret	0
?length@?$tvec3@M@detail@glm@@QBEIXZ ENDP		; glm::detail::tvec3<float>::length
_TEXT	ENDS
END
