; Listing generated by Microsoft (R) Optimizing Compiler Version 16.00.40219.01 

	TITLE	C:\Users\kmadsen\Google Drive\OpenGL_Projects\Starter\Starter\PointSprites.cpp
	.686P
	.XMM
	include listing.inc
	.model	flat

INCLUDELIB MSVCRTD
INCLUDELIB OLDNAMES

PUBLIC	??_C@_0BE@CNNAHLJB@Textures?1flower?4png?$AA@	; `string'
PUBLIC	?value@?$integral_constant@_N$0A@@tr1@std@@2_NB	; std::tr1::integral_constant<bool,0>::value
PUBLIC	?value@?$integral_constant@_N$00@tr1@std@@2_NB	; std::tr1::integral_constant<bool,1>::value
PUBLIC	?value@?$integral_constant@I$0A@@tr1@std@@2IB	; std::tr1::integral_constant<unsigned int,0>::value
PUBLIC	?_Rank@?$_Arithmetic_traits@_N@std@@2HB		; std::_Arithmetic_traits<bool>::_Rank
PUBLIC	?_Rank@?$_Arithmetic_traits@D@std@@2HB		; std::_Arithmetic_traits<char>::_Rank
PUBLIC	?_Rank@?$_Arithmetic_traits@C@std@@2HB		; std::_Arithmetic_traits<signed char>::_Rank
PUBLIC	?_Rank@?$_Arithmetic_traits@E@std@@2HB		; std::_Arithmetic_traits<unsigned char>::_Rank
PUBLIC	?_Rank@?$_Arithmetic_traits@F@std@@2HB		; std::_Arithmetic_traits<short>::_Rank
PUBLIC	?_Rank@?$_Arithmetic_traits@G@std@@2HB		; std::_Arithmetic_traits<unsigned short>::_Rank
PUBLIC	?_Rank@?$_Arithmetic_traits@H@std@@2HB		; std::_Arithmetic_traits<int>::_Rank
PUBLIC	?_Rank@?$_Arithmetic_traits@I@std@@2HB		; std::_Arithmetic_traits<unsigned int>::_Rank
PUBLIC	?_Rank@?$_Arithmetic_traits@J@std@@2HB		; std::_Arithmetic_traits<long>::_Rank
PUBLIC	?_Rank@?$_Arithmetic_traits@K@std@@2HB		; std::_Arithmetic_traits<unsigned long>::_Rank
PUBLIC	?_Rank@?$_Arithmetic_traits@_J@std@@2HB		; std::_Arithmetic_traits<__int64>::_Rank
PUBLIC	?_Rank@?$_Arithmetic_traits@_K@std@@2HB		; std::_Arithmetic_traits<unsigned __int64>::_Rank
PUBLIC	?_Rank@?$_Arithmetic_traits@M@std@@2HB		; std::_Arithmetic_traits<float>::_Rank
PUBLIC	?_Rank@?$_Arithmetic_traits@N@std@@2HB		; std::_Arithmetic_traits<double>::_Rank
PUBLIC	?_Rank@?$_Arithmetic_traits@O@std@@2HB		; std::_Arithmetic_traits<long double>::_Rank
PUBLIC	?collate@?$_Locbase@H@std@@2HB			; std::_Locbase<int>::collate
PUBLIC	?ctype@?$_Locbase@H@std@@2HB			; std::_Locbase<int>::ctype
PUBLIC	?monetary@?$_Locbase@H@std@@2HB			; std::_Locbase<int>::monetary
PUBLIC	?numeric@?$_Locbase@H@std@@2HB			; std::_Locbase<int>::numeric
PUBLIC	?time@?$_Locbase@H@std@@2HB			; std::_Locbase<int>::time
PUBLIC	?messages@?$_Locbase@H@std@@2HB			; std::_Locbase<int>::messages
PUBLIC	?all@?$_Locbase@H@std@@2HB			; std::_Locbase<int>::all
PUBLIC	?none@?$_Locbase@H@std@@2HB			; std::_Locbase<int>::none
PUBLIC	?skipws@?$_Iosb@H@std@@2W4_Fmtflags@12@B	; std::_Iosb<int>::skipws
PUBLIC	?unitbuf@?$_Iosb@H@std@@2W4_Fmtflags@12@B	; std::_Iosb<int>::unitbuf
PUBLIC	?uppercase@?$_Iosb@H@std@@2W4_Fmtflags@12@B	; std::_Iosb<int>::uppercase
PUBLIC	?showbase@?$_Iosb@H@std@@2W4_Fmtflags@12@B	; std::_Iosb<int>::showbase
PUBLIC	?showpoint@?$_Iosb@H@std@@2W4_Fmtflags@12@B	; std::_Iosb<int>::showpoint
PUBLIC	?showpos@?$_Iosb@H@std@@2W4_Fmtflags@12@B	; std::_Iosb<int>::showpos
PUBLIC	?left@?$_Iosb@H@std@@2W4_Fmtflags@12@B		; std::_Iosb<int>::left
PUBLIC	?right@?$_Iosb@H@std@@2W4_Fmtflags@12@B		; std::_Iosb<int>::right
PUBLIC	?internal@?$_Iosb@H@std@@2W4_Fmtflags@12@B	; std::_Iosb<int>::internal
PUBLIC	?dec@?$_Iosb@H@std@@2W4_Fmtflags@12@B		; std::_Iosb<int>::dec
PUBLIC	?oct@?$_Iosb@H@std@@2W4_Fmtflags@12@B		; std::_Iosb<int>::oct
PUBLIC	?hex@?$_Iosb@H@std@@2W4_Fmtflags@12@B		; std::_Iosb<int>::hex
PUBLIC	?scientific@?$_Iosb@H@std@@2W4_Fmtflags@12@B	; std::_Iosb<int>::scientific
PUBLIC	?fixed@?$_Iosb@H@std@@2W4_Fmtflags@12@B		; std::_Iosb<int>::fixed
PUBLIC	?hexfloat@?$_Iosb@H@std@@2W4_Fmtflags@12@B	; std::_Iosb<int>::hexfloat
PUBLIC	?boolalpha@?$_Iosb@H@std@@2W4_Fmtflags@12@B	; std::_Iosb<int>::boolalpha
PUBLIC	?_Stdio@?$_Iosb@H@std@@2W4_Fmtflags@12@B	; std::_Iosb<int>::_Stdio
PUBLIC	?adjustfield@?$_Iosb@H@std@@2W4_Fmtflags@12@B	; std::_Iosb<int>::adjustfield
PUBLIC	?basefield@?$_Iosb@H@std@@2W4_Fmtflags@12@B	; std::_Iosb<int>::basefield
PUBLIC	?floatfield@?$_Iosb@H@std@@2W4_Fmtflags@12@B	; std::_Iosb<int>::floatfield
PUBLIC	?goodbit@?$_Iosb@H@std@@2W4_Iostate@12@B	; std::_Iosb<int>::goodbit
PUBLIC	?eofbit@?$_Iosb@H@std@@2W4_Iostate@12@B		; std::_Iosb<int>::eofbit
PUBLIC	?failbit@?$_Iosb@H@std@@2W4_Iostate@12@B	; std::_Iosb<int>::failbit
PUBLIC	?badbit@?$_Iosb@H@std@@2W4_Iostate@12@B		; std::_Iosb<int>::badbit
PUBLIC	?_Hardfail@?$_Iosb@H@std@@2W4_Iostate@12@B	; std::_Iosb<int>::_Hardfail
PUBLIC	?in@?$_Iosb@H@std@@2W4_Openmode@12@B		; std::_Iosb<int>::in
PUBLIC	?out@?$_Iosb@H@std@@2W4_Openmode@12@B		; std::_Iosb<int>::out
PUBLIC	?ate@?$_Iosb@H@std@@2W4_Openmode@12@B		; std::_Iosb<int>::ate
PUBLIC	?app@?$_Iosb@H@std@@2W4_Openmode@12@B		; std::_Iosb<int>::app
PUBLIC	?trunc@?$_Iosb@H@std@@2W4_Openmode@12@B		; std::_Iosb<int>::trunc
PUBLIC	?_Nocreate@?$_Iosb@H@std@@2W4_Openmode@12@B	; std::_Iosb<int>::_Nocreate
PUBLIC	?_Noreplace@?$_Iosb@H@std@@2W4_Openmode@12@B	; std::_Iosb<int>::_Noreplace
PUBLIC	?binary@?$_Iosb@H@std@@2W4_Openmode@12@B	; std::_Iosb<int>::binary
PUBLIC	?beg@?$_Iosb@H@std@@2W4_Seekdir@12@B		; std::_Iosb<int>::beg
PUBLIC	?cur@?$_Iosb@H@std@@2W4_Seekdir@12@B		; std::_Iosb<int>::cur
PUBLIC	?end@?$_Iosb@H@std@@2W4_Seekdir@12@B		; std::_Iosb<int>::end
_DATA	SEGMENT
?filename@?BA@??Init@PointSprites@@UAEXXZ@4PBDB DD FLAT:??_C@_0BE@CNNAHLJB@Textures?1flower?4png?$AA@ ; `PointSprites::Init'::`16'::filename
_DATA	ENDS
;	COMDAT ??_C@_0BE@CNNAHLJB@Textures?1flower?4png?$AA@
CONST	SEGMENT
??_C@_0BE@CNNAHLJB@Textures?1flower?4png?$AA@ DB 'Textures/flower.png', 00H ; `string'
CONST	ENDS
;	COMDAT ?end@?$_Iosb@H@std@@2W4_Seekdir@12@B
CONST	SEGMENT
?end@?$_Iosb@H@std@@2W4_Seekdir@12@B DD 02H		; std::_Iosb<int>::end
CONST	ENDS
;	COMDAT ?cur@?$_Iosb@H@std@@2W4_Seekdir@12@B
CONST	SEGMENT
?cur@?$_Iosb@H@std@@2W4_Seekdir@12@B DD 01H		; std::_Iosb<int>::cur
CONST	ENDS
;	COMDAT ?beg@?$_Iosb@H@std@@2W4_Seekdir@12@B
CONST	SEGMENT
?beg@?$_Iosb@H@std@@2W4_Seekdir@12@B DD 00H		; std::_Iosb<int>::beg
CONST	ENDS
;	COMDAT ?binary@?$_Iosb@H@std@@2W4_Openmode@12@B
CONST	SEGMENT
?binary@?$_Iosb@H@std@@2W4_Openmode@12@B DD 020H	; std::_Iosb<int>::binary
CONST	ENDS
;	COMDAT ?_Noreplace@?$_Iosb@H@std@@2W4_Openmode@12@B
CONST	SEGMENT
?_Noreplace@?$_Iosb@H@std@@2W4_Openmode@12@B DD 080H	; std::_Iosb<int>::_Noreplace
CONST	ENDS
;	COMDAT ?_Nocreate@?$_Iosb@H@std@@2W4_Openmode@12@B
CONST	SEGMENT
?_Nocreate@?$_Iosb@H@std@@2W4_Openmode@12@B DD 040H	; std::_Iosb<int>::_Nocreate
CONST	ENDS
;	COMDAT ?trunc@?$_Iosb@H@std@@2W4_Openmode@12@B
CONST	SEGMENT
?trunc@?$_Iosb@H@std@@2W4_Openmode@12@B DD 010H		; std::_Iosb<int>::trunc
CONST	ENDS
;	COMDAT ?app@?$_Iosb@H@std@@2W4_Openmode@12@B
CONST	SEGMENT
?app@?$_Iosb@H@std@@2W4_Openmode@12@B DD 08H		; std::_Iosb<int>::app
CONST	ENDS
;	COMDAT ?ate@?$_Iosb@H@std@@2W4_Openmode@12@B
CONST	SEGMENT
?ate@?$_Iosb@H@std@@2W4_Openmode@12@B DD 04H		; std::_Iosb<int>::ate
CONST	ENDS
;	COMDAT ?out@?$_Iosb@H@std@@2W4_Openmode@12@B
CONST	SEGMENT
?out@?$_Iosb@H@std@@2W4_Openmode@12@B DD 02H		; std::_Iosb<int>::out
CONST	ENDS
;	COMDAT ?in@?$_Iosb@H@std@@2W4_Openmode@12@B
CONST	SEGMENT
?in@?$_Iosb@H@std@@2W4_Openmode@12@B DD 01H		; std::_Iosb<int>::in
CONST	ENDS
;	COMDAT ?_Hardfail@?$_Iosb@H@std@@2W4_Iostate@12@B
CONST	SEGMENT
?_Hardfail@?$_Iosb@H@std@@2W4_Iostate@12@B DD 010H	; std::_Iosb<int>::_Hardfail
CONST	ENDS
;	COMDAT ?badbit@?$_Iosb@H@std@@2W4_Iostate@12@B
CONST	SEGMENT
?badbit@?$_Iosb@H@std@@2W4_Iostate@12@B DD 04H		; std::_Iosb<int>::badbit
CONST	ENDS
;	COMDAT ?failbit@?$_Iosb@H@std@@2W4_Iostate@12@B
CONST	SEGMENT
?failbit@?$_Iosb@H@std@@2W4_Iostate@12@B DD 02H		; std::_Iosb<int>::failbit
CONST	ENDS
;	COMDAT ?eofbit@?$_Iosb@H@std@@2W4_Iostate@12@B
CONST	SEGMENT
?eofbit@?$_Iosb@H@std@@2W4_Iostate@12@B DD 01H		; std::_Iosb<int>::eofbit
CONST	ENDS
;	COMDAT ?goodbit@?$_Iosb@H@std@@2W4_Iostate@12@B
CONST	SEGMENT
?goodbit@?$_Iosb@H@std@@2W4_Iostate@12@B DD 00H		; std::_Iosb<int>::goodbit
CONST	ENDS
;	COMDAT ?floatfield@?$_Iosb@H@std@@2W4_Fmtflags@12@B
CONST	SEGMENT
?floatfield@?$_Iosb@H@std@@2W4_Fmtflags@12@B DD 03000H	; std::_Iosb<int>::floatfield
CONST	ENDS
;	COMDAT ?basefield@?$_Iosb@H@std@@2W4_Fmtflags@12@B
CONST	SEGMENT
?basefield@?$_Iosb@H@std@@2W4_Fmtflags@12@B DD 0e00H	; std::_Iosb<int>::basefield
CONST	ENDS
;	COMDAT ?adjustfield@?$_Iosb@H@std@@2W4_Fmtflags@12@B
CONST	SEGMENT
?adjustfield@?$_Iosb@H@std@@2W4_Fmtflags@12@B DD 01c0H	; std::_Iosb<int>::adjustfield
CONST	ENDS
;	COMDAT ?_Stdio@?$_Iosb@H@std@@2W4_Fmtflags@12@B
CONST	SEGMENT
?_Stdio@?$_Iosb@H@std@@2W4_Fmtflags@12@B DD 08000H	; std::_Iosb<int>::_Stdio
CONST	ENDS
;	COMDAT ?boolalpha@?$_Iosb@H@std@@2W4_Fmtflags@12@B
CONST	SEGMENT
?boolalpha@?$_Iosb@H@std@@2W4_Fmtflags@12@B DD 04000H	; std::_Iosb<int>::boolalpha
CONST	ENDS
;	COMDAT ?hexfloat@?$_Iosb@H@std@@2W4_Fmtflags@12@B
CONST	SEGMENT
?hexfloat@?$_Iosb@H@std@@2W4_Fmtflags@12@B DD 03000H	; std::_Iosb<int>::hexfloat
CONST	ENDS
;	COMDAT ?fixed@?$_Iosb@H@std@@2W4_Fmtflags@12@B
CONST	SEGMENT
?fixed@?$_Iosb@H@std@@2W4_Fmtflags@12@B DD 02000H	; std::_Iosb<int>::fixed
CONST	ENDS
;	COMDAT ?scientific@?$_Iosb@H@std@@2W4_Fmtflags@12@B
CONST	SEGMENT
?scientific@?$_Iosb@H@std@@2W4_Fmtflags@12@B DD 01000H	; std::_Iosb<int>::scientific
CONST	ENDS
;	COMDAT ?hex@?$_Iosb@H@std@@2W4_Fmtflags@12@B
CONST	SEGMENT
?hex@?$_Iosb@H@std@@2W4_Fmtflags@12@B DD 0800H		; std::_Iosb<int>::hex
CONST	ENDS
;	COMDAT ?oct@?$_Iosb@H@std@@2W4_Fmtflags@12@B
CONST	SEGMENT
?oct@?$_Iosb@H@std@@2W4_Fmtflags@12@B DD 0400H		; std::_Iosb<int>::oct
CONST	ENDS
;	COMDAT ?dec@?$_Iosb@H@std@@2W4_Fmtflags@12@B
CONST	SEGMENT
?dec@?$_Iosb@H@std@@2W4_Fmtflags@12@B DD 0200H		; std::_Iosb<int>::dec
CONST	ENDS
;	COMDAT ?internal@?$_Iosb@H@std@@2W4_Fmtflags@12@B
CONST	SEGMENT
?internal@?$_Iosb@H@std@@2W4_Fmtflags@12@B DD 0100H	; std::_Iosb<int>::internal
CONST	ENDS
;	COMDAT ?right@?$_Iosb@H@std@@2W4_Fmtflags@12@B
CONST	SEGMENT
?right@?$_Iosb@H@std@@2W4_Fmtflags@12@B DD 080H		; std::_Iosb<int>::right
CONST	ENDS
;	COMDAT ?left@?$_Iosb@H@std@@2W4_Fmtflags@12@B
CONST	SEGMENT
?left@?$_Iosb@H@std@@2W4_Fmtflags@12@B DD 040H		; std::_Iosb<int>::left
CONST	ENDS
;	COMDAT ?showpos@?$_Iosb@H@std@@2W4_Fmtflags@12@B
CONST	SEGMENT
?showpos@?$_Iosb@H@std@@2W4_Fmtflags@12@B DD 020H	; std::_Iosb<int>::showpos
CONST	ENDS
;	COMDAT ?showpoint@?$_Iosb@H@std@@2W4_Fmtflags@12@B
CONST	SEGMENT
?showpoint@?$_Iosb@H@std@@2W4_Fmtflags@12@B DD 010H	; std::_Iosb<int>::showpoint
CONST	ENDS
;	COMDAT ?showbase@?$_Iosb@H@std@@2W4_Fmtflags@12@B
CONST	SEGMENT
?showbase@?$_Iosb@H@std@@2W4_Fmtflags@12@B DD 08H	; std::_Iosb<int>::showbase
CONST	ENDS
;	COMDAT ?uppercase@?$_Iosb@H@std@@2W4_Fmtflags@12@B
CONST	SEGMENT
?uppercase@?$_Iosb@H@std@@2W4_Fmtflags@12@B DD 04H	; std::_Iosb<int>::uppercase
CONST	ENDS
;	COMDAT ?unitbuf@?$_Iosb@H@std@@2W4_Fmtflags@12@B
CONST	SEGMENT
?unitbuf@?$_Iosb@H@std@@2W4_Fmtflags@12@B DD 02H	; std::_Iosb<int>::unitbuf
CONST	ENDS
;	COMDAT ?skipws@?$_Iosb@H@std@@2W4_Fmtflags@12@B
CONST	SEGMENT
?skipws@?$_Iosb@H@std@@2W4_Fmtflags@12@B DD 01H		; std::_Iosb<int>::skipws
CONST	ENDS
;	COMDAT ?none@?$_Locbase@H@std@@2HB
CONST	SEGMENT
?none@?$_Locbase@H@std@@2HB DD 00H			; std::_Locbase<int>::none
CONST	ENDS
;	COMDAT ?all@?$_Locbase@H@std@@2HB
CONST	SEGMENT
?all@?$_Locbase@H@std@@2HB DD 03fH			; std::_Locbase<int>::all
CONST	ENDS
;	COMDAT ?messages@?$_Locbase@H@std@@2HB
CONST	SEGMENT
?messages@?$_Locbase@H@std@@2HB DD 020H			; std::_Locbase<int>::messages
CONST	ENDS
;	COMDAT ?time@?$_Locbase@H@std@@2HB
CONST	SEGMENT
?time@?$_Locbase@H@std@@2HB DD 010H			; std::_Locbase<int>::time
CONST	ENDS
;	COMDAT ?numeric@?$_Locbase@H@std@@2HB
CONST	SEGMENT
?numeric@?$_Locbase@H@std@@2HB DD 08H			; std::_Locbase<int>::numeric
CONST	ENDS
;	COMDAT ?monetary@?$_Locbase@H@std@@2HB
CONST	SEGMENT
?monetary@?$_Locbase@H@std@@2HB DD 04H			; std::_Locbase<int>::monetary
CONST	ENDS
;	COMDAT ?ctype@?$_Locbase@H@std@@2HB
CONST	SEGMENT
?ctype@?$_Locbase@H@std@@2HB DD 02H			; std::_Locbase<int>::ctype
CONST	ENDS
;	COMDAT ?collate@?$_Locbase@H@std@@2HB
CONST	SEGMENT
?collate@?$_Locbase@H@std@@2HB DD 01H			; std::_Locbase<int>::collate
CONST	ENDS
;	COMDAT ?_Rank@?$_Arithmetic_traits@O@std@@2HB
CONST	SEGMENT
?_Rank@?$_Arithmetic_traits@O@std@@2HB DD 09H		; std::_Arithmetic_traits<long double>::_Rank
CONST	ENDS
;	COMDAT ?_Rank@?$_Arithmetic_traits@N@std@@2HB
CONST	SEGMENT
?_Rank@?$_Arithmetic_traits@N@std@@2HB DD 08H		; std::_Arithmetic_traits<double>::_Rank
CONST	ENDS
;	COMDAT ?_Rank@?$_Arithmetic_traits@M@std@@2HB
CONST	SEGMENT
?_Rank@?$_Arithmetic_traits@M@std@@2HB DD 07H		; std::_Arithmetic_traits<float>::_Rank
CONST	ENDS
;	COMDAT ?_Rank@?$_Arithmetic_traits@_K@std@@2HB
CONST	SEGMENT
?_Rank@?$_Arithmetic_traits@_K@std@@2HB DD 06H		; std::_Arithmetic_traits<unsigned __int64>::_Rank
CONST	ENDS
;	COMDAT ?_Rank@?$_Arithmetic_traits@_J@std@@2HB
CONST	SEGMENT
?_Rank@?$_Arithmetic_traits@_J@std@@2HB DD 06H		; std::_Arithmetic_traits<__int64>::_Rank
CONST	ENDS
;	COMDAT ?_Rank@?$_Arithmetic_traits@K@std@@2HB
CONST	SEGMENT
?_Rank@?$_Arithmetic_traits@K@std@@2HB DD 05H		; std::_Arithmetic_traits<unsigned long>::_Rank
CONST	ENDS
;	COMDAT ?_Rank@?$_Arithmetic_traits@J@std@@2HB
CONST	SEGMENT
?_Rank@?$_Arithmetic_traits@J@std@@2HB DD 05H		; std::_Arithmetic_traits<long>::_Rank
CONST	ENDS
;	COMDAT ?_Rank@?$_Arithmetic_traits@I@std@@2HB
CONST	SEGMENT
?_Rank@?$_Arithmetic_traits@I@std@@2HB DD 04H		; std::_Arithmetic_traits<unsigned int>::_Rank
CONST	ENDS
;	COMDAT ?_Rank@?$_Arithmetic_traits@H@std@@2HB
CONST	SEGMENT
?_Rank@?$_Arithmetic_traits@H@std@@2HB DD 04H		; std::_Arithmetic_traits<int>::_Rank
CONST	ENDS
;	COMDAT ?_Rank@?$_Arithmetic_traits@G@std@@2HB
CONST	SEGMENT
?_Rank@?$_Arithmetic_traits@G@std@@2HB DD 03H		; std::_Arithmetic_traits<unsigned short>::_Rank
CONST	ENDS
;	COMDAT ?_Rank@?$_Arithmetic_traits@F@std@@2HB
CONST	SEGMENT
?_Rank@?$_Arithmetic_traits@F@std@@2HB DD 03H		; std::_Arithmetic_traits<short>::_Rank
CONST	ENDS
;	COMDAT ?_Rank@?$_Arithmetic_traits@E@std@@2HB
CONST	SEGMENT
?_Rank@?$_Arithmetic_traits@E@std@@2HB DD 02H		; std::_Arithmetic_traits<unsigned char>::_Rank
CONST	ENDS
;	COMDAT ?_Rank@?$_Arithmetic_traits@C@std@@2HB
CONST	SEGMENT
?_Rank@?$_Arithmetic_traits@C@std@@2HB DD 02H		; std::_Arithmetic_traits<signed char>::_Rank
CONST	ENDS
;	COMDAT ?_Rank@?$_Arithmetic_traits@D@std@@2HB
CONST	SEGMENT
?_Rank@?$_Arithmetic_traits@D@std@@2HB DD 02H		; std::_Arithmetic_traits<char>::_Rank
CONST	ENDS
;	COMDAT ?_Rank@?$_Arithmetic_traits@_N@std@@2HB
CONST	SEGMENT
?_Rank@?$_Arithmetic_traits@_N@std@@2HB DD 01H		; std::_Arithmetic_traits<bool>::_Rank
CONST	ENDS
;	COMDAT ?value@?$integral_constant@I$0A@@tr1@std@@2IB
CONST	SEGMENT
?value@?$integral_constant@I$0A@@tr1@std@@2IB DD 00H	; std::tr1::integral_constant<unsigned int,0>::value
CONST	ENDS
;	COMDAT ?value@?$integral_constant@_N$00@tr1@std@@2_NB
CONST	SEGMENT
?value@?$integral_constant@_N$00@tr1@std@@2_NB DB 01H	; std::tr1::integral_constant<bool,1>::value
CONST	ENDS
;	COMDAT ?value@?$integral_constant@_N$0A@@tr1@std@@2_NB
CONST	SEGMENT
?value@?$integral_constant@_N$0A@@tr1@std@@2_NB DB 00H	; std::tr1::integral_constant<bool,0>::value
CONST	ENDS
PUBLIC	??1GLSLProgram@@QAE@XZ				; GLSLProgram::~GLSLProgram
PUBLIC	??0?$tmat4x4@M@detail@glm@@QAE@XZ		; glm::detail::tmat4x4<float>::tmat4x4<float>
PUBLIC	??_7PointSprites@@6B@				; PointSprites::`vftable'
PUBLIC	??0KScene@@QAE@XZ				; KScene::KScene
PUBLIC	??0PointSprites@@QAE@XZ				; PointSprites::PointSprites
PUBLIC	??_R4PointSprites@@6B@				; PointSprites::`RTTI Complete Object Locator'
PUBLIC	??_R0?AVPointSprites@@@8			; PointSprites `RTTI Type Descriptor'
PUBLIC	??_R3PointSprites@@8				; PointSprites::`RTTI Class Hierarchy Descriptor'
PUBLIC	??_R2PointSprites@@8				; PointSprites::`RTTI Base Class Array'
PUBLIC	??_R1A@?0A@EA@PointSprites@@8			; PointSprites::`RTTI Base Class Descriptor at (0,-1,0,64)'
PUBLIC	??_R1A@?0A@EA@KScene@@8				; KScene::`RTTI Base Class Descriptor at (0,-1,0,64)'
PUBLIC	??_R0?AVKScene@@@8				; KScene `RTTI Type Descriptor'
PUBLIC	??_R3KScene@@8					; KScene::`RTTI Class Hierarchy Descriptor'
PUBLIC	??_R2KScene@@8					; KScene::`RTTI Base Class Array'
PUBLIC	?Init@PointSprites@@UAEXXZ			; PointSprites::Init
PUBLIC	?Render@PointSprites@@UAEXXZ			; PointSprites::Render
PUBLIC	?Update@PointSprites@@UAEXM@Z			; PointSprites::Update
PUBLIC	?Resize@PointSprites@@UAEXHH@Z			; PointSprites::Resize
PUBLIC	?Mouse@KScene@@UAEXABUKMouse@@@Z		; KScene::Mouse
PUBLIC	?Motion@KScene@@UAEXMM@Z			; KScene::Motion
PUBLIC	?Keyboard@KScene@@UAEXHMM@Z			; KScene::Keyboard
EXTRN	??0GLSLProgram@@QAE@XZ:PROC			; GLSLProgram::GLSLProgram
EXTRN	___security_cookie:DWORD
EXTRN	___CxxFrameHandler3:PROC
EXTRN	@__security_check_cookie@4:PROC
EXTRN	__RTC_CheckEsp:PROC
EXTRN	__RTC_Shutdown:PROC
EXTRN	__RTC_InitBase:PROC
EXTRN	??_7type_info@@6B@:QWORD			; type_info::`vftable'
;	COMDAT ??_R2KScene@@8
; File c:\users\kmadsen\google drive\opengl_projects\starter\starter\pointsprites.cpp
rdata$r	SEGMENT
??_R2KScene@@8 DD FLAT:??_R1A@?0A@EA@KScene@@8		; KScene::`RTTI Base Class Array'
rdata$r	ENDS
;	COMDAT ??_R3KScene@@8
rdata$r	SEGMENT
??_R3KScene@@8 DD 00H					; KScene::`RTTI Class Hierarchy Descriptor'
	DD	00H
	DD	01H
	DD	FLAT:??_R2KScene@@8
rdata$r	ENDS
;	COMDAT ??_R0?AVKScene@@@8
_DATA	SEGMENT
??_R0?AVKScene@@@8 DD FLAT:??_7type_info@@6B@		; KScene `RTTI Type Descriptor'
	DD	00H
	DB	'.?AVKScene@@', 00H
_DATA	ENDS
;	COMDAT ??_R1A@?0A@EA@KScene@@8
rdata$r	SEGMENT
??_R1A@?0A@EA@KScene@@8 DD FLAT:??_R0?AVKScene@@@8	; KScene::`RTTI Base Class Descriptor at (0,-1,0,64)'
	DD	00H
	DD	00H
	DD	0ffffffffH
	DD	00H
	DD	040H
	DD	FLAT:??_R3KScene@@8
rdata$r	ENDS
;	COMDAT ??_R1A@?0A@EA@PointSprites@@8
rdata$r	SEGMENT
??_R1A@?0A@EA@PointSprites@@8 DD FLAT:??_R0?AVPointSprites@@@8 ; PointSprites::`RTTI Base Class Descriptor at (0,-1,0,64)'
	DD	01H
	DD	00H
	DD	0ffffffffH
	DD	00H
	DD	040H
	DD	FLAT:??_R3PointSprites@@8
rdata$r	ENDS
;	COMDAT ??_R2PointSprites@@8
rdata$r	SEGMENT
??_R2PointSprites@@8 DD FLAT:??_R1A@?0A@EA@PointSprites@@8 ; PointSprites::`RTTI Base Class Array'
	DD	FLAT:??_R1A@?0A@EA@KScene@@8
rdata$r	ENDS
;	COMDAT ??_R3PointSprites@@8
rdata$r	SEGMENT
??_R3PointSprites@@8 DD 00H				; PointSprites::`RTTI Class Hierarchy Descriptor'
	DD	00H
	DD	02H
	DD	FLAT:??_R2PointSprites@@8
rdata$r	ENDS
;	COMDAT ??_R0?AVPointSprites@@@8
_DATA	SEGMENT
??_R0?AVPointSprites@@@8 DD FLAT:??_7type_info@@6B@	; PointSprites `RTTI Type Descriptor'
	DD	00H
	DB	'.?AVPointSprites@@', 00H
_DATA	ENDS
;	COMDAT ??_R4PointSprites@@6B@
rdata$r	SEGMENT
??_R4PointSprites@@6B@ DD 00H				; PointSprites::`RTTI Complete Object Locator'
	DD	00H
	DD	00H
	DD	FLAT:??_R0?AVPointSprites@@@8
	DD	FLAT:??_R3PointSprites@@8
rdata$r	ENDS
;	COMDAT ??_7PointSprites@@6B@
CONST	SEGMENT
??_7PointSprites@@6B@ DD FLAT:??_R4PointSprites@@6B@	; PointSprites::`vftable'
	DD	FLAT:?Init@PointSprites@@UAEXXZ
	DD	FLAT:?Render@PointSprites@@UAEXXZ
	DD	FLAT:?Update@PointSprites@@UAEXM@Z
	DD	FLAT:?Resize@PointSprites@@UAEXHH@Z
	DD	FLAT:?Mouse@KScene@@UAEXABUKMouse@@@Z
	DD	FLAT:?Motion@KScene@@UAEXMM@Z
	DD	FLAT:?Keyboard@KScene@@UAEXHMM@Z
CONST	ENDS
;	COMDAT xdata$x
xdata$x	SEGMENT
__unwindtable$??0PointSprites@@QAE@XZ DD 0ffffffffH
	DD	FLAT:__unwindfunclet$??0PointSprites@@QAE@XZ$0
__ehfuncinfo$??0PointSprites@@QAE@XZ DD 019930522H
	DD	01H
	DD	FLAT:__unwindtable$??0PointSprites@@QAE@XZ
	DD	2 DUP(00H)
	DD	2 DUP(00H)
	DD	00H
	DD	01H
xdata$x	ENDS
;	COMDAT rtc$TMZ
rtc$TMZ	SEGMENT
__RTC_Shutdown.rtc$TMZ DD FLAT:__RTC_Shutdown
rtc$TMZ	ENDS
;	COMDAT rtc$IMZ
rtc$IMZ	SEGMENT
__RTC_InitBase.rtc$IMZ DD FLAT:__RTC_InitBase
; Function compile flags: /Odtp /RTCsu /ZI
rtc$IMZ	ENDS
;	COMDAT ??0PointSprites@@QAE@XZ
_TEXT	SEGMENT
_this$ = -20						; size = 4
__$EHRec$ = -12						; size = 12
??0PointSprites@@QAE@XZ PROC				; PointSprites::PointSprites, COMDAT
; _this$ = ecx

; 18   : {

	push	ebp
	mov	ebp, esp
	push	-1
	push	__ehhandler$??0PointSprites@@QAE@XZ
	mov	eax, DWORD PTR fs:0
	push	eax
	sub	esp, 204				; 000000ccH
	push	ebx
	push	esi
	push	edi
	push	ecx
	lea	edi, DWORD PTR [ebp-216]
	mov	ecx, 51					; 00000033H
	mov	eax, -858993460				; ccccccccH
	rep stosd
	pop	ecx
	mov	eax, DWORD PTR ___security_cookie
	xor	eax, ebp
	push	eax
	lea	eax, DWORD PTR __$EHRec$[ebp]
	mov	DWORD PTR fs:0, eax
	mov	DWORD PTR _this$[ebp], ecx
	mov	ecx, DWORD PTR _this$[ebp]
	call	??0KScene@@QAE@XZ
	mov	eax, DWORD PTR _this$[ebp]
	mov	DWORD PTR [eax], OFFSET ??_7PointSprites@@6B@
	mov	ecx, DWORD PTR _this$[ebp]
	add	ecx, 4
	call	??0GLSLProgram@@QAE@XZ			; GLSLProgram::GLSLProgram
	mov	DWORD PTR __$EHRec$[ebp+8], 0
	mov	ecx, DWORD PTR _this$[ebp]
	add	ecx, 44					; 0000002cH
	call	??0?$tmat4x4@M@detail@glm@@QAE@XZ	; glm::detail::tmat4x4<float>::tmat4x4<float>
	mov	ecx, DWORD PTR _this$[ebp]
	add	ecx, 108				; 0000006cH
	call	??0?$tmat4x4@M@detail@glm@@QAE@XZ	; glm::detail::tmat4x4<float>::tmat4x4<float>
	mov	ecx, DWORD PTR _this$[ebp]
	add	ecx, 172				; 000000acH
	call	??0?$tmat4x4@M@detail@glm@@QAE@XZ	; glm::detail::tmat4x4<float>::tmat4x4<float>

; 19   : }

	mov	DWORD PTR __$EHRec$[ebp+8], -1
	mov	eax, DWORD PTR _this$[ebp]
	mov	ecx, DWORD PTR __$EHRec$[ebp]
	mov	DWORD PTR fs:0, ecx
	pop	ecx
	pop	edi
	pop	esi
	pop	ebx
	add	esp, 216				; 000000d8H
	cmp	ebp, esp
	call	__RTC_CheckEsp
	mov	esp, ebp
	pop	ebp
	ret	0
_TEXT	ENDS
;	COMDAT text$x
text$x	SEGMENT
__unwindfunclet$??0PointSprites@@QAE@XZ$0:
	mov	ecx, DWORD PTR _this$[ebp]
	add	ecx, 4
	jmp	??1GLSLProgram@@QAE@XZ
__ehhandler$??0PointSprites@@QAE@XZ:
	mov	edx, DWORD PTR [esp+8]
	lea	eax, DWORD PTR [edx+12]
	mov	ecx, DWORD PTR [edx-220]
	xor	ecx, eax
	call	@__security_check_cookie@4
	mov	eax, OFFSET __ehfuncinfo$??0PointSprites@@QAE@XZ
	jmp	___CxxFrameHandler3
text$x	ENDS
??0PointSprites@@QAE@XZ ENDP				; PointSprites::PointSprites
; Function compile flags: /Odtp /RTCsu /ZI
; File c:\users\kmadsen\google drive\opengl_projects\starter\starter\kscene.h
;	COMDAT ?Mouse@KScene@@UAEXABUKMouse@@@Z
_TEXT	SEGMENT
_this$ = -8						; size = 4
_mouse$ = 8						; size = 4
?Mouse@KScene@@UAEXABUKMouse@@@Z PROC			; KScene::Mouse, COMDAT
; _this$ = ecx

; 128  : 	virtual void Mouse(const KMouse &mouse) { }

	push	ebp
	mov	ebp, esp
	sub	esp, 204				; 000000ccH
	push	ebx
	push	esi
	push	edi
	push	ecx
	lea	edi, DWORD PTR [ebp-204]
	mov	ecx, 51					; 00000033H
	mov	eax, -858993460				; ccccccccH
	rep stosd
	pop	ecx
	mov	DWORD PTR _this$[ebp], ecx
	pop	edi
	pop	esi
	pop	ebx
	mov	esp, ebp
	pop	ebp
	ret	4
?Mouse@KScene@@UAEXABUKMouse@@@Z ENDP			; KScene::Mouse
; Function compile flags: /Odtp /RTCsu /ZI
_TEXT	ENDS
;	COMDAT ?Motion@KScene@@UAEXMM@Z
_TEXT	SEGMENT
_this$ = -8						; size = 4
_x$ = 8							; size = 4
_y$ = 12						; size = 4
?Motion@KScene@@UAEXMM@Z PROC				; KScene::Motion, COMDAT
; _this$ = ecx

; 129  : 	virtual void Motion(float x, float y) { }

	push	ebp
	mov	ebp, esp
	sub	esp, 204				; 000000ccH
	push	ebx
	push	esi
	push	edi
	push	ecx
	lea	edi, DWORD PTR [ebp-204]
	mov	ecx, 51					; 00000033H
	mov	eax, -858993460				; ccccccccH
	rep stosd
	pop	ecx
	mov	DWORD PTR _this$[ebp], ecx
	pop	edi
	pop	esi
	pop	ebx
	mov	esp, ebp
	pop	ebp
	ret	8
?Motion@KScene@@UAEXMM@Z ENDP				; KScene::Motion
; Function compile flags: /Odtp /RTCsu /ZI
_TEXT	ENDS
;	COMDAT ?Keyboard@KScene@@UAEXHMM@Z
_TEXT	SEGMENT
_this$ = -8						; size = 4
_key$ = 8						; size = 4
_x$ = 12						; size = 4
_y$ = 16						; size = 4
?Keyboard@KScene@@UAEXHMM@Z PROC			; KScene::Keyboard, COMDAT
; _this$ = ecx

; 130  : 	virtual void Keyboard(int key, float x, float y) { }

	push	ebp
	mov	ebp, esp
	sub	esp, 204				; 000000ccH
	push	ebx
	push	esi
	push	edi
	push	ecx
	lea	edi, DWORD PTR [ebp-204]
	mov	ecx, 51					; 00000033H
	mov	eax, -858993460				; ccccccccH
	rep stosd
	pop	ecx
	mov	DWORD PTR _this$[ebp], ecx
	pop	edi
	pop	esi
	pop	ebx
	mov	esp, ebp
	pop	ebp
	ret	12					; 0000000cH
?Keyboard@KScene@@UAEXHMM@Z ENDP			; KScene::Keyboard
_TEXT	ENDS
PUBLIC	??_7KScene@@6B@					; KScene::`vftable'
PUBLIC	??_R4KScene@@6B@				; KScene::`RTTI Complete Object Locator'
PUBLIC	?Update@KScene@@UAEXM@Z				; KScene::Update
PUBLIC	?Resize@KScene@@UAEXHH@Z			; KScene::Resize
EXTRN	__purecall:PROC
;	COMDAT ??_R4KScene@@6B@
rdata$r	SEGMENT
??_R4KScene@@6B@ DD 00H					; KScene::`RTTI Complete Object Locator'
	DD	00H
	DD	00H
	DD	FLAT:??_R0?AVKScene@@@8
	DD	FLAT:??_R3KScene@@8
rdata$r	ENDS
;	COMDAT ??_7KScene@@6B@
CONST	SEGMENT
??_7KScene@@6B@ DD FLAT:??_R4KScene@@6B@		; KScene::`vftable'
	DD	FLAT:__purecall
	DD	FLAT:__purecall
	DD	FLAT:?Update@KScene@@UAEXM@Z
	DD	FLAT:?Resize@KScene@@UAEXHH@Z
	DD	FLAT:?Mouse@KScene@@UAEXABUKMouse@@@Z
	DD	FLAT:?Motion@KScene@@UAEXMM@Z
	DD	FLAT:?Keyboard@KScene@@UAEXHMM@Z
; Function compile flags: /Odtp /RTCsu /ZI
CONST	ENDS
;	COMDAT ??0KScene@@QAE@XZ
_TEXT	SEGMENT
_this$ = -8						; size = 4
??0KScene@@QAE@XZ PROC					; KScene::KScene, COMDAT
; _this$ = ecx
	push	ebp
	mov	ebp, esp
	sub	esp, 204				; 000000ccH
	push	ebx
	push	esi
	push	edi
	push	ecx
	lea	edi, DWORD PTR [ebp-204]
	mov	ecx, 51					; 00000033H
	mov	eax, -858993460				; ccccccccH
	rep stosd
	pop	ecx
	mov	DWORD PTR _this$[ebp], ecx
	mov	eax, DWORD PTR _this$[ebp]
	mov	DWORD PTR [eax], OFFSET ??_7KScene@@6B@
	mov	eax, DWORD PTR _this$[ebp]
	pop	edi
	pop	esi
	pop	ebx
	mov	esp, ebp
	pop	ebp
	ret	0
??0KScene@@QAE@XZ ENDP					; KScene::KScene
; Function compile flags: /Odtp /RTCsu /ZI
_TEXT	ENDS
;	COMDAT ?Update@KScene@@UAEXM@Z
_TEXT	SEGMENT
_this$ = -8						; size = 4
_dt$ = 8						; size = 4
?Update@KScene@@UAEXM@Z PROC				; KScene::Update, COMDAT
; _this$ = ecx

; 126  : 	virtual void Update(float dt) { };

	push	ebp
	mov	ebp, esp
	sub	esp, 204				; 000000ccH
	push	ebx
	push	esi
	push	edi
	push	ecx
	lea	edi, DWORD PTR [ebp-204]
	mov	ecx, 51					; 00000033H
	mov	eax, -858993460				; ccccccccH
	rep stosd
	pop	ecx
	mov	DWORD PTR _this$[ebp], ecx
	pop	edi
	pop	esi
	pop	ebx
	mov	esp, ebp
	pop	ebp
	ret	4
?Update@KScene@@UAEXM@Z ENDP				; KScene::Update
; Function compile flags: /Odtp /RTCsu /ZI
_TEXT	ENDS
;	COMDAT ?Resize@KScene@@UAEXHH@Z
_TEXT	SEGMENT
_this$ = -8						; size = 4
_width$ = 8						; size = 4
_height$ = 12						; size = 4
?Resize@KScene@@UAEXHH@Z PROC				; KScene::Resize, COMDAT
; _this$ = ecx

; 127  : 	virtual void Resize(int width, int height) { };

	push	ebp
	mov	ebp, esp
	sub	esp, 204				; 000000ccH
	push	ebx
	push	esi
	push	edi
	push	ecx
	lea	edi, DWORD PTR [ebp-204]
	mov	ecx, 51					; 00000033H
	mov	eax, -858993460				; ccccccccH
	rep stosd
	pop	ecx
	mov	DWORD PTR _this$[ebp], ecx
	pop	edi
	pop	esi
	pop	ebx
	mov	esp, ebp
	pop	ebp
	ret	8
?Resize@KScene@@UAEXHH@Z ENDP				; KScene::Resize
_TEXT	ENDS
PUBLIC	??1?$basic_string@DU?$char_traits@D@std@@V?$allocator@D@2@@std@@QAE@XZ ; std::basic_string<char,std::char_traits<char>,std::allocator<char> >::~basic_string<char,std::char_traits<char>,std::allocator<char> >
; Function compile flags: /Odtp /RTCsu /ZI
;	COMDAT ??1GLSLProgram@@QAE@XZ
_TEXT	SEGMENT
_this$ = -8						; size = 4
??1GLSLProgram@@QAE@XZ PROC				; GLSLProgram::~GLSLProgram, COMDAT
; _this$ = ecx
	push	ebp
	mov	ebp, esp
	sub	esp, 204				; 000000ccH
	push	ebx
	push	esi
	push	edi
	push	ecx
	lea	edi, DWORD PTR [ebp-204]
	mov	ecx, 51					; 00000033H
	mov	eax, -858993460				; ccccccccH
	rep stosd
	pop	ecx
	mov	DWORD PTR _this$[ebp], ecx
	mov	ecx, DWORD PTR _this$[ebp]
	add	ecx, 8
	call	??1?$basic_string@DU?$char_traits@D@std@@V?$allocator@D@2@@std@@QAE@XZ ; std::basic_string<char,std::char_traits<char>,std::allocator<char> >::~basic_string<char,std::char_traits<char>,std::allocator<char> >
	pop	edi
	pop	esi
	pop	ebx
	add	esp, 204				; 000000ccH
	cmp	ebp, esp
	call	__RTC_CheckEsp
	mov	esp, ebp
	pop	ebp
	ret	0
??1GLSLProgram@@QAE@XZ ENDP				; GLSLProgram::~GLSLProgram
_TEXT	ENDS
PUBLIC	??1PointSprites@@QAE@XZ				; PointSprites::~PointSprites
; Function compile flags: /Odtp /RTCsu /ZI
; File c:\users\kmadsen\google drive\opengl_projects\starter\starter\pointsprites.cpp
;	COMDAT ??1PointSprites@@QAE@XZ
_TEXT	SEGMENT
_this$ = -8						; size = 4
??1PointSprites@@QAE@XZ PROC				; PointSprites::~PointSprites, COMDAT
; _this$ = ecx

; 23   : {

	push	ebp
	mov	ebp, esp
	sub	esp, 204				; 000000ccH
	push	ebx
	push	esi
	push	edi
	push	ecx
	lea	edi, DWORD PTR [ebp-204]
	mov	ecx, 51					; 00000033H
	mov	eax, -858993460				; ccccccccH
	rep stosd
	pop	ecx
	mov	DWORD PTR _this$[ebp], ecx
	mov	eax, DWORD PTR _this$[ebp]
	mov	DWORD PTR [eax], OFFSET ??_7PointSprites@@6B@

; 24   : }

	mov	ecx, DWORD PTR _this$[ebp]
	add	ecx, 4
	call	??1GLSLProgram@@QAE@XZ
	pop	edi
	pop	esi
	pop	ebx
	add	esp, 204				; 000000ccH
	cmp	ebp, esp
	call	__RTC_CheckEsp
	mov	esp, ebp
	pop	ebp
	ret	0
??1PointSprites@@QAE@XZ ENDP				; PointSprites::~PointSprites
_TEXT	ENDS
PUBLIC	??_C@_05PHOLCMHL@Size2?$AA@			; `string'
PUBLIC	__real@3e19999a
PUBLIC	??_C@_0O@DFLLGGIK@SpriteTexture?$AA@		; `string'
PUBLIC	__real@47012d00
PUBLIC	__real@46180400
PUBLIC	__real@00000000
PUBLIC	??0?$tvec3@M@detail@glm@@QAE@ABM00@Z		; glm::detail::tvec3<float>::tvec3<float>
PUBLIC	__real@3ff0000000000000
PUBLIC	__real@40dfffc000000000
PUBLIC	__real@3e4ccccd
PUBLIC	__real@3f800000
PUBLIC	??_C@_0BK@EIHCPGGF@Shaders?1point_sprite?4geom?$AA@ ; `string'
PUBLIC	??_C@_0BK@EIKNHFHD@Shaders?1point_sprite?4frag?$AA@ ; `string'
PUBLIC	??_C@_0BK@JKAMNBGM@Shaders?1point_sprite?4vert?$AA@ ; `string'
EXTRN	?SetUniform@GLSLProgram@@QAEXPBDM@Z:PROC	; GLSLProgram::SetUniform
EXTRN	?SetUniform@GLSLProgram@@QAEXPBDH@Z:PROC	; GLSLProgram::SetUniform
EXTRN	__imp__glTexParameterf@12:PROC
EXTRN	__imp__glTexImage2D@36:PROC
EXTRN	__imp__FreeImage_GetWidth@4:PROC
EXTRN	__imp__FreeImage_GetHeight@4:PROC
EXTRN	__imp__FreeImage_GetBits@4:PROC
EXTRN	__imp__glBindTexture@8:PROC
EXTRN	__imp____glewActiveTexture:DWORD
EXTRN	?GetBitMap@ShaderUtil@@SAPAUFIBITMAP@@QBD@Z:PROC ; ShaderUtil::GetBitMap
EXTRN	__imp__glGenTextures@8:PROC
EXTRN	__imp____glewEnableVertexAttribArray:DWORD
EXTRN	__imp____glewVertexAttribPointer:DWORD
EXTRN	__imp____glewBindVertexArray:DWORD
EXTRN	__imp____glewGenVertexArrays:DWORD
EXTRN	??_V@YAXPAX@Z:PROC				; operator delete[]
EXTRN	__imp____glewBufferData:DWORD
EXTRN	__imp____glewBindBuffer:DWORD
EXTRN	__imp____glewGenBuffers:DWORD
EXTRN	__imp__rand:PROC
EXTRN	__imp__srand:PROC
EXTRN	??_U@YAPAXI@Z:PROC				; operator new[]
EXTRN	__imp__glEnable@4:PROC
EXTRN	__imp__glClearColor@16:PROC
EXTRN	?Use@GLSLProgram@@QAEXXZ:PROC			; GLSLProgram::Use
EXTRN	?Link@GLSLProgram@@QAE_NXZ:PROC			; GLSLProgram::Link
EXTRN	__imp__exit:PROC
EXTRN	?CompileShaderFromFile@GLSLProgram@@QAE_NPBDW4GLSLShaderType@GLSLShader@@@Z:PROC ; GLSLProgram::CompileShaderFromFile
EXTRN	__fltused:DWORD
EXTRN	@_RTC_CheckStackVars@8:PROC
;	COMDAT ??_C@_05PHOLCMHL@Size2?$AA@
CONST	SEGMENT
??_C@_05PHOLCMHL@Size2?$AA@ DB 'Size2', 00H		; `string'
CONST	ENDS
;	COMDAT __real@3e19999a
CONST	SEGMENT
__real@3e19999a DD 03e19999ar			; 0.15
CONST	ENDS
;	COMDAT ??_C@_0O@DFLLGGIK@SpriteTexture?$AA@
CONST	SEGMENT
??_C@_0O@DFLLGGIK@SpriteTexture?$AA@ DB 'SpriteTexture', 00H ; `string'
CONST	ENDS
;	COMDAT __real@47012d00
CONST	SEGMENT
__real@47012d00 DD 047012d00r			; 33069
CONST	ENDS
;	COMDAT __real@46180400
CONST	SEGMENT
__real@46180400 DD 046180400r			; 9729
CONST	ENDS
;	COMDAT __real@00000000
CONST	SEGMENT
__real@00000000 DD 000000000r			; 0
CONST	ENDS
;	COMDAT __real@3ff0000000000000
CONST	SEGMENT
__real@3ff0000000000000 DQ 03ff0000000000000r	; 1
CONST	ENDS
;	COMDAT __real@40dfffc000000000
CONST	SEGMENT
__real@40dfffc000000000 DQ 040dfffc000000000r	; 32767
CONST	ENDS
;	COMDAT __real@3e4ccccd
CONST	SEGMENT
__real@3e4ccccd DD 03e4ccccdr			; 0.2
CONST	ENDS
;	COMDAT __real@3f800000
CONST	SEGMENT
__real@3f800000 DD 03f800000r			; 1
CONST	ENDS
;	COMDAT ??_C@_0BK@EIHCPGGF@Shaders?1point_sprite?4geom?$AA@
CONST	SEGMENT
??_C@_0BK@EIHCPGGF@Shaders?1point_sprite?4geom?$AA@ DB 'Shaders/point_spr'
	DB	'ite.geom', 00H				; `string'
CONST	ENDS
;	COMDAT ??_C@_0BK@EIKNHFHD@Shaders?1point_sprite?4frag?$AA@
CONST	SEGMENT
??_C@_0BK@EIKNHFHD@Shaders?1point_sprite?4frag?$AA@ DB 'Shaders/point_spr'
	DB	'ite.frag', 00H				; `string'
CONST	ENDS
;	COMDAT ??_C@_0BK@JKAMNBGM@Shaders?1point_sprite?4vert?$AA@
CONST	SEGMENT
??_C@_0BK@JKAMNBGM@Shaders?1point_sprite?4vert?$AA@ DB 'Shaders/point_spr'
	DB	'ite.vert', 00H				; `string'
; Function compile flags: /Odtp /RTCsu /ZI
CONST	ENDS
;	COMDAT ?Init@PointSprites@@UAEXXZ
_TEXT	SEGMENT
tv340 = -344						; size = 4
tv333 = -340						; size = 4
tv326 = -336						; size = 4
$T70466 = -328						; size = 4
$T70467 = -316						; size = 4
$T70468 = -304						; size = 4
$T70469 = -292						; size = 4
$T70470 = -280						; size = 4
_imageBitmap$ = -76					; size = 4
_tid$ = -64						; size = 4
_handle$ = -52						; size = 4
_p$62744 = -40						; size = 12
_i$62737 = -20						; size = 4
_this$ = -8						; size = 4
?Init@PointSprites@@UAEXXZ PROC				; PointSprites::Init, COMDAT
; _this$ = ecx

; 27   : {

	push	ebp
	mov	ebp, esp
	sub	esp, 344				; 00000158H
	push	ebx
	push	esi
	push	edi
	push	ecx
	lea	edi, DWORD PTR [ebp-344]
	mov	ecx, 86					; 00000056H
	mov	eax, -858993460				; ccccccccH
	rep stosd
	pop	ecx
	mov	DWORD PTR _this$[ebp], ecx

; 28   : 	// Compile and link shaders
; 29   : 	if (!m_Program.CompileShaderFromFile("Shaders/point_sprite.vert", GLSLShader::VERTEX)) {

	push	0
	push	OFFSET ??_C@_0BK@JKAMNBGM@Shaders?1point_sprite?4vert?$AA@
	mov	ecx, DWORD PTR _this$[ebp]
	add	ecx, 4
	call	?CompileShaderFromFile@GLSLProgram@@QAE_NPBDW4GLSLShaderType@GLSLShader@@@Z ; GLSLProgram::CompileShaderFromFile
	movzx	eax, al
	test	eax, eax
	jne	SHORT $LN7@Init

; 30   : 		exit(1);

	mov	esi, esp
	push	1
	call	DWORD PTR __imp__exit
	cmp	esi, esp
	call	__RTC_CheckEsp
$LN7@Init:

; 31   : 	}
; 32   : 	if (!m_Program.CompileShaderFromFile("Shaders/point_sprite.frag", GLSLShader::FRAGMENT)) {

	push	1
	push	OFFSET ??_C@_0BK@EIKNHFHD@Shaders?1point_sprite?4frag?$AA@
	mov	ecx, DWORD PTR _this$[ebp]
	add	ecx, 4
	call	?CompileShaderFromFile@GLSLProgram@@QAE_NPBDW4GLSLShaderType@GLSLShader@@@Z ; GLSLProgram::CompileShaderFromFile
	movzx	eax, al
	test	eax, eax
	jne	SHORT $LN6@Init

; 33   : 		exit(1);

	mov	esi, esp
	push	1
	call	DWORD PTR __imp__exit
	cmp	esi, esp
	call	__RTC_CheckEsp
$LN6@Init:

; 34   : 	}
; 35   : 	if (!m_Program.CompileShaderFromFile("Shaders/point_sprite.geom", GLSLShader::GEOMETRY)) {

	push	2
	push	OFFSET ??_C@_0BK@EIHCPGGF@Shaders?1point_sprite?4geom?$AA@
	mov	ecx, DWORD PTR _this$[ebp]
	add	ecx, 4
	call	?CompileShaderFromFile@GLSLProgram@@QAE_NPBDW4GLSLShaderType@GLSLShader@@@Z ; GLSLProgram::CompileShaderFromFile
	movzx	eax, al
	test	eax, eax
	jne	SHORT $LN5@Init

; 36   : 		exit(1);

	mov	esi, esp
	push	1
	call	DWORD PTR __imp__exit
	cmp	esi, esp
	call	__RTC_CheckEsp
$LN5@Init:

; 37   : 	}
; 38   : 	if (!m_Program.Link()) {

	mov	ecx, DWORD PTR _this$[ebp]
	add	ecx, 4
	call	?Link@GLSLProgram@@QAE_NXZ		; GLSLProgram::Link
	movzx	eax, al
	test	eax, eax
	jne	SHORT $LN4@Init

; 39   : 		exit(1);

	mov	esi, esp
	push	1
	call	DWORD PTR __imp__exit
	cmp	esi, esp
	call	__RTC_CheckEsp
$LN4@Init:

; 40   : 	}
; 41   : 	m_Program.Use();

	mov	ecx, DWORD PTR _this$[ebp]
	add	ecx, 4
	call	?Use@GLSLProgram@@QAEXXZ		; GLSLProgram::Use

; 42   : 
; 43   : 	// Initialize gl
; 44   : 	glClearColor(0.2f,0.2f,0.2f,1.0f);

	mov	esi, esp
	push	ecx
	fld1
	fstp	DWORD PTR [esp]
	push	ecx
	fld	DWORD PTR __real@3e4ccccd
	fstp	DWORD PTR [esp]
	push	ecx
	fld	DWORD PTR __real@3e4ccccd
	fstp	DWORD PTR [esp]
	push	ecx
	fld	DWORD PTR __real@3e4ccccd
	fstp	DWORD PTR [esp]
	call	DWORD PTR __imp__glClearColor@16
	cmp	esi, esp
	call	__RTC_CheckEsp

; 45   : 	glEnable(GL_DEPTH_TEST);

	mov	esi, esp
	push	2929					; 00000b71H
	call	DWORD PTR __imp__glEnable@4
	cmp	esi, esp
	call	__RTC_CheckEsp

; 46   : 
; 47   : 	m_NumSprites = 50;

	mov	eax, DWORD PTR _this$[ebp]
	mov	DWORD PTR [eax+236], 50			; 00000032H

; 48   :     m_Locations = new float[m_NumSprites * 3];

	mov	eax, DWORD PTR _this$[ebp]
	mov	eax, DWORD PTR [eax+236]
	imul	eax, 3
	xor	ecx, ecx
	mov	edx, 4
	mul	edx
	seto	cl
	neg	ecx
	or	ecx, eax
	push	ecx
	call	??_U@YAPAXI@Z				; operator new[]
	add	esp, 4
	mov	DWORD PTR $T70466[ebp], eax
	mov	eax, DWORD PTR _this$[ebp]
	mov	ecx, DWORD PTR $T70466[ebp]
	mov	DWORD PTR [eax+240], ecx

; 49   : 
; 50   :     srand( time(0) );

	push	0
	call	_time
	add	esp, 4
	mov	esi, esp
	push	eax
	call	DWORD PTR __imp__srand
	add	esp, 4
	cmp	esi, esp
	call	__RTC_CheckEsp

; 51   :     for( int i = 0; i < m_NumSprites; i++ ) {

	mov	DWORD PTR _i$62737[ebp], 0
	jmp	SHORT $LN3@Init
$LN2@Init:
	mov	eax, DWORD PTR _i$62737[ebp]
	add	eax, 1
	mov	DWORD PTR _i$62737[ebp], eax
$LN3@Init:
	mov	eax, DWORD PTR _this$[ebp]
	mov	ecx, DWORD PTR _i$62737[ebp]
	cmp	ecx, DWORD PTR [eax+236]
	jge	$LN1@Init

; 52   :         vec3 p(((float)rand() / RAND_MAX * 2.0f) - 1.0f,
; 53   :                ((float)rand() / RAND_MAX * 2.0f) - 1.0f,
; 54   :                ((float)rand() / RAND_MAX * 2.0f) - 1.0f);

	mov	esi, esp
	call	DWORD PTR __imp__rand
	cmp	esi, esp
	call	__RTC_CheckEsp
	mov	DWORD PTR tv326[ebp], eax
	fild	DWORD PTR tv326[ebp]
	fdiv	QWORD PTR __real@40dfffc000000000
	fadd	ST(0), ST(0)
	fsub	QWORD PTR __real@3ff0000000000000
	fstp	DWORD PTR $T70467[ebp]
	mov	esi, esp
	call	DWORD PTR __imp__rand
	cmp	esi, esp
	call	__RTC_CheckEsp
	mov	DWORD PTR tv333[ebp], eax
	fild	DWORD PTR tv333[ebp]
	fdiv	QWORD PTR __real@40dfffc000000000
	fadd	ST(0), ST(0)
	fsub	QWORD PTR __real@3ff0000000000000
	fstp	DWORD PTR $T70468[ebp]
	mov	esi, esp
	call	DWORD PTR __imp__rand
	cmp	esi, esp
	call	__RTC_CheckEsp
	mov	DWORD PTR tv340[ebp], eax
	fild	DWORD PTR tv340[ebp]
	fdiv	QWORD PTR __real@40dfffc000000000
	fadd	ST(0), ST(0)
	fsub	QWORD PTR __real@3ff0000000000000
	fstp	DWORD PTR $T70469[ebp]
	lea	eax, DWORD PTR $T70467[ebp]
	push	eax
	lea	ecx, DWORD PTR $T70468[ebp]
	push	ecx
	lea	edx, DWORD PTR $T70469[ebp]
	push	edx
	lea	ecx, DWORD PTR _p$62744[ebp]
	call	??0?$tvec3@M@detail@glm@@QAE@ABM00@Z	; glm::detail::tvec3<float>::tvec3<float>

; 55   :         m_Locations[i*3] = p.x;

	mov	eax, DWORD PTR _i$62737[ebp]
	imul	eax, 3
	mov	ecx, DWORD PTR _this$[ebp]
	mov	edx, DWORD PTR [ecx+240]
	fld	DWORD PTR _p$62744[ebp]
	fstp	DWORD PTR [edx+eax*4]

; 56   :         m_Locations[i*3+1] = p.y;

	mov	eax, DWORD PTR _i$62737[ebp]
	imul	eax, 3
	mov	ecx, DWORD PTR _this$[ebp]
	mov	edx, DWORD PTR [ecx+240]
	fld	DWORD PTR _p$62744[ebp+4]
	fstp	DWORD PTR [edx+eax*4+4]

; 57   :         m_Locations[i*3+2] = p.z;

	mov	eax, DWORD PTR _i$62737[ebp]
	imul	eax, 3
	mov	ecx, DWORD PTR _this$[ebp]
	mov	edx, DWORD PTR [ecx+240]
	fld	DWORD PTR _p$62744[ebp+8]
	fstp	DWORD PTR [edx+eax*4+8]

; 58   :     }

	jmp	$LN2@Init
$LN1@Init:

; 59   : 	m_Angle = 0.0f;

	mov	eax, DWORD PTR _this$[ebp]
	fldz
	fstp	DWORD PTR [eax+248]

; 60   : 
; 61   : 	// Set up the buffers
; 62   :     GLuint handle;
; 63   :     glGenBuffers(1, &handle);

	mov	esi, esp
	lea	eax, DWORD PTR _handle$[ebp]
	push	eax
	push	1
	mov	ecx, DWORD PTR __imp____glewGenBuffers
	mov	edx, DWORD PTR [ecx]
	call	edx
	cmp	esi, esp
	call	__RTC_CheckEsp

; 64   : 
; 65   :     glBindBuffer(GL_ARRAY_BUFFER, handle);

	mov	esi, esp
	mov	eax, DWORD PTR _handle$[ebp]
	push	eax
	push	34962					; 00008892H
	mov	ecx, DWORD PTR __imp____glewBindBuffer
	mov	edx, DWORD PTR [ecx]
	call	edx
	cmp	esi, esp
	call	__RTC_CheckEsp

; 66   :     glBufferData(GL_ARRAY_BUFFER, m_NumSprites * 3 * sizeof(float), m_Locations, GL_STATIC_DRAW);

	mov	esi, esp
	push	35044					; 000088e4H
	mov	eax, DWORD PTR _this$[ebp]
	mov	ecx, DWORD PTR [eax+240]
	push	ecx
	mov	edx, DWORD PTR _this$[ebp]
	mov	eax, DWORD PTR [edx+236]
	imul	eax, 3
	shl	eax, 2
	push	eax
	push	34962					; 00008892H
	mov	ecx, DWORD PTR __imp____glewBufferData
	mov	edx, DWORD PTR [ecx]
	call	edx
	cmp	esi, esp
	call	__RTC_CheckEsp

; 67   : 
; 68   :     delete [] m_Locations;

	mov	eax, DWORD PTR _this$[ebp]
	mov	ecx, DWORD PTR [eax+240]
	mov	DWORD PTR $T70470[ebp], ecx
	mov	edx, DWORD PTR $T70470[ebp]
	push	edx
	call	??_V@YAXPAX@Z				; operator delete[]
	add	esp, 4

; 69   : 
; 70   : 	    // Set up the vertex array object
; 71   :     glGenVertexArrays( 1, &m_Sprites );

	mov	eax, DWORD PTR _this$[ebp]
	add	eax, 244				; 000000f4H
	mov	esi, esp
	push	eax
	push	1
	mov	ecx, DWORD PTR __imp____glewGenVertexArrays
	mov	edx, DWORD PTR [ecx]
	call	edx
	cmp	esi, esp
	call	__RTC_CheckEsp

; 72   :     glBindVertexArray(m_Sprites);

	mov	esi, esp
	mov	eax, DWORD PTR _this$[ebp]
	mov	ecx, DWORD PTR [eax+244]
	push	ecx
	mov	edx, DWORD PTR __imp____glewBindVertexArray
	mov	eax, DWORD PTR [edx]
	call	eax
	cmp	esi, esp
	call	__RTC_CheckEsp

; 73   : 
; 74   :     glBindBuffer(GL_ARRAY_BUFFER, handle);

	mov	esi, esp
	mov	eax, DWORD PTR _handle$[ebp]
	push	eax
	push	34962					; 00008892H
	mov	ecx, DWORD PTR __imp____glewBindBuffer
	mov	edx, DWORD PTR [ecx]
	call	edx
	cmp	esi, esp
	call	__RTC_CheckEsp

; 75   :     glVertexAttribPointer( 0, 3, GL_FLOAT, GL_FALSE, 0, ((GLubyte *)NULL + (0)) );

	mov	esi, esp
	push	0
	push	0
	push	0
	push	5126					; 00001406H
	push	3
	push	0
	mov	eax, DWORD PTR __imp____glewVertexAttribPointer
	mov	ecx, DWORD PTR [eax]
	call	ecx
	cmp	esi, esp
	call	__RTC_CheckEsp

; 76   :     glEnableVertexAttribArray(0);  // Vertex position

	mov	esi, esp
	push	0
	mov	eax, DWORD PTR __imp____glewEnableVertexAttribArray
	mov	ecx, DWORD PTR [eax]
	call	ecx
	cmp	esi, esp
	call	__RTC_CheckEsp

; 77   : 
; 78   :     glBindVertexArray(0);

	mov	esi, esp
	push	0
	mov	eax, DWORD PTR __imp____glewBindVertexArray
	mov	ecx, DWORD PTR [eax]
	call	ecx
	cmp	esi, esp
	call	__RTC_CheckEsp

; 79   : 
; 80   :     // Load texture file
; 81   : 	const static char* filename = "Textures/flower.png";
; 82   : 
; 83   : 	GLuint tid;
; 84   : 	glGenTextures(1, &tid);

	mov	esi, esp
	lea	eax, DWORD PTR _tid$[ebp]
	push	eax
	push	1
	call	DWORD PTR __imp__glGenTextures@8
	cmp	esi, esp
	call	__RTC_CheckEsp

; 85   : 
; 86   : 	// Load the diffuse texture
; 87   : 	FIBITMAP* imageBitmap = ShaderUtil::GetBitMap(filename);

	mov	eax, DWORD PTR ?filename@?BA@??Init@PointSprites@@UAEXXZ@4PBDB
	push	eax
	call	?GetBitMap@ShaderUtil@@SAPAUFIBITMAP@@QBD@Z ; ShaderUtil::GetBitMap
	add	esp, 4
	mov	DWORD PTR _imageBitmap$[ebp], eax

; 88   : 	glActiveTexture(GL_TEXTURE0);

	mov	esi, esp
	push	33984					; 000084c0H
	mov	eax, DWORD PTR __imp____glewActiveTexture
	mov	ecx, DWORD PTR [eax]
	call	ecx
	cmp	esi, esp
	call	__RTC_CheckEsp

; 89   :     glBindTexture(GL_TEXTURE_2D, tid);

	mov	esi, esp
	mov	eax, DWORD PTR _tid$[ebp]
	push	eax
	push	3553					; 00000de1H
	call	DWORD PTR __imp__glBindTexture@8
	cmp	esi, esp
	call	__RTC_CheckEsp

; 90   : 	glTexImage2D(GL_TEXTURE_2D, 0, GL_RGBA, FreeImage_GetWidth(imageBitmap), 
; 91   : 		FreeImage_GetHeight(imageBitmap), 0, GL_BGRA, GL_UNSIGNED_BYTE, FreeImage_GetBits(imageBitmap));

	mov	esi, esp
	mov	eax, DWORD PTR _imageBitmap$[ebp]
	push	eax
	call	DWORD PTR __imp__FreeImage_GetBits@4
	cmp	esi, esp
	call	__RTC_CheckEsp
	mov	esi, esp
	push	eax
	push	5121					; 00001401H
	push	32993					; 000080e1H
	push	0
	mov	edi, esp
	mov	ecx, DWORD PTR _imageBitmap$[ebp]
	push	ecx
	call	DWORD PTR __imp__FreeImage_GetHeight@4
	cmp	edi, esp
	call	__RTC_CheckEsp
	push	eax
	mov	edi, esp
	mov	edx, DWORD PTR _imageBitmap$[ebp]
	push	edx
	call	DWORD PTR __imp__FreeImage_GetWidth@4
	cmp	edi, esp
	call	__RTC_CheckEsp
	push	eax
	push	6408					; 00001908H
	push	0
	push	3553					; 00000de1H
	call	DWORD PTR __imp__glTexImage2D@36
	cmp	esi, esp
	call	__RTC_CheckEsp

; 92   : 	glTexParameterf(GL_TEXTURE_2D, GL_TEXTURE_MAG_FILTER, GL_LINEAR);

	mov	esi, esp
	push	ecx
	fld	DWORD PTR __real@46180400
	fstp	DWORD PTR [esp]
	push	10240					; 00002800H
	push	3553					; 00000de1H
	call	DWORD PTR __imp__glTexParameterf@12
	cmp	esi, esp
	call	__RTC_CheckEsp

; 93   : 	glTexParameterf(GL_TEXTURE_2D, GL_TEXTURE_MIN_FILTER, GL_LINEAR);

	mov	esi, esp
	push	ecx
	fld	DWORD PTR __real@46180400
	fstp	DWORD PTR [esp]
	push	10241					; 00002801H
	push	3553					; 00000de1H
	call	DWORD PTR __imp__glTexParameterf@12
	cmp	esi, esp
	call	__RTC_CheckEsp

; 94   : 	glTexParameterf(GL_TEXTURE_2D, GL_TEXTURE_WRAP_S, GL_CLAMP_TO_BORDER);

	mov	esi, esp
	push	ecx
	fld	DWORD PTR __real@47012d00
	fstp	DWORD PTR [esp]
	push	10242					; 00002802H
	push	3553					; 00000de1H
	call	DWORD PTR __imp__glTexParameterf@12
	cmp	esi, esp
	call	__RTC_CheckEsp

; 95   : 	glTexParameterf(GL_TEXTURE_2D, GL_TEXTURE_WRAP_T, GL_CLAMP_TO_BORDER);

	mov	esi, esp
	push	ecx
	fld	DWORD PTR __real@47012d00
	fstp	DWORD PTR [esp]
	push	10243					; 00002803H
	push	3553					; 00000de1H
	call	DWORD PTR __imp__glTexParameterf@12
	cmp	esi, esp
	call	__RTC_CheckEsp

; 96   : 
; 97   : 	m_Program.SetUniform("SpriteTexture", 0);

	push	0
	push	OFFSET ??_C@_0O@DFLLGGIK@SpriteTexture?$AA@
	mov	ecx, DWORD PTR _this$[ebp]
	add	ecx, 4
	call	?SetUniform@GLSLProgram@@QAEXPBDH@Z	; GLSLProgram::SetUniform

; 98   :     m_Program.SetUniform("Size2", 0.15f);

	push	ecx
	fld	DWORD PTR __real@3e19999a
	fstp	DWORD PTR [esp]
	push	OFFSET ??_C@_05PHOLCMHL@Size2?$AA@
	mov	ecx, DWORD PTR _this$[ebp]
	add	ecx, 4
	call	?SetUniform@GLSLProgram@@QAEXPBDM@Z	; GLSLProgram::SetUniform
$LN8@Init:

; 99   : }

	push	edx
	mov	ecx, ebp
	push	eax
	lea	edx, DWORD PTR $LN14@Init
	call	@_RTC_CheckStackVars@8
	pop	eax
	pop	edx
	pop	edi
	pop	esi
	pop	ebx
	add	esp, 344				; 00000158H
	cmp	ebp, esp
	call	__RTC_CheckEsp
	mov	esp, ebp
	pop	ebp
	ret	0
$LN14@Init:
	DD	3
	DD	$LN13@Init
$LN13@Init:
	DD	-40					; ffffffd8H
	DD	12					; 0000000cH
	DD	$LN10@Init
	DD	-52					; ffffffccH
	DD	4
	DD	$LN11@Init
	DD	-64					; ffffffc0H
	DD	4
	DD	$LN12@Init
$LN12@Init:
	DB	116					; 00000074H
	DB	105					; 00000069H
	DB	100					; 00000064H
	DB	0
$LN11@Init:
	DB	104					; 00000068H
	DB	97					; 00000061H
	DB	110					; 0000006eH
	DB	100					; 00000064H
	DB	108					; 0000006cH
	DB	101					; 00000065H
	DB	0
$LN10@Init:
	DB	112					; 00000070H
	DB	0
?Init@PointSprites@@UAEXXZ ENDP				; PointSprites::Init
_TEXT	ENDS
EXTRN	__imp___time64:PROC
; Function compile flags: /Odtp /RTCsu /ZI
; File c:\program files (x86)\microsoft visual studio 10.0\vc\include\time.inl
;	COMDAT _time
_TEXT	SEGMENT
__Time$ = 8						; size = 4
_time	PROC						; COMDAT

; 132  : {

	push	ebp
	mov	ebp, esp
	sub	esp, 192				; 000000c0H
	push	ebx
	push	esi
	push	edi
	lea	edi, DWORD PTR [ebp-192]
	mov	ecx, 48					; 00000030H
	mov	eax, -858993460				; ccccccccH
	rep stosd

; 133  :     return _time64(_Time);

	mov	esi, esp
	mov	eax, DWORD PTR __Time$[ebp]
	push	eax
	call	DWORD PTR __imp___time64
	add	esp, 4
	cmp	esi, esp
	call	__RTC_CheckEsp

; 134  : }

	pop	edi
	pop	esi
	pop	ebx
	add	esp, 192				; 000000c0H
	cmp	ebp, esp
	call	__RTC_CheckEsp
	mov	esp, ebp
	pop	ebp
	ret	0
_time	ENDP
_TEXT	ENDS
PUBLIC	__real@401921fb54442d18
PUBLIC	__real@4024000000000000
;	COMDAT __real@401921fb54442d18
; File c:\users\kmadsen\google drive\opengl_projects\starter\starter\pointsprites.cpp
CONST	SEGMENT
__real@401921fb54442d18 DQ 0401921fb54442d18r	; 6.28319
CONST	ENDS
;	COMDAT __real@4024000000000000
CONST	SEGMENT
__real@4024000000000000 DQ 04024000000000000r	; 10
; Function compile flags: /Odtp /RTCsu /ZI
CONST	ENDS
;	COMDAT ?Update@PointSprites@@UAEXM@Z
_TEXT	SEGMENT
_this$ = -8						; size = 4
_dt$ = 8						; size = 4
?Update@PointSprites@@UAEXM@Z PROC			; PointSprites::Update, COMDAT
; _this$ = ecx

; 102  : {

	push	ebp
	mov	ebp, esp
	sub	esp, 204				; 000000ccH
	push	ebx
	push	esi
	push	edi
	push	ecx
	lea	edi, DWORD PTR [ebp-204]
	mov	ecx, 51					; 00000033H
	mov	eax, -858993460				; ccccccccH
	rep stosd
	pop	ecx
	mov	DWORD PTR _this$[ebp], ecx

; 103  :     m_Angle += dt / 10.0f;

	fld	DWORD PTR _dt$[ebp]
	fdiv	QWORD PTR __real@4024000000000000
	mov	eax, DWORD PTR _this$[ebp]
	fadd	DWORD PTR [eax+248]
	mov	ecx, DWORD PTR _this$[ebp]
	fstp	DWORD PTR [ecx+248]

; 104  :     if( m_Angle > TWOPI) m_Angle -= TWOPI;

	mov	eax, DWORD PTR _this$[ebp]
	fld	DWORD PTR [eax+248]
	fcomp	QWORD PTR __real@401921fb54442d18
	fnstsw	ax
	test	ah, 65					; 00000041H
	jne	SHORT $LN1@Update
	mov	eax, DWORD PTR _this$[ebp]
	fld	DWORD PTR [eax+248]
	fsub	QWORD PTR __real@401921fb54442d18
	mov	ecx, DWORD PTR _this$[ebp]
	fstp	DWORD PTR [ecx+248]
$LN1@Update:

; 105  : }

	pop	edi
	pop	esi
	pop	ebx
	mov	esp, ebp
	pop	ebp
	ret	4
?Update@PointSprites@@UAEXM@Z ENDP			; PointSprites::Update
_TEXT	ENDS
PUBLIC	??4?$tmat4x4@M@detail@glm@@QAEAAU012@ABU012@@Z	; glm::detail::tmat4x4<float>::operator=
PUBLIC	??$perspective@M@glm@@YA?AU?$tmat4x4@M@detail@0@ABM000@Z ; glm::perspective<float>
PUBLIC	__real@42700000
PUBLIC	__real@3e99999a
PUBLIC	__real@42c80000
PUBLIC	__$ArrayPad$
EXTRN	__imp__glViewport@16:PROC
;	COMDAT __real@42700000
CONST	SEGMENT
__real@42700000 DD 042700000r			; 60
CONST	ENDS
;	COMDAT __real@3e99999a
CONST	SEGMENT
__real@3e99999a DD 03e99999ar			; 0.3
CONST	ENDS
;	COMDAT __real@42c80000
CONST	SEGMENT
__real@42c80000 DD 042c80000r			; 100
; Function compile flags: /Odtp /RTCsu /ZI
CONST	ENDS
;	COMDAT ?Resize@PointSprites@@UAEXHH@Z
_TEXT	SEGMENT
$T62812 = -324						; size = 64
$T70507 = -252						; size = 4
$T70508 = -240						; size = 4
$T70509 = -228						; size = 4
$T70510 = -216						; size = 4
_this$ = -12						; size = 4
__$ArrayPad$ = -4					; size = 4
_width$ = 8						; size = 4
_height$ = 12						; size = 4
?Resize@PointSprites@@UAEXHH@Z PROC			; PointSprites::Resize, COMDAT
; _this$ = ecx

; 108  : {

	push	ebp
	mov	ebp, esp
	sub	esp, 328				; 00000148H
	push	ebx
	push	esi
	push	edi
	push	ecx
	lea	edi, DWORD PTR [ebp-328]
	mov	ecx, 82					; 00000052H
	mov	eax, -858993460				; ccccccccH
	rep stosd
	pop	ecx
	mov	eax, DWORD PTR ___security_cookie
	xor	eax, ebp
	mov	DWORD PTR __$ArrayPad$[ebp], eax
	mov	DWORD PTR _this$[ebp], ecx

; 109  :     glViewport(0,0,width,height);

	mov	esi, esp
	mov	eax, DWORD PTR _height$[ebp]
	push	eax
	mov	ecx, DWORD PTR _width$[ebp]
	push	ecx
	push	0
	push	0
	call	DWORD PTR __imp__glViewport@16
	cmp	esi, esp
	call	__RTC_CheckEsp

; 110  :     m_Projection = glm::perspective(60.0f, (float)width/height, 0.3f, 100.0f);

	fld	DWORD PTR __real@42c80000
	fstp	DWORD PTR $T70507[ebp]
	fld	DWORD PTR __real@3e99999a
	fstp	DWORD PTR $T70508[ebp]
	fild	DWORD PTR _width$[ebp]
	fidiv	DWORD PTR _height$[ebp]
	fstp	DWORD PTR $T70509[ebp]
	fld	DWORD PTR __real@42700000
	fstp	DWORD PTR $T70510[ebp]
	lea	eax, DWORD PTR $T70507[ebp]
	push	eax
	lea	ecx, DWORD PTR $T70508[ebp]
	push	ecx
	lea	edx, DWORD PTR $T70509[ebp]
	push	edx
	lea	eax, DWORD PTR $T70510[ebp]
	push	eax
	lea	ecx, DWORD PTR $T62812[ebp]
	push	ecx
	call	??$perspective@M@glm@@YA?AU?$tmat4x4@M@detail@0@ABM000@Z ; glm::perspective<float>
	add	esp, 20					; 00000014H
	push	eax
	mov	ecx, DWORD PTR _this$[ebp]
	add	ecx, 44					; 0000002cH
	call	??4?$tmat4x4@M@detail@glm@@QAEAAU012@ABU012@@Z ; glm::detail::tmat4x4<float>::operator=

; 111  : }

	pop	edi
	pop	esi
	pop	ebx
	mov	ecx, DWORD PTR __$ArrayPad$[ebp]
	xor	ecx, ebp
	call	@__security_check_cookie@4
	add	esp, 328				; 00000148H
	cmp	ebp, esp
	call	__RTC_CheckEsp
	mov	esp, ebp
	pop	ebp
	ret	8
?Resize@PointSprites@@UAEXHH@Z ENDP			; PointSprites::Resize
_TEXT	ENDS
PUBLIC	??_C@_0BB@IOMPHHPA@ProjectionMatrix?$AA@	; `string'
PUBLIC	??_C@_0BA@PFLEPDB@ModelViewMatrix?$AA@		; `string'
PUBLIC	??$?DM@detail@glm@@YA?AU?$tmat4x4@M@01@ABU201@0@Z ; glm::detail::operator*<float>
PUBLIC	??0?$tmat4x4@M@detail@glm@@QAE@ABM@Z		; glm::detail::tmat4x4<float>::tmat4x4<float>
PUBLIC	??$lookAt@M@glm@@YA?AU?$tmat4x4@M@detail@0@ABU?$tvec3@M@20@00@Z ; glm::lookAt<float>
PUBLIC	?cos@@YAMM@Z					; cos
PUBLIC	__real@4008000000000000
PUBLIC	?sin@@YAMM@Z					; sin
PUBLIC	__$ArrayPad$
EXTRN	__imp__glFinish@0:PROC
EXTRN	__imp__glDrawArrays@12:PROC
EXTRN	?SetUniform@GLSLProgram@@QAEXPBDABU?$tmat4x4@M@detail@glm@@@Z:PROC ; GLSLProgram::SetUniform
EXTRN	__imp__glClear@4:PROC
;	COMDAT ??_C@_0BB@IOMPHHPA@ProjectionMatrix?$AA@
CONST	SEGMENT
??_C@_0BB@IOMPHHPA@ProjectionMatrix?$AA@ DB 'ProjectionMatrix', 00H ; `string'
CONST	ENDS
;	COMDAT ??_C@_0BA@PFLEPDB@ModelViewMatrix?$AA@
CONST	SEGMENT
??_C@_0BA@PFLEPDB@ModelViewMatrix?$AA@ DB 'ModelViewMatrix', 00H ; `string'
CONST	ENDS
;	COMDAT __real@4008000000000000
CONST	SEGMENT
__real@4008000000000000 DQ 04008000000000000r	; 3
; Function compile flags: /Odtp /RTCsu /ZI
CONST	ENDS
;	COMDAT ?Render@PointSprites@@UAEXXZ
_TEXT	SEGMENT
$T62828 = -600						; size = 64
$T62864 = -528						; size = 64
$T70520 = -456						; size = 4
$T70521 = -444						; size = 4
$T70522 = -432						; size = 4
$T70523 = -420						; size = 12
$T70524 = -400						; size = 4
$T70525 = -388						; size = 4
$T70526 = -376						; size = 4
$T70527 = -364						; size = 12
$T70528 = -344						; size = 4
$T70529 = -332						; size = 4
$T70530 = -320						; size = 4
$T70531 = -308						; size = 4
_mv$ = -104						; size = 64
_cameraPos$ = -32					; size = 12
_this$ = -12						; size = 4
__$ArrayPad$ = -4					; size = 4
?Render@PointSprites@@UAEXXZ PROC			; PointSprites::Render, COMDAT
; _this$ = ecx

; 114  : {

	push	ebp
	mov	ebp, esp
	sub	esp, 604				; 0000025cH
	push	ebx
	push	esi
	push	edi
	push	ecx
	lea	edi, DWORD PTR [ebp-604]
	mov	ecx, 151				; 00000097H
	mov	eax, -858993460				; ccccccccH
	rep stosd
	pop	ecx
	mov	eax, DWORD PTR ___security_cookie
	xor	eax, ebp
	mov	DWORD PTR __$ArrayPad$[ebp], eax
	mov	DWORD PTR _this$[ebp], ecx

; 115  :     glClear(GL_COLOR_BUFFER_BIT | GL_DEPTH_BUFFER_BIT);

	mov	esi, esp
	push	16640					; 00004100H
	call	DWORD PTR __imp__glClear@4
	cmp	esi, esp
	call	__RTC_CheckEsp

; 116  : 
; 117  :     vec3 cameraPos(3.0f * cos(m_Angle),0.0f,3.0f * sin(m_Angle));

	mov	eax, DWORD PTR _this$[ebp]
	push	ecx
	fld	DWORD PTR [eax+248]
	fstp	DWORD PTR [esp]
	call	?sin@@YAMM@Z				; sin
	add	esp, 4
	fmul	QWORD PTR __real@4008000000000000
	fstp	DWORD PTR $T70520[ebp]
	fldz
	fstp	DWORD PTR $T70521[ebp]
	mov	ecx, DWORD PTR _this$[ebp]
	push	ecx
	fld	DWORD PTR [ecx+248]
	fstp	DWORD PTR [esp]
	call	?cos@@YAMM@Z				; cos
	add	esp, 4
	fmul	QWORD PTR __real@4008000000000000
	fstp	DWORD PTR $T70522[ebp]
	lea	edx, DWORD PTR $T70520[ebp]
	push	edx
	lea	eax, DWORD PTR $T70521[ebp]
	push	eax
	lea	ecx, DWORD PTR $T70522[ebp]
	push	ecx
	lea	ecx, DWORD PTR _cameraPos$[ebp]
	call	??0?$tvec3@M@detail@glm@@QAE@ABM00@Z	; glm::detail::tvec3<float>::tvec3<float>

; 118  :     m_View = glm::lookAt(cameraPos,
; 119  :                        vec3(0.0f,0.0f,0.0f),
; 120  :                        vec3(0.0f,1.0f,0.0f));

	fldz
	fstp	DWORD PTR $T70524[ebp]
	fld1
	fstp	DWORD PTR $T70525[ebp]
	fldz
	fstp	DWORD PTR $T70526[ebp]
	fldz
	fstp	DWORD PTR $T70528[ebp]
	fldz
	fstp	DWORD PTR $T70529[ebp]
	fldz
	fstp	DWORD PTR $T70530[ebp]
	lea	eax, DWORD PTR $T70524[ebp]
	push	eax
	lea	ecx, DWORD PTR $T70525[ebp]
	push	ecx
	lea	edx, DWORD PTR $T70526[ebp]
	push	edx
	lea	ecx, DWORD PTR $T70523[ebp]
	call	??0?$tvec3@M@detail@glm@@QAE@ABM00@Z	; glm::detail::tvec3<float>::tvec3<float>
	push	eax
	lea	eax, DWORD PTR $T70528[ebp]
	push	eax
	lea	ecx, DWORD PTR $T70529[ebp]
	push	ecx
	lea	edx, DWORD PTR $T70530[ebp]
	push	edx
	lea	ecx, DWORD PTR $T70527[ebp]
	call	??0?$tvec3@M@detail@glm@@QAE@ABM00@Z	; glm::detail::tvec3<float>::tvec3<float>
	push	eax
	lea	eax, DWORD PTR _cameraPos$[ebp]
	push	eax
	lea	ecx, DWORD PTR $T62828[ebp]
	push	ecx
	call	??$lookAt@M@glm@@YA?AU?$tmat4x4@M@detail@0@ABU?$tvec3@M@20@00@Z ; glm::lookAt<float>
	add	esp, 16					; 00000010H
	push	eax
	mov	ecx, DWORD PTR _this$[ebp]
	add	ecx, 108				; 0000006cH
	call	??4?$tmat4x4@M@detail@glm@@QAEAAU012@ABU012@@Z ; glm::detail::tmat4x4<float>::operator=

; 121  : 
; 122  :     m_Model = mat4(1.0f);

	fld1
	fstp	DWORD PTR $T70531[ebp]
	lea	eax, DWORD PTR $T70531[ebp]
	push	eax
	lea	ecx, DWORD PTR $T62864[ebp]
	call	??0?$tmat4x4@M@detail@glm@@QAE@ABM@Z	; glm::detail::tmat4x4<float>::tmat4x4<float>
	push	eax
	mov	ecx, DWORD PTR _this$[ebp]
	add	ecx, 172				; 000000acH
	call	??4?$tmat4x4@M@detail@glm@@QAEAAU012@ABU012@@Z ; glm::detail::tmat4x4<float>::operator=

; 123  :     
; 124  : 	mat4 mv = m_View * m_Model;

	mov	eax, DWORD PTR _this$[ebp]
	add	eax, 172				; 000000acH
	push	eax
	mov	ecx, DWORD PTR _this$[ebp]
	add	ecx, 108				; 0000006cH
	push	ecx
	lea	edx, DWORD PTR _mv$[ebp]
	push	edx
	call	??$?DM@detail@glm@@YA?AU?$tmat4x4@M@01@ABU201@0@Z ; glm::detail::operator*<float>
	add	esp, 12					; 0000000cH

; 125  : 	m_Program.SetUniform("ModelViewMatrix", mv);

	lea	eax, DWORD PTR _mv$[ebp]
	push	eax
	push	OFFSET ??_C@_0BA@PFLEPDB@ModelViewMatrix?$AA@
	mov	ecx, DWORD PTR _this$[ebp]
	add	ecx, 4
	call	?SetUniform@GLSLProgram@@QAEXPBDABU?$tmat4x4@M@detail@glm@@@Z ; GLSLProgram::SetUniform

; 126  :     m_Program.SetUniform("ProjectionMatrix", m_Projection);

	mov	eax, DWORD PTR _this$[ebp]
	add	eax, 44					; 0000002cH
	push	eax
	push	OFFSET ??_C@_0BB@IOMPHHPA@ProjectionMatrix?$AA@
	mov	ecx, DWORD PTR _this$[ebp]
	add	ecx, 4
	call	?SetUniform@GLSLProgram@@QAEXPBDABU?$tmat4x4@M@detail@glm@@@Z ; GLSLProgram::SetUniform

; 127  : 
; 128  :     glBindVertexArray(m_Sprites);

	mov	esi, esp
	mov	eax, DWORD PTR _this$[ebp]
	mov	ecx, DWORD PTR [eax+244]
	push	ecx
	mov	edx, DWORD PTR __imp____glewBindVertexArray
	mov	eax, DWORD PTR [edx]
	call	eax
	cmp	esi, esp
	call	__RTC_CheckEsp

; 129  :     glDrawArrays(GL_POINTS, 0, m_NumSprites);

	mov	esi, esp
	mov	eax, DWORD PTR _this$[ebp]
	mov	ecx, DWORD PTR [eax+236]
	push	ecx
	push	0
	push	0
	call	DWORD PTR __imp__glDrawArrays@12
	cmp	esi, esp
	call	__RTC_CheckEsp

; 130  : 
; 131  :     glFinish();

	mov	esi, esp
	call	DWORD PTR __imp__glFinish@0
	cmp	esi, esp
	call	__RTC_CheckEsp

; 132  : }

	push	edx
	mov	ecx, ebp
	push	eax
	lea	edx, DWORD PTR $LN6@Render
	call	@_RTC_CheckStackVars@8
	pop	eax
	pop	edx
	pop	edi
	pop	esi
	pop	ebx
	mov	ecx, DWORD PTR __$ArrayPad$[ebp]
	xor	ecx, ebp
	call	@__security_check_cookie@4
	add	esp, 604				; 0000025cH
	cmp	ebp, esp
	call	__RTC_CheckEsp
	mov	esp, ebp
	pop	ebp
	ret	0
	npad	3
$LN6@Render:
	DD	2
	DD	$LN5@Render
$LN5@Render:
	DD	-32					; ffffffe0H
	DD	12					; 0000000cH
	DD	$LN3@Render
	DD	-104					; ffffff98H
	DD	64					; 00000040H
	DD	$LN4@Render
$LN4@Render:
	DB	109					; 0000006dH
	DB	118					; 00000076H
	DB	0
$LN3@Render:
	DB	99					; 00000063H
	DB	97					; 00000061H
	DB	109					; 0000006dH
	DB	101					; 00000065H
	DB	114					; 00000072H
	DB	97					; 00000061H
	DB	80					; 00000050H
	DB	111					; 0000006fH
	DB	115					; 00000073H
	DB	0
?Render@PointSprites@@UAEXXZ ENDP			; PointSprites::Render
_TEXT	ENDS
PUBLIC	_cosf
; Function compile flags: /Odtp /RTCsu /ZI
; File c:\program files (x86)\microsoft visual studio 10.0\vc\include\math.h
;	COMDAT ?cos@@YAMM@Z
_TEXT	SEGMENT
__X$ = 8						; size = 4
?cos@@YAMM@Z PROC					; cos, COMDAT

; 512  :         {return (cosf(_X)); }

	push	ebp
	mov	ebp, esp
	sub	esp, 192				; 000000c0H
	push	ebx
	push	esi
	push	edi
	lea	edi, DWORD PTR [ebp-192]
	mov	ecx, 48					; 00000030H
	mov	eax, -858993460				; ccccccccH
	rep stosd
	push	ecx
	fld	DWORD PTR __X$[ebp]
	fstp	DWORD PTR [esp]
	call	_cosf
	add	esp, 4
	pop	edi
	pop	esi
	pop	ebx
	add	esp, 192				; 000000c0H
	cmp	ebp, esp
	call	__RTC_CheckEsp
	mov	esp, ebp
	pop	ebp
	ret	0
?cos@@YAMM@Z ENDP					; cos
_TEXT	ENDS
EXTRN	_cos:PROC
; Function compile flags: /Odtp /RTCsu /ZI
;	COMDAT _cosf
_TEXT	SEGMENT
tv73 = -196						; size = 4
__X$ = 8						; size = 4
_cosf	PROC						; COMDAT

; 410  :         {return ((float)cos((double)_X)); }

	push	ebp
	mov	ebp, esp
	sub	esp, 196				; 000000c4H
	push	ebx
	push	esi
	push	edi
	lea	edi, DWORD PTR [ebp-196]
	mov	ecx, 49					; 00000031H
	mov	eax, -858993460				; ccccccccH
	rep stosd
	fld	DWORD PTR __X$[ebp]
	sub	esp, 8
	fstp	QWORD PTR [esp]
	call	_cos
	add	esp, 8
	fstp	DWORD PTR tv73[ebp]
	fld	DWORD PTR tv73[ebp]
	pop	edi
	pop	esi
	pop	ebx
	add	esp, 196				; 000000c4H
	cmp	ebp, esp
	call	__RTC_CheckEsp
	mov	esp, ebp
	pop	ebp
	ret	0
_cosf	ENDP
_TEXT	ENDS
PUBLIC	_sinf
; Function compile flags: /Odtp /RTCsu /ZI
;	COMDAT ?sin@@YAMM@Z
_TEXT	SEGMENT
__X$ = 8						; size = 4
?sin@@YAMM@Z PROC					; sin, COMDAT

; 538  :         {return (sinf(_X)); }

	push	ebp
	mov	ebp, esp
	sub	esp, 192				; 000000c0H
	push	ebx
	push	esi
	push	edi
	lea	edi, DWORD PTR [ebp-192]
	mov	ecx, 48					; 00000030H
	mov	eax, -858993460				; ccccccccH
	rep stosd
	push	ecx
	fld	DWORD PTR __X$[ebp]
	fstp	DWORD PTR [esp]
	call	_sinf
	add	esp, 4
	pop	edi
	pop	esi
	pop	ebx
	add	esp, 192				; 000000c0H
	cmp	ebp, esp
	call	__RTC_CheckEsp
	mov	esp, ebp
	pop	ebp
	ret	0
?sin@@YAMM@Z ENDP					; sin
_TEXT	ENDS
EXTRN	_sin:PROC
; Function compile flags: /Odtp /RTCsu /ZI
;	COMDAT _sinf
_TEXT	SEGMENT
tv73 = -196						; size = 4
__X$ = 8						; size = 4
_sinf	PROC						; COMDAT

; 430  :         {return ((float)sin((double)_X)); }

	push	ebp
	mov	ebp, esp
	sub	esp, 196				; 000000c4H
	push	ebx
	push	esi
	push	edi
	lea	edi, DWORD PTR [ebp-196]
	mov	ecx, 49					; 00000031H
	mov	eax, -858993460				; ccccccccH
	rep stosd
	fld	DWORD PTR __X$[ebp]
	sub	esp, 8
	fstp	QWORD PTR [esp]
	call	_sin
	add	esp, 8
	fstp	DWORD PTR tv73[ebp]
	fld	DWORD PTR tv73[ebp]
	pop	edi
	pop	esi
	pop	ebx
	add	esp, 196				; 000000c4H
	cmp	ebp, esp
	call	__RTC_CheckEsp
	mov	esp, ebp
	pop	ebp
	ret	0
_sinf	ENDP
_TEXT	ENDS
PUBLIC	??1?$_String_val@DV?$allocator@D@std@@@std@@QAE@XZ ; std::_String_val<char,std::allocator<char> >::~_String_val<char,std::allocator<char> >
PUBLIC	?_Tidy@?$basic_string@DU?$char_traits@D@std@@V?$allocator@D@2@@std@@QAEX_NI@Z ; std::basic_string<char,std::char_traits<char>,std::allocator<char> >::_Tidy
;	COMDAT xdata$x
; File c:\program files (x86)\microsoft visual studio 10.0\vc\include\xstring
xdata$x	SEGMENT
__unwindtable$??1?$basic_string@DU?$char_traits@D@std@@V?$allocator@D@2@@std@@QAE@XZ DD 0ffffffffH
	DD	FLAT:__unwindfunclet$??1?$basic_string@DU?$char_traits@D@std@@V?$allocator@D@2@@std@@QAE@XZ$0
__ehfuncinfo$??1?$basic_string@DU?$char_traits@D@std@@V?$allocator@D@2@@std@@QAE@XZ DD 019930522H
	DD	01H
	DD	FLAT:__unwindtable$??1?$basic_string@DU?$char_traits@D@std@@V?$allocator@D@2@@std@@QAE@XZ
	DD	2 DUP(00H)
	DD	2 DUP(00H)
	DD	00H
	DD	01H
; Function compile flags: /Odtp /RTCsu /ZI
xdata$x	ENDS
;	COMDAT ??1?$basic_string@DU?$char_traits@D@std@@V?$allocator@D@2@@std@@QAE@XZ
_TEXT	SEGMENT
_this$ = -20						; size = 4
__$EHRec$ = -12						; size = 12
??1?$basic_string@DU?$char_traits@D@std@@V?$allocator@D@2@@std@@QAE@XZ PROC ; std::basic_string<char,std::char_traits<char>,std::allocator<char> >::~basic_string<char,std::char_traits<char>,std::allocator<char> >, COMDAT
; _this$ = ecx

; 752  : 		{	// destroy the string

	push	ebp
	mov	ebp, esp
	push	-1
	push	__ehhandler$??1?$basic_string@DU?$char_traits@D@std@@V?$allocator@D@2@@std@@QAE@XZ
	mov	eax, DWORD PTR fs:0
	push	eax
	sub	esp, 204				; 000000ccH
	push	ebx
	push	esi
	push	edi
	push	ecx
	lea	edi, DWORD PTR [ebp-216]
	mov	ecx, 51					; 00000033H
	mov	eax, -858993460				; ccccccccH
	rep stosd
	pop	ecx
	mov	eax, DWORD PTR ___security_cookie
	xor	eax, ebp
	push	eax
	lea	eax, DWORD PTR __$EHRec$[ebp]
	mov	DWORD PTR fs:0, eax
	mov	DWORD PTR _this$[ebp], ecx
	mov	DWORD PTR __$EHRec$[ebp+8], 0

; 753  : 		_Tidy(true);

	push	0
	push	1
	mov	ecx, DWORD PTR _this$[ebp]
	call	?_Tidy@?$basic_string@DU?$char_traits@D@std@@V?$allocator@D@2@@std@@QAEX_NI@Z ; std::basic_string<char,std::char_traits<char>,std::allocator<char> >::_Tidy

; 754  : 		}

	mov	DWORD PTR __$EHRec$[ebp+8], -1
	mov	ecx, DWORD PTR _this$[ebp]
	call	??1?$_String_val@DV?$allocator@D@std@@@std@@QAE@XZ ; std::_String_val<char,std::allocator<char> >::~_String_val<char,std::allocator<char> >
	mov	ecx, DWORD PTR __$EHRec$[ebp]
	mov	DWORD PTR fs:0, ecx
	pop	ecx
	pop	edi
	pop	esi
	pop	ebx
	add	esp, 216				; 000000d8H
	cmp	ebp, esp
	call	__RTC_CheckEsp
	mov	esp, ebp
	pop	ebp
	ret	0
_TEXT	ENDS
;	COMDAT text$x
text$x	SEGMENT
__unwindfunclet$??1?$basic_string@DU?$char_traits@D@std@@V?$allocator@D@2@@std@@QAE@XZ$0:
	mov	ecx, DWORD PTR _this$[ebp]
	jmp	??1?$_String_val@DV?$allocator@D@std@@@std@@QAE@XZ ; std::_String_val<char,std::allocator<char> >::~_String_val<char,std::allocator<char> >
__ehhandler$??1?$basic_string@DU?$char_traits@D@std@@V?$allocator@D@2@@std@@QAE@XZ:
	mov	edx, DWORD PTR [esp+8]
	lea	eax, DWORD PTR [edx+12]
	mov	ecx, DWORD PTR [edx-220]
	xor	ecx, eax
	call	@__security_check_cookie@4
	mov	eax, OFFSET __ehfuncinfo$??1?$basic_string@DU?$char_traits@D@std@@V?$allocator@D@2@@std@@QAE@XZ
	jmp	___CxxFrameHandler3
text$x	ENDS
??1?$basic_string@DU?$char_traits@D@std@@V?$allocator@D@2@@std@@QAE@XZ ENDP ; std::basic_string<char,std::char_traits<char>,std::allocator<char> >::~basic_string<char,std::char_traits<char>,std::allocator<char> >
PUBLIC	?_Eos@?$basic_string@DU?$char_traits@D@std@@V?$allocator@D@2@@std@@QAEXI@Z ; std::basic_string<char,std::char_traits<char>,std::allocator<char> >::_Eos
PUBLIC	?deallocate@?$allocator@D@std@@QAEXPADI@Z	; std::allocator<char>::deallocate
PUBLIC	?copy@?$char_traits@D@std@@SAPADPADPBDI@Z	; std::char_traits<char>::copy
; Function compile flags: /Odtp /RTCsu /ZI
;	COMDAT ?_Tidy@?$basic_string@DU?$char_traits@D@std@@V?$allocator@D@2@@std@@QAEX_NI@Z
_TEXT	SEGMENT
__Ptr$64752 = -20					; size = 4
_this$ = -8						; size = 4
__Built$ = 8						; size = 1
__Newsize$ = 12						; size = 4
?_Tidy@?$basic_string@DU?$char_traits@D@std@@V?$allocator@D@2@@std@@QAEX_NI@Z PROC ; std::basic_string<char,std::char_traits<char>,std::allocator<char> >::_Tidy, COMDAT
; _this$ = ecx

; 1987 : 		{	// initialize buffer, deallocating any storage

	push	ebp
	mov	ebp, esp
	sub	esp, 216				; 000000d8H
	push	ebx
	push	esi
	push	edi
	push	ecx
	lea	edi, DWORD PTR [ebp-216]
	mov	ecx, 54					; 00000036H
	mov	eax, -858993460				; ccccccccH
	rep stosd
	pop	ecx
	mov	DWORD PTR _this$[ebp], ecx

; 1988 : 		if (!_Built)

	movzx	eax, BYTE PTR __Built$[ebp]
	test	eax, eax
	jne	SHORT $LN4@Tidy
	jmp	SHORT $LN3@Tidy
$LN4@Tidy:

; 1989 : 			;
; 1990 : 		else if (this->_BUF_SIZE <= this->_Myres)

	mov	eax, DWORD PTR _this$[ebp]
	cmp	DWORD PTR [eax+24], 16			; 00000010H
	jb	SHORT $LN3@Tidy

; 1991 : 			{	// copy any leftovers to small buffer and deallocate
; 1992 : 			_Elem *_Ptr = this->_Bx._Ptr;

	mov	eax, DWORD PTR _this$[ebp]
	mov	ecx, DWORD PTR [eax+4]
	mov	DWORD PTR __Ptr$64752[ebp], ecx

; 1993 : 			if (0 < _Newsize)

	cmp	DWORD PTR __Newsize$[ebp], 0
	jbe	SHORT $LN1@Tidy

; 1994 : 				_Traits::copy(this->_Bx._Buf, _Ptr, _Newsize);

	mov	eax, DWORD PTR __Newsize$[ebp]
	push	eax
	mov	ecx, DWORD PTR __Ptr$64752[ebp]
	push	ecx
	mov	edx, DWORD PTR _this$[ebp]
	add	edx, 4
	push	edx
	call	?copy@?$char_traits@D@std@@SAPADPADPBDI@Z ; std::char_traits<char>::copy
	add	esp, 12					; 0000000cH
$LN1@Tidy:

; 1995 : 			this->_Alval.deallocate(_Ptr, this->_Myres + 1);

	mov	eax, DWORD PTR _this$[ebp]
	mov	ecx, DWORD PTR [eax+24]
	add	ecx, 1
	push	ecx
	mov	edx, DWORD PTR __Ptr$64752[ebp]
	push	edx
	mov	ecx, DWORD PTR _this$[ebp]
	add	ecx, 28					; 0000001cH
	call	?deallocate@?$allocator@D@std@@QAEXPADI@Z ; std::allocator<char>::deallocate
$LN3@Tidy:

; 1996 : 			}
; 1997 : 		this->_Myres = this->_BUF_SIZE - 1;

	mov	eax, DWORD PTR _this$[ebp]
	mov	DWORD PTR [eax+24], 15			; 0000000fH

; 1998 : 		_Eos(_Newsize);

	mov	eax, DWORD PTR __Newsize$[ebp]
	push	eax
	mov	ecx, DWORD PTR _this$[ebp]
	call	?_Eos@?$basic_string@DU?$char_traits@D@std@@V?$allocator@D@2@@std@@QAEXI@Z ; std::basic_string<char,std::char_traits<char>,std::allocator<char> >::_Eos

; 1999 : 		}

	pop	edi
	pop	esi
	pop	ebx
	add	esp, 216				; 000000d8H
	cmp	ebp, esp
	call	__RTC_CheckEsp
	mov	esp, ebp
	pop	ebp
	ret	8
?_Tidy@?$basic_string@DU?$char_traits@D@std@@V?$allocator@D@2@@std@@QAEX_NI@Z ENDP ; std::basic_string<char,std::char_traits<char>,std::allocator<char> >::_Tidy
_TEXT	ENDS
EXTRN	_memcpy:PROC
; Function compile flags: /Odtp /RTCsu /ZI
; File c:\program files (x86)\microsoft visual studio 10.0\vc\include\iosfwd
;	COMDAT ?copy@?$char_traits@D@std@@SAPADPADPBDI@Z
_TEXT	SEGMENT
__First1$ = 8						; size = 4
__First2$ = 12						; size = 4
__Count$ = 16						; size = 4
?copy@?$char_traits@D@std@@SAPADPADPBDI@Z PROC		; std::char_traits<char>::copy, COMDAT

; 496  : 		{	// copy [_First1, _First1 + _Count) to [_First2, ...)

	push	ebp
	mov	ebp, esp
	sub	esp, 192				; 000000c0H
	push	ebx
	push	esi
	push	edi
	lea	edi, DWORD PTR [ebp-192]
	mov	ecx, 48					; 00000030H
	mov	eax, -858993460				; ccccccccH
	rep stosd

; 497  : 		return ((_Elem *)_CSTD memcpy(_First1, _First2, _Count));

	mov	eax, DWORD PTR __Count$[ebp]
	push	eax
	mov	ecx, DWORD PTR __First2$[ebp]
	push	ecx
	mov	edx, DWORD PTR __First1$[ebp]
	push	edx
	call	_memcpy
	add	esp, 12					; 0000000cH

; 498  : 		}

	pop	edi
	pop	esi
	pop	ebx
	add	esp, 192				; 000000c0H
	cmp	ebp, esp
	call	__RTC_CheckEsp
	mov	esp, ebp
	pop	ebp
	ret	0
?copy@?$char_traits@D@std@@SAPADPADPBDI@Z ENDP		; std::char_traits<char>::copy
_TEXT	ENDS
PUBLIC	?deallocate@?$allocator@U_Container_proxy@std@@@std@@QAEXPAU_Container_proxy@2@I@Z ; std::allocator<std::_Container_proxy>::deallocate
PUBLIC	??$_Dest_val@V?$allocator@U_Container_proxy@std@@@std@@U_Container_proxy@2@@std@@YAXAAV?$allocator@U_Container_proxy@std@@@0@PAU_Container_proxy@0@@Z ; std::_Dest_val<std::allocator<std::_Container_proxy>,std::_Container_proxy>
PUBLIC	??$?0D@?$allocator@U_Container_proxy@std@@@std@@QAE@ABV?$allocator@D@1@@Z ; std::allocator<std::_Container_proxy>::allocator<std::_Container_proxy><char>
EXTRN	__imp_??1_Container_base12@std@@QAE@XZ:PROC
EXTRN	__imp_?_Orphan_all@_Container_base12@std@@QAEXXZ:PROC
;	COMDAT xdata$x
; File c:\program files (x86)\microsoft visual studio 10.0\vc\include\xstring
xdata$x	SEGMENT
__unwindtable$??1?$_String_val@DV?$allocator@D@std@@@std@@QAE@XZ DD 0ffffffffH
	DD	FLAT:__unwindfunclet$??1?$_String_val@DV?$allocator@D@std@@@std@@QAE@XZ$0
__ehfuncinfo$??1?$_String_val@DV?$allocator@D@std@@@std@@QAE@XZ DD 019930522H
	DD	01H
	DD	FLAT:__unwindtable$??1?$_String_val@DV?$allocator@D@std@@@std@@QAE@XZ
	DD	2 DUP(00H)
	DD	2 DUP(00H)
	DD	00H
	DD	01H
; Function compile flags: /Odtp /RTCsu /ZI
xdata$x	ENDS
;	COMDAT ??1?$_String_val@DV?$allocator@D@std@@@std@@QAE@XZ
_TEXT	SEGMENT
__Alproxy$ = -29					; size = 1
_this$ = -20						; size = 4
__$EHRec$ = -12						; size = 12
??1?$_String_val@DV?$allocator@D@std@@@std@@QAE@XZ PROC	; std::_String_val<char,std::allocator<char> >::~_String_val<char,std::allocator<char> >, COMDAT
; _this$ = ecx

; 475  : 		{	// destroy the object

	push	ebp
	mov	ebp, esp
	push	-1
	push	__ehhandler$??1?$_String_val@DV?$allocator@D@std@@@std@@QAE@XZ
	mov	eax, DWORD PTR fs:0
	push	eax
	sub	esp, 216				; 000000d8H
	push	ebx
	push	esi
	push	edi
	push	ecx
	lea	edi, DWORD PTR [ebp-228]
	mov	ecx, 54					; 00000036H
	mov	eax, -858993460				; ccccccccH
	rep stosd
	pop	ecx
	mov	eax, DWORD PTR ___security_cookie
	xor	eax, ebp
	push	eax
	lea	eax, DWORD PTR __$EHRec$[ebp]
	mov	DWORD PTR fs:0, eax
	mov	DWORD PTR _this$[ebp], ecx
	mov	DWORD PTR __$EHRec$[ebp+8], 0

; 476  : 		typename _Alloc::template rebind<_Container_proxy>::other
; 477  : 			_Alproxy(_Alval);

	mov	eax, DWORD PTR _this$[ebp]
	add	eax, 28					; 0000001cH
	push	eax
	lea	ecx, DWORD PTR __Alproxy$[ebp]
	call	??$?0D@?$allocator@U_Container_proxy@std@@@std@@QAE@ABV?$allocator@D@1@@Z ; std::allocator<std::_Container_proxy>::allocator<std::_Container_proxy><char>

; 478  : 		this->_Orphan_all();

	mov	esi, esp
	mov	ecx, DWORD PTR _this$[ebp]
	call	DWORD PTR __imp_?_Orphan_all@_Container_base12@std@@QAEXXZ
	cmp	esi, esp
	call	__RTC_CheckEsp

; 479  : 		_Dest_val(_Alproxy, this->_Myproxy);

	mov	eax, DWORD PTR _this$[ebp]
	mov	ecx, DWORD PTR [eax]
	push	ecx
	lea	edx, DWORD PTR __Alproxy$[ebp]
	push	edx
	call	??$_Dest_val@V?$allocator@U_Container_proxy@std@@@std@@U_Container_proxy@2@@std@@YAXAAV?$allocator@U_Container_proxy@std@@@0@PAU_Container_proxy@0@@Z ; std::_Dest_val<std::allocator<std::_Container_proxy>,std::_Container_proxy>
	add	esp, 8

; 480  : 		_Alproxy.deallocate(this->_Myproxy, 1);

	push	1
	mov	eax, DWORD PTR _this$[ebp]
	mov	ecx, DWORD PTR [eax]
	push	ecx
	lea	ecx, DWORD PTR __Alproxy$[ebp]
	call	?deallocate@?$allocator@U_Container_proxy@std@@@std@@QAEXPAU_Container_proxy@2@I@Z ; std::allocator<std::_Container_proxy>::deallocate

; 481  : 		this->_Myproxy = 0;

	mov	eax, DWORD PTR _this$[ebp]
	mov	DWORD PTR [eax], 0

; 482  : 		}

	mov	DWORD PTR __$EHRec$[ebp+8], -1
	mov	esi, esp
	mov	ecx, DWORD PTR _this$[ebp]
	call	DWORD PTR __imp_??1_Container_base12@std@@QAE@XZ
	cmp	esi, esp
	call	__RTC_CheckEsp
	push	edx
	mov	ecx, ebp
	push	eax
	lea	edx, DWORD PTR $LN7@String_val
	call	@_RTC_CheckStackVars@8
	pop	eax
	pop	edx
	mov	ecx, DWORD PTR __$EHRec$[ebp]
	mov	DWORD PTR fs:0, ecx
	pop	ecx
	pop	edi
	pop	esi
	pop	ebx
	add	esp, 228				; 000000e4H
	cmp	ebp, esp
	call	__RTC_CheckEsp
	mov	esp, ebp
	pop	ebp
	ret	0
	npad	2
$LN7@String_val:
	DD	1
	DD	$LN6@String_val
$LN6@String_val:
	DD	-29					; ffffffe3H
	DD	1
	DD	$LN4@String_val
$LN4@String_val:
	DB	95					; 0000005fH
	DB	65					; 00000041H
	DB	108					; 0000006cH
	DB	112					; 00000070H
	DB	114					; 00000072H
	DB	111					; 0000006fH
	DB	120					; 00000078H
	DB	121					; 00000079H
	DB	0
_TEXT	ENDS
;	COMDAT text$x
text$x	SEGMENT
__unwindfunclet$??1?$_String_val@DV?$allocator@D@std@@@std@@QAE@XZ$0:
	mov	esi, esp
	mov	ecx, DWORD PTR _this$[ebp]
	call	DWORD PTR __imp_??1_Container_base12@std@@QAE@XZ
	cmp	esi, esp
	jmp	__RTC_CheckEsp
__ehhandler$??1?$_String_val@DV?$allocator@D@std@@@std@@QAE@XZ:
	mov	edx, DWORD PTR [esp+8]
	lea	eax, DWORD PTR [edx+12]
	mov	ecx, DWORD PTR [edx-232]
	xor	ecx, eax
	call	@__security_check_cookie@4
	mov	eax, OFFSET __ehfuncinfo$??1?$_String_val@DV?$allocator@D@std@@@std@@QAE@XZ
	jmp	___CxxFrameHandler3
text$x	ENDS
??1?$_String_val@DV?$allocator@D@std@@@std@@QAE@XZ ENDP	; std::_String_val<char,std::allocator<char> >::~_String_val<char,std::allocator<char> >
PUBLIC	?assign@?$char_traits@D@std@@SAXAADABD@Z	; std::char_traits<char>::assign
PUBLIC	?_Myptr@?$basic_string@DU?$char_traits@D@std@@V?$allocator@D@2@@std@@QAEPADXZ ; std::basic_string<char,std::char_traits<char>,std::allocator<char> >::_Myptr
; Function compile flags: /Odtp /RTCsu /ZI
;	COMDAT ?_Eos@?$basic_string@DU?$char_traits@D@std@@V?$allocator@D@2@@std@@QAEXI@Z
_TEXT	SEGMENT
$T70573 = -209						; size = 1
_this$ = -8						; size = 4
__Newsize$ = 8						; size = 4
?_Eos@?$basic_string@DU?$char_traits@D@std@@V?$allocator@D@2@@std@@QAEXI@Z PROC ; std::basic_string<char,std::char_traits<char>,std::allocator<char> >::_Eos, COMDAT
; _this$ = ecx

; 1952 : 		{	// set new length and null terminator

	push	ebp
	mov	ebp, esp
	sub	esp, 216				; 000000d8H
	push	ebx
	push	esi
	push	edi
	push	ecx
	lea	edi, DWORD PTR [ebp-216]
	mov	ecx, 54					; 00000036H
	mov	eax, -858993460				; ccccccccH
	rep stosd
	pop	ecx
	mov	DWORD PTR _this$[ebp], ecx

; 1953 : 		_Traits::assign(_Myptr()[this->_Mysize = _Newsize], _Elem());

	mov	BYTE PTR $T70573[ebp], 0
	mov	eax, DWORD PTR _this$[ebp]
	mov	ecx, DWORD PTR __Newsize$[ebp]
	mov	DWORD PTR [eax+20], ecx
	lea	edx, DWORD PTR $T70573[ebp]
	push	edx
	mov	ecx, DWORD PTR _this$[ebp]
	call	?_Myptr@?$basic_string@DU?$char_traits@D@std@@V?$allocator@D@2@@std@@QAEPADXZ ; std::basic_string<char,std::char_traits<char>,std::allocator<char> >::_Myptr
	add	eax, DWORD PTR __Newsize$[ebp]
	push	eax
	call	?assign@?$char_traits@D@std@@SAXAADABD@Z ; std::char_traits<char>::assign
	add	esp, 8

; 1954 : 		}

	pop	edi
	pop	esi
	pop	ebx
	add	esp, 216				; 000000d8H
	cmp	ebp, esp
	call	__RTC_CheckEsp
	mov	esp, ebp
	pop	ebp
	ret	4
?_Eos@?$basic_string@DU?$char_traits@D@std@@V?$allocator@D@2@@std@@QAEXI@Z ENDP ; std::basic_string<char,std::char_traits<char>,std::allocator<char> >::_Eos
; Function compile flags: /Odtp /RTCsu /ZI
; File c:\program files (x86)\microsoft visual studio 10.0\vc\include\iosfwd
_TEXT	ENDS
;	COMDAT ?assign@?$char_traits@D@std@@SAXAADABD@Z
_TEXT	SEGMENT
__Left$ = 8						; size = 4
__Right$ = 12						; size = 4
?assign@?$char_traits@D@std@@SAXAADABD@Z PROC		; std::char_traits<char>::assign, COMDAT

; 526  : 		{	// assign an element

	push	ebp
	mov	ebp, esp
	sub	esp, 192				; 000000c0H
	push	ebx
	push	esi
	push	edi
	lea	edi, DWORD PTR [ebp-192]
	mov	ecx, 48					; 00000030H
	mov	eax, -858993460				; ccccccccH
	rep stosd

; 527  : 		_Left = _Right;

	mov	eax, DWORD PTR __Left$[ebp]
	mov	ecx, DWORD PTR __Right$[ebp]
	mov	dl, BYTE PTR [ecx]
	mov	BYTE PTR [eax], dl

; 528  : 		}

	pop	edi
	pop	esi
	pop	ebx
	mov	esp, ebp
	pop	ebp
	ret	0
?assign@?$char_traits@D@std@@SAXAADABD@Z ENDP		; std::char_traits<char>::assign
; Function compile flags: /Odtp /RTCsu /ZI
; File c:\program files (x86)\microsoft visual studio 10.0\vc\include\xstring
_TEXT	ENDS
;	COMDAT ?_Myptr@?$basic_string@DU?$char_traits@D@std@@V?$allocator@D@2@@std@@QAEPADXZ
_TEXT	SEGMENT
tv82 = -208						; size = 4
_this$ = -8						; size = 4
?_Myptr@?$basic_string@DU?$char_traits@D@std@@V?$allocator@D@2@@std@@QAEPADXZ PROC ; std::basic_string<char,std::char_traits<char>,std::allocator<char> >::_Myptr, COMDAT
; _this$ = ecx

; 2002 : 		{	// determine current pointer to buffer for mutable string

	push	ebp
	mov	ebp, esp
	sub	esp, 208				; 000000d0H
	push	ebx
	push	esi
	push	edi
	push	ecx
	lea	edi, DWORD PTR [ebp-208]
	mov	ecx, 52					; 00000034H
	mov	eax, -858993460				; ccccccccH
	rep stosd
	pop	ecx
	mov	DWORD PTR _this$[ebp], ecx

; 2003 : 		return (this->_BUF_SIZE <= this->_Myres ? this->_Bx._Ptr
; 2004 : 			: this->_Bx._Buf);

	mov	eax, DWORD PTR _this$[ebp]
	cmp	DWORD PTR [eax+24], 16			; 00000010H
	jb	SHORT $LN3@Myptr
	mov	ecx, DWORD PTR _this$[ebp]
	mov	edx, DWORD PTR [ecx+4]
	mov	DWORD PTR tv82[ebp], edx
	jmp	SHORT $LN4@Myptr
$LN3@Myptr:
	mov	eax, DWORD PTR _this$[ebp]
	add	eax, 4
	mov	DWORD PTR tv82[ebp], eax
$LN4@Myptr:
	mov	eax, DWORD PTR tv82[ebp]

; 2005 : 		}

	pop	edi
	pop	esi
	pop	ebx
	mov	esp, ebp
	pop	ebp
	ret	0
?_Myptr@?$basic_string@DU?$char_traits@D@std@@V?$allocator@D@2@@std@@QAEPADXZ ENDP ; std::basic_string<char,std::char_traits<char>,std::allocator<char> >::_Myptr
_TEXT	ENDS
EXTRN	??3@YAXPAX@Z:PROC				; operator delete
; Function compile flags: /Odtp /RTCsu /ZI
; File c:\program files (x86)\microsoft visual studio 10.0\vc\include\xmemory
;	COMDAT ?deallocate@?$allocator@D@std@@QAEXPADI@Z
_TEXT	SEGMENT
_this$ = -8						; size = 4
__Ptr$ = 8						; size = 4
___formal$ = 12						; size = 4
?deallocate@?$allocator@D@std@@QAEXPADI@Z PROC		; std::allocator<char>::deallocate, COMDAT
; _this$ = ecx

; 181  : 		{	// deallocate object at _Ptr, ignore size

	push	ebp
	mov	ebp, esp
	sub	esp, 204				; 000000ccH
	push	ebx
	push	esi
	push	edi
	push	ecx
	lea	edi, DWORD PTR [ebp-204]
	mov	ecx, 51					; 00000033H
	mov	eax, -858993460				; ccccccccH
	rep stosd
	pop	ecx
	mov	DWORD PTR _this$[ebp], ecx

; 182  : 		::operator delete(_Ptr);

	mov	eax, DWORD PTR __Ptr$[ebp]
	push	eax
	call	??3@YAXPAX@Z				; operator delete
	add	esp, 4

; 183  : 		}

	pop	edi
	pop	esi
	pop	ebx
	add	esp, 204				; 000000ccH
	cmp	ebp, esp
	call	__RTC_CheckEsp
	mov	esp, ebp
	pop	ebp
	ret	8
?deallocate@?$allocator@D@std@@QAEXPADI@Z ENDP		; std::allocator<char>::deallocate
; Function compile flags: /Odtp /RTCsu /ZI
_TEXT	ENDS
;	COMDAT ?deallocate@?$allocator@U_Container_proxy@std@@@std@@QAEXPAU_Container_proxy@2@I@Z
_TEXT	SEGMENT
_this$ = -8						; size = 4
__Ptr$ = 8						; size = 4
___formal$ = 12						; size = 4
?deallocate@?$allocator@U_Container_proxy@std@@@std@@QAEXPAU_Container_proxy@2@I@Z PROC ; std::allocator<std::_Container_proxy>::deallocate, COMDAT
; _this$ = ecx

; 181  : 		{	// deallocate object at _Ptr, ignore size

	push	ebp
	mov	ebp, esp
	sub	esp, 204				; 000000ccH
	push	ebx
	push	esi
	push	edi
	push	ecx
	lea	edi, DWORD PTR [ebp-204]
	mov	ecx, 51					; 00000033H
	mov	eax, -858993460				; ccccccccH
	rep stosd
	pop	ecx
	mov	DWORD PTR _this$[ebp], ecx

; 182  : 		::operator delete(_Ptr);

	mov	eax, DWORD PTR __Ptr$[ebp]
	push	eax
	call	??3@YAXPAX@Z				; operator delete
	add	esp, 4

; 183  : 		}

	pop	edi
	pop	esi
	pop	ebx
	add	esp, 204				; 000000ccH
	cmp	ebp, esp
	call	__RTC_CheckEsp
	mov	esp, ebp
	pop	ebp
	ret	8
?deallocate@?$allocator@U_Container_proxy@std@@@std@@QAEXPAU_Container_proxy@2@I@Z ENDP ; std::allocator<std::_Container_proxy>::deallocate
; Function compile flags: /Odtp /RTCsu /ZI
; File c:\opengl\glm-0.9.3.1\glm\core\type_vec3.inl
_TEXT	ENDS
;	COMDAT ??0?$tvec3@M@detail@glm@@QAE@ABM00@Z
_TEXT	SEGMENT
_this$ = -8						; size = 4
_s0$ = 8						; size = 4
_s1$ = 12						; size = 4
_s2$ = 16						; size = 4
??0?$tvec3@M@detail@glm@@QAE@ABM00@Z PROC		; glm::detail::tvec3<float>::tvec3<float>, COMDAT
; _this$ = ecx

; 113  : 	{}

	push	ebp
	mov	ebp, esp
	sub	esp, 204				; 000000ccH
	push	ebx
	push	esi
	push	edi
	push	ecx
	lea	edi, DWORD PTR [ebp-204]
	mov	ecx, 51					; 00000033H
	mov	eax, -858993460				; ccccccccH
	rep stosd
	pop	ecx
	mov	DWORD PTR _this$[ebp], ecx
	mov	eax, DWORD PTR _this$[ebp]
	mov	ecx, DWORD PTR _s0$[ebp]
	fld	DWORD PTR [ecx]
	fstp	DWORD PTR [eax]
	mov	eax, DWORD PTR _this$[ebp]
	mov	ecx, DWORD PTR _s1$[ebp]
	fld	DWORD PTR [ecx]
	fstp	DWORD PTR [eax+4]
	mov	eax, DWORD PTR _this$[ebp]
	mov	ecx, DWORD PTR _s2$[ebp]
	fld	DWORD PTR [ecx]
	fstp	DWORD PTR [eax+8]
	mov	eax, DWORD PTR _this$[ebp]
	pop	edi
	pop	esi
	pop	ebx
	mov	esp, ebp
	pop	ebp
	ret	12					; 0000000cH
??0?$tvec3@M@detail@glm@@QAE@ABM00@Z ENDP		; glm::detail::tvec3<float>::tvec3<float>
_TEXT	ENDS
PUBLIC	??4?$tvec4@M@detail@glm@@QAEAAU012@ABU012@@Z	; glm::detail::tvec4<float>::operator=
PUBLIC	??0?$tvec4@M@detail@glm@@QAE@ABM000@Z		; glm::detail::tvec4<float>::tvec4<float>
PUBLIC	??_H@YGXPAXIHP6EPAX0@Z@Z			; `vector constructor iterator'
PUBLIC	??0?$tvec4@M@detail@glm@@QAE@XZ			; glm::detail::tvec4<float>::tvec4<float>
; Function compile flags: /Odtp /RTCsu /ZI
; File c:\opengl\glm-0.9.3.1\glm\core\type_mat4x4.inl
;	COMDAT ??0?$tmat4x4@M@detail@glm@@QAE@ABM@Z
_TEXT	SEGMENT
$T70588 = -308						; size = 16
$T70589 = -284						; size = 16
$T70590 = -260						; size = 16
$T70591 = -236						; size = 16
_Zero$ = -20						; size = 4
_this$ = -8						; size = 4
_s$ = 8							; size = 4
??0?$tmat4x4@M@detail@glm@@QAE@ABM@Z PROC		; glm::detail::tmat4x4<float>::tmat4x4<float>, COMDAT
; _this$ = ecx

; 113  :     {

	push	ebp
	mov	ebp, esp
	sub	esp, 312				; 00000138H
	push	ebx
	push	esi
	push	edi
	push	ecx
	lea	edi, DWORD PTR [ebp-312]
	mov	ecx, 78					; 0000004eH
	mov	eax, -858993460				; ccccccccH
	rep stosd
	pop	ecx
	mov	DWORD PTR _this$[ebp], ecx
	push	OFFSET ??0?$tvec4@M@detail@glm@@QAE@XZ	; glm::detail::tvec4<float>::tvec4<float>
	push	4
	push	16					; 00000010H
	mov	eax, DWORD PTR _this$[ebp]
	push	eax
	call	??_H@YGXPAXIHP6EPAX0@Z@Z

; 114  : 		value_type const Zero(0);

	fldz
	fstp	DWORD PTR _Zero$[ebp]

; 115  :         this->value[0] = col_type(s, Zero, Zero, Zero);

	lea	eax, DWORD PTR _Zero$[ebp]
	push	eax
	lea	ecx, DWORD PTR _Zero$[ebp]
	push	ecx
	lea	edx, DWORD PTR _Zero$[ebp]
	push	edx
	mov	eax, DWORD PTR _s$[ebp]
	push	eax
	lea	ecx, DWORD PTR $T70588[ebp]
	call	??0?$tvec4@M@detail@glm@@QAE@ABM000@Z	; glm::detail::tvec4<float>::tvec4<float>
	push	eax
	mov	ecx, DWORD PTR _this$[ebp]
	call	??4?$tvec4@M@detail@glm@@QAEAAU012@ABU012@@Z ; glm::detail::tvec4<float>::operator=

; 116  :         this->value[1] = col_type(Zero, s, Zero, Zero);

	lea	eax, DWORD PTR _Zero$[ebp]
	push	eax
	lea	ecx, DWORD PTR _Zero$[ebp]
	push	ecx
	mov	edx, DWORD PTR _s$[ebp]
	push	edx
	lea	eax, DWORD PTR _Zero$[ebp]
	push	eax
	lea	ecx, DWORD PTR $T70589[ebp]
	call	??0?$tvec4@M@detail@glm@@QAE@ABM000@Z	; glm::detail::tvec4<float>::tvec4<float>
	push	eax
	mov	ecx, DWORD PTR _this$[ebp]
	add	ecx, 16					; 00000010H
	call	??4?$tvec4@M@detail@glm@@QAEAAU012@ABU012@@Z ; glm::detail::tvec4<float>::operator=

; 117  :         this->value[2] = col_type(Zero, Zero, s, Zero);

	lea	eax, DWORD PTR _Zero$[ebp]
	push	eax
	mov	ecx, DWORD PTR _s$[ebp]
	push	ecx
	lea	edx, DWORD PTR _Zero$[ebp]
	push	edx
	lea	eax, DWORD PTR _Zero$[ebp]
	push	eax
	lea	ecx, DWORD PTR $T70590[ebp]
	call	??0?$tvec4@M@detail@glm@@QAE@ABM000@Z	; glm::detail::tvec4<float>::tvec4<float>
	push	eax
	mov	ecx, DWORD PTR _this$[ebp]
	add	ecx, 32					; 00000020H
	call	??4?$tvec4@M@detail@glm@@QAEAAU012@ABU012@@Z ; glm::detail::tvec4<float>::operator=

; 118  :         this->value[3] = col_type(Zero, Zero, Zero, s);

	mov	eax, DWORD PTR _s$[ebp]
	push	eax
	lea	ecx, DWORD PTR _Zero$[ebp]
	push	ecx
	lea	edx, DWORD PTR _Zero$[ebp]
	push	edx
	lea	eax, DWORD PTR _Zero$[ebp]
	push	eax
	lea	ecx, DWORD PTR $T70591[ebp]
	call	??0?$tvec4@M@detail@glm@@QAE@ABM000@Z	; glm::detail::tvec4<float>::tvec4<float>
	push	eax
	mov	ecx, DWORD PTR _this$[ebp]
	add	ecx, 48					; 00000030H
	call	??4?$tvec4@M@detail@glm@@QAEAAU012@ABU012@@Z ; glm::detail::tvec4<float>::operator=

; 119  :     }

	mov	eax, DWORD PTR _this$[ebp]
	push	edx
	mov	ecx, ebp
	push	eax
	lea	edx, DWORD PTR $LN5@tmat4x4
	call	@_RTC_CheckStackVars@8
	pop	eax
	pop	edx
	pop	edi
	pop	esi
	pop	ebx
	add	esp, 312				; 00000138H
	cmp	ebp, esp
	call	__RTC_CheckEsp
	mov	esp, ebp
	pop	ebp
	ret	4
	npad	3
$LN5@tmat4x4:
	DD	1
	DD	$LN4@tmat4x4
$LN4@tmat4x4:
	DD	-20					; ffffffecH
	DD	4
	DD	$LN3@tmat4x4
$LN3@tmat4x4:
	DB	90					; 0000005aH
	DB	101					; 00000065H
	DB	114					; 00000072H
	DB	111					; 0000006fH
	DB	0
??0?$tmat4x4@M@detail@glm@@QAE@ABM@Z ENDP		; glm::detail::tmat4x4<float>::tmat4x4<float>
; Function compile flags: /Odtp /RTCsu /ZI
; File c:\opengl\glm-0.9.3.1\glm\core\type_vec4.inl
_TEXT	ENDS
;	COMDAT ??0?$tvec4@M@detail@glm@@QAE@ABM000@Z
_TEXT	SEGMENT
_this$ = -8						; size = 4
_s1$ = 8						; size = 4
_s2$ = 12						; size = 4
_s3$ = 16						; size = 4
_s4$ = 20						; size = 4
??0?$tvec4@M@detail@glm@@QAE@ABM000@Z PROC		; glm::detail::tvec4<float>::tvec4<float>, COMDAT
; _this$ = ecx

; 118  : 	{}

	push	ebp
	mov	ebp, esp
	sub	esp, 204				; 000000ccH
	push	ebx
	push	esi
	push	edi
	push	ecx
	lea	edi, DWORD PTR [ebp-204]
	mov	ecx, 51					; 00000033H
	mov	eax, -858993460				; ccccccccH
	rep stosd
	pop	ecx
	mov	DWORD PTR _this$[ebp], ecx
	mov	eax, DWORD PTR _this$[ebp]
	mov	ecx, DWORD PTR _s1$[ebp]
	fld	DWORD PTR [ecx]
	fstp	DWORD PTR [eax]
	mov	eax, DWORD PTR _this$[ebp]
	mov	ecx, DWORD PTR _s2$[ebp]
	fld	DWORD PTR [ecx]
	fstp	DWORD PTR [eax+4]
	mov	eax, DWORD PTR _this$[ebp]
	mov	ecx, DWORD PTR _s3$[ebp]
	fld	DWORD PTR [ecx]
	fstp	DWORD PTR [eax+8]
	mov	eax, DWORD PTR _this$[ebp]
	mov	ecx, DWORD PTR _s4$[ebp]
	fld	DWORD PTR [ecx]
	fstp	DWORD PTR [eax+12]
	mov	eax, DWORD PTR _this$[ebp]
	pop	edi
	pop	esi
	pop	ebx
	mov	esp, ebp
	pop	ebp
	ret	16					; 00000010H
??0?$tvec4@M@detail@glm@@QAE@ABM000@Z ENDP		; glm::detail::tvec4<float>::tvec4<float>
; Function compile flags: /Odtp /RTCsu /ZI
; File c:\opengl\glm-0.9.3.1\glm\core\type_mat4x4.inl
_TEXT	ENDS
;	COMDAT ??0?$tmat4x4@M@detail@glm@@QAE@XZ
_TEXT	SEGMENT
$T70599 = -320						; size = 16
$T70600 = -296						; size = 16
$T70601 = -272						; size = 16
$T70602 = -248						; size = 16
_One$ = -32						; size = 4
_Zero$ = -20						; size = 4
_this$ = -8						; size = 4
??0?$tmat4x4@M@detail@glm@@QAE@XZ PROC			; glm::detail::tmat4x4<float>::tmat4x4<float>, COMDAT
; _this$ = ecx

; 80   :     {

	push	ebp
	mov	ebp, esp
	sub	esp, 324				; 00000144H
	push	ebx
	push	esi
	push	edi
	push	ecx
	lea	edi, DWORD PTR [ebp-324]
	mov	ecx, 81					; 00000051H
	mov	eax, -858993460				; ccccccccH
	rep stosd
	pop	ecx
	mov	DWORD PTR _this$[ebp], ecx
	push	OFFSET ??0?$tvec4@M@detail@glm@@QAE@XZ	; glm::detail::tvec4<float>::tvec4<float>
	push	4
	push	16					; 00000010H
	mov	eax, DWORD PTR _this$[ebp]
	push	eax
	call	??_H@YGXPAXIHP6EPAX0@Z@Z

; 81   : 		value_type Zero(0);

	fldz
	fstp	DWORD PTR _Zero$[ebp]

; 82   : 		value_type One(1);

	fld1
	fstp	DWORD PTR _One$[ebp]

; 83   :         this->value[0] = col_type(One, Zero, Zero, Zero);

	lea	eax, DWORD PTR _Zero$[ebp]
	push	eax
	lea	ecx, DWORD PTR _Zero$[ebp]
	push	ecx
	lea	edx, DWORD PTR _Zero$[ebp]
	push	edx
	lea	eax, DWORD PTR _One$[ebp]
	push	eax
	lea	ecx, DWORD PTR $T70599[ebp]
	call	??0?$tvec4@M@detail@glm@@QAE@ABM000@Z	; glm::detail::tvec4<float>::tvec4<float>
	push	eax
	mov	ecx, DWORD PTR _this$[ebp]
	call	??4?$tvec4@M@detail@glm@@QAEAAU012@ABU012@@Z ; glm::detail::tvec4<float>::operator=

; 84   :         this->value[1] = col_type(Zero, One, Zero, Zero);

	lea	eax, DWORD PTR _Zero$[ebp]
	push	eax
	lea	ecx, DWORD PTR _Zero$[ebp]
	push	ecx
	lea	edx, DWORD PTR _One$[ebp]
	push	edx
	lea	eax, DWORD PTR _Zero$[ebp]
	push	eax
	lea	ecx, DWORD PTR $T70600[ebp]
	call	??0?$tvec4@M@detail@glm@@QAE@ABM000@Z	; glm::detail::tvec4<float>::tvec4<float>
	push	eax
	mov	ecx, DWORD PTR _this$[ebp]
	add	ecx, 16					; 00000010H
	call	??4?$tvec4@M@detail@glm@@QAEAAU012@ABU012@@Z ; glm::detail::tvec4<float>::operator=

; 85   :         this->value[2] = col_type(Zero, Zero, One, Zero);

	lea	eax, DWORD PTR _Zero$[ebp]
	push	eax
	lea	ecx, DWORD PTR _One$[ebp]
	push	ecx
	lea	edx, DWORD PTR _Zero$[ebp]
	push	edx
	lea	eax, DWORD PTR _Zero$[ebp]
	push	eax
	lea	ecx, DWORD PTR $T70601[ebp]
	call	??0?$tvec4@M@detail@glm@@QAE@ABM000@Z	; glm::detail::tvec4<float>::tvec4<float>
	push	eax
	mov	ecx, DWORD PTR _this$[ebp]
	add	ecx, 32					; 00000020H
	call	??4?$tvec4@M@detail@glm@@QAEAAU012@ABU012@@Z ; glm::detail::tvec4<float>::operator=

; 86   :         this->value[3] = col_type(Zero, Zero, Zero, One);

	lea	eax, DWORD PTR _One$[ebp]
	push	eax
	lea	ecx, DWORD PTR _Zero$[ebp]
	push	ecx
	lea	edx, DWORD PTR _Zero$[ebp]
	push	edx
	lea	eax, DWORD PTR _Zero$[ebp]
	push	eax
	lea	ecx, DWORD PTR $T70602[ebp]
	call	??0?$tvec4@M@detail@glm@@QAE@ABM000@Z	; glm::detail::tvec4<float>::tvec4<float>
	push	eax
	mov	ecx, DWORD PTR _this$[ebp]
	add	ecx, 48					; 00000030H
	call	??4?$tvec4@M@detail@glm@@QAEAAU012@ABU012@@Z ; glm::detail::tvec4<float>::operator=

; 87   :     }

	mov	eax, DWORD PTR _this$[ebp]
	push	edx
	mov	ecx, ebp
	push	eax
	lea	edx, DWORD PTR $LN6@tmat4x4@2
	call	@_RTC_CheckStackVars@8
	pop	eax
	pop	edx
	pop	edi
	pop	esi
	pop	ebx
	add	esp, 324				; 00000144H
	cmp	ebp, esp
	call	__RTC_CheckEsp
	mov	esp, ebp
	pop	ebp
	ret	0
$LN6@tmat4x4@2:
	DD	2
	DD	$LN5@tmat4x4@2
$LN5@tmat4x4@2:
	DD	-20					; ffffffecH
	DD	4
	DD	$LN3@tmat4x4@2
	DD	-32					; ffffffe0H
	DD	4
	DD	$LN4@tmat4x4@2
$LN4@tmat4x4@2:
	DB	79					; 0000004fH
	DB	110					; 0000006eH
	DB	101					; 00000065H
	DB	0
$LN3@tmat4x4@2:
	DB	90					; 0000005aH
	DB	101					; 00000065H
	DB	114					; 00000072H
	DB	111					; 0000006fH
	DB	0
??0?$tmat4x4@M@detail@glm@@QAE@XZ ENDP			; glm::detail::tmat4x4<float>::tmat4x4<float>
_TEXT	ENDS
PUBLIC	??A?$tmat4x4@M@detail@glm@@QBEABU?$tvec4@M@12@I@Z ; glm::detail::tmat4x4<float>::operator[]
; Function compile flags: /Odtp /RTCsu /ZI
;	COMDAT ??4?$tmat4x4@M@detail@glm@@QAEAAU012@ABU012@@Z
_TEXT	SEGMENT
_this$ = -8						; size = 4
_m$ = 8							; size = 4
??4?$tmat4x4@M@detail@glm@@QAEAAU012@ABU012@@Z PROC	; glm::detail::tmat4x4<float>::operator=, COMDAT
; _this$ = ecx

; 349  :     {

	push	ebp
	mov	ebp, esp
	sub	esp, 204				; 000000ccH
	push	ebx
	push	esi
	push	edi
	push	ecx
	lea	edi, DWORD PTR [ebp-204]
	mov	ecx, 51					; 00000033H
	mov	eax, -858993460				; ccccccccH
	rep stosd
	pop	ecx
	mov	DWORD PTR _this$[ebp], ecx

; 350  :         //memcpy could be faster
; 351  :         //memcpy(&this->value, &m.value, 16 * sizeof(valType));
; 352  :         this->value[0] = m[0];

	push	0
	mov	ecx, DWORD PTR _m$[ebp]
	call	??A?$tmat4x4@M@detail@glm@@QBEABU?$tvec4@M@12@I@Z ; glm::detail::tmat4x4<float>::operator[]
	push	eax
	mov	ecx, DWORD PTR _this$[ebp]
	call	??4?$tvec4@M@detail@glm@@QAEAAU012@ABU012@@Z ; glm::detail::tvec4<float>::operator=

; 353  :         this->value[1] = m[1];

	push	1
	mov	ecx, DWORD PTR _m$[ebp]
	call	??A?$tmat4x4@M@detail@glm@@QBEABU?$tvec4@M@12@I@Z ; glm::detail::tmat4x4<float>::operator[]
	push	eax
	mov	ecx, DWORD PTR _this$[ebp]
	add	ecx, 16					; 00000010H
	call	??4?$tvec4@M@detail@glm@@QAEAAU012@ABU012@@Z ; glm::detail::tvec4<float>::operator=

; 354  :         this->value[2] = m[2];

	push	2
	mov	ecx, DWORD PTR _m$[ebp]
	call	??A?$tmat4x4@M@detail@glm@@QBEABU?$tvec4@M@12@I@Z ; glm::detail::tmat4x4<float>::operator[]
	push	eax
	mov	ecx, DWORD PTR _this$[ebp]
	add	ecx, 32					; 00000020H
	call	??4?$tvec4@M@detail@glm@@QAEAAU012@ABU012@@Z ; glm::detail::tvec4<float>::operator=

; 355  :         this->value[3] = m[3];

	push	3
	mov	ecx, DWORD PTR _m$[ebp]
	call	??A?$tmat4x4@M@detail@glm@@QBEABU?$tvec4@M@12@I@Z ; glm::detail::tmat4x4<float>::operator[]
	push	eax
	mov	ecx, DWORD PTR _this$[ebp]
	add	ecx, 48					; 00000030H
	call	??4?$tvec4@M@detail@glm@@QAEAAU012@ABU012@@Z ; glm::detail::tvec4<float>::operator=

; 356  :         return *this;

	mov	eax, DWORD PTR _this$[ebp]

; 357  :     }

	pop	edi
	pop	esi
	pop	ebx
	add	esp, 204				; 000000ccH
	cmp	ebp, esp
	call	__RTC_CheckEsp
	mov	esp, ebp
	pop	ebp
	ret	4
??4?$tmat4x4@M@detail@glm@@QAEAAU012@ABU012@@Z ENDP	; glm::detail::tmat4x4<float>::operator=
_TEXT	ENDS
PUBLIC	??$translate@M@glm@@YA?AU?$tmat4x4@M@detail@0@ABU120@ABU?$tvec3@M@20@@Z ; glm::translate<float>
PUBLIC	??$?GM@detail@glm@@YA?AU?$tvec3@M@01@ABU201@@Z	; glm::detail::operator-<float>
PUBLIC	??A?$tvec4@M@detail@glm@@QAEAAMI@Z		; glm::detail::tvec4<float>::operator[]
PUBLIC	??A?$tmat4x4@M@detail@glm@@QAEAAU?$tvec4@M@12@I@Z ; glm::detail::tmat4x4<float>::operator[]
PUBLIC	??$?0H@?$tmat4x4@M@detail@glm@@QAE@ABH@Z	; glm::detail::tmat4x4<float>::tmat4x4<float><int>
PUBLIC	??4?$tvec3@M@detail@glm@@QAEAAU012@ABU012@@Z	; glm::detail::tvec3<float>::operator=
PUBLIC	??$cross@M@glm@@YA?AU?$tvec3@M@detail@0@ABU120@0@Z ; glm::cross<float>
PUBLIC	??$normalize@M@glm@@YA?AU?$tvec3@M@detail@0@ABU120@@Z ; glm::normalize<float>
PUBLIC	??$?GM@detail@glm@@YA?AU?$tvec3@M@01@ABU201@0@Z	; glm::detail::operator-<float>
PUBLIC	__$ArrayPad$
; Function compile flags: /Odtp /RTCsu /ZI
; File c:\opengl\glm-0.9.3.1\glm\gtc\matrix_transform.inl
;	COMDAT ??$lookAt@M@glm@@YA?AU?$tmat4x4@M@detail@0@ABU?$tvec3@M@20@00@Z
_TEXT	SEGMENT
tv235 = -424						; size = 4
tv233 = -424						; size = 4
tv231 = -424						; size = 4
$T70612 = -416						; size = 12
$T70613 = -396						; size = 12
$T70614 = -376						; size = 12
$T70615 = -356						; size = 4
$T70616 = -344						; size = 12
_Result$ = -132						; size = 64
_s$ = -60						; size = 12
_u$ = -40						; size = 12
_f$ = -20						; size = 12
__$ArrayPad$ = -4					; size = 4
___$ReturnUdt$ = 8					; size = 4
_eye$ = 12						; size = 4
_center$ = 16						; size = 4
_up$ = 20						; size = 4
??$lookAt@M@glm@@YA?AU?$tmat4x4@M@detail@0@ABU?$tvec3@M@20@00@Z PROC ; glm::lookAt<float>, COMDAT

; 389  : 	{

	push	ebp
	mov	ebp, esp
	sub	esp, 424				; 000001a8H
	push	ebx
	push	esi
	push	edi
	lea	edi, DWORD PTR [ebp-424]
	mov	ecx, 106				; 0000006aH
	mov	eax, -858993460				; ccccccccH
	rep stosd
	mov	eax, DWORD PTR ___security_cookie
	xor	eax, ebp
	mov	DWORD PTR __$ArrayPad$[ebp], eax

; 390  : 		detail::tvec3<T> f = normalize(center - eye);

	mov	eax, DWORD PTR _eye$[ebp]
	push	eax
	mov	ecx, DWORD PTR _center$[ebp]
	push	ecx
	lea	edx, DWORD PTR $T70612[ebp]
	push	edx
	call	??$?GM@detail@glm@@YA?AU?$tvec3@M@01@ABU201@0@Z ; glm::detail::operator-<float>
	add	esp, 12					; 0000000cH
	push	eax
	lea	eax, DWORD PTR _f$[ebp]
	push	eax
	call	??$normalize@M@glm@@YA?AU?$tvec3@M@detail@0@ABU120@@Z ; glm::normalize<float>
	add	esp, 8

; 391  : 		detail::tvec3<T> u = normalize(up);

	mov	eax, DWORD PTR _up$[ebp]
	push	eax
	lea	ecx, DWORD PTR _u$[ebp]
	push	ecx
	call	??$normalize@M@glm@@YA?AU?$tvec3@M@detail@0@ABU120@@Z ; glm::normalize<float>
	add	esp, 8

; 392  : 		detail::tvec3<T> s = normalize(cross(f, u));

	lea	eax, DWORD PTR _u$[ebp]
	push	eax
	lea	ecx, DWORD PTR _f$[ebp]
	push	ecx
	lea	edx, DWORD PTR $T70613[ebp]
	push	edx
	call	??$cross@M@glm@@YA?AU?$tvec3@M@detail@0@ABU120@0@Z ; glm::cross<float>
	add	esp, 12					; 0000000cH
	push	eax
	lea	eax, DWORD PTR _s$[ebp]
	push	eax
	call	??$normalize@M@glm@@YA?AU?$tvec3@M@detail@0@ABU120@@Z ; glm::normalize<float>
	add	esp, 8

; 393  : 		u = cross(s, f);

	lea	eax, DWORD PTR _f$[ebp]
	push	eax
	lea	ecx, DWORD PTR _s$[ebp]
	push	ecx
	lea	edx, DWORD PTR $T70614[ebp]
	push	edx
	call	??$cross@M@glm@@YA?AU?$tvec3@M@detail@0@ABU120@0@Z ; glm::cross<float>
	add	esp, 12					; 0000000cH
	push	eax
	lea	ecx, DWORD PTR _u$[ebp]
	call	??4?$tvec3@M@detail@glm@@QAEAAU012@ABU012@@Z ; glm::detail::tvec3<float>::operator=

; 394  : 
; 395  : 		detail::tmat4x4<T> Result(1);

	mov	DWORD PTR $T70615[ebp], 1
	lea	eax, DWORD PTR $T70615[ebp]
	push	eax
	lea	ecx, DWORD PTR _Result$[ebp]
	call	??$?0H@?$tmat4x4@M@detail@glm@@QAE@ABH@Z ; glm::detail::tmat4x4<float>::tmat4x4<float><int>

; 396  : 		Result[0][0] = s.x;

	push	0
	push	0
	lea	ecx, DWORD PTR _Result$[ebp]
	call	??A?$tmat4x4@M@detail@glm@@QAEAAU?$tvec4@M@12@I@Z ; glm::detail::tmat4x4<float>::operator[]
	mov	ecx, eax
	call	??A?$tvec4@M@detail@glm@@QAEAAMI@Z	; glm::detail::tvec4<float>::operator[]
	fld	DWORD PTR _s$[ebp]
	fstp	DWORD PTR [eax]

; 397  : 		Result[1][0] = s.y;

	push	0
	push	1
	lea	ecx, DWORD PTR _Result$[ebp]
	call	??A?$tmat4x4@M@detail@glm@@QAEAAU?$tvec4@M@12@I@Z ; glm::detail::tmat4x4<float>::operator[]
	mov	ecx, eax
	call	??A?$tvec4@M@detail@glm@@QAEAAMI@Z	; glm::detail::tvec4<float>::operator[]
	fld	DWORD PTR _s$[ebp+4]
	fstp	DWORD PTR [eax]

; 398  : 		Result[2][0] = s.z;

	push	0
	push	2
	lea	ecx, DWORD PTR _Result$[ebp]
	call	??A?$tmat4x4@M@detail@glm@@QAEAAU?$tvec4@M@12@I@Z ; glm::detail::tmat4x4<float>::operator[]
	mov	ecx, eax
	call	??A?$tvec4@M@detail@glm@@QAEAAMI@Z	; glm::detail::tvec4<float>::operator[]
	fld	DWORD PTR _s$[ebp+8]
	fstp	DWORD PTR [eax]

; 399  : 		Result[0][1] = u.x;

	push	1
	push	0
	lea	ecx, DWORD PTR _Result$[ebp]
	call	??A?$tmat4x4@M@detail@glm@@QAEAAU?$tvec4@M@12@I@Z ; glm::detail::tmat4x4<float>::operator[]
	mov	ecx, eax
	call	??A?$tvec4@M@detail@glm@@QAEAAMI@Z	; glm::detail::tvec4<float>::operator[]
	fld	DWORD PTR _u$[ebp]
	fstp	DWORD PTR [eax]

; 400  : 		Result[1][1] = u.y;

	push	1
	push	1
	lea	ecx, DWORD PTR _Result$[ebp]
	call	??A?$tmat4x4@M@detail@glm@@QAEAAU?$tvec4@M@12@I@Z ; glm::detail::tmat4x4<float>::operator[]
	mov	ecx, eax
	call	??A?$tvec4@M@detail@glm@@QAEAAMI@Z	; glm::detail::tvec4<float>::operator[]
	fld	DWORD PTR _u$[ebp+4]
	fstp	DWORD PTR [eax]

; 401  : 		Result[2][1] = u.z;

	push	1
	push	2
	lea	ecx, DWORD PTR _Result$[ebp]
	call	??A?$tmat4x4@M@detail@glm@@QAEAAU?$tvec4@M@12@I@Z ; glm::detail::tmat4x4<float>::operator[]
	mov	ecx, eax
	call	??A?$tvec4@M@detail@glm@@QAEAAMI@Z	; glm::detail::tvec4<float>::operator[]
	fld	DWORD PTR _u$[ebp+8]
	fstp	DWORD PTR [eax]

; 402  : 		Result[0][2] =-f.x;

	fld	DWORD PTR _f$[ebp]
	fchs
	push	2
	push	0
	lea	ecx, DWORD PTR _Result$[ebp]
	fstp	DWORD PTR tv231[ebp]
	call	??A?$tmat4x4@M@detail@glm@@QAEAAU?$tvec4@M@12@I@Z ; glm::detail::tmat4x4<float>::operator[]
	mov	ecx, eax
	call	??A?$tvec4@M@detail@glm@@QAEAAMI@Z	; glm::detail::tvec4<float>::operator[]
	fld	DWORD PTR tv231[ebp]
	fstp	DWORD PTR [eax]

; 403  : 		Result[1][2] =-f.y;

	fld	DWORD PTR _f$[ebp+4]
	fchs
	push	2
	push	1
	lea	ecx, DWORD PTR _Result$[ebp]
	fstp	DWORD PTR tv233[ebp]
	call	??A?$tmat4x4@M@detail@glm@@QAEAAU?$tvec4@M@12@I@Z ; glm::detail::tmat4x4<float>::operator[]
	mov	ecx, eax
	call	??A?$tvec4@M@detail@glm@@QAEAAMI@Z	; glm::detail::tvec4<float>::operator[]
	fld	DWORD PTR tv233[ebp]
	fstp	DWORD PTR [eax]

; 404  : 		Result[2][2] =-f.z;

	fld	DWORD PTR _f$[ebp+8]
	fchs
	push	2
	push	2
	lea	ecx, DWORD PTR _Result$[ebp]
	fstp	DWORD PTR tv235[ebp]
	call	??A?$tmat4x4@M@detail@glm@@QAEAAU?$tvec4@M@12@I@Z ; glm::detail::tmat4x4<float>::operator[]
	mov	ecx, eax
	call	??A?$tvec4@M@detail@glm@@QAEAAMI@Z	; glm::detail::tvec4<float>::operator[]
	fld	DWORD PTR tv235[ebp]
	fstp	DWORD PTR [eax]

; 405  : 	/*  Test this instead of translate3D
; 406  : 		Result[3][0] =-dot(s, eye);
; 407  : 		Result[3][1] =-dot(y, eye);
; 408  : 		Result[3][2] = dot(f, eye);
; 409  : 	*/  
; 410  : 		return translate(Result, -eye);

	mov	eax, DWORD PTR _eye$[ebp]
	push	eax
	lea	ecx, DWORD PTR $T70616[ebp]
	push	ecx
	call	??$?GM@detail@glm@@YA?AU?$tvec3@M@01@ABU201@@Z ; glm::detail::operator-<float>
	add	esp, 8
	push	eax
	lea	edx, DWORD PTR _Result$[ebp]
	push	edx
	mov	eax, DWORD PTR ___$ReturnUdt$[ebp]
	push	eax
	call	??$translate@M@glm@@YA?AU?$tmat4x4@M@detail@0@ABU120@ABU?$tvec3@M@20@@Z ; glm::translate<float>
	add	esp, 12					; 0000000cH
	mov	eax, DWORD PTR ___$ReturnUdt$[ebp]

; 411  : 	}

	push	edx
	mov	ecx, ebp
	push	eax
	lea	edx, DWORD PTR $LN8@lookAt
	call	@_RTC_CheckStackVars@8
	pop	eax
	pop	edx
	pop	edi
	pop	esi
	pop	ebx
	mov	ecx, DWORD PTR __$ArrayPad$[ebp]
	xor	ecx, ebp
	call	@__security_check_cookie@4
	add	esp, 424				; 000001a8H
	cmp	ebp, esp
	call	__RTC_CheckEsp
	mov	esp, ebp
	pop	ebp
	ret	0
	npad	2
$LN8@lookAt:
	DD	4
	DD	$LN7@lookAt
$LN7@lookAt:
	DD	-20					; ffffffecH
	DD	12					; 0000000cH
	DD	$LN3@lookAt
	DD	-40					; ffffffd8H
	DD	12					; 0000000cH
	DD	$LN4@lookAt
	DD	-60					; ffffffc4H
	DD	12					; 0000000cH
	DD	$LN5@lookAt
	DD	-132					; ffffff7cH
	DD	64					; 00000040H
	DD	$LN6@lookAt
$LN6@lookAt:
	DB	82					; 00000052H
	DB	101					; 00000065H
	DB	115					; 00000073H
	DB	117					; 00000075H
	DB	108					; 0000006cH
	DB	116					; 00000074H
	DB	0
$LN5@lookAt:
	DB	115					; 00000073H
	DB	0
$LN4@lookAt:
	DB	117					; 00000075H
	DB	0
$LN3@lookAt:
	DB	102					; 00000066H
	DB	0
??$lookAt@M@glm@@YA?AU?$tmat4x4@M@detail@0@ABU?$tvec3@M@20@00@Z ENDP ; glm::lookAt<float>
; Function compile flags: /Odtp /RTCsu /ZI
; File c:\opengl\glm-0.9.3.1\glm\core\type_vec3.inl
_TEXT	ENDS
;	COMDAT ??4?$tvec3@M@detail@glm@@QAEAAU012@ABU012@@Z
_TEXT	SEGMENT
_this$ = -8						; size = 4
_v$ = 8							; size = 4
??4?$tvec3@M@detail@glm@@QAEAAU012@ABU012@@Z PROC	; glm::detail::tvec3<float>::operator=, COMDAT
; _this$ = ecx

; 236  : 	{

	push	ebp
	mov	ebp, esp
	sub	esp, 204				; 000000ccH
	push	ebx
	push	esi
	push	edi
	push	ecx
	lea	edi, DWORD PTR [ebp-204]
	mov	ecx, 51					; 00000033H
	mov	eax, -858993460				; ccccccccH
	rep stosd
	pop	ecx
	mov	DWORD PTR _this$[ebp], ecx

; 237  : 		this->x = v.x;

	mov	eax, DWORD PTR _this$[ebp]
	mov	ecx, DWORD PTR _v$[ebp]
	fld	DWORD PTR [ecx]
	fstp	DWORD PTR [eax]

; 238  : 		this->y = v.y;

	mov	eax, DWORD PTR _this$[ebp]
	mov	ecx, DWORD PTR _v$[ebp]
	fld	DWORD PTR [ecx+4]
	fstp	DWORD PTR [eax+4]

; 239  : 		this->z = v.z;

	mov	eax, DWORD PTR _this$[ebp]
	mov	ecx, DWORD PTR _v$[ebp]
	fld	DWORD PTR [ecx+8]
	fstp	DWORD PTR [eax+8]

; 240  : 		return *this;

	mov	eax, DWORD PTR _this$[ebp]

; 241  : 	}

	pop	edi
	pop	esi
	pop	ebx
	mov	esp, ebp
	pop	ebp
	ret	4
??4?$tvec3@M@detail@glm@@QAEAAU012@ABU012@@Z ENDP	; glm::detail::tvec3<float>::operator=
_TEXT	ENDS
PUBLIC	??$?DM@detail@glm@@YA?AU?$tvec3@M@01@ABU201@ABM@Z ; glm::detail::operator*<float>
PUBLIC	??$inversesqrt@M@glm@@YAMABM@Z			; glm::inversesqrt<float>
; Function compile flags: /Odtp /RTCsu /ZI
; File c:\opengl\glm-0.9.3.1\glm\core\func_geometric.inl
;	COMDAT ??$normalize@M@glm@@YA?AU?$tvec3@M@detail@0@ABU120@@Z
_TEXT	SEGMENT
$T70627 = -212						; size = 4
_sqr$ = -8						; size = 4
___$ReturnUdt$ = 8					; size = 4
_x$ = 12						; size = 4
??$normalize@M@glm@@YA?AU?$tvec3@M@detail@0@ABU120@@Z PROC ; glm::normalize<float>, COMDAT

; 243  :     {

	push	ebp
	mov	ebp, esp
	sub	esp, 216				; 000000d8H
	push	ebx
	push	esi
	push	edi
	lea	edi, DWORD PTR [ebp-216]
	mov	ecx, 54					; 00000036H
	mov	eax, -858993460				; ccccccccH
	rep stosd

; 244  :         GLM_STATIC_ASSERT(detail::type<T>::is_float, "'normalize' only accept floating-point inputs");
; 245  : 
; 246  : 		typename detail::tvec3<T>::value_type sqr = x.x * x.x + x.y * x.y + x.z * x.z;

	mov	eax, DWORD PTR _x$[ebp]
	fld	DWORD PTR [eax]
	mov	ecx, DWORD PTR _x$[ebp]
	fmul	DWORD PTR [ecx]
	mov	edx, DWORD PTR _x$[ebp]
	fld	DWORD PTR [edx+4]
	mov	eax, DWORD PTR _x$[ebp]
	fmul	DWORD PTR [eax+4]
	faddp	ST(1), ST(0)
	mov	ecx, DWORD PTR _x$[ebp]
	fld	DWORD PTR [ecx+8]
	mov	edx, DWORD PTR _x$[ebp]
	fmul	DWORD PTR [edx+8]
	faddp	ST(1), ST(0)
	fstp	DWORD PTR _sqr$[ebp]

; 247  : 	    return x * inversesqrt(sqr);

	lea	eax, DWORD PTR _sqr$[ebp]
	push	eax
	call	??$inversesqrt@M@glm@@YAMABM@Z		; glm::inversesqrt<float>
	add	esp, 4
	fstp	DWORD PTR $T70627[ebp]
	lea	ecx, DWORD PTR $T70627[ebp]
	push	ecx
	mov	edx, DWORD PTR _x$[ebp]
	push	edx
	mov	eax, DWORD PTR ___$ReturnUdt$[ebp]
	push	eax
	call	??$?DM@detail@glm@@YA?AU?$tvec3@M@01@ABU201@ABM@Z ; glm::detail::operator*<float>
	add	esp, 12					; 0000000cH
	mov	eax, DWORD PTR ___$ReturnUdt$[ebp]

; 248  :     }

	push	edx
	mov	ecx, ebp
	push	eax
	lea	edx, DWORD PTR $LN5@normalize
	call	@_RTC_CheckStackVars@8
	pop	eax
	pop	edx
	pop	edi
	pop	esi
	pop	ebx
	add	esp, 216				; 000000d8H
	cmp	ebp, esp
	call	__RTC_CheckEsp
	mov	esp, ebp
	pop	ebp
	ret	0
$LN5@normalize:
	DD	1
	DD	$LN4@normalize
$LN4@normalize:
	DD	-8					; fffffff8H
	DD	4
	DD	$LN3@normalize
$LN3@normalize:
	DB	115					; 00000073H
	DB	113					; 00000071H
	DB	114					; 00000072H
	DB	0
??$normalize@M@glm@@YA?AU?$tvec3@M@detail@0@ABU120@@Z ENDP ; glm::normalize<float>
; Function compile flags: /Odtp /RTCsu /ZI
; File c:\opengl\glm-0.9.3.1\glm\core\type_vec3.inl
_TEXT	ENDS
;	COMDAT ??$?GM@detail@glm@@YA?AU?$tvec3@M@01@ABU201@0@Z
_TEXT	SEGMENT
$T70633 = -224						; size = 4
$T70634 = -212						; size = 4
$T70635 = -200						; size = 4
___$ReturnUdt$ = 8					; size = 4
_v1$ = 12						; size = 4
_v2$ = 16						; size = 4
??$?GM@detail@glm@@YA?AU?$tvec3@M@01@ABU201@0@Z PROC	; glm::detail::operator-<float>, COMDAT

; 716  : 	{

	push	ebp
	mov	ebp, esp
	sub	esp, 228				; 000000e4H
	push	ebx
	push	esi
	push	edi
	lea	edi, DWORD PTR [ebp-228]
	mov	ecx, 57					; 00000039H
	mov	eax, -858993460				; ccccccccH
	rep stosd

; 717  : 		return tvec3<T>(
; 718  : 			v1.x - T(v2.x),
; 719  : 			v1.y - T(v2.y),
; 720  : 			v1.z - T(v2.z));

	mov	eax, DWORD PTR _v1$[ebp]
	fld	DWORD PTR [eax+8]
	mov	ecx, DWORD PTR _v2$[ebp]
	fsub	DWORD PTR [ecx+8]
	fstp	DWORD PTR $T70633[ebp]
	mov	edx, DWORD PTR _v1$[ebp]
	fld	DWORD PTR [edx+4]
	mov	eax, DWORD PTR _v2$[ebp]
	fsub	DWORD PTR [eax+4]
	fstp	DWORD PTR $T70634[ebp]
	mov	ecx, DWORD PTR _v1$[ebp]
	fld	DWORD PTR [ecx]
	mov	edx, DWORD PTR _v2$[ebp]
	fsub	DWORD PTR [edx]
	fstp	DWORD PTR $T70635[ebp]
	lea	eax, DWORD PTR $T70633[ebp]
	push	eax
	lea	ecx, DWORD PTR $T70634[ebp]
	push	ecx
	lea	edx, DWORD PTR $T70635[ebp]
	push	edx
	mov	ecx, DWORD PTR ___$ReturnUdt$[ebp]
	call	??0?$tvec3@M@detail@glm@@QAE@ABM00@Z	; glm::detail::tvec3<float>::tvec3<float>
	mov	eax, DWORD PTR ___$ReturnUdt$[ebp]

; 721  : 	}

	pop	edi
	pop	esi
	pop	ebx
	add	esp, 228				; 000000e4H
	cmp	ebp, esp
	call	__RTC_CheckEsp
	mov	esp, ebp
	pop	ebp
	ret	0
??$?GM@detail@glm@@YA?AU?$tvec3@M@01@ABU201@0@Z ENDP	; glm::detail::operator-<float>
; Function compile flags: /Odtp /RTCsu /ZI
_TEXT	ENDS
;	COMDAT ??$?DM@detail@glm@@YA?AU?$tvec3@M@01@ABU201@ABM@Z
_TEXT	SEGMENT
$T70638 = -224						; size = 4
$T70639 = -212						; size = 4
$T70640 = -200						; size = 4
___$ReturnUdt$ = 8					; size = 4
_v$ = 12						; size = 4
_s$ = 16						; size = 4
??$?DM@detail@glm@@YA?AU?$tvec3@M@01@ABU201@ABM@Z PROC	; glm::detail::operator*<float>, COMDAT

; 730  : 	{

	push	ebp
	mov	ebp, esp
	sub	esp, 228				; 000000e4H
	push	ebx
	push	esi
	push	edi
	lea	edi, DWORD PTR [ebp-228]
	mov	ecx, 57					; 00000039H
	mov	eax, -858993460				; ccccccccH
	rep stosd

; 731  : 		return tvec3<T>(
; 732  : 			v.x * T(s),
; 733  : 			v.y * T(s),
; 734  : 			v.z * T(s));

	mov	eax, DWORD PTR _v$[ebp]
	fld	DWORD PTR [eax+8]
	mov	ecx, DWORD PTR _s$[ebp]
	fmul	DWORD PTR [ecx]
	fstp	DWORD PTR $T70638[ebp]
	mov	edx, DWORD PTR _v$[ebp]
	fld	DWORD PTR [edx+4]
	mov	eax, DWORD PTR _s$[ebp]
	fmul	DWORD PTR [eax]
	fstp	DWORD PTR $T70639[ebp]
	mov	ecx, DWORD PTR _v$[ebp]
	fld	DWORD PTR [ecx]
	mov	edx, DWORD PTR _s$[ebp]
	fmul	DWORD PTR [edx]
	fstp	DWORD PTR $T70640[ebp]
	lea	eax, DWORD PTR $T70638[ebp]
	push	eax
	lea	ecx, DWORD PTR $T70639[ebp]
	push	ecx
	lea	edx, DWORD PTR $T70640[ebp]
	push	edx
	mov	ecx, DWORD PTR ___$ReturnUdt$[ebp]
	call	??0?$tvec3@M@detail@glm@@QAE@ABM00@Z	; glm::detail::tvec3<float>::tvec3<float>
	mov	eax, DWORD PTR ___$ReturnUdt$[ebp]

; 735  : 	}

	pop	edi
	pop	esi
	pop	ebx
	add	esp, 228				; 000000e4H
	cmp	ebp, esp
	call	__RTC_CheckEsp
	mov	esp, ebp
	pop	ebp
	ret	0
??$?DM@detail@glm@@YA?AU?$tvec3@M@01@ABU201@ABM@Z ENDP	; glm::detail::operator*<float>
_TEXT	ENDS
PUBLIC	??0?$tmat4x4@M@detail@glm@@QAE@ABU012@@Z	; glm::detail::tmat4x4<float>::tmat4x4<float>
PUBLIC	??$?HM@detail@glm@@YA?AU?$tvec4@M@01@ABU201@0@Z	; glm::detail::operator+<float>
PUBLIC	??$?DM@detail@glm@@YA?AU?$tvec4@M@01@ABU201@ABM@Z ; glm::detail::operator*<float>
PUBLIC	??A?$tvec4@M@detail@glm@@QBEABMI@Z		; glm::detail::tvec4<float>::operator[]
PUBLIC	??0?$tmat4x4@M@detail@glm@@QAE@W4ctor@012@@Z	; glm::detail::tmat4x4<float>::tmat4x4<float>
PUBLIC	??0?$tvec4@M@detail@glm@@QAE@ABU012@@Z		; glm::detail::tvec4<float>::tvec4<float>
PUBLIC	__$ArrayPad$
; Function compile flags: /Odtp /RTCsu /ZI
; File c:\opengl\glm-0.9.3.1\glm\core\type_mat4x4.inl
;	COMDAT ??$?DM@detail@glm@@YA?AU?$tmat4x4@M@01@ABU201@0@Z
_TEXT	SEGMENT
$T70656 = -1128						; size = 16
$T70657 = -1104						; size = 16
$T70658 = -1080						; size = 16
$T70659 = -1056						; size = 16
$T70660 = -1032						; size = 16
$T70661 = -1008						; size = 16
$T70662 = -984						; size = 16
$T70663 = -960						; size = 16
$T70664 = -936						; size = 16
$T70665 = -912						; size = 16
$T70666 = -888						; size = 16
$T70667 = -864						; size = 16
$T70668 = -840						; size = 16
$T70669 = -816						; size = 16
$T70670 = -792						; size = 16
$T70671 = -768						; size = 16
$T70644 = -744						; size = 16
$T70645 = -720						; size = 16
$T70646 = -696						; size = 16
$T70647 = -672						; size = 16
$T70648 = -648						; size = 16
$T70649 = -624						; size = 16
$T70650 = -600						; size = 16
$T70651 = -576						; size = 16
$T70652 = -552						; size = 16
$T70653 = -528						; size = 16
$T70654 = -504						; size = 16
$T70655 = -480						; size = 16
_Result$ = -264						; size = 64
_SrcB3$ = -192						; size = 16
_SrcB2$ = -168						; size = 16
_SrcB1$ = -144						; size = 16
_SrcB0$ = -120						; size = 16
_SrcA3$ = -96						; size = 16
_SrcA2$ = -72						; size = 16
_SrcA1$ = -48						; size = 16
_SrcA0$ = -24						; size = 16
__$ArrayPad$ = -4					; size = 4
___$ReturnUdt$ = 8					; size = 4
_m1$ = 12						; size = 4
_m2$ = 16						; size = 4
??$?DM@detail@glm@@YA?AU?$tmat4x4@M@01@ABU201@0@Z PROC	; glm::detail::operator*<float>, COMDAT

; 762  :     {

	push	ebp
	mov	ebp, esp
	sub	esp, 1132				; 0000046cH
	push	ebx
	push	esi
	push	edi
	lea	edi, DWORD PTR [ebp-1132]
	mov	ecx, 283				; 0000011bH
	mov	eax, -858993460				; ccccccccH
	rep stosd
	mov	eax, DWORD PTR ___security_cookie
	xor	eax, ebp
	mov	DWORD PTR __$ArrayPad$[ebp], eax

; 763  : 		typename tmat4x4<T>::col_type const SrcA0 = m1[0];

	push	0
	mov	ecx, DWORD PTR _m1$[ebp]
	call	??A?$tmat4x4@M@detail@glm@@QBEABU?$tvec4@M@12@I@Z ; glm::detail::tmat4x4<float>::operator[]
	push	eax
	lea	ecx, DWORD PTR _SrcA0$[ebp]
	call	??0?$tvec4@M@detail@glm@@QAE@ABU012@@Z	; glm::detail::tvec4<float>::tvec4<float>

; 764  : 		typename tmat4x4<T>::col_type const SrcA1 = m1[1];

	push	1
	mov	ecx, DWORD PTR _m1$[ebp]
	call	??A?$tmat4x4@M@detail@glm@@QBEABU?$tvec4@M@12@I@Z ; glm::detail::tmat4x4<float>::operator[]
	push	eax
	lea	ecx, DWORD PTR _SrcA1$[ebp]
	call	??0?$tvec4@M@detail@glm@@QAE@ABU012@@Z	; glm::detail::tvec4<float>::tvec4<float>

; 765  : 		typename tmat4x4<T>::col_type const SrcA2 = m1[2];

	push	2
	mov	ecx, DWORD PTR _m1$[ebp]
	call	??A?$tmat4x4@M@detail@glm@@QBEABU?$tvec4@M@12@I@Z ; glm::detail::tmat4x4<float>::operator[]
	push	eax
	lea	ecx, DWORD PTR _SrcA2$[ebp]
	call	??0?$tvec4@M@detail@glm@@QAE@ABU012@@Z	; glm::detail::tvec4<float>::tvec4<float>

; 766  : 		typename tmat4x4<T>::col_type const SrcA3 = m1[3];

	push	3
	mov	ecx, DWORD PTR _m1$[ebp]
	call	??A?$tmat4x4@M@detail@glm@@QBEABU?$tvec4@M@12@I@Z ; glm::detail::tmat4x4<float>::operator[]
	push	eax
	lea	ecx, DWORD PTR _SrcA3$[ebp]
	call	??0?$tvec4@M@detail@glm@@QAE@ABU012@@Z	; glm::detail::tvec4<float>::tvec4<float>

; 767  : 
; 768  : 		typename tmat4x4<T>::col_type const SrcB0 = m2[0];

	push	0
	mov	ecx, DWORD PTR _m2$[ebp]
	call	??A?$tmat4x4@M@detail@glm@@QBEABU?$tvec4@M@12@I@Z ; glm::detail::tmat4x4<float>::operator[]
	push	eax
	lea	ecx, DWORD PTR _SrcB0$[ebp]
	call	??0?$tvec4@M@detail@glm@@QAE@ABU012@@Z	; glm::detail::tvec4<float>::tvec4<float>

; 769  : 		typename tmat4x4<T>::col_type const SrcB1 = m2[1];

	push	1
	mov	ecx, DWORD PTR _m2$[ebp]
	call	??A?$tmat4x4@M@detail@glm@@QBEABU?$tvec4@M@12@I@Z ; glm::detail::tmat4x4<float>::operator[]
	push	eax
	lea	ecx, DWORD PTR _SrcB1$[ebp]
	call	??0?$tvec4@M@detail@glm@@QAE@ABU012@@Z	; glm::detail::tvec4<float>::tvec4<float>

; 770  : 		typename tmat4x4<T>::col_type const SrcB2 = m2[2];

	push	2
	mov	ecx, DWORD PTR _m2$[ebp]
	call	??A?$tmat4x4@M@detail@glm@@QBEABU?$tvec4@M@12@I@Z ; glm::detail::tmat4x4<float>::operator[]
	push	eax
	lea	ecx, DWORD PTR _SrcB2$[ebp]
	call	??0?$tvec4@M@detail@glm@@QAE@ABU012@@Z	; glm::detail::tvec4<float>::tvec4<float>

; 771  : 		typename tmat4x4<T>::col_type const SrcB3 = m2[3];

	push	3
	mov	ecx, DWORD PTR _m2$[ebp]
	call	??A?$tmat4x4@M@detail@glm@@QBEABU?$tvec4@M@12@I@Z ; glm::detail::tmat4x4<float>::operator[]
	push	eax
	lea	ecx, DWORD PTR _SrcB3$[ebp]
	call	??0?$tvec4@M@detail@glm@@QAE@ABU012@@Z	; glm::detail::tvec4<float>::tvec4<float>

; 772  : 
; 773  :         tmat4x4<T> Result(tmat4x4<T>::null);

	push	0
	lea	ecx, DWORD PTR _Result$[ebp]
	call	??0?$tmat4x4@M@detail@glm@@QAE@W4ctor@012@@Z ; glm::detail::tmat4x4<float>::tmat4x4<float>

; 774  : 		Result[0] = SrcA0 * SrcB0[0] + SrcA1 * SrcB0[1] + SrcA2 * SrcB0[2] + SrcA3 * SrcB0[3];

	push	3
	lea	ecx, DWORD PTR _SrcB0$[ebp]
	call	??A?$tvec4@M@detail@glm@@QBEABMI@Z	; glm::detail::tvec4<float>::operator[]
	push	eax
	lea	eax, DWORD PTR _SrcA3$[ebp]
	push	eax
	lea	ecx, DWORD PTR $T70644[ebp]
	push	ecx
	call	??$?DM@detail@glm@@YA?AU?$tvec4@M@01@ABU201@ABM@Z ; glm::detail::operator*<float>
	add	esp, 12					; 0000000cH
	push	eax
	push	2
	lea	ecx, DWORD PTR _SrcB0$[ebp]
	call	??A?$tvec4@M@detail@glm@@QBEABMI@Z	; glm::detail::tvec4<float>::operator[]
	push	eax
	lea	edx, DWORD PTR _SrcA2$[ebp]
	push	edx
	lea	eax, DWORD PTR $T70645[ebp]
	push	eax
	call	??$?DM@detail@glm@@YA?AU?$tvec4@M@01@ABU201@ABM@Z ; glm::detail::operator*<float>
	add	esp, 12					; 0000000cH
	push	eax
	push	1
	lea	ecx, DWORD PTR _SrcB0$[ebp]
	call	??A?$tvec4@M@detail@glm@@QBEABMI@Z	; glm::detail::tvec4<float>::operator[]
	push	eax
	lea	ecx, DWORD PTR _SrcA1$[ebp]
	push	ecx
	lea	edx, DWORD PTR $T70646[ebp]
	push	edx
	call	??$?DM@detail@glm@@YA?AU?$tvec4@M@01@ABU201@ABM@Z ; glm::detail::operator*<float>
	add	esp, 12					; 0000000cH
	push	eax
	push	0
	lea	ecx, DWORD PTR _SrcB0$[ebp]
	call	??A?$tvec4@M@detail@glm@@QBEABMI@Z	; glm::detail::tvec4<float>::operator[]
	push	eax
	lea	eax, DWORD PTR _SrcA0$[ebp]
	push	eax
	lea	ecx, DWORD PTR $T70647[ebp]
	push	ecx
	call	??$?DM@detail@glm@@YA?AU?$tvec4@M@01@ABU201@ABM@Z ; glm::detail::operator*<float>
	add	esp, 12					; 0000000cH
	push	eax
	lea	edx, DWORD PTR $T70648[ebp]
	push	edx
	call	??$?HM@detail@glm@@YA?AU?$tvec4@M@01@ABU201@0@Z ; glm::detail::operator+<float>
	add	esp, 12					; 0000000cH
	push	eax
	lea	eax, DWORD PTR $T70649[ebp]
	push	eax
	call	??$?HM@detail@glm@@YA?AU?$tvec4@M@01@ABU201@0@Z ; glm::detail::operator+<float>
	add	esp, 12					; 0000000cH
	push	eax
	lea	ecx, DWORD PTR $T70650[ebp]
	push	ecx
	call	??$?HM@detail@glm@@YA?AU?$tvec4@M@01@ABU201@0@Z ; glm::detail::operator+<float>
	add	esp, 12					; 0000000cH
	push	eax
	push	0
	lea	ecx, DWORD PTR _Result$[ebp]
	call	??A?$tmat4x4@M@detail@glm@@QAEAAU?$tvec4@M@12@I@Z ; glm::detail::tmat4x4<float>::operator[]
	mov	ecx, eax
	call	??4?$tvec4@M@detail@glm@@QAEAAU012@ABU012@@Z ; glm::detail::tvec4<float>::operator=

; 775  : 		Result[1] = SrcA0 * SrcB1[0] + SrcA1 * SrcB1[1] + SrcA2 * SrcB1[2] + SrcA3 * SrcB1[3];

	push	3
	lea	ecx, DWORD PTR _SrcB1$[ebp]
	call	??A?$tvec4@M@detail@glm@@QBEABMI@Z	; glm::detail::tvec4<float>::operator[]
	push	eax
	lea	eax, DWORD PTR _SrcA3$[ebp]
	push	eax
	lea	ecx, DWORD PTR $T70651[ebp]
	push	ecx
	call	??$?DM@detail@glm@@YA?AU?$tvec4@M@01@ABU201@ABM@Z ; glm::detail::operator*<float>
	add	esp, 12					; 0000000cH
	push	eax
	push	2
	lea	ecx, DWORD PTR _SrcB1$[ebp]
	call	??A?$tvec4@M@detail@glm@@QBEABMI@Z	; glm::detail::tvec4<float>::operator[]
	push	eax
	lea	edx, DWORD PTR _SrcA2$[ebp]
	push	edx
	lea	eax, DWORD PTR $T70652[ebp]
	push	eax
	call	??$?DM@detail@glm@@YA?AU?$tvec4@M@01@ABU201@ABM@Z ; glm::detail::operator*<float>
	add	esp, 12					; 0000000cH
	push	eax
	push	1
	lea	ecx, DWORD PTR _SrcB1$[ebp]
	call	??A?$tvec4@M@detail@glm@@QBEABMI@Z	; glm::detail::tvec4<float>::operator[]
	push	eax
	lea	ecx, DWORD PTR _SrcA1$[ebp]
	push	ecx
	lea	edx, DWORD PTR $T70653[ebp]
	push	edx
	call	??$?DM@detail@glm@@YA?AU?$tvec4@M@01@ABU201@ABM@Z ; glm::detail::operator*<float>
	add	esp, 12					; 0000000cH
	push	eax
	push	0
	lea	ecx, DWORD PTR _SrcB1$[ebp]
	call	??A?$tvec4@M@detail@glm@@QBEABMI@Z	; glm::detail::tvec4<float>::operator[]
	push	eax
	lea	eax, DWORD PTR _SrcA0$[ebp]
	push	eax
	lea	ecx, DWORD PTR $T70654[ebp]
	push	ecx
	call	??$?DM@detail@glm@@YA?AU?$tvec4@M@01@ABU201@ABM@Z ; glm::detail::operator*<float>
	add	esp, 12					; 0000000cH
	push	eax
	lea	edx, DWORD PTR $T70655[ebp]
	push	edx
	call	??$?HM@detail@glm@@YA?AU?$tvec4@M@01@ABU201@0@Z ; glm::detail::operator+<float>
	add	esp, 12					; 0000000cH
	push	eax
	lea	eax, DWORD PTR $T70656[ebp]
	push	eax
	call	??$?HM@detail@glm@@YA?AU?$tvec4@M@01@ABU201@0@Z ; glm::detail::operator+<float>
	add	esp, 12					; 0000000cH
	push	eax
	lea	ecx, DWORD PTR $T70657[ebp]
	push	ecx
	call	??$?HM@detail@glm@@YA?AU?$tvec4@M@01@ABU201@0@Z ; glm::detail::operator+<float>
	add	esp, 12					; 0000000cH
	push	eax
	push	1
	lea	ecx, DWORD PTR _Result$[ebp]
	call	??A?$tmat4x4@M@detail@glm@@QAEAAU?$tvec4@M@12@I@Z ; glm::detail::tmat4x4<float>::operator[]
	mov	ecx, eax
	call	??4?$tvec4@M@detail@glm@@QAEAAU012@ABU012@@Z ; glm::detail::tvec4<float>::operator=

; 776  : 		Result[2] = SrcA0 * SrcB2[0] + SrcA1 * SrcB2[1] + SrcA2 * SrcB2[2] + SrcA3 * SrcB2[3];

	push	3
	lea	ecx, DWORD PTR _SrcB2$[ebp]
	call	??A?$tvec4@M@detail@glm@@QBEABMI@Z	; glm::detail::tvec4<float>::operator[]
	push	eax
	lea	eax, DWORD PTR _SrcA3$[ebp]
	push	eax
	lea	ecx, DWORD PTR $T70658[ebp]
	push	ecx
	call	??$?DM@detail@glm@@YA?AU?$tvec4@M@01@ABU201@ABM@Z ; glm::detail::operator*<float>
	add	esp, 12					; 0000000cH
	push	eax
	push	2
	lea	ecx, DWORD PTR _SrcB2$[ebp]
	call	??A?$tvec4@M@detail@glm@@QBEABMI@Z	; glm::detail::tvec4<float>::operator[]
	push	eax
	lea	edx, DWORD PTR _SrcA2$[ebp]
	push	edx
	lea	eax, DWORD PTR $T70659[ebp]
	push	eax
	call	??$?DM@detail@glm@@YA?AU?$tvec4@M@01@ABU201@ABM@Z ; glm::detail::operator*<float>
	add	esp, 12					; 0000000cH
	push	eax
	push	1
	lea	ecx, DWORD PTR _SrcB2$[ebp]
	call	??A?$tvec4@M@detail@glm@@QBEABMI@Z	; glm::detail::tvec4<float>::operator[]
	push	eax
	lea	ecx, DWORD PTR _SrcA1$[ebp]
	push	ecx
	lea	edx, DWORD PTR $T70660[ebp]
	push	edx
	call	??$?DM@detail@glm@@YA?AU?$tvec4@M@01@ABU201@ABM@Z ; glm::detail::operator*<float>
	add	esp, 12					; 0000000cH
	push	eax
	push	0
	lea	ecx, DWORD PTR _SrcB2$[ebp]
	call	??A?$tvec4@M@detail@glm@@QBEABMI@Z	; glm::detail::tvec4<float>::operator[]
	push	eax
	lea	eax, DWORD PTR _SrcA0$[ebp]
	push	eax
	lea	ecx, DWORD PTR $T70661[ebp]
	push	ecx
	call	??$?DM@detail@glm@@YA?AU?$tvec4@M@01@ABU201@ABM@Z ; glm::detail::operator*<float>
	add	esp, 12					; 0000000cH
	push	eax
	lea	edx, DWORD PTR $T70662[ebp]
	push	edx
	call	??$?HM@detail@glm@@YA?AU?$tvec4@M@01@ABU201@0@Z ; glm::detail::operator+<float>
	add	esp, 12					; 0000000cH
	push	eax
	lea	eax, DWORD PTR $T70663[ebp]
	push	eax
	call	??$?HM@detail@glm@@YA?AU?$tvec4@M@01@ABU201@0@Z ; glm::detail::operator+<float>
	add	esp, 12					; 0000000cH
	push	eax
	lea	ecx, DWORD PTR $T70664[ebp]
	push	ecx
	call	??$?HM@detail@glm@@YA?AU?$tvec4@M@01@ABU201@0@Z ; glm::detail::operator+<float>
	add	esp, 12					; 0000000cH
	push	eax
	push	2
	lea	ecx, DWORD PTR _Result$[ebp]
	call	??A?$tmat4x4@M@detail@glm@@QAEAAU?$tvec4@M@12@I@Z ; glm::detail::tmat4x4<float>::operator[]
	mov	ecx, eax
	call	??4?$tvec4@M@detail@glm@@QAEAAU012@ABU012@@Z ; glm::detail::tvec4<float>::operator=

; 777  : 		Result[3] = SrcA0 * SrcB3[0] + SrcA1 * SrcB3[1] + SrcA2 * SrcB3[2] + SrcA3 * SrcB3[3];

	push	3
	lea	ecx, DWORD PTR _SrcB3$[ebp]
	call	??A?$tvec4@M@detail@glm@@QBEABMI@Z	; glm::detail::tvec4<float>::operator[]
	push	eax
	lea	eax, DWORD PTR _SrcA3$[ebp]
	push	eax
	lea	ecx, DWORD PTR $T70665[ebp]
	push	ecx
	call	??$?DM@detail@glm@@YA?AU?$tvec4@M@01@ABU201@ABM@Z ; glm::detail::operator*<float>
	add	esp, 12					; 0000000cH
	push	eax
	push	2
	lea	ecx, DWORD PTR _SrcB3$[ebp]
	call	??A?$tvec4@M@detail@glm@@QBEABMI@Z	; glm::detail::tvec4<float>::operator[]
	push	eax
	lea	edx, DWORD PTR _SrcA2$[ebp]
	push	edx
	lea	eax, DWORD PTR $T70666[ebp]
	push	eax
	call	??$?DM@detail@glm@@YA?AU?$tvec4@M@01@ABU201@ABM@Z ; glm::detail::operator*<float>
	add	esp, 12					; 0000000cH
	push	eax
	push	1
	lea	ecx, DWORD PTR _SrcB3$[ebp]
	call	??A?$tvec4@M@detail@glm@@QBEABMI@Z	; glm::detail::tvec4<float>::operator[]
	push	eax
	lea	ecx, DWORD PTR _SrcA1$[ebp]
	push	ecx
	lea	edx, DWORD PTR $T70667[ebp]
	push	edx
	call	??$?DM@detail@glm@@YA?AU?$tvec4@M@01@ABU201@ABM@Z ; glm::detail::operator*<float>
	add	esp, 12					; 0000000cH
	push	eax
	push	0
	lea	ecx, DWORD PTR _SrcB3$[ebp]
	call	??A?$tvec4@M@detail@glm@@QBEABMI@Z	; glm::detail::tvec4<float>::operator[]
	push	eax
	lea	eax, DWORD PTR _SrcA0$[ebp]
	push	eax
	lea	ecx, DWORD PTR $T70668[ebp]
	push	ecx
	call	??$?DM@detail@glm@@YA?AU?$tvec4@M@01@ABU201@ABM@Z ; glm::detail::operator*<float>
	add	esp, 12					; 0000000cH
	push	eax
	lea	edx, DWORD PTR $T70669[ebp]
	push	edx
	call	??$?HM@detail@glm@@YA?AU?$tvec4@M@01@ABU201@0@Z ; glm::detail::operator+<float>
	add	esp, 12					; 0000000cH
	push	eax
	lea	eax, DWORD PTR $T70670[ebp]
	push	eax
	call	??$?HM@detail@glm@@YA?AU?$tvec4@M@01@ABU201@0@Z ; glm::detail::operator+<float>
	add	esp, 12					; 0000000cH
	push	eax
	lea	ecx, DWORD PTR $T70671[ebp]
	push	ecx
	call	??$?HM@detail@glm@@YA?AU?$tvec4@M@01@ABU201@0@Z ; glm::detail::operator+<float>
	add	esp, 12					; 0000000cH
	push	eax
	push	3
	lea	ecx, DWORD PTR _Result$[ebp]
	call	??A?$tmat4x4@M@detail@glm@@QAEAAU?$tvec4@M@12@I@Z ; glm::detail::tmat4x4<float>::operator[]
	mov	ecx, eax
	call	??4?$tvec4@M@detail@glm@@QAEAAU012@ABU012@@Z ; glm::detail::tvec4<float>::operator=

; 778  :         return Result;

	lea	eax, DWORD PTR _Result$[ebp]
	push	eax
	mov	ecx, DWORD PTR ___$ReturnUdt$[ebp]
	call	??0?$tmat4x4@M@detail@glm@@QAE@ABU012@@Z ; glm::detail::tmat4x4<float>::tmat4x4<float>
	mov	eax, DWORD PTR ___$ReturnUdt$[ebp]

; 779  :     }

	push	edx
	mov	ecx, ebp
	push	eax
	lea	edx, DWORD PTR $LN13@operator
	call	@_RTC_CheckStackVars@8
	pop	eax
	pop	edx
	pop	edi
	pop	esi
	pop	ebx
	mov	ecx, DWORD PTR __$ArrayPad$[ebp]
	xor	ecx, ebp
	call	@__security_check_cookie@4
	add	esp, 1132				; 0000046cH
	cmp	ebp, esp
	call	__RTC_CheckEsp
	mov	esp, ebp
	pop	ebp
	ret	0
	npad	1
$LN13@operator:
	DD	9
	DD	$LN12@operator
$LN12@operator:
	DD	-24					; ffffffe8H
	DD	16					; 00000010H
	DD	$LN3@operator
	DD	-48					; ffffffd0H
	DD	16					; 00000010H
	DD	$LN4@operator
	DD	-72					; ffffffb8H
	DD	16					; 00000010H
	DD	$LN5@operator
	DD	-96					; ffffffa0H
	DD	16					; 00000010H
	DD	$LN6@operator
	DD	-120					; ffffff88H
	DD	16					; 00000010H
	DD	$LN7@operator
	DD	-144					; ffffff70H
	DD	16					; 00000010H
	DD	$LN8@operator
	DD	-168					; ffffff58H
	DD	16					; 00000010H
	DD	$LN9@operator
	DD	-192					; ffffff40H
	DD	16					; 00000010H
	DD	$LN10@operator
	DD	-264					; fffffef8H
	DD	64					; 00000040H
	DD	$LN11@operator
$LN11@operator:
	DB	82					; 00000052H
	DB	101					; 00000065H
	DB	115					; 00000073H
	DB	117					; 00000075H
	DB	108					; 0000006cH
	DB	116					; 00000074H
	DB	0
$LN10@operator:
	DB	83					; 00000053H
	DB	114					; 00000072H
	DB	99					; 00000063H
	DB	66					; 00000042H
	DB	51					; 00000033H
	DB	0
$LN9@operator:
	DB	83					; 00000053H
	DB	114					; 00000072H
	DB	99					; 00000063H
	DB	66					; 00000042H
	DB	50					; 00000032H
	DB	0
$LN8@operator:
	DB	83					; 00000053H
	DB	114					; 00000072H
	DB	99					; 00000063H
	DB	66					; 00000042H
	DB	49					; 00000031H
	DB	0
$LN7@operator:
	DB	83					; 00000053H
	DB	114					; 00000072H
	DB	99					; 00000063H
	DB	66					; 00000042H
	DB	48					; 00000030H
	DB	0
$LN6@operator:
	DB	83					; 00000053H
	DB	114					; 00000072H
	DB	99					; 00000063H
	DB	65					; 00000041H
	DB	51					; 00000033H
	DB	0
$LN5@operator:
	DB	83					; 00000053H
	DB	114					; 00000072H
	DB	99					; 00000063H
	DB	65					; 00000041H
	DB	50					; 00000032H
	DB	0
$LN4@operator:
	DB	83					; 00000053H
	DB	114					; 00000072H
	DB	99					; 00000063H
	DB	65					; 00000041H
	DB	49					; 00000031H
	DB	0
$LN3@operator:
	DB	83					; 00000053H
	DB	114					; 00000072H
	DB	99					; 00000063H
	DB	65					; 00000041H
	DB	48					; 00000030H
	DB	0
??$?DM@detail@glm@@YA?AU?$tmat4x4@M@01@ABU201@0@Z ENDP	; glm::detail::operator*<float>
; Function compile flags: /Odtp /RTCsu /ZI
; File c:\opengl\glm-0.9.3.1\glm\core\type_vec4.inl
_TEXT	ENDS
;	COMDAT ??$?DM@detail@glm@@YA?AU?$tvec4@M@01@ABU201@ABM@Z
_TEXT	SEGMENT
$T70685 = -236						; size = 4
$T70686 = -224						; size = 4
$T70687 = -212						; size = 4
$T70688 = -200						; size = 4
___$ReturnUdt$ = 8					; size = 4
_v$ = 12						; size = 4
_s$ = 16						; size = 4
??$?DM@detail@glm@@YA?AU?$tvec4@M@01@ABU201@ABM@Z PROC	; glm::detail::operator*<float>, COMDAT

; 892  : 	{

	push	ebp
	mov	ebp, esp
	sub	esp, 240				; 000000f0H
	push	ebx
	push	esi
	push	edi
	lea	edi, DWORD PTR [ebp-240]
	mov	ecx, 60					; 0000003cH
	mov	eax, -858993460				; ccccccccH
	rep stosd

; 893  : 		return tvec4<T>(
; 894  : 			v.x * s,
; 895  : 			v.y * s,
; 896  : 			v.z * s,
; 897  : 			v.w * s);

	mov	eax, DWORD PTR _v$[ebp]
	fld	DWORD PTR [eax+12]
	mov	ecx, DWORD PTR _s$[ebp]
	fmul	DWORD PTR [ecx]
	fstp	DWORD PTR $T70685[ebp]
	mov	edx, DWORD PTR _v$[ebp]
	fld	DWORD PTR [edx+8]
	mov	eax, DWORD PTR _s$[ebp]
	fmul	DWORD PTR [eax]
	fstp	DWORD PTR $T70686[ebp]
	mov	ecx, DWORD PTR _v$[ebp]
	fld	DWORD PTR [ecx+4]
	mov	edx, DWORD PTR _s$[ebp]
	fmul	DWORD PTR [edx]
	fstp	DWORD PTR $T70687[ebp]
	mov	eax, DWORD PTR _v$[ebp]
	fld	DWORD PTR [eax]
	mov	ecx, DWORD PTR _s$[ebp]
	fmul	DWORD PTR [ecx]
	fstp	DWORD PTR $T70688[ebp]
	lea	edx, DWORD PTR $T70685[ebp]
	push	edx
	lea	eax, DWORD PTR $T70686[ebp]
	push	eax
	lea	ecx, DWORD PTR $T70687[ebp]
	push	ecx
	lea	edx, DWORD PTR $T70688[ebp]
	push	edx
	mov	ecx, DWORD PTR ___$ReturnUdt$[ebp]
	call	??0?$tvec4@M@detail@glm@@QAE@ABM000@Z	; glm::detail::tvec4<float>::tvec4<float>
	mov	eax, DWORD PTR ___$ReturnUdt$[ebp]

; 898  : 	}

	pop	edi
	pop	esi
	pop	ebx
	add	esp, 240				; 000000f0H
	cmp	ebp, esp
	call	__RTC_CheckEsp
	mov	esp, ebp
	pop	ebp
	ret	0
??$?DM@detail@glm@@YA?AU?$tvec4@M@01@ABU201@ABM@Z ENDP	; glm::detail::operator*<float>
; Function compile flags: /Odtp /RTCsu /ZI
; File c:\opengl\glm-0.9.3.1\glm\core\type_mat4x4.inl
_TEXT	ENDS
;	COMDAT ??0?$tmat4x4@M@detail@glm@@QAE@ABU012@@Z
_TEXT	SEGMENT
_this$ = -8						; size = 4
_m$ = 8							; size = 4
??0?$tmat4x4@M@detail@glm@@QAE@ABU012@@Z PROC		; glm::detail::tmat4x4<float>::tmat4x4<float>, COMDAT
; _this$ = ecx

; 94   :     {

	push	ebp
	mov	ebp, esp
	sub	esp, 204				; 000000ccH
	push	ebx
	push	esi
	push	edi
	push	ecx
	lea	edi, DWORD PTR [ebp-204]
	mov	ecx, 51					; 00000033H
	mov	eax, -858993460				; ccccccccH
	rep stosd
	pop	ecx
	mov	DWORD PTR _this$[ebp], ecx
	push	OFFSET ??0?$tvec4@M@detail@glm@@QAE@XZ	; glm::detail::tvec4<float>::tvec4<float>
	push	4
	push	16					; 00000010H
	mov	eax, DWORD PTR _this$[ebp]
	push	eax
	call	??_H@YGXPAXIHP6EPAX0@Z@Z

; 95   :         this->value[0] = m.value[0];

	mov	eax, DWORD PTR _m$[ebp]
	push	eax
	mov	ecx, DWORD PTR _this$[ebp]
	call	??4?$tvec4@M@detail@glm@@QAEAAU012@ABU012@@Z ; glm::detail::tvec4<float>::operator=

; 96   :         this->value[1] = m.value[1];

	mov	eax, DWORD PTR _m$[ebp]
	add	eax, 16					; 00000010H
	push	eax
	mov	ecx, DWORD PTR _this$[ebp]
	add	ecx, 16					; 00000010H
	call	??4?$tvec4@M@detail@glm@@QAEAAU012@ABU012@@Z ; glm::detail::tvec4<float>::operator=

; 97   :         this->value[2] = m.value[2];

	mov	eax, DWORD PTR _m$[ebp]
	add	eax, 32					; 00000020H
	push	eax
	mov	ecx, DWORD PTR _this$[ebp]
	add	ecx, 32					; 00000020H
	call	??4?$tvec4@M@detail@glm@@QAEAAU012@ABU012@@Z ; glm::detail::tvec4<float>::operator=

; 98   :         this->value[3] = m.value[3];

	mov	eax, DWORD PTR _m$[ebp]
	add	eax, 48					; 00000030H
	push	eax
	mov	ecx, DWORD PTR _this$[ebp]
	add	ecx, 48					; 00000030H
	call	??4?$tvec4@M@detail@glm@@QAEAAU012@ABU012@@Z ; glm::detail::tvec4<float>::operator=

; 99   :     }

	mov	eax, DWORD PTR _this$[ebp]
	pop	edi
	pop	esi
	pop	ebx
	add	esp, 204				; 000000ccH
	cmp	ebp, esp
	call	__RTC_CheckEsp
	mov	esp, ebp
	pop	ebp
	ret	4
??0?$tmat4x4@M@detail@glm@@QAE@ABU012@@Z ENDP		; glm::detail::tmat4x4<float>::tmat4x4<float>
_TEXT	ENDS
PUBLIC	__real@bf800000
PUBLIC	??$tan@M@glm@@YAMABM@Z				; glm::tan<float>
PUBLIC	??$radians@M@glm@@YAMABM@Z			; glm::radians<float>
PUBLIC	__real@4000000000000000
PUBLIC	__$ArrayPad$
;	COMDAT __real@bf800000
; File c:\opengl\glm-0.9.3.1\glm\gtc\matrix_transform.inl
CONST	SEGMENT
__real@bf800000 DD 0bf800000r			; -1
CONST	ENDS
;	COMDAT __real@4000000000000000
CONST	SEGMENT
__real@4000000000000000 DQ 04000000000000000r	; 2
; Function compile flags: /Odtp /RTCsu /ZI
CONST	ENDS
;	COMDAT ??$perspective@M@glm@@YA?AU?$tmat4x4@M@detail@0@ABM000@Z
_TEXT	SEGMENT
tv259 = -372						; size = 8
tv257 = -372						; size = 4
tv254 = -372						; size = 8
tv251 = -372						; size = 8
tv233 = -368						; size = 4
$T70694 = -360						; size = 4
$T70695 = -348						; size = 4
$T70696 = -336						; size = 4
_Result$ = -132						; size = 64
_top$ = -60						; size = 4
_bottom$ = -48						; size = 4
_right$ = -36						; size = 4
_left$ = -24						; size = 4
_range$ = -12						; size = 4
__$ArrayPad$ = -4					; size = 4
___$ReturnUdt$ = 8					; size = 4
_fovy$ = 12						; size = 4
_aspect$ = 16						; size = 4
_zNear$ = 20						; size = 4
_zFar$ = 24						; size = 4
??$perspective@M@glm@@YA?AU?$tmat4x4@M@detail@0@ABM000@Z PROC ; glm::perspective<float>, COMDAT

; 230  : 	{

	push	ebp
	mov	ebp, esp
	sub	esp, 372				; 00000174H
	push	ebx
	push	esi
	push	edi
	lea	edi, DWORD PTR [ebp-372]
	mov	ecx, 93					; 0000005dH
	mov	eax, -858993460				; ccccccccH
	rep stosd
	mov	eax, DWORD PTR ___security_cookie
	xor	eax, ebp
	mov	DWORD PTR __$ArrayPad$[ebp], eax

; 231  : 		valType range = tan(radians(fovy / valType(2))) * zNear;	

	mov	eax, DWORD PTR _fovy$[ebp]
	fld	DWORD PTR [eax]
	fdiv	QWORD PTR __real@4000000000000000
	fstp	DWORD PTR $T70695[ebp]
	lea	ecx, DWORD PTR $T70695[ebp]
	push	ecx
	call	??$radians@M@glm@@YAMABM@Z		; glm::radians<float>
	add	esp, 4
	fstp	DWORD PTR $T70694[ebp]
	lea	edx, DWORD PTR $T70694[ebp]
	push	edx
	call	??$tan@M@glm@@YAMABM@Z			; glm::tan<float>
	add	esp, 4
	mov	eax, DWORD PTR _zNear$[ebp]
	fmul	DWORD PTR [eax]
	fstp	DWORD PTR _range$[ebp]

; 232  : 		valType left = -range * aspect;

	fld	DWORD PTR _range$[ebp]
	fchs
	mov	eax, DWORD PTR _aspect$[ebp]
	fmul	DWORD PTR [eax]
	fstp	DWORD PTR _left$[ebp]

; 233  : 		valType right = range * aspect;

	fld	DWORD PTR _range$[ebp]
	mov	eax, DWORD PTR _aspect$[ebp]
	fmul	DWORD PTR [eax]
	fstp	DWORD PTR _right$[ebp]

; 234  : 		valType bottom = -range;

	fld	DWORD PTR _range$[ebp]
	fchs
	fstp	DWORD PTR _bottom$[ebp]

; 235  : 		valType top = range;

	fld	DWORD PTR _range$[ebp]
	fstp	DWORD PTR _top$[ebp]

; 236  : 
; 237  : 		detail::tmat4x4<valType> Result(valType(0));

	fldz
	fstp	DWORD PTR $T70696[ebp]
	lea	eax, DWORD PTR $T70696[ebp]
	push	eax
	lea	ecx, DWORD PTR _Result$[ebp]
	call	??0?$tmat4x4@M@detail@glm@@QAE@ABM@Z	; glm::detail::tmat4x4<float>::tmat4x4<float>

; 238  : 		Result[0][0] = (valType(2) * zNear) / (right - left);

	mov	eax, DWORD PTR _zNear$[ebp]
	fld	DWORD PTR [eax]
	fmul	QWORD PTR __real@4000000000000000
	fld	DWORD PTR _right$[ebp]
	fsub	DWORD PTR _left$[ebp]
	fdivp	ST(1), ST(0)
	push	0
	push	0
	lea	ecx, DWORD PTR _Result$[ebp]
	fstp	QWORD PTR tv251[ebp]
	call	??A?$tmat4x4@M@detail@glm@@QAEAAU?$tvec4@M@12@I@Z ; glm::detail::tmat4x4<float>::operator[]
	mov	ecx, eax
	call	??A?$tvec4@M@detail@glm@@QAEAAMI@Z	; glm::detail::tvec4<float>::operator[]
	fld	QWORD PTR tv251[ebp]
	fstp	DWORD PTR [eax]

; 239  : 		Result[1][1] = (valType(2) * zNear) / (top - bottom);

	mov	eax, DWORD PTR _zNear$[ebp]
	fld	DWORD PTR [eax]
	fmul	QWORD PTR __real@4000000000000000
	fld	DWORD PTR _top$[ebp]
	fsub	DWORD PTR _bottom$[ebp]
	fdivp	ST(1), ST(0)
	push	1
	push	1
	lea	ecx, DWORD PTR _Result$[ebp]
	fstp	QWORD PTR tv254[ebp]
	call	??A?$tmat4x4@M@detail@glm@@QAEAAU?$tvec4@M@12@I@Z ; glm::detail::tmat4x4<float>::operator[]
	mov	ecx, eax
	call	??A?$tvec4@M@detail@glm@@QAEAAMI@Z	; glm::detail::tvec4<float>::operator[]
	fld	QWORD PTR tv254[ebp]
	fstp	DWORD PTR [eax]

; 240  : 		Result[2][2] = - (zFar + zNear) / (zFar - zNear);

	mov	eax, DWORD PTR _zFar$[ebp]
	fld	DWORD PTR [eax]
	mov	ecx, DWORD PTR _zNear$[ebp]
	fadd	DWORD PTR [ecx]
	fchs
	mov	edx, DWORD PTR _zFar$[ebp]
	fld	DWORD PTR [edx]
	mov	eax, DWORD PTR _zNear$[ebp]
	fsub	DWORD PTR [eax]
	fdivp	ST(1), ST(0)
	fstp	DWORD PTR tv233[ebp]
	fld	DWORD PTR tv233[ebp]
	push	2
	push	2
	lea	ecx, DWORD PTR _Result$[ebp]
	fstp	DWORD PTR tv257[ebp]
	call	??A?$tmat4x4@M@detail@glm@@QAEAAU?$tvec4@M@12@I@Z ; glm::detail::tmat4x4<float>::operator[]
	mov	ecx, eax
	call	??A?$tvec4@M@detail@glm@@QAEAAMI@Z	; glm::detail::tvec4<float>::operator[]
	fld	DWORD PTR tv257[ebp]
	fstp	DWORD PTR [eax]

; 241  : 		Result[2][3] = - valType(1);

	push	3
	push	2
	lea	ecx, DWORD PTR _Result$[ebp]
	call	??A?$tmat4x4@M@detail@glm@@QAEAAU?$tvec4@M@12@I@Z ; glm::detail::tmat4x4<float>::operator[]
	mov	ecx, eax
	call	??A?$tvec4@M@detail@glm@@QAEAAMI@Z	; glm::detail::tvec4<float>::operator[]
	fld	DWORD PTR __real@bf800000
	fstp	DWORD PTR [eax]

; 242  : 		Result[3][2] = - (valType(2) * zFar * zNear) / (zFar - zNear);

	mov	eax, DWORD PTR _zFar$[ebp]
	fld	DWORD PTR [eax]
	fmul	QWORD PTR __real@4000000000000000
	mov	ecx, DWORD PTR _zNear$[ebp]
	fmul	DWORD PTR [ecx]
	fchs
	mov	edx, DWORD PTR _zFar$[ebp]
	fld	DWORD PTR [edx]
	mov	eax, DWORD PTR _zNear$[ebp]
	fsub	DWORD PTR [eax]
	fdivp	ST(1), ST(0)
	push	2
	push	3
	lea	ecx, DWORD PTR _Result$[ebp]
	fstp	QWORD PTR tv259[ebp]
	call	??A?$tmat4x4@M@detail@glm@@QAEAAU?$tvec4@M@12@I@Z ; glm::detail::tmat4x4<float>::operator[]
	mov	ecx, eax
	call	??A?$tvec4@M@detail@glm@@QAEAAMI@Z	; glm::detail::tvec4<float>::operator[]
	fld	QWORD PTR tv259[ebp]
	fstp	DWORD PTR [eax]

; 243  : 		return Result;

	lea	eax, DWORD PTR _Result$[ebp]
	push	eax
	mov	ecx, DWORD PTR ___$ReturnUdt$[ebp]
	call	??0?$tmat4x4@M@detail@glm@@QAE@ABU012@@Z ; glm::detail::tmat4x4<float>::tmat4x4<float>
	mov	eax, DWORD PTR ___$ReturnUdt$[ebp]

; 244  : 	}

	push	edx
	mov	ecx, ebp
	push	eax
	lea	edx, DWORD PTR $LN5@perspectiv
	call	@_RTC_CheckStackVars@8
	pop	eax
	pop	edx
	pop	edi
	pop	esi
	pop	ebx
	mov	ecx, DWORD PTR __$ArrayPad$[ebp]
	xor	ecx, ebp
	call	@__security_check_cookie@4
	add	esp, 372				; 00000174H
	cmp	ebp, esp
	call	__RTC_CheckEsp
	mov	esp, ebp
	pop	ebp
	ret	0
$LN5@perspectiv:
	DD	1
	DD	$LN4@perspectiv
$LN4@perspectiv:
	DD	-132					; ffffff7cH
	DD	64					; 00000040H
	DD	$LN3@perspectiv
$LN3@perspectiv:
	DB	82					; 00000052H
	DB	101					; 00000065H
	DB	115					; 00000073H
	DB	117					; 00000075H
	DB	108					; 0000006cH
	DB	116					; 00000074H
	DB	0
??$perspective@M@glm@@YA?AU?$tmat4x4@M@detail@0@ABM000@Z ENDP ; glm::perspective<float>
; Function compile flags: /Odtp /RTCsu /ZI
; File c:\program files (x86)\microsoft visual studio 10.0\vc\include\xmemory
_TEXT	ENDS
;	COMDAT ??$?0D@?$allocator@U_Container_proxy@std@@@std@@QAE@ABV?$allocator@D@1@@Z
_TEXT	SEGMENT
_this$ = -8						; size = 4
___formal$ = 8						; size = 4
??$?0D@?$allocator@U_Container_proxy@std@@@std@@QAE@ABV?$allocator@D@1@@Z PROC ; std::allocator<std::_Container_proxy>::allocator<std::_Container_proxy><char>, COMDAT
; _this$ = ecx

; 170  : 		_ALLOCATOR(const _ALLOCATOR<_Other>&) _THROW0()

	push	ebp
	mov	ebp, esp
	sub	esp, 204				; 000000ccH
	push	ebx
	push	esi
	push	edi
	push	ecx
	lea	edi, DWORD PTR [ebp-204]
	mov	ecx, 51					; 00000033H
	mov	eax, -858993460				; ccccccccH
	rep stosd
	pop	ecx
	mov	DWORD PTR _this$[ebp], ecx

; 171  : 		{	// construct from a related allocator (do nothing)
; 172  : 		}

	mov	eax, DWORD PTR _this$[ebp]
	pop	edi
	pop	esi
	pop	ebx
	mov	esp, ebp
	pop	ebp
	ret	4
??$?0D@?$allocator@U_Container_proxy@std@@@std@@QAE@ABV?$allocator@D@1@@Z ENDP ; std::allocator<std::_Container_proxy>::allocator<std::_Container_proxy><char>
_TEXT	ENDS
PUBLIC	?destroy@?$allocator@U_Container_proxy@std@@@std@@QAEXPAU_Container_proxy@2@@Z ; std::allocator<std::_Container_proxy>::destroy
; Function compile flags: /Odtp /RTCsu /ZI
;	COMDAT ??$_Dest_val@V?$allocator@U_Container_proxy@std@@@std@@U_Container_proxy@2@@std@@YAXAAV?$allocator@U_Container_proxy@std@@@0@PAU_Container_proxy@0@@Z
_TEXT	SEGMENT
__Alval$ = 8						; size = 4
__Pdest$ = 12						; size = 4
??$_Dest_val@V?$allocator@U_Container_proxy@std@@@std@@U_Container_proxy@2@@std@@YAXAAV?$allocator@U_Container_proxy@std@@@0@PAU_Container_proxy@0@@Z PROC ; std::_Dest_val<std::allocator<std::_Container_proxy>,std::_Container_proxy>, COMDAT

; 286  : 	{	// destroy using allocator

	push	ebp
	mov	ebp, esp
	sub	esp, 192				; 000000c0H
	push	ebx
	push	esi
	push	edi
	lea	edi, DWORD PTR [ebp-192]
	mov	ecx, 48					; 00000030H
	mov	eax, -858993460				; ccccccccH
	rep stosd

; 287  : 	_Alval.destroy(_Pdest);

	mov	eax, DWORD PTR __Pdest$[ebp]
	push	eax
	mov	ecx, DWORD PTR __Alval$[ebp]
	call	?destroy@?$allocator@U_Container_proxy@std@@@std@@QAEXPAU_Container_proxy@2@@Z ; std::allocator<std::_Container_proxy>::destroy

; 288  : 	}

	pop	edi
	pop	esi
	pop	ebx
	add	esp, 192				; 000000c0H
	cmp	ebp, esp
	call	__RTC_CheckEsp
	mov	esp, ebp
	pop	ebp
	ret	0
??$_Dest_val@V?$allocator@U_Container_proxy@std@@@std@@U_Container_proxy@2@@std@@YAXAAV?$allocator@U_Container_proxy@std@@@0@PAU_Container_proxy@0@@Z ENDP ; std::_Dest_val<std::allocator<std::_Container_proxy>,std::_Container_proxy>
; Function compile flags: /Odtp /RTCsu /ZI
_TEXT	ENDS
;	COMDAT ??_H@YGXPAXIHP6EPAX0@Z@Z
_TEXT	SEGMENT
___t$ = 8						; size = 4
___s$ = 12						; size = 4
___n$ = 16						; size = 4
___f$ = 20						; size = 4
??_H@YGXPAXIHP6EPAX0@Z@Z PROC				; `vector constructor iterator', COMDAT
	push	ebp
	mov	ebp, esp
	sub	esp, 192				; 000000c0H
	push	ebx
	push	esi
	push	edi
	lea	edi, DWORD PTR [ebp-192]
	mov	ecx, 48					; 00000030H
	mov	eax, -858993460				; ccccccccH
	rep stosd
$LN2@vector:
	mov	eax, DWORD PTR ___n$[ebp]
	sub	eax, 1
	mov	DWORD PTR ___n$[ebp], eax
	js	SHORT $LN3@vector
	mov	esi, esp
	mov	ecx, DWORD PTR ___t$[ebp]
	call	DWORD PTR ___f$[ebp]
	cmp	esi, esp
	call	__RTC_CheckEsp
	mov	eax, DWORD PTR ___t$[ebp]
	add	eax, DWORD PTR ___s$[ebp]
	mov	DWORD PTR ___t$[ebp], eax
	jmp	SHORT $LN2@vector
$LN3@vector:
	pop	edi
	pop	esi
	pop	ebx
	add	esp, 192				; 000000c0H
	cmp	ebp, esp
	call	__RTC_CheckEsp
	mov	esp, ebp
	pop	ebp
	ret	16					; 00000010H
??_H@YGXPAXIHP6EPAX0@Z@Z ENDP				; `vector constructor iterator'
_TEXT	ENDS
PUBLIC	??$_Destroy@U_Container_proxy@std@@@std@@YAXPAU_Container_proxy@0@@Z ; std::_Destroy<std::_Container_proxy>
; Function compile flags: /Odtp /RTCsu /ZI
;	COMDAT ?destroy@?$allocator@U_Container_proxy@std@@@std@@QAEXPAU_Container_proxy@2@@Z
_TEXT	SEGMENT
_this$ = -8						; size = 4
__Ptr$ = 8						; size = 4
?destroy@?$allocator@U_Container_proxy@std@@@std@@QAEXPAU_Container_proxy@2@@Z PROC ; std::allocator<std::_Container_proxy>::destroy, COMDAT
; _this$ = ecx

; 212  : 		{	// destroy object at _Ptr

	push	ebp
	mov	ebp, esp
	sub	esp, 204				; 000000ccH
	push	ebx
	push	esi
	push	edi
	push	ecx
	lea	edi, DWORD PTR [ebp-204]
	mov	ecx, 51					; 00000033H
	mov	eax, -858993460				; ccccccccH
	rep stosd
	pop	ecx
	mov	DWORD PTR _this$[ebp], ecx

; 213  : 		_Destroy(_Ptr);

	mov	eax, DWORD PTR __Ptr$[ebp]
	push	eax
	call	??$_Destroy@U_Container_proxy@std@@@std@@YAXPAU_Container_proxy@0@@Z ; std::_Destroy<std::_Container_proxy>
	add	esp, 4

; 214  : 		}

	pop	edi
	pop	esi
	pop	ebx
	add	esp, 204				; 000000ccH
	cmp	ebp, esp
	call	__RTC_CheckEsp
	mov	esp, ebp
	pop	ebp
	ret	4
?destroy@?$allocator@U_Container_proxy@std@@@std@@QAEXPAU_Container_proxy@2@@Z ENDP ; std::allocator<std::_Container_proxy>::destroy
_TEXT	ENDS
PUBLIC	??_C@_1CG@KOFHLCJL@?$AAi?$AA?5?$AA?$DM?$AA?5?$AAt?$AAh?$AAi?$AAs?$AA?9?$AA?$DO?$AAl?$AAe?$AAn?$AAg?$AAt?$AAh?$AA?$CI?$AA?$CJ?$AA?$AA@ ; `string'
PUBLIC	??_C@_1FK@PFPGOKFD@?$AAc?$AA?3?$AA?2?$AAo?$AAp?$AAe?$AAn?$AAg?$AAl?$AA?2?$AAg?$AAl?$AAm?$AA?9?$AA0?$AA?4?$AA9?$AA?4?$AA3?$AA?4?$AA1?$AA?2?$AAg?$AAl?$AAm?$AA?2?$AAc?$AAo?$AAr?$AAe?$AA?2?$AAt@ ; `string'
PUBLIC	?length@?$tvec4@M@detail@glm@@QBEIXZ		; glm::detail::tvec4<float>::length
EXTRN	__imp___wassert:PROC
;	COMDAT ??_C@_1CG@KOFHLCJL@?$AAi?$AA?5?$AA?$DM?$AA?5?$AAt?$AAh?$AAi?$AAs?$AA?9?$AA?$DO?$AAl?$AAe?$AAn?$AAg?$AAt?$AAh?$AA?$CI?$AA?$CJ?$AA?$AA@
; File c:\opengl\glm-0.9.3.1\glm\core\type_vec4.inl
CONST	SEGMENT
??_C@_1CG@KOFHLCJL@?$AAi?$AA?5?$AA?$DM?$AA?5?$AAt?$AAh?$AAi?$AAs?$AA?9?$AA?$DO?$AAl?$AAe?$AAn?$AAg?$AAt?$AAh?$AA?$CI?$AA?$CJ?$AA?$AA@ DB 'i'
	DB	00H, ' ', 00H, '<', 00H, ' ', 00H, 't', 00H, 'h', 00H, 'i', 00H
	DB	's', 00H, '-', 00H, '>', 00H, 'l', 00H, 'e', 00H, 'n', 00H, 'g'
	DB	00H, 't', 00H, 'h', 00H, '(', 00H, ')', 00H, 00H, 00H ; `string'
CONST	ENDS
;	COMDAT ??_C@_1FK@PFPGOKFD@?$AAc?$AA?3?$AA?2?$AAo?$AAp?$AAe?$AAn?$AAg?$AAl?$AA?2?$AAg?$AAl?$AAm?$AA?9?$AA0?$AA?4?$AA9?$AA?4?$AA3?$AA?4?$AA1?$AA?2?$AAg?$AAl?$AAm?$AA?2?$AAc?$AAo?$AAr?$AAe?$AA?2?$AAt@
CONST	SEGMENT
??_C@_1FK@PFPGOKFD@?$AAc?$AA?3?$AA?2?$AAo?$AAp?$AAe?$AAn?$AAg?$AAl?$AA?2?$AAg?$AAl?$AAm?$AA?9?$AA0?$AA?4?$AA9?$AA?4?$AA3?$AA?4?$AA1?$AA?2?$AAg?$AAl?$AAm?$AA?2?$AAc?$AAo?$AAr?$AAe?$AA?2?$AAt@ DB 'c'
	DB	00H, ':', 00H, '\', 00H, 'o', 00H, 'p', 00H, 'e', 00H, 'n', 00H
	DB	'g', 00H, 'l', 00H, '\', 00H, 'g', 00H, 'l', 00H, 'm', 00H, '-'
	DB	00H, '0', 00H, '.', 00H, '9', 00H, '.', 00H, '3', 00H, '.', 00H
	DB	'1', 00H, '\', 00H, 'g', 00H, 'l', 00H, 'm', 00H, '\', 00H, 'c'
	DB	00H, 'o', 00H, 'r', 00H, 'e', 00H, '\', 00H, 't', 00H, 'y', 00H
	DB	'p', 00H, 'e', 00H, '_', 00H, 'v', 00H, 'e', 00H, 'c', 00H, '4'
	DB	00H, '.', 00H, 'i', 00H, 'n', 00H, 'l', 00H, 00H, 00H ; `string'
; Function compile flags: /Odtp /RTCsu /ZI
CONST	ENDS
;	COMDAT ??A?$tvec4@M@detail@glm@@QBEABMI@Z
_TEXT	SEGMENT
_this$ = -8						; size = 4
_i$ = 8							; size = 4
??A?$tvec4@M@detail@glm@@QBEABMI@Z PROC			; glm::detail::tvec4<float>::operator[], COMDAT
; _this$ = ecx

; 58   : 	{

	push	ebp
	mov	ebp, esp
	sub	esp, 204				; 000000ccH
	push	ebx
	push	esi
	push	edi
	push	ecx
	lea	edi, DWORD PTR [ebp-204]
	mov	ecx, 51					; 00000033H
	mov	eax, -858993460				; ccccccccH
	rep stosd
	pop	ecx
	mov	DWORD PTR _this$[ebp], ecx

; 59   : 		assert(i < this->length());

	mov	ecx, DWORD PTR _this$[ebp]
	call	?length@?$tvec4@M@detail@glm@@QBEIXZ	; glm::detail::tvec4<float>::length
	cmp	DWORD PTR _i$[ebp], eax
	jb	SHORT $LN3@operator@2
	mov	esi, esp
	push	59					; 0000003bH
	push	OFFSET ??_C@_1FK@PFPGOKFD@?$AAc?$AA?3?$AA?2?$AAo?$AAp?$AAe?$AAn?$AAg?$AAl?$AA?2?$AAg?$AAl?$AAm?$AA?9?$AA0?$AA?4?$AA9?$AA?4?$AA3?$AA?4?$AA1?$AA?2?$AAg?$AAl?$AAm?$AA?2?$AAc?$AAo?$AAr?$AAe?$AA?2?$AAt@
	push	OFFSET ??_C@_1CG@KOFHLCJL@?$AAi?$AA?5?$AA?$DM?$AA?5?$AAt?$AAh?$AAi?$AAs?$AA?9?$AA?$DO?$AAl?$AAe?$AAn?$AAg?$AAt?$AAh?$AA?$CI?$AA?$CJ?$AA?$AA@
	call	DWORD PTR __imp___wassert
	add	esp, 12					; 0000000cH
	cmp	esi, esp
	call	__RTC_CheckEsp
$LN3@operator@2:

; 60   : 		return (&x)[i];

	mov	eax, DWORD PTR _i$[ebp]
	mov	ecx, DWORD PTR _this$[ebp]
	lea	eax, DWORD PTR [ecx+eax*4]

; 61   : 	}

	pop	edi
	pop	esi
	pop	ebx
	add	esp, 204				; 000000ccH
	cmp	ebp, esp
	call	__RTC_CheckEsp
	mov	esp, ebp
	pop	ebp
	ret	4
??A?$tvec4@M@detail@glm@@QBEABMI@Z ENDP			; glm::detail::tvec4<float>::operator[]
; Function compile flags: /Odtp /RTCsu /ZI
_TEXT	ENDS
;	COMDAT ??A?$tvec4@M@detail@glm@@QAEAAMI@Z
_TEXT	SEGMENT
_this$ = -8						; size = 4
_i$ = 8							; size = 4
??A?$tvec4@M@detail@glm@@QAEAAMI@Z PROC			; glm::detail::tvec4<float>::operator[], COMDAT
; _this$ = ecx

; 47   : 	{

	push	ebp
	mov	ebp, esp
	sub	esp, 204				; 000000ccH
	push	ebx
	push	esi
	push	edi
	push	ecx
	lea	edi, DWORD PTR [ebp-204]
	mov	ecx, 51					; 00000033H
	mov	eax, -858993460				; ccccccccH
	rep stosd
	pop	ecx
	mov	DWORD PTR _this$[ebp], ecx

; 48   : 		assert(i < this->length());

	mov	ecx, DWORD PTR _this$[ebp]
	call	?length@?$tvec4@M@detail@glm@@QBEIXZ	; glm::detail::tvec4<float>::length
	cmp	DWORD PTR _i$[ebp], eax
	jb	SHORT $LN3@operator@3
	mov	esi, esp
	push	48					; 00000030H
	push	OFFSET ??_C@_1FK@PFPGOKFD@?$AAc?$AA?3?$AA?2?$AAo?$AAp?$AAe?$AAn?$AAg?$AAl?$AA?2?$AAg?$AAl?$AAm?$AA?9?$AA0?$AA?4?$AA9?$AA?4?$AA3?$AA?4?$AA1?$AA?2?$AAg?$AAl?$AAm?$AA?2?$AAc?$AAo?$AAr?$AAe?$AA?2?$AAt@
	push	OFFSET ??_C@_1CG@KOFHLCJL@?$AAi?$AA?5?$AA?$DM?$AA?5?$AAt?$AAh?$AAi?$AAs?$AA?9?$AA?$DO?$AAl?$AAe?$AAn?$AAg?$AAt?$AAh?$AA?$CI?$AA?$CJ?$AA?$AA@
	call	DWORD PTR __imp___wassert
	add	esp, 12					; 0000000cH
	cmp	esi, esp
	call	__RTC_CheckEsp
$LN3@operator@3:

; 49   : 		return (&x)[i];

	mov	eax, DWORD PTR _i$[ebp]
	mov	ecx, DWORD PTR _this$[ebp]
	lea	eax, DWORD PTR [ecx+eax*4]

; 50   : 	}

	pop	edi
	pop	esi
	pop	ebx
	add	esp, 204				; 000000ccH
	cmp	ebp, esp
	call	__RTC_CheckEsp
	mov	esp, ebp
	pop	ebp
	ret	4
??A?$tvec4@M@detail@glm@@QAEAAMI@Z ENDP			; glm::detail::tvec4<float>::operator[]
; Function compile flags: /Odtp /RTCsu /ZI
_TEXT	ENDS
;	COMDAT ??0?$tvec4@M@detail@glm@@QAE@ABU012@@Z
_TEXT	SEGMENT
_this$ = -8						; size = 4
_v$ = 8							; size = 4
??0?$tvec4@M@detail@glm@@QAE@ABU012@@Z PROC		; glm::detail::tvec4<float>::tvec4<float>, COMDAT
; _this$ = ecx

; 90   : 	{}

	push	ebp
	mov	ebp, esp
	sub	esp, 204				; 000000ccH
	push	ebx
	push	esi
	push	edi
	push	ecx
	lea	edi, DWORD PTR [ebp-204]
	mov	ecx, 51					; 00000033H
	mov	eax, -858993460				; ccccccccH
	rep stosd
	pop	ecx
	mov	DWORD PTR _this$[ebp], ecx
	mov	eax, DWORD PTR _this$[ebp]
	mov	ecx, DWORD PTR _v$[ebp]
	fld	DWORD PTR [ecx]
	fstp	DWORD PTR [eax]
	mov	eax, DWORD PTR _this$[ebp]
	mov	ecx, DWORD PTR _v$[ebp]
	fld	DWORD PTR [ecx+4]
	fstp	DWORD PTR [eax+4]
	mov	eax, DWORD PTR _this$[ebp]
	mov	ecx, DWORD PTR _v$[ebp]
	fld	DWORD PTR [ecx+8]
	fstp	DWORD PTR [eax+8]
	mov	eax, DWORD PTR _this$[ebp]
	mov	ecx, DWORD PTR _v$[ebp]
	fld	DWORD PTR [ecx+12]
	fstp	DWORD PTR [eax+12]
	mov	eax, DWORD PTR _this$[ebp]
	pop	edi
	pop	esi
	pop	ebx
	mov	esp, ebp
	pop	ebp
	ret	4
??0?$tvec4@M@detail@glm@@QAE@ABU012@@Z ENDP		; glm::detail::tvec4<float>::tvec4<float>
; Function compile flags: /Odtp /RTCsu /ZI
_TEXT	ENDS
;	COMDAT ??0?$tvec4@M@detail@glm@@QAE@XZ
_TEXT	SEGMENT
_this$ = -8						; size = 4
??0?$tvec4@M@detail@glm@@QAE@XZ PROC			; glm::detail::tvec4<float>::tvec4<float>, COMDAT
; _this$ = ecx

; 72   : 	{}

	push	ebp
	mov	ebp, esp
	sub	esp, 204				; 000000ccH
	push	ebx
	push	esi
	push	edi
	push	ecx
	lea	edi, DWORD PTR [ebp-204]
	mov	ecx, 51					; 00000033H
	mov	eax, -858993460				; ccccccccH
	rep stosd
	pop	ecx
	mov	DWORD PTR _this$[ebp], ecx
	mov	eax, DWORD PTR _this$[ebp]
	fldz
	fstp	DWORD PTR [eax]
	mov	eax, DWORD PTR _this$[ebp]
	fldz
	fstp	DWORD PTR [eax+4]
	mov	eax, DWORD PTR _this$[ebp]
	fldz
	fstp	DWORD PTR [eax+8]
	mov	eax, DWORD PTR _this$[ebp]
	fldz
	fstp	DWORD PTR [eax+12]
	mov	eax, DWORD PTR _this$[ebp]
	pop	edi
	pop	esi
	pop	ebx
	mov	esp, ebp
	pop	ebp
	ret	0
??0?$tvec4@M@detail@glm@@QAE@XZ ENDP			; glm::detail::tvec4<float>::tvec4<float>
; Function compile flags: /Odtp /RTCsu /ZI
_TEXT	ENDS
;	COMDAT ??4?$tvec4@M@detail@glm@@QAEAAU012@ABU012@@Z
_TEXT	SEGMENT
_this$ = -8						; size = 4
_v$ = 8							; size = 4
??4?$tvec4@M@detail@glm@@QAEAAU012@ABU012@@Z PROC	; glm::detail::tvec4<float>::operator=, COMDAT
; _this$ = ecx

; 375  : 	{

	push	ebp
	mov	ebp, esp
	sub	esp, 204				; 000000ccH
	push	ebx
	push	esi
	push	edi
	push	ecx
	lea	edi, DWORD PTR [ebp-204]
	mov	ecx, 51					; 00000033H
	mov	eax, -858993460				; ccccccccH
	rep stosd
	pop	ecx
	mov	DWORD PTR _this$[ebp], ecx

; 376  : 		this->x = v.x;

	mov	eax, DWORD PTR _this$[ebp]
	mov	ecx, DWORD PTR _v$[ebp]
	fld	DWORD PTR [ecx]
	fstp	DWORD PTR [eax]

; 377  : 		this->y = v.y;

	mov	eax, DWORD PTR _this$[ebp]
	mov	ecx, DWORD PTR _v$[ebp]
	fld	DWORD PTR [ecx+4]
	fstp	DWORD PTR [eax+4]

; 378  : 		this->z = v.z;

	mov	eax, DWORD PTR _this$[ebp]
	mov	ecx, DWORD PTR _v$[ebp]
	fld	DWORD PTR [ecx+8]
	fstp	DWORD PTR [eax+8]

; 379  : 		this->w = v.w;

	mov	eax, DWORD PTR _this$[ebp]
	mov	ecx, DWORD PTR _v$[ebp]
	fld	DWORD PTR [ecx+12]
	fstp	DWORD PTR [eax+12]

; 380  : 		return *this;

	mov	eax, DWORD PTR _this$[ebp]

; 381  : 	}

	pop	edi
	pop	esi
	pop	ebx
	mov	esp, ebp
	pop	ebp
	ret	4
??4?$tvec4@M@detail@glm@@QAEAAU012@ABU012@@Z ENDP	; glm::detail::tvec4<float>::operator=
; Function compile flags: /Odtp /RTCsu /ZI
; File c:\opengl\glm-0.9.3.1\glm\core\type_mat4x4.inl
_TEXT	ENDS
;	COMDAT ??0?$tmat4x4@M@detail@glm@@QAE@W4ctor@012@@Z
_TEXT	SEGMENT
_this$ = -8						; size = 4
___formal$ = 8						; size = 4
??0?$tmat4x4@M@detail@glm@@QAE@W4ctor@012@@Z PROC	; glm::detail::tmat4x4<float>::tmat4x4<float>, COMDAT
; _this$ = ecx

; 106  :     {}

	push	ebp
	mov	ebp, esp
	sub	esp, 204				; 000000ccH
	push	ebx
	push	esi
	push	edi
	push	ecx
	lea	edi, DWORD PTR [ebp-204]
	mov	ecx, 51					; 00000033H
	mov	eax, -858993460				; ccccccccH
	rep stosd
	pop	ecx
	mov	DWORD PTR _this$[ebp], ecx
	push	OFFSET ??0?$tvec4@M@detail@glm@@QAE@XZ	; glm::detail::tvec4<float>::tvec4<float>
	push	4
	push	16					; 00000010H
	mov	eax, DWORD PTR _this$[ebp]
	push	eax
	call	??_H@YGXPAXIHP6EPAX0@Z@Z
	mov	eax, DWORD PTR _this$[ebp]
	pop	edi
	pop	esi
	pop	ebx
	add	esp, 204				; 000000ccH
	cmp	ebp, esp
	call	__RTC_CheckEsp
	mov	esp, ebp
	pop	ebp
	ret	4
??0?$tmat4x4@M@detail@glm@@QAE@W4ctor@012@@Z ENDP	; glm::detail::tmat4x4<float>::tmat4x4<float>
_TEXT	ENDS
PUBLIC	??_C@_1FO@LCBJDNCK@?$AAc?$AA?3?$AA?2?$AAo?$AAp?$AAe?$AAn?$AAg?$AAl?$AA?2?$AAg?$AAl?$AAm?$AA?9?$AA0?$AA?4?$AA9?$AA?4?$AA3?$AA?4?$AA1?$AA?2?$AAg?$AAl?$AAm?$AA?2?$AAc?$AAo?$AAr?$AAe?$AA?2?$AAt@ ; `string'
PUBLIC	?length@?$tmat4x4@M@detail@glm@@QBEIXZ		; glm::detail::tmat4x4<float>::length
;	COMDAT ??_C@_1FO@LCBJDNCK@?$AAc?$AA?3?$AA?2?$AAo?$AAp?$AAe?$AAn?$AAg?$AAl?$AA?2?$AAg?$AAl?$AAm?$AA?9?$AA0?$AA?4?$AA9?$AA?4?$AA3?$AA?4?$AA1?$AA?2?$AAg?$AAl?$AAm?$AA?2?$AAc?$AAo?$AAr?$AAe?$AA?2?$AAt@
CONST	SEGMENT
??_C@_1FO@LCBJDNCK@?$AAc?$AA?3?$AA?2?$AAo?$AAp?$AAe?$AAn?$AAg?$AAl?$AA?2?$AAg?$AAl?$AAm?$AA?9?$AA0?$AA?4?$AA9?$AA?4?$AA3?$AA?4?$AA1?$AA?2?$AAg?$AAl?$AAm?$AA?2?$AAc?$AAo?$AAr?$AAe?$AA?2?$AAt@ DB 'c'
	DB	00H, ':', 00H, '\', 00H, 'o', 00H, 'p', 00H, 'e', 00H, 'n', 00H
	DB	'g', 00H, 'l', 00H, '\', 00H, 'g', 00H, 'l', 00H, 'm', 00H, '-'
	DB	00H, '0', 00H, '.', 00H, '9', 00H, '.', 00H, '3', 00H, '.', 00H
	DB	'1', 00H, '\', 00H, 'g', 00H, 'l', 00H, 'm', 00H, '\', 00H, 'c'
	DB	00H, 'o', 00H, 'r', 00H, 'e', 00H, '\', 00H, 't', 00H, 'y', 00H
	DB	'p', 00H, 'e', 00H, '_', 00H, 'm', 00H, 'a', 00H, 't', 00H, '4'
	DB	00H, 'x', 00H, '4', 00H, '.', 00H, 'i', 00H, 'n', 00H, 'l', 00H
	DB	00H, 00H					; `string'
; Function compile flags: /Odtp /RTCsu /ZI
CONST	ENDS
;	COMDAT ??A?$tmat4x4@M@detail@glm@@QBEABU?$tvec4@M@12@I@Z
_TEXT	SEGMENT
_this$ = -8						; size = 4
_i$ = 8							; size = 4
??A?$tmat4x4@M@detail@glm@@QBEABU?$tvec4@M@12@I@Z PROC	; glm::detail::tmat4x4<float>::operator[], COMDAT
; _this$ = ecx

; 70   : 	{

	push	ebp
	mov	ebp, esp
	sub	esp, 204				; 000000ccH
	push	ebx
	push	esi
	push	edi
	push	ecx
	lea	edi, DWORD PTR [ebp-204]
	mov	ecx, 51					; 00000033H
	mov	eax, -858993460				; ccccccccH
	rep stosd
	pop	ecx
	mov	DWORD PTR _this$[ebp], ecx

; 71   : 		assert(i < this->length());

	mov	ecx, DWORD PTR _this$[ebp]
	call	?length@?$tmat4x4@M@detail@glm@@QBEIXZ	; glm::detail::tmat4x4<float>::length
	cmp	DWORD PTR _i$[ebp], eax
	jb	SHORT $LN3@operator@4
	mov	esi, esp
	push	71					; 00000047H
	push	OFFSET ??_C@_1FO@LCBJDNCK@?$AAc?$AA?3?$AA?2?$AAo?$AAp?$AAe?$AAn?$AAg?$AAl?$AA?2?$AAg?$AAl?$AAm?$AA?9?$AA0?$AA?4?$AA9?$AA?4?$AA3?$AA?4?$AA1?$AA?2?$AAg?$AAl?$AAm?$AA?2?$AAc?$AAo?$AAr?$AAe?$AA?2?$AAt@
	push	OFFSET ??_C@_1CG@KOFHLCJL@?$AAi?$AA?5?$AA?$DM?$AA?5?$AAt?$AAh?$AAi?$AAs?$AA?9?$AA?$DO?$AAl?$AAe?$AAn?$AAg?$AAt?$AAh?$AA?$CI?$AA?$CJ?$AA?$AA@
	call	DWORD PTR __imp___wassert
	add	esp, 12					; 0000000cH
	cmp	esi, esp
	call	__RTC_CheckEsp
$LN3@operator@4:

; 72   : 		return this->value[i];

	mov	eax, DWORD PTR _i$[ebp]
	shl	eax, 4
	add	eax, DWORD PTR _this$[ebp]

; 73   : 	}

	pop	edi
	pop	esi
	pop	ebx
	add	esp, 204				; 000000ccH
	cmp	ebp, esp
	call	__RTC_CheckEsp
	mov	esp, ebp
	pop	ebp
	ret	4
??A?$tmat4x4@M@detail@glm@@QBEABU?$tvec4@M@12@I@Z ENDP	; glm::detail::tmat4x4<float>::operator[]
; Function compile flags: /Odtp /RTCsu /ZI
_TEXT	ENDS
;	COMDAT ??A?$tmat4x4@M@detail@glm@@QAEAAU?$tvec4@M@12@I@Z
_TEXT	SEGMENT
_this$ = -8						; size = 4
_i$ = 8							; size = 4
??A?$tmat4x4@M@detail@glm@@QAEAAU?$tvec4@M@12@I@Z PROC	; glm::detail::tmat4x4<float>::operator[], COMDAT
; _this$ = ecx

; 59   : 	{

	push	ebp
	mov	ebp, esp
	sub	esp, 204				; 000000ccH
	push	ebx
	push	esi
	push	edi
	push	ecx
	lea	edi, DWORD PTR [ebp-204]
	mov	ecx, 51					; 00000033H
	mov	eax, -858993460				; ccccccccH
	rep stosd
	pop	ecx
	mov	DWORD PTR _this$[ebp], ecx

; 60   : 		assert(i < this->length());

	mov	ecx, DWORD PTR _this$[ebp]
	call	?length@?$tmat4x4@M@detail@glm@@QBEIXZ	; glm::detail::tmat4x4<float>::length
	cmp	DWORD PTR _i$[ebp], eax
	jb	SHORT $LN3@operator@5
	mov	esi, esp
	push	60					; 0000003cH
	push	OFFSET ??_C@_1FO@LCBJDNCK@?$AAc?$AA?3?$AA?2?$AAo?$AAp?$AAe?$AAn?$AAg?$AAl?$AA?2?$AAg?$AAl?$AAm?$AA?9?$AA0?$AA?4?$AA9?$AA?4?$AA3?$AA?4?$AA1?$AA?2?$AAg?$AAl?$AAm?$AA?2?$AAc?$AAo?$AAr?$AAe?$AA?2?$AAt@
	push	OFFSET ??_C@_1CG@KOFHLCJL@?$AAi?$AA?5?$AA?$DM?$AA?5?$AAt?$AAh?$AAi?$AAs?$AA?9?$AA?$DO?$AAl?$AAe?$AAn?$AAg?$AAt?$AAh?$AA?$CI?$AA?$CJ?$AA?$AA@
	call	DWORD PTR __imp___wassert
	add	esp, 12					; 0000000cH
	cmp	esi, esp
	call	__RTC_CheckEsp
$LN3@operator@5:

; 61   : 		return this->value[i];

	mov	eax, DWORD PTR _i$[ebp]
	shl	eax, 4
	add	eax, DWORD PTR _this$[ebp]

; 62   : 	}

	pop	edi
	pop	esi
	pop	ebx
	add	esp, 204				; 000000ccH
	cmp	ebp, esp
	call	__RTC_CheckEsp
	mov	esp, ebp
	pop	ebp
	ret	4
??A?$tmat4x4@M@detail@glm@@QAEAAU?$tvec4@M@12@I@Z ENDP	; glm::detail::tmat4x4<float>::operator[]
_TEXT	ENDS
PUBLIC	__real@4066800000000000
PUBLIC	__real@40490fdb
;	COMDAT __real@4066800000000000
; File c:\opengl\glm-0.9.3.1\glm\core\func_trigonometric.inl
CONST	SEGMENT
__real@4066800000000000 DQ 04066800000000000r	; 180
CONST	ENDS
;	COMDAT __real@40490fdb
CONST	SEGMENT
__real@40490fdb DD 040490fdbr			; 3.14159
; Function compile flags: /Odtp /RTCsu /ZI
CONST	ENDS
;	COMDAT ??$radians@M@glm@@YAMABM@Z
_TEXT	SEGMENT
tv73 = -208						; size = 4
_pi$ = -8						; size = 4
_degrees$ = 8						; size = 4
??$radians@M@glm@@YAMABM@Z PROC				; glm::radians<float>, COMDAT

; 39   : 	{

	push	ebp
	mov	ebp, esp
	sub	esp, 208				; 000000d0H
	push	ebx
	push	esi
	push	edi
	lea	edi, DWORD PTR [ebp-208]
	mov	ecx, 52					; 00000034H
	mov	eax, -858993460				; ccccccccH
	rep stosd

; 40   : 		GLM_STATIC_ASSERT(detail::type<genType>::is_float, "'radians' only accept floating-point input");
; 41   : 
; 42   : 		genType const pi = genType(3.1415926535897932384626433832795);

	fld	DWORD PTR __real@40490fdb
	fstp	DWORD PTR _pi$[ebp]

; 43   : 		return degrees * (pi / genType(180));

	fld	DWORD PTR _pi$[ebp]
	fdiv	QWORD PTR __real@4066800000000000
	mov	eax, DWORD PTR _degrees$[ebp]
	fmul	DWORD PTR [eax]
	fstp	DWORD PTR tv73[ebp]
	fld	DWORD PTR tv73[ebp]

; 44   : 	}

	pop	edi
	pop	esi
	pop	ebx
	mov	esp, ebp
	pop	ebp
	ret	0
??$radians@M@glm@@YAMABM@Z ENDP				; glm::radians<float>
; Function compile flags: /Odtp /RTCsu /ZI
; File c:\opengl\glm-0.9.3.1\glm\core\type_vec4.inl
_TEXT	ENDS
;	COMDAT ??$?HM@detail@glm@@YA?AU?$tvec4@M@01@ABU201@0@Z
_TEXT	SEGMENT
$T70738 = -236						; size = 4
$T70739 = -224						; size = 4
$T70740 = -212						; size = 4
$T70741 = -200						; size = 4
___$ReturnUdt$ = 8					; size = 4
_v1$ = 12						; size = 4
_v2$ = 16						; size = 4
??$?HM@detail@glm@@YA?AU?$tvec4@M@01@ABU201@0@Z PROC	; glm::detail::operator+<float>, COMDAT

; 834  : 	{

	push	ebp
	mov	ebp, esp
	sub	esp, 240				; 000000f0H
	push	ebx
	push	esi
	push	edi
	lea	edi, DWORD PTR [ebp-240]
	mov	ecx, 60					; 0000003cH
	mov	eax, -858993460				; ccccccccH
	rep stosd

; 835  : 		return tvec4<T>(
; 836  : 			v1.x + v2.x,
; 837  : 			v1.y + v2.y,
; 838  : 			v1.z + v2.z,
; 839  : 			v1.w + v2.w);

	mov	eax, DWORD PTR _v1$[ebp]
	fld	DWORD PTR [eax+12]
	mov	ecx, DWORD PTR _v2$[ebp]
	fadd	DWORD PTR [ecx+12]
	fstp	DWORD PTR $T70738[ebp]
	mov	edx, DWORD PTR _v1$[ebp]
	fld	DWORD PTR [edx+8]
	mov	eax, DWORD PTR _v2$[ebp]
	fadd	DWORD PTR [eax+8]
	fstp	DWORD PTR $T70739[ebp]
	mov	ecx, DWORD PTR _v1$[ebp]
	fld	DWORD PTR [ecx+4]
	mov	edx, DWORD PTR _v2$[ebp]
	fadd	DWORD PTR [edx+4]
	fstp	DWORD PTR $T70740[ebp]
	mov	eax, DWORD PTR _v1$[ebp]
	fld	DWORD PTR [eax]
	mov	ecx, DWORD PTR _v2$[ebp]
	fadd	DWORD PTR [ecx]
	fstp	DWORD PTR $T70741[ebp]
	lea	edx, DWORD PTR $T70738[ebp]
	push	edx
	lea	eax, DWORD PTR $T70739[ebp]
	push	eax
	lea	ecx, DWORD PTR $T70740[ebp]
	push	ecx
	lea	edx, DWORD PTR $T70741[ebp]
	push	edx
	mov	ecx, DWORD PTR ___$ReturnUdt$[ebp]
	call	??0?$tvec4@M@detail@glm@@QAE@ABM000@Z	; glm::detail::tvec4<float>::tvec4<float>
	mov	eax, DWORD PTR ___$ReturnUdt$[ebp]

; 840  : 	}

	pop	edi
	pop	esi
	pop	ebx
	add	esp, 240				; 000000f0H
	cmp	ebp, esp
	call	__RTC_CheckEsp
	mov	esp, ebp
	pop	ebp
	ret	0
??$?HM@detail@glm@@YA?AU?$tvec4@M@01@ABU201@0@Z ENDP	; glm::detail::operator+<float>
_TEXT	ENDS
PUBLIC	?sqrt@@YAMM@Z					; sqrt
; Function compile flags: /Odtp /RTCsu /ZI
; File c:\opengl\glm-0.9.3.1\glm\core\func_exponential.inl
;	COMDAT ??$inversesqrt@M@glm@@YAMABM@Z
_TEXT	SEGMENT
tv76 = -196						; size = 4
_x$ = 8							; size = 4
??$inversesqrt@M@glm@@YAMABM@Z PROC			; glm::inversesqrt<float>, COMDAT

; 149  :     {

	push	ebp
	mov	ebp, esp
	sub	esp, 196				; 000000c4H
	push	ebx
	push	esi
	push	edi
	lea	edi, DWORD PTR [ebp-196]
	mov	ecx, 49					; 00000031H
	mov	eax, -858993460				; ccccccccH
	rep stosd

; 150  : 		GLM_STATIC_ASSERT(detail::type<genType>::is_float, "'inversesqrt' only accept floating-point input");
; 151  : 
; 152  :         return genType(1) / ::std::sqrt(x);

	mov	eax, DWORD PTR _x$[ebp]
	push	ecx
	fld	DWORD PTR [eax]
	fstp	DWORD PTR [esp]
	call	?sqrt@@YAMM@Z				; sqrt
	add	esp, 4
	fld1
	fdivrp	ST(1), ST(0)
	fstp	DWORD PTR tv76[ebp]
	fld	DWORD PTR tv76[ebp]

; 153  :     }

	pop	edi
	pop	esi
	pop	ebx
	add	esp, 196				; 000000c4H
	cmp	ebp, esp
	call	__RTC_CheckEsp
	mov	esp, ebp
	pop	ebp
	ret	0
??$inversesqrt@M@glm@@YAMABM@Z ENDP			; glm::inversesqrt<float>
_TEXT	ENDS
PUBLIC	_sqrtf
; Function compile flags: /Odtp /RTCsu /ZI
; File c:\program files (x86)\microsoft visual studio 10.0\vc\include\math.h
;	COMDAT ?sqrt@@YAMM@Z
_TEXT	SEGMENT
__X$ = 8						; size = 4
?sqrt@@YAMM@Z PROC					; sqrt, COMDAT

; 542  :         {return (sqrtf(_X)); }

	push	ebp
	mov	ebp, esp
	sub	esp, 192				; 000000c0H
	push	ebx
	push	esi
	push	edi
	lea	edi, DWORD PTR [ebp-192]
	mov	ecx, 48					; 00000030H
	mov	eax, -858993460				; ccccccccH
	rep stosd
	push	ecx
	fld	DWORD PTR __X$[ebp]
	fstp	DWORD PTR [esp]
	call	_sqrtf
	add	esp, 4
	pop	edi
	pop	esi
	pop	ebx
	add	esp, 192				; 000000c0H
	cmp	ebp, esp
	call	__RTC_CheckEsp
	mov	esp, ebp
	pop	ebp
	ret	0
?sqrt@@YAMM@Z ENDP					; sqrt
_TEXT	ENDS
EXTRN	_sqrt:PROC
; Function compile flags: /Odtp /RTCsu /ZI
;	COMDAT _sqrtf
_TEXT	SEGMENT
tv73 = -196						; size = 4
__X$ = 8						; size = 4
_sqrtf	PROC						; COMDAT

; 434  :         {return ((float)sqrt((double)_X)); }

	push	ebp
	mov	ebp, esp
	sub	esp, 196				; 000000c4H
	push	ebx
	push	esi
	push	edi
	lea	edi, DWORD PTR [ebp-196]
	mov	ecx, 49					; 00000031H
	mov	eax, -858993460				; ccccccccH
	rep stosd
	fld	DWORD PTR __X$[ebp]
	sub	esp, 8
	fstp	QWORD PTR [esp]
	call	_sqrt
	add	esp, 8
	fstp	DWORD PTR tv73[ebp]
	fld	DWORD PTR tv73[ebp]
	pop	edi
	pop	esi
	pop	ebx
	add	esp, 196				; 000000c4H
	cmp	ebp, esp
	call	__RTC_CheckEsp
	mov	esp, ebp
	pop	ebp
	ret	0
_sqrtf	ENDP
; Function compile flags: /Odtp /RTCsu /ZI
; File c:\opengl\glm-0.9.3.1\glm\core\func_geometric.inl
_TEXT	ENDS
;	COMDAT ??$cross@M@glm@@YA?AU?$tvec3@M@detail@0@ABU120@0@Z
_TEXT	SEGMENT
$T70750 = -224						; size = 4
$T70751 = -212						; size = 4
$T70752 = -200						; size = 4
___$ReturnUdt$ = 8					; size = 4
_x$ = 12						; size = 4
_y$ = 16						; size = 4
??$cross@M@glm@@YA?AU?$tvec3@M@detail@0@ABU120@0@Z PROC	; glm::cross<float>, COMDAT

; 204  :     {

	push	ebp
	mov	ebp, esp
	sub	esp, 228				; 000000e4H
	push	ebx
	push	esi
	push	edi
	lea	edi, DWORD PTR [ebp-228]
	mov	ecx, 57					; 00000039H
	mov	eax, -858993460				; ccccccccH
	rep stosd

; 205  : 		GLM_STATIC_ASSERT(detail::type<T>::is_float, "'cross' only accept floating-point inputs");
; 206  : 
; 207  :         return detail::tvec3<T>(
; 208  :             x.y * y.z - y.y * x.z,
; 209  :             x.z * y.x - y.z * x.x,
; 210  :             x.x * y.y - y.x * x.y);

	mov	eax, DWORD PTR _x$[ebp]
	fld	DWORD PTR [eax]
	mov	ecx, DWORD PTR _y$[ebp]
	fmul	DWORD PTR [ecx+4]
	mov	edx, DWORD PTR _y$[ebp]
	fld	DWORD PTR [edx]
	mov	eax, DWORD PTR _x$[ebp]
	fmul	DWORD PTR [eax+4]
	fsubp	ST(1), ST(0)
	fstp	DWORD PTR $T70750[ebp]
	mov	ecx, DWORD PTR _x$[ebp]
	fld	DWORD PTR [ecx+8]
	mov	edx, DWORD PTR _y$[ebp]
	fmul	DWORD PTR [edx]
	mov	eax, DWORD PTR _y$[ebp]
	fld	DWORD PTR [eax+8]
	mov	ecx, DWORD PTR _x$[ebp]
	fmul	DWORD PTR [ecx]
	fsubp	ST(1), ST(0)
	fstp	DWORD PTR $T70751[ebp]
	mov	edx, DWORD PTR _x$[ebp]
	fld	DWORD PTR [edx+4]
	mov	eax, DWORD PTR _y$[ebp]
	fmul	DWORD PTR [eax+8]
	mov	ecx, DWORD PTR _y$[ebp]
	fld	DWORD PTR [ecx+4]
	mov	edx, DWORD PTR _x$[ebp]
	fmul	DWORD PTR [edx+8]
	fsubp	ST(1), ST(0)
	fstp	DWORD PTR $T70752[ebp]
	lea	eax, DWORD PTR $T70750[ebp]
	push	eax
	lea	ecx, DWORD PTR $T70751[ebp]
	push	ecx
	lea	edx, DWORD PTR $T70752[ebp]
	push	edx
	mov	ecx, DWORD PTR ___$ReturnUdt$[ebp]
	call	??0?$tvec3@M@detail@glm@@QAE@ABM00@Z	; glm::detail::tvec3<float>::tvec3<float>
	mov	eax, DWORD PTR ___$ReturnUdt$[ebp]

; 211  :     }

	pop	edi
	pop	esi
	pop	ebx
	add	esp, 228				; 000000e4H
	cmp	ebp, esp
	call	__RTC_CheckEsp
	mov	esp, ebp
	pop	ebp
	ret	0
??$cross@M@glm@@YA?AU?$tvec3@M@detail@0@ABU120@0@Z ENDP	; glm::cross<float>
; Function compile flags: /Odtp /RTCsu /ZI
; File c:\opengl\glm-0.9.3.1\glm\core\type_mat4x4.inl
_TEXT	ENDS
;	COMDAT ??$?0H@?$tmat4x4@M@detail@glm@@QAE@ABH@Z
_TEXT	SEGMENT
$T70755 = -356						; size = 16
$T70756 = -332						; size = 4
$T70757 = -320						; size = 16
$T70758 = -296						; size = 4
$T70759 = -284						; size = 16
$T70760 = -260						; size = 4
$T70761 = -248						; size = 16
$T70762 = -224						; size = 4
_Zero$ = -20						; size = 4
_this$ = -8						; size = 4
_s$ = 8							; size = 4
??$?0H@?$tmat4x4@M@detail@glm@@QAE@ABH@Z PROC		; glm::detail::tmat4x4<float>::tmat4x4<float><int>, COMDAT
; _this$ = ecx

; 172  : 	{

	push	ebp
	mov	ebp, esp
	sub	esp, 360				; 00000168H
	push	ebx
	push	esi
	push	edi
	push	ecx
	lea	edi, DWORD PTR [ebp-360]
	mov	ecx, 90					; 0000005aH
	mov	eax, -858993460				; ccccccccH
	rep stosd
	pop	ecx
	mov	DWORD PTR _this$[ebp], ecx
	push	OFFSET ??0?$tvec4@M@detail@glm@@QAE@XZ	; glm::detail::tvec4<float>::tvec4<float>
	push	4
	push	16					; 00000010H
	mov	eax, DWORD PTR _this$[ebp]
	push	eax
	call	??_H@YGXPAXIHP6EPAX0@Z@Z

; 173  : 		GLM_STATIC_ASSERT(detail::type<U>::is_float || std::numeric_limits<U>::is_integer, "*mat4x4 constructor only takes float and integer types");
; 174  : 
; 175  : 		value_type const Zero(0);

	fldz
	fstp	DWORD PTR _Zero$[ebp]

; 176  :         this->value[0] = tvec4<T>(value_type(s), Zero, Zero, Zero);

	mov	eax, DWORD PTR _s$[ebp]
	fild	DWORD PTR [eax]
	fstp	DWORD PTR $T70756[ebp]
	lea	ecx, DWORD PTR _Zero$[ebp]
	push	ecx
	lea	edx, DWORD PTR _Zero$[ebp]
	push	edx
	lea	eax, DWORD PTR _Zero$[ebp]
	push	eax
	lea	ecx, DWORD PTR $T70756[ebp]
	push	ecx
	lea	ecx, DWORD PTR $T70755[ebp]
	call	??0?$tvec4@M@detail@glm@@QAE@ABM000@Z	; glm::detail::tvec4<float>::tvec4<float>
	push	eax
	mov	ecx, DWORD PTR _this$[ebp]
	call	??4?$tvec4@M@detail@glm@@QAEAAU012@ABU012@@Z ; glm::detail::tvec4<float>::operator=

; 177  :         this->value[1] = tvec4<T>(Zero, value_type(s), Zero, Zero);

	mov	eax, DWORD PTR _s$[ebp]
	fild	DWORD PTR [eax]
	fstp	DWORD PTR $T70758[ebp]
	lea	ecx, DWORD PTR _Zero$[ebp]
	push	ecx
	lea	edx, DWORD PTR _Zero$[ebp]
	push	edx
	lea	eax, DWORD PTR $T70758[ebp]
	push	eax
	lea	ecx, DWORD PTR _Zero$[ebp]
	push	ecx
	lea	ecx, DWORD PTR $T70757[ebp]
	call	??0?$tvec4@M@detail@glm@@QAE@ABM000@Z	; glm::detail::tvec4<float>::tvec4<float>
	push	eax
	mov	ecx, DWORD PTR _this$[ebp]
	add	ecx, 16					; 00000010H
	call	??4?$tvec4@M@detail@glm@@QAEAAU012@ABU012@@Z ; glm::detail::tvec4<float>::operator=

; 178  :         this->value[2] = tvec4<T>(Zero, Zero, value_type(s), Zero);

	mov	eax, DWORD PTR _s$[ebp]
	fild	DWORD PTR [eax]
	fstp	DWORD PTR $T70760[ebp]
	lea	ecx, DWORD PTR _Zero$[ebp]
	push	ecx
	lea	edx, DWORD PTR $T70760[ebp]
	push	edx
	lea	eax, DWORD PTR _Zero$[ebp]
	push	eax
	lea	ecx, DWORD PTR _Zero$[ebp]
	push	ecx
	lea	ecx, DWORD PTR $T70759[ebp]
	call	??0?$tvec4@M@detail@glm@@QAE@ABM000@Z	; glm::detail::tvec4<float>::tvec4<float>
	push	eax
	mov	ecx, DWORD PTR _this$[ebp]
	add	ecx, 32					; 00000020H
	call	??4?$tvec4@M@detail@glm@@QAEAAU012@ABU012@@Z ; glm::detail::tvec4<float>::operator=

; 179  :         this->value[3] = tvec4<T>(Zero, Zero, Zero, value_type(s));

	mov	eax, DWORD PTR _s$[ebp]
	fild	DWORD PTR [eax]
	fstp	DWORD PTR $T70762[ebp]
	lea	ecx, DWORD PTR $T70762[ebp]
	push	ecx
	lea	edx, DWORD PTR _Zero$[ebp]
	push	edx
	lea	eax, DWORD PTR _Zero$[ebp]
	push	eax
	lea	ecx, DWORD PTR _Zero$[ebp]
	push	ecx
	lea	ecx, DWORD PTR $T70761[ebp]
	call	??0?$tvec4@M@detail@glm@@QAE@ABM000@Z	; glm::detail::tvec4<float>::tvec4<float>
	push	eax
	mov	ecx, DWORD PTR _this$[ebp]
	add	ecx, 48					; 00000030H
	call	??4?$tvec4@M@detail@glm@@QAEAAU012@ABU012@@Z ; glm::detail::tvec4<float>::operator=

; 180  : 	}

	mov	eax, DWORD PTR _this$[ebp]
	push	edx
	mov	ecx, ebp
	push	eax
	lea	edx, DWORD PTR $LN5@tmat4x4@3
	call	@_RTC_CheckStackVars@8
	pop	eax
	pop	edx
	pop	edi
	pop	esi
	pop	ebx
	add	esp, 360				; 00000168H
	cmp	ebp, esp
	call	__RTC_CheckEsp
	mov	esp, ebp
	pop	ebp
	ret	4
	npad	3
$LN5@tmat4x4@3:
	DD	1
	DD	$LN4@tmat4x4@3
$LN4@tmat4x4@3:
	DD	-20					; ffffffecH
	DD	4
	DD	$LN3@tmat4x4@3
$LN3@tmat4x4@3:
	DB	90					; 0000005aH
	DB	101					; 00000065H
	DB	114					; 00000072H
	DB	111					; 0000006fH
	DB	0
??$?0H@?$tmat4x4@M@detail@glm@@QAE@ABH@Z ENDP		; glm::detail::tmat4x4<float>::tmat4x4<float><int>
; Function compile flags: /Odtp /RTCsu /ZI
; File c:\opengl\glm-0.9.3.1\glm\core\type_vec3.inl
_TEXT	ENDS
;	COMDAT ??$?GM@detail@glm@@YA?AU?$tvec3@M@01@ABU201@@Z
_TEXT	SEGMENT
$T70768 = -224						; size = 4
$T70769 = -212						; size = 4
$T70770 = -200						; size = 4
___$ReturnUdt$ = 8					; size = 4
_v$ = 12						; size = 4
??$?GM@detail@glm@@YA?AU?$tvec3@M@01@ABU201@@Z PROC	; glm::detail::operator-<float>, COMDAT

; 809  : 	{

	push	ebp
	mov	ebp, esp
	sub	esp, 228				; 000000e4H
	push	ebx
	push	esi
	push	edi
	lea	edi, DWORD PTR [ebp-228]
	mov	ecx, 57					; 00000039H
	mov	eax, -858993460				; ccccccccH
	rep stosd

; 810  : 		return tvec3<T>(
; 811  : 			-v.x, 
; 812  : 			-v.y, 
; 813  : 			-v.z);

	mov	eax, DWORD PTR _v$[ebp]
	fld	DWORD PTR [eax+8]
	fchs
	fstp	DWORD PTR $T70768[ebp]
	mov	ecx, DWORD PTR _v$[ebp]
	fld	DWORD PTR [ecx+4]
	fchs
	fstp	DWORD PTR $T70769[ebp]
	mov	edx, DWORD PTR _v$[ebp]
	fld	DWORD PTR [edx]
	fchs
	fstp	DWORD PTR $T70770[ebp]
	lea	eax, DWORD PTR $T70768[ebp]
	push	eax
	lea	ecx, DWORD PTR $T70769[ebp]
	push	ecx
	lea	edx, DWORD PTR $T70770[ebp]
	push	edx
	mov	ecx, DWORD PTR ___$ReturnUdt$[ebp]
	call	??0?$tvec3@M@detail@glm@@QAE@ABM00@Z	; glm::detail::tvec3<float>::tvec3<float>
	mov	eax, DWORD PTR ___$ReturnUdt$[ebp]

; 814  : 	}

	pop	edi
	pop	esi
	pop	ebx
	add	esp, 228				; 000000e4H
	cmp	ebp, esp
	call	__RTC_CheckEsp
	mov	esp, ebp
	pop	ebp
	ret	0
??$?GM@detail@glm@@YA?AU?$tvec3@M@01@ABU201@@Z ENDP	; glm::detail::operator-<float>
_TEXT	ENDS
PUBLIC	??A?$tvec3@M@detail@glm@@QBEABMI@Z		; glm::detail::tvec3<float>::operator[]
PUBLIC	__$ArrayPad$
; Function compile flags: /Odtp /RTCsu /ZI
; File c:\opengl\glm-0.9.3.1\glm\gtc\matrix_transform.inl
;	COMDAT ??$translate@M@glm@@YA?AU?$tmat4x4@M@detail@0@ABU120@ABU?$tvec3@M@20@@Z
_TEXT	SEGMENT
$T70774 = -408						; size = 16
$T70775 = -384						; size = 16
$T70776 = -360						; size = 16
$T70777 = -336						; size = 16
$T70778 = -312						; size = 16
$T70779 = -288						; size = 16
_Result$ = -72						; size = 64
__$ArrayPad$ = -4					; size = 4
___$ReturnUdt$ = 8					; size = 4
_m$ = 12						; size = 4
_v$ = 16						; size = 4
??$translate@M@glm@@YA?AU?$tmat4x4@M@detail@0@ABU120@ABU?$tvec3@M@20@@Z PROC ; glm::translate<float>, COMDAT

; 37   : 	{

	push	ebp
	mov	ebp, esp
	sub	esp, 412				; 0000019cH
	push	ebx
	push	esi
	push	edi
	lea	edi, DWORD PTR [ebp-412]
	mov	ecx, 103				; 00000067H
	mov	eax, -858993460				; ccccccccH
	rep stosd
	mov	eax, DWORD PTR ___security_cookie
	xor	eax, ebp
	mov	DWORD PTR __$ArrayPad$[ebp], eax

; 38   : 		detail::tmat4x4<T> Result(m);

	mov	eax, DWORD PTR _m$[ebp]
	push	eax
	lea	ecx, DWORD PTR _Result$[ebp]
	call	??0?$tmat4x4@M@detail@glm@@QAE@ABU012@@Z ; glm::detail::tmat4x4<float>::tmat4x4<float>

; 39   : 		Result[3] = m[0] * v[0] + m[1] * v[1] + m[2] * v[2] + m[3];

	push	3
	mov	ecx, DWORD PTR _m$[ebp]
	call	??A?$tmat4x4@M@detail@glm@@QBEABU?$tvec4@M@12@I@Z ; glm::detail::tmat4x4<float>::operator[]
	push	eax
	push	2
	mov	ecx, DWORD PTR _v$[ebp]
	call	??A?$tvec3@M@detail@glm@@QBEABMI@Z	; glm::detail::tvec3<float>::operator[]
	push	eax
	push	2
	mov	ecx, DWORD PTR _m$[ebp]
	call	??A?$tmat4x4@M@detail@glm@@QBEABU?$tvec4@M@12@I@Z ; glm::detail::tmat4x4<float>::operator[]
	push	eax
	lea	eax, DWORD PTR $T70774[ebp]
	push	eax
	call	??$?DM@detail@glm@@YA?AU?$tvec4@M@01@ABU201@ABM@Z ; glm::detail::operator*<float>
	add	esp, 12					; 0000000cH
	push	eax
	push	1
	mov	ecx, DWORD PTR _v$[ebp]
	call	??A?$tvec3@M@detail@glm@@QBEABMI@Z	; glm::detail::tvec3<float>::operator[]
	push	eax
	push	1
	mov	ecx, DWORD PTR _m$[ebp]
	call	??A?$tmat4x4@M@detail@glm@@QBEABU?$tvec4@M@12@I@Z ; glm::detail::tmat4x4<float>::operator[]
	push	eax
	lea	ecx, DWORD PTR $T70775[ebp]
	push	ecx
	call	??$?DM@detail@glm@@YA?AU?$tvec4@M@01@ABU201@ABM@Z ; glm::detail::operator*<float>
	add	esp, 12					; 0000000cH
	push	eax
	push	0
	mov	ecx, DWORD PTR _v$[ebp]
	call	??A?$tvec3@M@detail@glm@@QBEABMI@Z	; glm::detail::tvec3<float>::operator[]
	push	eax
	push	0
	mov	ecx, DWORD PTR _m$[ebp]
	call	??A?$tmat4x4@M@detail@glm@@QBEABU?$tvec4@M@12@I@Z ; glm::detail::tmat4x4<float>::operator[]
	push	eax
	lea	edx, DWORD PTR $T70776[ebp]
	push	edx
	call	??$?DM@detail@glm@@YA?AU?$tvec4@M@01@ABU201@ABM@Z ; glm::detail::operator*<float>
	add	esp, 12					; 0000000cH
	push	eax
	lea	eax, DWORD PTR $T70777[ebp]
	push	eax
	call	??$?HM@detail@glm@@YA?AU?$tvec4@M@01@ABU201@0@Z ; glm::detail::operator+<float>
	add	esp, 12					; 0000000cH
	push	eax
	lea	ecx, DWORD PTR $T70778[ebp]
	push	ecx
	call	??$?HM@detail@glm@@YA?AU?$tvec4@M@01@ABU201@0@Z ; glm::detail::operator+<float>
	add	esp, 12					; 0000000cH
	push	eax
	lea	edx, DWORD PTR $T70779[ebp]
	push	edx
	call	??$?HM@detail@glm@@YA?AU?$tvec4@M@01@ABU201@0@Z ; glm::detail::operator+<float>
	add	esp, 12					; 0000000cH
	push	eax
	push	3
	lea	ecx, DWORD PTR _Result$[ebp]
	call	??A?$tmat4x4@M@detail@glm@@QAEAAU?$tvec4@M@12@I@Z ; glm::detail::tmat4x4<float>::operator[]
	mov	ecx, eax
	call	??4?$tvec4@M@detail@glm@@QAEAAU012@ABU012@@Z ; glm::detail::tvec4<float>::operator=

; 40   : 		return Result;

	lea	eax, DWORD PTR _Result$[ebp]
	push	eax
	mov	ecx, DWORD PTR ___$ReturnUdt$[ebp]
	call	??0?$tmat4x4@M@detail@glm@@QAE@ABU012@@Z ; glm::detail::tmat4x4<float>::tmat4x4<float>
	mov	eax, DWORD PTR ___$ReturnUdt$[ebp]

; 41   : 	}

	push	edx
	mov	ecx, ebp
	push	eax
	lea	edx, DWORD PTR $LN5@translate
	call	@_RTC_CheckStackVars@8
	pop	eax
	pop	edx
	pop	edi
	pop	esi
	pop	ebx
	mov	ecx, DWORD PTR __$ArrayPad$[ebp]
	xor	ecx, ebp
	call	@__security_check_cookie@4
	add	esp, 412				; 0000019cH
	cmp	ebp, esp
	call	__RTC_CheckEsp
	mov	esp, ebp
	pop	ebp
	ret	0
$LN5@translate:
	DD	1
	DD	$LN4@translate
$LN4@translate:
	DD	-72					; ffffffb8H
	DD	64					; 00000040H
	DD	$LN3@translate
$LN3@translate:
	DB	82					; 00000052H
	DB	101					; 00000065H
	DB	115					; 00000073H
	DB	117					; 00000075H
	DB	108					; 0000006cH
	DB	116					; 00000074H
	DB	0
??$translate@M@glm@@YA?AU?$tmat4x4@M@detail@0@ABU120@ABU?$tvec3@M@20@@Z ENDP ; glm::translate<float>
_TEXT	ENDS
PUBLIC	?tan@@YAMM@Z					; tan
; Function compile flags: /Odtp /RTCsu /ZI
; File c:\opengl\glm-0.9.3.1\glm\core\func_trigonometric.inl
;	COMDAT ??$tan@M@glm@@YAMABM@Z
_TEXT	SEGMENT
_angle$ = 8						; size = 4
??$tan@M@glm@@YAMABM@Z PROC				; glm::tan<float>, COMDAT

; 94   : 	{

	push	ebp
	mov	ebp, esp
	sub	esp, 192				; 000000c0H
	push	ebx
	push	esi
	push	edi
	lea	edi, DWORD PTR [ebp-192]
	mov	ecx, 48					; 00000030H
	mov	eax, -858993460				; ccccccccH
	rep stosd

; 95   : 		GLM_STATIC_ASSERT(detail::type<genType>::is_float, "'tan' only accept floating-point input");
; 96   : 
; 97   : 		return ::std::tan(angle);

	mov	eax, DWORD PTR _angle$[ebp]
	push	ecx
	fld	DWORD PTR [eax]
	fstp	DWORD PTR [esp]
	call	?tan@@YAMM@Z				; tan
	add	esp, 4

; 98   : 	}

	pop	edi
	pop	esi
	pop	ebx
	add	esp, 192				; 000000c0H
	cmp	ebp, esp
	call	__RTC_CheckEsp
	mov	esp, ebp
	pop	ebp
	ret	0
??$tan@M@glm@@YAMABM@Z ENDP				; glm::tan<float>
_TEXT	ENDS
PUBLIC	_tanf
; Function compile flags: /Odtp /RTCsu /ZI
; File c:\program files (x86)\microsoft visual studio 10.0\vc\include\math.h
;	COMDAT ?tan@@YAMM@Z
_TEXT	SEGMENT
__X$ = 8						; size = 4
?tan@@YAMM@Z PROC					; tan, COMDAT

; 544  :         {return (tanf(_X)); }

	push	ebp
	mov	ebp, esp
	sub	esp, 192				; 000000c0H
	push	ebx
	push	esi
	push	edi
	lea	edi, DWORD PTR [ebp-192]
	mov	ecx, 48					; 00000030H
	mov	eax, -858993460				; ccccccccH
	rep stosd
	push	ecx
	fld	DWORD PTR __X$[ebp]
	fstp	DWORD PTR [esp]
	call	_tanf
	add	esp, 4
	pop	edi
	pop	esi
	pop	ebx
	add	esp, 192				; 000000c0H
	cmp	ebp, esp
	call	__RTC_CheckEsp
	mov	esp, ebp
	pop	ebp
	ret	0
?tan@@YAMM@Z ENDP					; tan
_TEXT	ENDS
EXTRN	_tan:PROC
; Function compile flags: /Odtp /RTCsu /ZI
;	COMDAT _tanf
_TEXT	SEGMENT
tv73 = -196						; size = 4
__X$ = 8						; size = 4
_tanf	PROC						; COMDAT

; 436  :         {return ((float)tan((double)_X)); }

	push	ebp
	mov	ebp, esp
	sub	esp, 196				; 000000c4H
	push	ebx
	push	esi
	push	edi
	lea	edi, DWORD PTR [ebp-196]
	mov	ecx, 49					; 00000031H
	mov	eax, -858993460				; ccccccccH
	rep stosd
	fld	DWORD PTR __X$[ebp]
	sub	esp, 8
	fstp	QWORD PTR [esp]
	call	_tan
	add	esp, 8
	fstp	DWORD PTR tv73[ebp]
	fld	DWORD PTR tv73[ebp]
	pop	edi
	pop	esi
	pop	ebx
	add	esp, 196				; 000000c4H
	cmp	ebp, esp
	call	__RTC_CheckEsp
	mov	esp, ebp
	pop	ebp
	ret	0
_tanf	ENDP
; Function compile flags: /Odtp /RTCsu /ZI
; File c:\program files (x86)\microsoft visual studio 10.0\vc\include\xmemory
_TEXT	ENDS
;	COMDAT ??$_Destroy@U_Container_proxy@std@@@std@@YAXPAU_Container_proxy@0@@Z
_TEXT	SEGMENT
__Ptr$ = 8						; size = 4
??$_Destroy@U_Container_proxy@std@@@std@@YAXPAU_Container_proxy@0@@Z PROC ; std::_Destroy<std::_Container_proxy>, COMDAT

; 62   : 	{	// destroy object at _Ptr

	push	ebp
	mov	ebp, esp
	sub	esp, 192				; 000000c0H
	push	ebx
	push	esi
	push	edi
	lea	edi, DWORD PTR [ebp-192]
	mov	ecx, 48					; 00000030H
	mov	eax, -858993460				; ccccccccH
	rep stosd

; 63   : 	_Ptr->~_Ty();
; 64   : 	}

	pop	edi
	pop	esi
	pop	ebx
	mov	esp, ebp
	pop	ebp
	ret	0
??$_Destroy@U_Container_proxy@std@@@std@@YAXPAU_Container_proxy@0@@Z ENDP ; std::_Destroy<std::_Container_proxy>
_TEXT	ENDS
PUBLIC	??_C@_1FK@IBGOADNM@?$AAc?$AA?3?$AA?2?$AAo?$AAp?$AAe?$AAn?$AAg?$AAl?$AA?2?$AAg?$AAl?$AAm?$AA?9?$AA0?$AA?4?$AA9?$AA?4?$AA3?$AA?4?$AA1?$AA?2?$AAg?$AAl?$AAm?$AA?2?$AAc?$AAo?$AAr?$AAe?$AA?2?$AAt@ ; `string'
PUBLIC	?length@?$tvec3@M@detail@glm@@QBEIXZ		; glm::detail::tvec3<float>::length
;	COMDAT ??_C@_1FK@IBGOADNM@?$AAc?$AA?3?$AA?2?$AAo?$AAp?$AAe?$AAn?$AAg?$AAl?$AA?2?$AAg?$AAl?$AAm?$AA?9?$AA0?$AA?4?$AA9?$AA?4?$AA3?$AA?4?$AA1?$AA?2?$AAg?$AAl?$AAm?$AA?2?$AAc?$AAo?$AAr?$AAe?$AA?2?$AAt@
; File c:\opengl\glm-0.9.3.1\glm\core\type_vec3.inl
CONST	SEGMENT
??_C@_1FK@IBGOADNM@?$AAc?$AA?3?$AA?2?$AAo?$AAp?$AAe?$AAn?$AAg?$AAl?$AA?2?$AAg?$AAl?$AAm?$AA?9?$AA0?$AA?4?$AA9?$AA?4?$AA3?$AA?4?$AA1?$AA?2?$AAg?$AAl?$AAm?$AA?2?$AAc?$AAo?$AAr?$AAe?$AA?2?$AAt@ DB 'c'
	DB	00H, ':', 00H, '\', 00H, 'o', 00H, 'p', 00H, 'e', 00H, 'n', 00H
	DB	'g', 00H, 'l', 00H, '\', 00H, 'g', 00H, 'l', 00H, 'm', 00H, '-'
	DB	00H, '0', 00H, '.', 00H, '9', 00H, '.', 00H, '3', 00H, '.', 00H
	DB	'1', 00H, '\', 00H, 'g', 00H, 'l', 00H, 'm', 00H, '\', 00H, 'c'
	DB	00H, 'o', 00H, 'r', 00H, 'e', 00H, '\', 00H, 't', 00H, 'y', 00H
	DB	'p', 00H, 'e', 00H, '_', 00H, 'v', 00H, 'e', 00H, 'c', 00H, '3'
	DB	00H, '.', 00H, 'i', 00H, 'n', 00H, 'l', 00H, 00H, 00H ; `string'
; Function compile flags: /Odtp /RTCsu /ZI
CONST	ENDS
;	COMDAT ??A?$tvec3@M@detail@glm@@QBEABMI@Z
_TEXT	SEGMENT
_this$ = -8						; size = 4
_i$ = 8							; size = 4
??A?$tvec3@M@detail@glm@@QBEABMI@Z PROC			; glm::detail::tvec3<float>::operator[], COMDAT
; _this$ = ecx

; 58   : 	{

	push	ebp
	mov	ebp, esp
	sub	esp, 204				; 000000ccH
	push	ebx
	push	esi
	push	edi
	push	ecx
	lea	edi, DWORD PTR [ebp-204]
	mov	ecx, 51					; 00000033H
	mov	eax, -858993460				; ccccccccH
	rep stosd
	pop	ecx
	mov	DWORD PTR _this$[ebp], ecx

; 59   : 		assert(i < this->length());

	mov	ecx, DWORD PTR _this$[ebp]
	call	?length@?$tvec3@M@detail@glm@@QBEIXZ	; glm::detail::tvec3<float>::length
	cmp	DWORD PTR _i$[ebp], eax
	jb	SHORT $LN3@operator@6
	mov	esi, esp
	push	59					; 0000003bH
	push	OFFSET ??_C@_1FK@IBGOADNM@?$AAc?$AA?3?$AA?2?$AAo?$AAp?$AAe?$AAn?$AAg?$AAl?$AA?2?$AAg?$AAl?$AAm?$AA?9?$AA0?$AA?4?$AA9?$AA?4?$AA3?$AA?4?$AA1?$AA?2?$AAg?$AAl?$AAm?$AA?2?$AAc?$AAo?$AAr?$AAe?$AA?2?$AAt@
	push	OFFSET ??_C@_1CG@KOFHLCJL@?$AAi?$AA?5?$AA?$DM?$AA?5?$AAt?$AAh?$AAi?$AAs?$AA?9?$AA?$DO?$AAl?$AAe?$AAn?$AAg?$AAt?$AAh?$AA?$CI?$AA?$CJ?$AA?$AA@
	call	DWORD PTR __imp___wassert
	add	esp, 12					; 0000000cH
	cmp	esi, esp
	call	__RTC_CheckEsp
$LN3@operator@6:

; 60   : 		return (&x)[i];

	mov	eax, DWORD PTR _i$[ebp]
	mov	ecx, DWORD PTR _this$[ebp]
	lea	eax, DWORD PTR [ecx+eax*4]

; 61   : 	}

	pop	edi
	pop	esi
	pop	ebx
	add	esp, 204				; 000000ccH
	cmp	ebp, esp
	call	__RTC_CheckEsp
	mov	esp, ebp
	pop	ebp
	ret	4
??A?$tvec3@M@detail@glm@@QBEABMI@Z ENDP			; glm::detail::tvec3<float>::operator[]
; Function compile flags: /Odtp /RTCsu /ZI
_TEXT	ENDS
;	COMDAT ?length@?$tvec3@M@detail@glm@@QBEIXZ
_TEXT	SEGMENT
_this$ = -8						; size = 4
?length@?$tvec3@M@detail@glm@@QBEIXZ PROC		; glm::detail::tvec3<float>::length, COMDAT
; _this$ = ecx

; 34   : 	{

	push	ebp
	mov	ebp, esp
	sub	esp, 204				; 000000ccH
	push	ebx
	push	esi
	push	edi
	push	ecx
	lea	edi, DWORD PTR [ebp-204]
	mov	ecx, 51					; 00000033H
	mov	eax, -858993460				; ccccccccH
	rep stosd
	pop	ecx
	mov	DWORD PTR _this$[ebp], ecx

; 35   : 		return 3;

	mov	eax, 3

; 36   : 	}

	pop	edi
	pop	esi
	pop	ebx
	mov	esp, ebp
	pop	ebp
	ret	0
?length@?$tvec3@M@detail@glm@@QBEIXZ ENDP		; glm::detail::tvec3<float>::length
; Function compile flags: /Odtp /RTCsu /ZI
; File c:\opengl\glm-0.9.3.1\glm\core\type_vec4.inl
_TEXT	ENDS
;	COMDAT ?length@?$tvec4@M@detail@glm@@QBEIXZ
_TEXT	SEGMENT
_this$ = -8						; size = 4
?length@?$tvec4@M@detail@glm@@QBEIXZ PROC		; glm::detail::tvec4<float>::length, COMDAT
; _this$ = ecx

; 34   : 	{

	push	ebp
	mov	ebp, esp
	sub	esp, 204				; 000000ccH
	push	ebx
	push	esi
	push	edi
	push	ecx
	lea	edi, DWORD PTR [ebp-204]
	mov	ecx, 51					; 00000033H
	mov	eax, -858993460				; ccccccccH
	rep stosd
	pop	ecx
	mov	DWORD PTR _this$[ebp], ecx

; 35   : 		return 4;

	mov	eax, 4

; 36   : 	}

	pop	edi
	pop	esi
	pop	ebx
	mov	esp, ebp
	pop	ebp
	ret	0
?length@?$tvec4@M@detail@glm@@QBEIXZ ENDP		; glm::detail::tvec4<float>::length
; Function compile flags: /Odtp /RTCsu /ZI
; File c:\opengl\glm-0.9.3.1\glm\core\type_mat4x4.inl
_TEXT	ENDS
;	COMDAT ?length@?$tmat4x4@M@detail@glm@@QBEIXZ
_TEXT	SEGMENT
_this$ = -8						; size = 4
?length@?$tmat4x4@M@detail@glm@@QBEIXZ PROC		; glm::detail::tmat4x4<float>::length, COMDAT
; _this$ = ecx

; 34   :     {

	push	ebp
	mov	ebp, esp
	sub	esp, 204				; 000000ccH
	push	ebx
	push	esi
	push	edi
	push	ecx
	lea	edi, DWORD PTR [ebp-204]
	mov	ecx, 51					; 00000033H
	mov	eax, -858993460				; ccccccccH
	rep stosd
	pop	ecx
	mov	DWORD PTR _this$[ebp], ecx

; 35   :         return 4;

	mov	eax, 4

; 36   :     }

	pop	edi
	pop	esi
	pop	ebx
	mov	esp, ebp
	pop	ebp
	ret	0
?length@?$tmat4x4@M@detail@glm@@QBEIXZ ENDP		; glm::detail::tmat4x4<float>::length
_TEXT	ENDS
END
