; Listing generated by Microsoft (R) Optimizing Compiler Version 16.00.40219.01 

	TITLE	C:\Users\kmadsen\Google Drive\OpenGL_Projects\Starter\Starter\ShadowMap.cpp
	.686P
	.XMM
	include listing.inc
	.model	flat

INCLUDELIB MSVCRTD
INCLUDELIB OLDNAMES

PUBLIC	?value@?$integral_constant@_N$0A@@tr1@std@@2_NB	; std::tr1::integral_constant<bool,0>::value
PUBLIC	?value@?$integral_constant@_N$00@tr1@std@@2_NB	; std::tr1::integral_constant<bool,1>::value
PUBLIC	?value@?$integral_constant@I$0A@@tr1@std@@2IB	; std::tr1::integral_constant<unsigned int,0>::value
PUBLIC	?_Rank@?$_Arithmetic_traits@_N@std@@2HB		; std::_Arithmetic_traits<bool>::_Rank
PUBLIC	?_Rank@?$_Arithmetic_traits@D@std@@2HB		; std::_Arithmetic_traits<char>::_Rank
PUBLIC	?_Rank@?$_Arithmetic_traits@C@std@@2HB		; std::_Arithmetic_traits<signed char>::_Rank
PUBLIC	?_Rank@?$_Arithmetic_traits@E@std@@2HB		; std::_Arithmetic_traits<unsigned char>::_Rank
PUBLIC	?_Rank@?$_Arithmetic_traits@F@std@@2HB		; std::_Arithmetic_traits<short>::_Rank
PUBLIC	?_Rank@?$_Arithmetic_traits@G@std@@2HB		; std::_Arithmetic_traits<unsigned short>::_Rank
PUBLIC	?_Rank@?$_Arithmetic_traits@H@std@@2HB		; std::_Arithmetic_traits<int>::_Rank
PUBLIC	?_Rank@?$_Arithmetic_traits@I@std@@2HB		; std::_Arithmetic_traits<unsigned int>::_Rank
PUBLIC	?_Rank@?$_Arithmetic_traits@J@std@@2HB		; std::_Arithmetic_traits<long>::_Rank
PUBLIC	?_Rank@?$_Arithmetic_traits@K@std@@2HB		; std::_Arithmetic_traits<unsigned long>::_Rank
PUBLIC	?_Rank@?$_Arithmetic_traits@_J@std@@2HB		; std::_Arithmetic_traits<__int64>::_Rank
PUBLIC	?_Rank@?$_Arithmetic_traits@_K@std@@2HB		; std::_Arithmetic_traits<unsigned __int64>::_Rank
PUBLIC	?_Rank@?$_Arithmetic_traits@M@std@@2HB		; std::_Arithmetic_traits<float>::_Rank
PUBLIC	?_Rank@?$_Arithmetic_traits@N@std@@2HB		; std::_Arithmetic_traits<double>::_Rank
PUBLIC	?_Rank@?$_Arithmetic_traits@O@std@@2HB		; std::_Arithmetic_traits<long double>::_Rank
PUBLIC	?collate@?$_Locbase@H@std@@2HB			; std::_Locbase<int>::collate
PUBLIC	?ctype@?$_Locbase@H@std@@2HB			; std::_Locbase<int>::ctype
PUBLIC	?monetary@?$_Locbase@H@std@@2HB			; std::_Locbase<int>::monetary
PUBLIC	?numeric@?$_Locbase@H@std@@2HB			; std::_Locbase<int>::numeric
PUBLIC	?time@?$_Locbase@H@std@@2HB			; std::_Locbase<int>::time
PUBLIC	?messages@?$_Locbase@H@std@@2HB			; std::_Locbase<int>::messages
PUBLIC	?all@?$_Locbase@H@std@@2HB			; std::_Locbase<int>::all
PUBLIC	?none@?$_Locbase@H@std@@2HB			; std::_Locbase<int>::none
PUBLIC	?skipws@?$_Iosb@H@std@@2W4_Fmtflags@12@B	; std::_Iosb<int>::skipws
PUBLIC	?unitbuf@?$_Iosb@H@std@@2W4_Fmtflags@12@B	; std::_Iosb<int>::unitbuf
PUBLIC	?uppercase@?$_Iosb@H@std@@2W4_Fmtflags@12@B	; std::_Iosb<int>::uppercase
PUBLIC	?showbase@?$_Iosb@H@std@@2W4_Fmtflags@12@B	; std::_Iosb<int>::showbase
PUBLIC	?showpoint@?$_Iosb@H@std@@2W4_Fmtflags@12@B	; std::_Iosb<int>::showpoint
PUBLIC	?showpos@?$_Iosb@H@std@@2W4_Fmtflags@12@B	; std::_Iosb<int>::showpos
PUBLIC	?left@?$_Iosb@H@std@@2W4_Fmtflags@12@B		; std::_Iosb<int>::left
PUBLIC	?right@?$_Iosb@H@std@@2W4_Fmtflags@12@B		; std::_Iosb<int>::right
PUBLIC	?internal@?$_Iosb@H@std@@2W4_Fmtflags@12@B	; std::_Iosb<int>::internal
PUBLIC	?dec@?$_Iosb@H@std@@2W4_Fmtflags@12@B		; std::_Iosb<int>::dec
PUBLIC	?oct@?$_Iosb@H@std@@2W4_Fmtflags@12@B		; std::_Iosb<int>::oct
PUBLIC	?hex@?$_Iosb@H@std@@2W4_Fmtflags@12@B		; std::_Iosb<int>::hex
PUBLIC	?scientific@?$_Iosb@H@std@@2W4_Fmtflags@12@B	; std::_Iosb<int>::scientific
PUBLIC	?fixed@?$_Iosb@H@std@@2W4_Fmtflags@12@B		; std::_Iosb<int>::fixed
PUBLIC	?hexfloat@?$_Iosb@H@std@@2W4_Fmtflags@12@B	; std::_Iosb<int>::hexfloat
PUBLIC	?boolalpha@?$_Iosb@H@std@@2W4_Fmtflags@12@B	; std::_Iosb<int>::boolalpha
PUBLIC	?_Stdio@?$_Iosb@H@std@@2W4_Fmtflags@12@B	; std::_Iosb<int>::_Stdio
PUBLIC	?adjustfield@?$_Iosb@H@std@@2W4_Fmtflags@12@B	; std::_Iosb<int>::adjustfield
PUBLIC	?basefield@?$_Iosb@H@std@@2W4_Fmtflags@12@B	; std::_Iosb<int>::basefield
PUBLIC	?floatfield@?$_Iosb@H@std@@2W4_Fmtflags@12@B	; std::_Iosb<int>::floatfield
PUBLIC	?goodbit@?$_Iosb@H@std@@2W4_Iostate@12@B	; std::_Iosb<int>::goodbit
PUBLIC	?eofbit@?$_Iosb@H@std@@2W4_Iostate@12@B		; std::_Iosb<int>::eofbit
PUBLIC	?failbit@?$_Iosb@H@std@@2W4_Iostate@12@B	; std::_Iosb<int>::failbit
PUBLIC	?badbit@?$_Iosb@H@std@@2W4_Iostate@12@B		; std::_Iosb<int>::badbit
PUBLIC	?_Hardfail@?$_Iosb@H@std@@2W4_Iostate@12@B	; std::_Iosb<int>::_Hardfail
PUBLIC	?in@?$_Iosb@H@std@@2W4_Openmode@12@B		; std::_Iosb<int>::in
PUBLIC	?out@?$_Iosb@H@std@@2W4_Openmode@12@B		; std::_Iosb<int>::out
PUBLIC	?ate@?$_Iosb@H@std@@2W4_Openmode@12@B		; std::_Iosb<int>::ate
PUBLIC	?app@?$_Iosb@H@std@@2W4_Openmode@12@B		; std::_Iosb<int>::app
PUBLIC	?trunc@?$_Iosb@H@std@@2W4_Openmode@12@B		; std::_Iosb<int>::trunc
PUBLIC	?_Nocreate@?$_Iosb@H@std@@2W4_Openmode@12@B	; std::_Iosb<int>::_Nocreate
PUBLIC	?_Noreplace@?$_Iosb@H@std@@2W4_Openmode@12@B	; std::_Iosb<int>::_Noreplace
PUBLIC	?binary@?$_Iosb@H@std@@2W4_Openmode@12@B	; std::_Iosb<int>::binary
PUBLIC	?beg@?$_Iosb@H@std@@2W4_Seekdir@12@B		; std::_Iosb<int>::beg
PUBLIC	?cur@?$_Iosb@H@std@@2W4_Seekdir@12@B		; std::_Iosb<int>::cur
PUBLIC	?end@?$_Iosb@H@std@@2W4_Seekdir@12@B		; std::_Iosb<int>::end
;	COMDAT ?end@?$_Iosb@H@std@@2W4_Seekdir@12@B
CONST	SEGMENT
?end@?$_Iosb@H@std@@2W4_Seekdir@12@B DD 02H		; std::_Iosb<int>::end
CONST	ENDS
;	COMDAT ?cur@?$_Iosb@H@std@@2W4_Seekdir@12@B
CONST	SEGMENT
?cur@?$_Iosb@H@std@@2W4_Seekdir@12@B DD 01H		; std::_Iosb<int>::cur
CONST	ENDS
;	COMDAT ?beg@?$_Iosb@H@std@@2W4_Seekdir@12@B
CONST	SEGMENT
?beg@?$_Iosb@H@std@@2W4_Seekdir@12@B DD 00H		; std::_Iosb<int>::beg
CONST	ENDS
;	COMDAT ?binary@?$_Iosb@H@std@@2W4_Openmode@12@B
CONST	SEGMENT
?binary@?$_Iosb@H@std@@2W4_Openmode@12@B DD 020H	; std::_Iosb<int>::binary
CONST	ENDS
;	COMDAT ?_Noreplace@?$_Iosb@H@std@@2W4_Openmode@12@B
CONST	SEGMENT
?_Noreplace@?$_Iosb@H@std@@2W4_Openmode@12@B DD 080H	; std::_Iosb<int>::_Noreplace
CONST	ENDS
;	COMDAT ?_Nocreate@?$_Iosb@H@std@@2W4_Openmode@12@B
CONST	SEGMENT
?_Nocreate@?$_Iosb@H@std@@2W4_Openmode@12@B DD 040H	; std::_Iosb<int>::_Nocreate
CONST	ENDS
;	COMDAT ?trunc@?$_Iosb@H@std@@2W4_Openmode@12@B
CONST	SEGMENT
?trunc@?$_Iosb@H@std@@2W4_Openmode@12@B DD 010H		; std::_Iosb<int>::trunc
CONST	ENDS
;	COMDAT ?app@?$_Iosb@H@std@@2W4_Openmode@12@B
CONST	SEGMENT
?app@?$_Iosb@H@std@@2W4_Openmode@12@B DD 08H		; std::_Iosb<int>::app
CONST	ENDS
;	COMDAT ?ate@?$_Iosb@H@std@@2W4_Openmode@12@B
CONST	SEGMENT
?ate@?$_Iosb@H@std@@2W4_Openmode@12@B DD 04H		; std::_Iosb<int>::ate
CONST	ENDS
;	COMDAT ?out@?$_Iosb@H@std@@2W4_Openmode@12@B
CONST	SEGMENT
?out@?$_Iosb@H@std@@2W4_Openmode@12@B DD 02H		; std::_Iosb<int>::out
CONST	ENDS
;	COMDAT ?in@?$_Iosb@H@std@@2W4_Openmode@12@B
CONST	SEGMENT
?in@?$_Iosb@H@std@@2W4_Openmode@12@B DD 01H		; std::_Iosb<int>::in
CONST	ENDS
;	COMDAT ?_Hardfail@?$_Iosb@H@std@@2W4_Iostate@12@B
CONST	SEGMENT
?_Hardfail@?$_Iosb@H@std@@2W4_Iostate@12@B DD 010H	; std::_Iosb<int>::_Hardfail
CONST	ENDS
;	COMDAT ?badbit@?$_Iosb@H@std@@2W4_Iostate@12@B
CONST	SEGMENT
?badbit@?$_Iosb@H@std@@2W4_Iostate@12@B DD 04H		; std::_Iosb<int>::badbit
CONST	ENDS
;	COMDAT ?failbit@?$_Iosb@H@std@@2W4_Iostate@12@B
CONST	SEGMENT
?failbit@?$_Iosb@H@std@@2W4_Iostate@12@B DD 02H		; std::_Iosb<int>::failbit
CONST	ENDS
;	COMDAT ?eofbit@?$_Iosb@H@std@@2W4_Iostate@12@B
CONST	SEGMENT
?eofbit@?$_Iosb@H@std@@2W4_Iostate@12@B DD 01H		; std::_Iosb<int>::eofbit
CONST	ENDS
;	COMDAT ?goodbit@?$_Iosb@H@std@@2W4_Iostate@12@B
CONST	SEGMENT
?goodbit@?$_Iosb@H@std@@2W4_Iostate@12@B DD 00H		; std::_Iosb<int>::goodbit
CONST	ENDS
;	COMDAT ?floatfield@?$_Iosb@H@std@@2W4_Fmtflags@12@B
CONST	SEGMENT
?floatfield@?$_Iosb@H@std@@2W4_Fmtflags@12@B DD 03000H	; std::_Iosb<int>::floatfield
CONST	ENDS
;	COMDAT ?basefield@?$_Iosb@H@std@@2W4_Fmtflags@12@B
CONST	SEGMENT
?basefield@?$_Iosb@H@std@@2W4_Fmtflags@12@B DD 0e00H	; std::_Iosb<int>::basefield
CONST	ENDS
;	COMDAT ?adjustfield@?$_Iosb@H@std@@2W4_Fmtflags@12@B
CONST	SEGMENT
?adjustfield@?$_Iosb@H@std@@2W4_Fmtflags@12@B DD 01c0H	; std::_Iosb<int>::adjustfield
CONST	ENDS
;	COMDAT ?_Stdio@?$_Iosb@H@std@@2W4_Fmtflags@12@B
CONST	SEGMENT
?_Stdio@?$_Iosb@H@std@@2W4_Fmtflags@12@B DD 08000H	; std::_Iosb<int>::_Stdio
CONST	ENDS
;	COMDAT ?boolalpha@?$_Iosb@H@std@@2W4_Fmtflags@12@B
CONST	SEGMENT
?boolalpha@?$_Iosb@H@std@@2W4_Fmtflags@12@B DD 04000H	; std::_Iosb<int>::boolalpha
CONST	ENDS
;	COMDAT ?hexfloat@?$_Iosb@H@std@@2W4_Fmtflags@12@B
CONST	SEGMENT
?hexfloat@?$_Iosb@H@std@@2W4_Fmtflags@12@B DD 03000H	; std::_Iosb<int>::hexfloat
CONST	ENDS
;	COMDAT ?fixed@?$_Iosb@H@std@@2W4_Fmtflags@12@B
CONST	SEGMENT
?fixed@?$_Iosb@H@std@@2W4_Fmtflags@12@B DD 02000H	; std::_Iosb<int>::fixed
CONST	ENDS
;	COMDAT ?scientific@?$_Iosb@H@std@@2W4_Fmtflags@12@B
CONST	SEGMENT
?scientific@?$_Iosb@H@std@@2W4_Fmtflags@12@B DD 01000H	; std::_Iosb<int>::scientific
CONST	ENDS
;	COMDAT ?hex@?$_Iosb@H@std@@2W4_Fmtflags@12@B
CONST	SEGMENT
?hex@?$_Iosb@H@std@@2W4_Fmtflags@12@B DD 0800H		; std::_Iosb<int>::hex
CONST	ENDS
;	COMDAT ?oct@?$_Iosb@H@std@@2W4_Fmtflags@12@B
CONST	SEGMENT
?oct@?$_Iosb@H@std@@2W4_Fmtflags@12@B DD 0400H		; std::_Iosb<int>::oct
CONST	ENDS
;	COMDAT ?dec@?$_Iosb@H@std@@2W4_Fmtflags@12@B
CONST	SEGMENT
?dec@?$_Iosb@H@std@@2W4_Fmtflags@12@B DD 0200H		; std::_Iosb<int>::dec
CONST	ENDS
;	COMDAT ?internal@?$_Iosb@H@std@@2W4_Fmtflags@12@B
CONST	SEGMENT
?internal@?$_Iosb@H@std@@2W4_Fmtflags@12@B DD 0100H	; std::_Iosb<int>::internal
CONST	ENDS
;	COMDAT ?right@?$_Iosb@H@std@@2W4_Fmtflags@12@B
CONST	SEGMENT
?right@?$_Iosb@H@std@@2W4_Fmtflags@12@B DD 080H		; std::_Iosb<int>::right
CONST	ENDS
;	COMDAT ?left@?$_Iosb@H@std@@2W4_Fmtflags@12@B
CONST	SEGMENT
?left@?$_Iosb@H@std@@2W4_Fmtflags@12@B DD 040H		; std::_Iosb<int>::left
CONST	ENDS
;	COMDAT ?showpos@?$_Iosb@H@std@@2W4_Fmtflags@12@B
CONST	SEGMENT
?showpos@?$_Iosb@H@std@@2W4_Fmtflags@12@B DD 020H	; std::_Iosb<int>::showpos
CONST	ENDS
;	COMDAT ?showpoint@?$_Iosb@H@std@@2W4_Fmtflags@12@B
CONST	SEGMENT
?showpoint@?$_Iosb@H@std@@2W4_Fmtflags@12@B DD 010H	; std::_Iosb<int>::showpoint
CONST	ENDS
;	COMDAT ?showbase@?$_Iosb@H@std@@2W4_Fmtflags@12@B
CONST	SEGMENT
?showbase@?$_Iosb@H@std@@2W4_Fmtflags@12@B DD 08H	; std::_Iosb<int>::showbase
CONST	ENDS
;	COMDAT ?uppercase@?$_Iosb@H@std@@2W4_Fmtflags@12@B
CONST	SEGMENT
?uppercase@?$_Iosb@H@std@@2W4_Fmtflags@12@B DD 04H	; std::_Iosb<int>::uppercase
CONST	ENDS
;	COMDAT ?unitbuf@?$_Iosb@H@std@@2W4_Fmtflags@12@B
CONST	SEGMENT
?unitbuf@?$_Iosb@H@std@@2W4_Fmtflags@12@B DD 02H	; std::_Iosb<int>::unitbuf
CONST	ENDS
;	COMDAT ?skipws@?$_Iosb@H@std@@2W4_Fmtflags@12@B
CONST	SEGMENT
?skipws@?$_Iosb@H@std@@2W4_Fmtflags@12@B DD 01H		; std::_Iosb<int>::skipws
CONST	ENDS
;	COMDAT ?none@?$_Locbase@H@std@@2HB
CONST	SEGMENT
?none@?$_Locbase@H@std@@2HB DD 00H			; std::_Locbase<int>::none
CONST	ENDS
;	COMDAT ?all@?$_Locbase@H@std@@2HB
CONST	SEGMENT
?all@?$_Locbase@H@std@@2HB DD 03fH			; std::_Locbase<int>::all
CONST	ENDS
;	COMDAT ?messages@?$_Locbase@H@std@@2HB
CONST	SEGMENT
?messages@?$_Locbase@H@std@@2HB DD 020H			; std::_Locbase<int>::messages
CONST	ENDS
;	COMDAT ?time@?$_Locbase@H@std@@2HB
CONST	SEGMENT
?time@?$_Locbase@H@std@@2HB DD 010H			; std::_Locbase<int>::time
CONST	ENDS
;	COMDAT ?numeric@?$_Locbase@H@std@@2HB
CONST	SEGMENT
?numeric@?$_Locbase@H@std@@2HB DD 08H			; std::_Locbase<int>::numeric
CONST	ENDS
;	COMDAT ?monetary@?$_Locbase@H@std@@2HB
CONST	SEGMENT
?monetary@?$_Locbase@H@std@@2HB DD 04H			; std::_Locbase<int>::monetary
CONST	ENDS
;	COMDAT ?ctype@?$_Locbase@H@std@@2HB
CONST	SEGMENT
?ctype@?$_Locbase@H@std@@2HB DD 02H			; std::_Locbase<int>::ctype
CONST	ENDS
;	COMDAT ?collate@?$_Locbase@H@std@@2HB
CONST	SEGMENT
?collate@?$_Locbase@H@std@@2HB DD 01H			; std::_Locbase<int>::collate
CONST	ENDS
;	COMDAT ?_Rank@?$_Arithmetic_traits@O@std@@2HB
CONST	SEGMENT
?_Rank@?$_Arithmetic_traits@O@std@@2HB DD 09H		; std::_Arithmetic_traits<long double>::_Rank
CONST	ENDS
;	COMDAT ?_Rank@?$_Arithmetic_traits@N@std@@2HB
CONST	SEGMENT
?_Rank@?$_Arithmetic_traits@N@std@@2HB DD 08H		; std::_Arithmetic_traits<double>::_Rank
CONST	ENDS
;	COMDAT ?_Rank@?$_Arithmetic_traits@M@std@@2HB
CONST	SEGMENT
?_Rank@?$_Arithmetic_traits@M@std@@2HB DD 07H		; std::_Arithmetic_traits<float>::_Rank
CONST	ENDS
;	COMDAT ?_Rank@?$_Arithmetic_traits@_K@std@@2HB
CONST	SEGMENT
?_Rank@?$_Arithmetic_traits@_K@std@@2HB DD 06H		; std::_Arithmetic_traits<unsigned __int64>::_Rank
CONST	ENDS
;	COMDAT ?_Rank@?$_Arithmetic_traits@_J@std@@2HB
CONST	SEGMENT
?_Rank@?$_Arithmetic_traits@_J@std@@2HB DD 06H		; std::_Arithmetic_traits<__int64>::_Rank
CONST	ENDS
;	COMDAT ?_Rank@?$_Arithmetic_traits@K@std@@2HB
CONST	SEGMENT
?_Rank@?$_Arithmetic_traits@K@std@@2HB DD 05H		; std::_Arithmetic_traits<unsigned long>::_Rank
CONST	ENDS
;	COMDAT ?_Rank@?$_Arithmetic_traits@J@std@@2HB
CONST	SEGMENT
?_Rank@?$_Arithmetic_traits@J@std@@2HB DD 05H		; std::_Arithmetic_traits<long>::_Rank
CONST	ENDS
;	COMDAT ?_Rank@?$_Arithmetic_traits@I@std@@2HB
CONST	SEGMENT
?_Rank@?$_Arithmetic_traits@I@std@@2HB DD 04H		; std::_Arithmetic_traits<unsigned int>::_Rank
CONST	ENDS
;	COMDAT ?_Rank@?$_Arithmetic_traits@H@std@@2HB
CONST	SEGMENT
?_Rank@?$_Arithmetic_traits@H@std@@2HB DD 04H		; std::_Arithmetic_traits<int>::_Rank
CONST	ENDS
;	COMDAT ?_Rank@?$_Arithmetic_traits@G@std@@2HB
CONST	SEGMENT
?_Rank@?$_Arithmetic_traits@G@std@@2HB DD 03H		; std::_Arithmetic_traits<unsigned short>::_Rank
CONST	ENDS
;	COMDAT ?_Rank@?$_Arithmetic_traits@F@std@@2HB
CONST	SEGMENT
?_Rank@?$_Arithmetic_traits@F@std@@2HB DD 03H		; std::_Arithmetic_traits<short>::_Rank
CONST	ENDS
;	COMDAT ?_Rank@?$_Arithmetic_traits@E@std@@2HB
CONST	SEGMENT
?_Rank@?$_Arithmetic_traits@E@std@@2HB DD 02H		; std::_Arithmetic_traits<unsigned char>::_Rank
CONST	ENDS
;	COMDAT ?_Rank@?$_Arithmetic_traits@C@std@@2HB
CONST	SEGMENT
?_Rank@?$_Arithmetic_traits@C@std@@2HB DD 02H		; std::_Arithmetic_traits<signed char>::_Rank
CONST	ENDS
;	COMDAT ?_Rank@?$_Arithmetic_traits@D@std@@2HB
CONST	SEGMENT
?_Rank@?$_Arithmetic_traits@D@std@@2HB DD 02H		; std::_Arithmetic_traits<char>::_Rank
CONST	ENDS
;	COMDAT ?_Rank@?$_Arithmetic_traits@_N@std@@2HB
CONST	SEGMENT
?_Rank@?$_Arithmetic_traits@_N@std@@2HB DD 01H		; std::_Arithmetic_traits<bool>::_Rank
CONST	ENDS
;	COMDAT ?value@?$integral_constant@I$0A@@tr1@std@@2IB
CONST	SEGMENT
?value@?$integral_constant@I$0A@@tr1@std@@2IB DD 00H	; std::tr1::integral_constant<unsigned int,0>::value
CONST	ENDS
;	COMDAT ?value@?$integral_constant@_N$00@tr1@std@@2_NB
CONST	SEGMENT
?value@?$integral_constant@_N$00@tr1@std@@2_NB DB 01H	; std::tr1::integral_constant<bool,1>::value
CONST	ENDS
;	COMDAT ?value@?$integral_constant@_N$0A@@tr1@std@@2_NB
CONST	SEGMENT
?value@?$integral_constant@_N$0A@@tr1@std@@2_NB DB 00H	; std::tr1::integral_constant<bool,0>::value
CONST	ENDS
PUBLIC	??1GLSLProgram@@QAE@XZ				; GLSLProgram::~GLSLProgram
PUBLIC	__real@3fe6666660000000
PUBLIC	__real@3fd3333340000000
PUBLIC	__real@40000000
PUBLIC	__real@42200000
PUBLIC	??0?$tmat4x4@M@detail@glm@@QAE@ABM@Z		; glm::detail::tmat4x4<float>::tmat4x4<float>
PUBLIC	??0?$tmat4x4@M@detail@glm@@QAE@XZ		; glm::detail::tmat4x4<float>::tmat4x4<float>
PUBLIC	__real@42480000
PUBLIC	__real@3f800000
PUBLIC	__real@43800000
PUBLIC	??0KMouse@@QAE@XZ				; KMouse::KMouse
PUBLIC	??_7ShadowMap@@6B@				; ShadowMap::`vftable'
PUBLIC	??0KScene@@QAE@XZ				; KScene::KScene
PUBLIC	??0ShadowMap@@QAE@XZ				; ShadowMap::ShadowMap
PUBLIC	??_R4ShadowMap@@6B@				; ShadowMap::`RTTI Complete Object Locator'
PUBLIC	??_R0?AVShadowMap@@@8				; ShadowMap `RTTI Type Descriptor'
PUBLIC	??_R3ShadowMap@@8				; ShadowMap::`RTTI Class Hierarchy Descriptor'
PUBLIC	??_R2ShadowMap@@8				; ShadowMap::`RTTI Base Class Array'
PUBLIC	??_R1A@?0A@EA@ShadowMap@@8			; ShadowMap::`RTTI Base Class Descriptor at (0,-1,0,64)'
PUBLIC	??_R1A@?0A@EA@KScene@@8				; KScene::`RTTI Base Class Descriptor at (0,-1,0,64)'
PUBLIC	??_R0?AVKScene@@@8				; KScene `RTTI Type Descriptor'
PUBLIC	??_R3KScene@@8					; KScene::`RTTI Class Hierarchy Descriptor'
PUBLIC	??_R2KScene@@8					; KScene::`RTTI Base Class Array'
PUBLIC	?Init@ShadowMap@@UAEXXZ				; ShadowMap::Init
PUBLIC	?Render@ShadowMap@@UAEXXZ			; ShadowMap::Render
PUBLIC	?Update@KScene@@UAEXM@Z				; KScene::Update
PUBLIC	?Resize@ShadowMap@@UAEXHH@Z			; ShadowMap::Resize
PUBLIC	?Mouse@ShadowMap@@UAEXABUKMouse@@@Z		; ShadowMap::Mouse
PUBLIC	?Motion@ShadowMap@@UAEXMM@Z			; ShadowMap::Motion
PUBLIC	?Keyboard@KScene@@UAEXHMM@Z			; KScene::Keyboard
EXTRN	??3@YAXPAX@Z:PROC				; operator delete
EXTRN	??1PerspectiveProjection@@UAE@XZ:PROC		; PerspectiveProjection::~PerspectiveProjection
EXTRN	??0VBOTorus@@QAE@MMHH@Z:PROC			; VBOTorus::VBOTorus
EXTRN	??0VBOPlane@@QAE@MMHH@Z:PROC			; VBOPlane::VBOPlane
EXTRN	??0VBOTeapot@@QAE@HU?$tmat4x4@M@detail@glm@@@Z:PROC ; VBOTeapot::VBOTeapot
EXTRN	??2@YAPAXI@Z:PROC				; operator new
EXTRN	??0PerspectiveProjection@@QAE@MMMM@Z:PROC	; PerspectiveProjection::PerspectiveProjection
EXTRN	??0GLSLProgram@@QAE@XZ:PROC			; GLSLProgram::GLSLProgram
EXTRN	___security_cookie:DWORD
EXTRN	___CxxFrameHandler3:PROC
EXTRN	@__security_check_cookie@4:PROC
EXTRN	__fltused:DWORD
EXTRN	__RTC_CheckEsp:PROC
EXTRN	__RTC_Shutdown:PROC
EXTRN	__RTC_InitBase:PROC
EXTRN	??_7type_info@@6B@:QWORD			; type_info::`vftable'
EXTRN	??_EShadowMap@@UAEPAXI@Z:PROC			; ShadowMap::`vector deleting destructor'
;	COMDAT ??_R2KScene@@8
; File c:\users\kmadsen\google drive\opengl_projects\starter\starter\shadowmap.cpp
rdata$r	SEGMENT
??_R2KScene@@8 DD FLAT:??_R1A@?0A@EA@KScene@@8		; KScene::`RTTI Base Class Array'
rdata$r	ENDS
;	COMDAT ??_R3KScene@@8
rdata$r	SEGMENT
??_R3KScene@@8 DD 00H					; KScene::`RTTI Class Hierarchy Descriptor'
	DD	00H
	DD	01H
	DD	FLAT:??_R2KScene@@8
rdata$r	ENDS
;	COMDAT ??_R0?AVKScene@@@8
_DATA	SEGMENT
??_R0?AVKScene@@@8 DD FLAT:??_7type_info@@6B@		; KScene `RTTI Type Descriptor'
	DD	00H
	DB	'.?AVKScene@@', 00H
_DATA	ENDS
;	COMDAT ??_R1A@?0A@EA@KScene@@8
rdata$r	SEGMENT
??_R1A@?0A@EA@KScene@@8 DD FLAT:??_R0?AVKScene@@@8	; KScene::`RTTI Base Class Descriptor at (0,-1,0,64)'
	DD	00H
	DD	00H
	DD	0ffffffffH
	DD	00H
	DD	040H
	DD	FLAT:??_R3KScene@@8
rdata$r	ENDS
;	COMDAT ??_R1A@?0A@EA@ShadowMap@@8
rdata$r	SEGMENT
??_R1A@?0A@EA@ShadowMap@@8 DD FLAT:??_R0?AVShadowMap@@@8 ; ShadowMap::`RTTI Base Class Descriptor at (0,-1,0,64)'
	DD	01H
	DD	00H
	DD	0ffffffffH
	DD	00H
	DD	040H
	DD	FLAT:??_R3ShadowMap@@8
rdata$r	ENDS
;	COMDAT ??_R2ShadowMap@@8
rdata$r	SEGMENT
??_R2ShadowMap@@8 DD FLAT:??_R1A@?0A@EA@ShadowMap@@8	; ShadowMap::`RTTI Base Class Array'
	DD	FLAT:??_R1A@?0A@EA@KScene@@8
rdata$r	ENDS
;	COMDAT ??_R3ShadowMap@@8
rdata$r	SEGMENT
??_R3ShadowMap@@8 DD 00H				; ShadowMap::`RTTI Class Hierarchy Descriptor'
	DD	00H
	DD	02H
	DD	FLAT:??_R2ShadowMap@@8
rdata$r	ENDS
;	COMDAT ??_R0?AVShadowMap@@@8
_DATA	SEGMENT
??_R0?AVShadowMap@@@8 DD FLAT:??_7type_info@@6B@	; ShadowMap `RTTI Type Descriptor'
	DD	00H
	DB	'.?AVShadowMap@@', 00H
_DATA	ENDS
;	COMDAT ??_R4ShadowMap@@6B@
rdata$r	SEGMENT
??_R4ShadowMap@@6B@ DD 00H				; ShadowMap::`RTTI Complete Object Locator'
	DD	00H
	DD	00H
	DD	FLAT:??_R0?AVShadowMap@@@8
	DD	FLAT:??_R3ShadowMap@@8
rdata$r	ENDS
;	COMDAT __real@3fe6666660000000
CONST	SEGMENT
__real@3fe6666660000000 DQ 03fe6666660000000r	; 0.7
CONST	ENDS
;	COMDAT __real@3fd3333340000000
CONST	SEGMENT
__real@3fd3333340000000 DQ 03fd3333340000000r	; 0.3
CONST	ENDS
;	COMDAT __real@40000000
CONST	SEGMENT
__real@40000000 DD 040000000r			; 2
CONST	ENDS
;	COMDAT __real@42200000
CONST	SEGMENT
__real@42200000 DD 042200000r			; 40
CONST	ENDS
;	COMDAT __real@42480000
CONST	SEGMENT
__real@42480000 DD 042480000r			; 50
CONST	ENDS
;	COMDAT __real@3f800000
CONST	SEGMENT
__real@3f800000 DD 03f800000r			; 1
CONST	ENDS
;	COMDAT __real@43800000
CONST	SEGMENT
__real@43800000 DD 043800000r			; 256
CONST	ENDS
;	COMDAT ??_7ShadowMap@@6B@
CONST	SEGMENT
??_7ShadowMap@@6B@ DD FLAT:??_R4ShadowMap@@6B@		; ShadowMap::`vftable'
	DD	FLAT:?Init@ShadowMap@@UAEXXZ
	DD	FLAT:?Render@ShadowMap@@UAEXXZ
	DD	FLAT:?Update@KScene@@UAEXM@Z
	DD	FLAT:?Resize@ShadowMap@@UAEXHH@Z
	DD	FLAT:?Mouse@ShadowMap@@UAEXABUKMouse@@@Z
	DD	FLAT:?Motion@ShadowMap@@UAEXMM@Z
	DD	FLAT:?Keyboard@KScene@@UAEXHMM@Z
	DD	FLAT:??_EShadowMap@@UAEPAXI@Z
CONST	ENDS
;	COMDAT xdata$x
xdata$x	SEGMENT
__ehfuncinfo$??0ShadowMap@@QAE@XZ DD 019930522H
	DD	05H
	DD	FLAT:__unwindtable$??0ShadowMap@@QAE@XZ
	DD	2 DUP(00H)
	DD	2 DUP(00H)
	DD	00H
	DD	01H
__unwindtable$??0ShadowMap@@QAE@XZ DD 0ffffffffH
	DD	FLAT:__unwindfunclet$??0ShadowMap@@QAE@XZ$0
	DD	00H
	DD	FLAT:__unwindfunclet$??0ShadowMap@@QAE@XZ$1
	DD	01H
	DD	FLAT:__unwindfunclet$??0ShadowMap@@QAE@XZ$2
	DD	01H
	DD	FLAT:__unwindfunclet$??0ShadowMap@@QAE@XZ$3
	DD	01H
	DD	FLAT:__unwindfunclet$??0ShadowMap@@QAE@XZ$4
xdata$x	ENDS
;	COMDAT rtc$TMZ
rtc$TMZ	SEGMENT
__RTC_Shutdown.rtc$TMZ DD FLAT:__RTC_Shutdown
rtc$TMZ	ENDS
;	COMDAT rtc$IMZ
rtc$IMZ	SEGMENT
__RTC_InitBase.rtc$IMZ DD FLAT:__RTC_InitBase
; Function compile flags: /Odtp /RTCsu /ZI
rtc$IMZ	ENDS
;	COMDAT ??0ShadowMap@@QAE@XZ
_TEXT	SEGMENT
tv184 = -336						; size = 4
tv237 = -332						; size = 4
tv235 = -328						; size = 4
tv166 = -328						; size = 4
tv154 = -328						; size = 4
$T71123 = -320						; size = 4
$T71124 = -308						; size = 4
$T71125 = -296						; size = 4
$T71126 = -284						; size = 4
$T71129 = -272						; size = 4
$T71130 = -260						; size = 4
$T71133 = -248						; size = 4
$T71134 = -236						; size = 4
_scale$ = -32						; size = 4
_this$ = -20						; size = 4
__$EHRec$ = -12						; size = 12
??0ShadowMap@@QAE@XZ PROC				; ShadowMap::ShadowMap, COMDAT
; _this$ = ecx

; 18   : {

	push	ebp
	mov	ebp, esp
	push	-1
	push	__ehhandler$??0ShadowMap@@QAE@XZ
	mov	eax, DWORD PTR fs:0
	push	eax
	sub	esp, 324				; 00000144H
	push	ebx
	push	esi
	push	edi
	push	ecx
	lea	edi, DWORD PTR [ebp-336]
	mov	ecx, 81					; 00000051H
	mov	eax, -858993460				; ccccccccH
	rep stosd
	pop	ecx
	mov	eax, DWORD PTR ___security_cookie
	xor	eax, ebp
	push	eax
	lea	eax, DWORD PTR __$EHRec$[ebp]
	mov	DWORD PTR fs:0, eax
	mov	DWORD PTR _this$[ebp], ecx
	mov	ecx, DWORD PTR _this$[ebp]
	call	??0KScene@@QAE@XZ
	mov	eax, DWORD PTR _this$[ebp]
	mov	DWORD PTR [eax], OFFSET ??_7ShadowMap@@6B@
	mov	ecx, DWORD PTR _this$[ebp]
	add	ecx, 24					; 00000018H
	call	??0KMouse@@QAE@XZ
	mov	ecx, DWORD PTR _this$[ebp]
	add	ecx, 40					; 00000028H
	call	??0GLSLProgram@@QAE@XZ			; GLSLProgram::GLSLProgram
	mov	DWORD PTR __$EHRec$[ebp+8], 0
	push	ecx
	fld	DWORD PTR __real@43800000
	fstp	DWORD PTR [esp]
	push	ecx
	fld1
	fstp	DWORD PTR [esp]
	push	ecx
	fld1
	fstp	DWORD PTR [esp]
	push	ecx
	fld	DWORD PTR __real@42480000
	fstp	DWORD PTR [esp]
	mov	ecx, DWORD PTR _this$[ebp]
	add	ecx, 100				; 00000064H
	call	??0PerspectiveProjection@@QAE@MMMM@Z	; PerspectiveProjection::PerspectiveProjection
	mov	BYTE PTR __$EHRec$[ebp+8], 1
	mov	ecx, DWORD PTR _this$[ebp]
	add	ecx, 244				; 000000f4H
	call	??0?$tmat4x4@M@detail@glm@@QAE@XZ	; glm::detail::tmat4x4<float>::tmat4x4<float>
	mov	ecx, DWORD PTR _this$[ebp]
	add	ecx, 308				; 00000134H
	call	??0?$tmat4x4@M@detail@glm@@QAE@XZ	; glm::detail::tmat4x4<float>::tmat4x4<float>
	mov	ecx, DWORD PTR _this$[ebp]
	add	ecx, 384				; 00000180H
	call	??0?$tmat4x4@M@detail@glm@@QAE@XZ	; glm::detail::tmat4x4<float>::tmat4x4<float>
	mov	ecx, DWORD PTR _this$[ebp]
	add	ecx, 448				; 000001c0H
	call	??0?$tmat4x4@M@detail@glm@@QAE@XZ	; glm::detail::tmat4x4<float>::tmat4x4<float>
	mov	ecx, DWORD PTR _this$[ebp]
	add	ecx, 512				; 00000200H
	call	??0?$tmat4x4@M@detail@glm@@QAE@XZ	; glm::detail::tmat4x4<float>::tmat4x4<float>
	mov	ecx, DWORD PTR _this$[ebp]
	add	ecx, 576				; 00000240H
	call	??0?$tmat4x4@M@detail@glm@@QAE@XZ	; glm::detail::tmat4x4<float>::tmat4x4<float>

; 19   :     m_Teapot = new VBOTeapot(14, mat4(1.0f));

	push	12					; 0000000cH
	call	??2@YAPAXI@Z				; operator new
	add	esp, 4
	mov	DWORD PTR $T71124[ebp], eax
	mov	BYTE PTR __$EHRec$[ebp+8], 2
	cmp	DWORD PTR $T71124[ebp], 0
	je	SHORT $LN3@ShadowMap
	fld1
	fstp	DWORD PTR $T71126[ebp]
	sub	esp, 64					; 00000040H
	mov	ecx, esp
	mov	DWORD PTR $T71125[ebp], esp
	lea	eax, DWORD PTR $T71126[ebp]
	push	eax
	call	??0?$tmat4x4@M@detail@glm@@QAE@ABM@Z	; glm::detail::tmat4x4<float>::tmat4x4<float>
	push	14					; 0000000eH
	mov	ecx, DWORD PTR $T71124[ebp]
	call	??0VBOTeapot@@QAE@HU?$tmat4x4@M@detail@glm@@@Z ; VBOTeapot::VBOTeapot
	mov	DWORD PTR tv154[ebp], eax
	jmp	SHORT $LN4@ShadowMap
$LN3@ShadowMap:
	mov	DWORD PTR tv154[ebp], 0
$LN4@ShadowMap:
	mov	ecx, DWORD PTR tv154[ebp]
	mov	DWORD PTR $T71123[ebp], ecx
	mov	BYTE PTR __$EHRec$[ebp+8], 1
	mov	edx, DWORD PTR _this$[ebp]
	mov	eax, DWORD PTR $T71123[ebp]
	mov	DWORD PTR [edx+372], eax

; 20   :     m_Plane = new VBOPlane(40.0f, 40.0f, 4, 4);

	push	12					; 0000000cH
	call	??2@YAPAXI@Z				; operator new
	add	esp, 4
	mov	DWORD PTR $T71130[ebp], eax
	mov	BYTE PTR __$EHRec$[ebp+8], 3
	cmp	DWORD PTR $T71130[ebp], 0
	je	SHORT $LN5@ShadowMap
	push	4
	push	4
	push	ecx
	fld	DWORD PTR __real@42200000
	fstp	DWORD PTR [esp]
	push	ecx
	fld	DWORD PTR __real@42200000
	fstp	DWORD PTR [esp]
	mov	ecx, DWORD PTR $T71130[ebp]
	call	??0VBOPlane@@QAE@MMHH@Z			; VBOPlane::VBOPlane
	mov	DWORD PTR tv166[ebp], eax
	jmp	SHORT $LN6@ShadowMap
$LN5@ShadowMap:
	mov	DWORD PTR tv166[ebp], 0
$LN6@ShadowMap:
	mov	eax, DWORD PTR tv166[ebp]
	mov	DWORD PTR $T71129[ebp], eax
	mov	BYTE PTR __$EHRec$[ebp+8], 1
	mov	ecx, DWORD PTR _this$[ebp]
	mov	edx, DWORD PTR $T71129[ebp]
	mov	DWORD PTR [ecx+380], edx

; 21   :     float scale = 2.0f;

	fld	DWORD PTR __real@40000000
	fstp	DWORD PTR _scale$[ebp]

; 22   :     m_Torus = new VBOTorus(0.7f * scale,0.3f * scale,50,50);

	push	20					; 00000014H
	call	??2@YAPAXI@Z				; operator new
	add	esp, 4
	mov	DWORD PTR $T71134[ebp], eax
	mov	BYTE PTR __$EHRec$[ebp+8], 4
	cmp	DWORD PTR $T71134[ebp], 0
	je	SHORT $LN7@ShadowMap
	push	50					; 00000032H
	push	50					; 00000032H
	fld	DWORD PTR _scale$[ebp]
	fmul	QWORD PTR __real@3fd3333340000000
	fstp	DWORD PTR tv235[ebp]
	fld	DWORD PTR tv235[ebp]
	push	ecx
	fstp	DWORD PTR [esp]
	fld	DWORD PTR _scale$[ebp]
	fmul	QWORD PTR __real@3fe6666660000000
	fstp	DWORD PTR tv237[ebp]
	fld	DWORD PTR tv237[ebp]
	push	ecx
	fstp	DWORD PTR [esp]
	mov	ecx, DWORD PTR $T71134[ebp]
	call	??0VBOTorus@@QAE@MMHH@Z			; VBOTorus::VBOTorus
	mov	DWORD PTR tv184[ebp], eax
	jmp	SHORT $LN8@ShadowMap
$LN7@ShadowMap:
	mov	DWORD PTR tv184[ebp], 0
$LN8@ShadowMap:
	mov	eax, DWORD PTR tv184[ebp]
	mov	DWORD PTR $T71133[ebp], eax
	mov	BYTE PTR __$EHRec$[ebp+8], 1
	mov	ecx, DWORD PTR _this$[ebp]
	mov	edx, DWORD PTR $T71133[ebp]
	mov	DWORD PTR [ecx+376], edx

; 23   : 
; 24   : 	m_ShadowMapWidth = 1 << 9;

	mov	eax, DWORD PTR _this$[ebp]
	mov	DWORD PTR [eax+92], 512			; 00000200H

; 25   :     m_ShadowMapHeight = 1 << 9;

	mov	eax, DWORD PTR _this$[ebp]
	mov	DWORD PTR [eax+96], 512			; 00000200H

; 26   : }

	mov	DWORD PTR __$EHRec$[ebp+8], -1
	mov	eax, DWORD PTR _this$[ebp]
	mov	ecx, DWORD PTR __$EHRec$[ebp]
	mov	DWORD PTR fs:0, ecx
	pop	ecx
	pop	edi
	pop	esi
	pop	ebx
	add	esp, 336				; 00000150H
	cmp	ebp, esp
	call	__RTC_CheckEsp
	mov	esp, ebp
	pop	ebp
	ret	0
_TEXT	ENDS
;	COMDAT text$x
text$x	SEGMENT
__unwindfunclet$??0ShadowMap@@QAE@XZ$0:
	mov	ecx, DWORD PTR _this$[ebp]
	add	ecx, 40					; 00000028H
	jmp	??1GLSLProgram@@QAE@XZ
__unwindfunclet$??0ShadowMap@@QAE@XZ$1:
	mov	ecx, DWORD PTR _this$[ebp]
	add	ecx, 100				; 00000064H
	jmp	??1PerspectiveProjection@@UAE@XZ	; PerspectiveProjection::~PerspectiveProjection
__unwindfunclet$??0ShadowMap@@QAE@XZ$2:
	mov	eax, DWORD PTR $T71124[ebp]
	push	eax
	call	??3@YAXPAX@Z				; operator delete
	pop	ecx
	ret	0
__unwindfunclet$??0ShadowMap@@QAE@XZ$3:
	mov	eax, DWORD PTR $T71130[ebp]
	push	eax
	call	??3@YAXPAX@Z				; operator delete
	pop	ecx
	ret	0
__unwindfunclet$??0ShadowMap@@QAE@XZ$4:
	mov	eax, DWORD PTR $T71134[ebp]
	push	eax
	call	??3@YAXPAX@Z				; operator delete
	pop	ecx
	ret	0
__ehhandler$??0ShadowMap@@QAE@XZ:
	mov	edx, DWORD PTR [esp+8]
	lea	eax, DWORD PTR [edx+12]
	mov	ecx, DWORD PTR [edx-340]
	xor	ecx, eax
	call	@__security_check_cookie@4
	mov	eax, OFFSET __ehfuncinfo$??0ShadowMap@@QAE@XZ
	jmp	___CxxFrameHandler3
text$x	ENDS
??0ShadowMap@@QAE@XZ ENDP				; ShadowMap::ShadowMap
; Function compile flags: /Odtp /RTCsu /ZI
; File c:\users\kmadsen\google drive\opengl_projects\starter\starter\kscene.h
;	COMDAT ?Update@KScene@@UAEXM@Z
_TEXT	SEGMENT
_this$ = -8						; size = 4
_dt$ = 8						; size = 4
?Update@KScene@@UAEXM@Z PROC				; KScene::Update, COMDAT
; _this$ = ecx

; 126  : 	virtual void Update(float dt) { };

	push	ebp
	mov	ebp, esp
	sub	esp, 204				; 000000ccH
	push	ebx
	push	esi
	push	edi
	push	ecx
	lea	edi, DWORD PTR [ebp-204]
	mov	ecx, 51					; 00000033H
	mov	eax, -858993460				; ccccccccH
	rep stosd
	pop	ecx
	mov	DWORD PTR _this$[ebp], ecx
	pop	edi
	pop	esi
	pop	ebx
	mov	esp, ebp
	pop	ebp
	ret	4
?Update@KScene@@UAEXM@Z ENDP				; KScene::Update
; Function compile flags: /Odtp /RTCsu /ZI
_TEXT	ENDS
;	COMDAT ?Keyboard@KScene@@UAEXHMM@Z
_TEXT	SEGMENT
_this$ = -8						; size = 4
_key$ = 8						; size = 4
_x$ = 12						; size = 4
_y$ = 16						; size = 4
?Keyboard@KScene@@UAEXHMM@Z PROC			; KScene::Keyboard, COMDAT
; _this$ = ecx

; 130  : 	virtual void Keyboard(int key, float x, float y) { }

	push	ebp
	mov	ebp, esp
	sub	esp, 204				; 000000ccH
	push	ebx
	push	esi
	push	edi
	push	ecx
	lea	edi, DWORD PTR [ebp-204]
	mov	ecx, 51					; 00000033H
	mov	eax, -858993460				; ccccccccH
	rep stosd
	pop	ecx
	mov	DWORD PTR _this$[ebp], ecx
	pop	edi
	pop	esi
	pop	ebx
	mov	esp, ebp
	pop	ebp
	ret	12					; 0000000cH
?Keyboard@KScene@@UAEXHMM@Z ENDP			; KScene::Keyboard
_TEXT	ENDS
PUBLIC	??4KMouse@@QAEAAU0@ABU0@@Z			; KMouse::operator=
; Function compile flags: /Odtp /RTCsu /ZI
; File c:\users\kmadsen\google drive\opengl_projects\starter\starter\shadowmap.h
;	COMDAT ?Mouse@ShadowMap@@UAEXABUKMouse@@@Z
_TEXT	SEGMENT
_this$ = -8						; size = 4
_mouse$ = 8						; size = 4
?Mouse@ShadowMap@@UAEXABUKMouse@@@Z PROC		; ShadowMap::Mouse, COMDAT
; _this$ = ecx

; 21   : 	void Mouse(const KMouse &mouse) override { m_Mouse = mouse; }

	push	ebp
	mov	ebp, esp
	sub	esp, 204				; 000000ccH
	push	ebx
	push	esi
	push	edi
	push	ecx
	lea	edi, DWORD PTR [ebp-204]
	mov	ecx, 51					; 00000033H
	mov	eax, -858993460				; ccccccccH
	rep stosd
	pop	ecx
	mov	DWORD PTR _this$[ebp], ecx
	mov	eax, DWORD PTR _mouse$[ebp]
	push	eax
	mov	ecx, DWORD PTR _this$[ebp]
	add	ecx, 24					; 00000018H
	call	??4KMouse@@QAEAAU0@ABU0@@Z
	pop	edi
	pop	esi
	pop	ebx
	add	esp, 204				; 000000ccH
	cmp	ebp, esp
	call	__RTC_CheckEsp
	mov	esp, ebp
	pop	ebp
	ret	4
?Mouse@ShadowMap@@UAEXABUKMouse@@@Z ENDP		; ShadowMap::Mouse
_TEXT	ENDS
PUBLIC	??4?$tvec2@M@detail@glm@@QAEAAU012@ABU012@@Z	; glm::detail::tvec2<float>::operator=
; Function compile flags: /Odtp /RTCsu /ZI
;	COMDAT ??4KMouse@@QAEAAU0@ABU0@@Z
_TEXT	SEGMENT
_this$ = -8						; size = 4
___that$ = 8						; size = 4
??4KMouse@@QAEAAU0@ABU0@@Z PROC				; KMouse::operator=, COMDAT
; _this$ = ecx
	push	ebp
	mov	ebp, esp
	sub	esp, 204				; 000000ccH
	push	ebx
	push	esi
	push	edi
	push	ecx
	lea	edi, DWORD PTR [ebp-204]
	mov	ecx, 51					; 00000033H
	mov	eax, -858993460				; ccccccccH
	rep stosd
	pop	ecx
	mov	DWORD PTR _this$[ebp], ecx
	mov	eax, DWORD PTR _this$[ebp]
	mov	ecx, DWORD PTR ___that$[ebp]
	mov	edx, DWORD PTR [ecx]
	mov	DWORD PTR [eax], edx
	mov	eax, DWORD PTR _this$[ebp]
	mov	ecx, DWORD PTR ___that$[ebp]
	mov	edx, DWORD PTR [ecx+4]
	mov	DWORD PTR [eax+4], edx
	mov	eax, DWORD PTR ___that$[ebp]
	add	eax, 8
	push	eax
	mov	ecx, DWORD PTR _this$[ebp]
	add	ecx, 8
	call	??4?$tvec2@M@detail@glm@@QAEAAU012@ABU012@@Z ; glm::detail::tvec2<float>::operator=
	mov	eax, DWORD PTR _this$[ebp]
	pop	edi
	pop	esi
	pop	ebx
	add	esp, 204				; 000000ccH
	cmp	ebp, esp
	call	__RTC_CheckEsp
	mov	esp, ebp
	pop	ebp
	ret	4
??4KMouse@@QAEAAU0@ABU0@@Z ENDP				; KMouse::operator=
_TEXT	ENDS
PUBLIC	??1ShadowMap@@UAE@XZ				; ShadowMap::~ShadowMap
; Function compile flags: /Odtp /RTCsu /ZI
;	COMDAT ??_GShadowMap@@UAEPAXI@Z
_TEXT	SEGMENT
_this$ = -8						; size = 4
___flags$ = 8						; size = 4
??_GShadowMap@@UAEPAXI@Z PROC				; ShadowMap::`scalar deleting destructor', COMDAT
; _this$ = ecx
	push	ebp
	mov	ebp, esp
	sub	esp, 204				; 000000ccH
	push	ebx
	push	esi
	push	edi
	push	ecx
	lea	edi, DWORD PTR [ebp-204]
	mov	ecx, 51					; 00000033H
	mov	eax, -858993460				; ccccccccH
	rep stosd
	pop	ecx
	mov	DWORD PTR _this$[ebp], ecx
	mov	ecx, DWORD PTR _this$[ebp]
	call	??1ShadowMap@@UAE@XZ			; ShadowMap::~ShadowMap
	mov	eax, DWORD PTR ___flags$[ebp]
	and	eax, 1
	je	SHORT $LN1@scalar
	mov	eax, DWORD PTR _this$[ebp]
	push	eax
	call	??3@YAXPAX@Z				; operator delete
	add	esp, 4
$LN1@scalar:
	mov	eax, DWORD PTR _this$[ebp]
	pop	edi
	pop	esi
	pop	ebx
	add	esp, 204				; 000000ccH
	cmp	ebp, esp
	call	__RTC_CheckEsp
	mov	esp, ebp
	pop	ebp
	ret	4
??_GShadowMap@@UAEPAXI@Z ENDP				; ShadowMap::`scalar deleting destructor'
_TEXT	ENDS
PUBLIC	??_7KScene@@6B@					; KScene::`vftable'
PUBLIC	??_R4KScene@@6B@				; KScene::`RTTI Complete Object Locator'
PUBLIC	?Resize@KScene@@UAEXHH@Z			; KScene::Resize
PUBLIC	?Mouse@KScene@@UAEXABUKMouse@@@Z		; KScene::Mouse
PUBLIC	?Motion@KScene@@UAEXMM@Z			; KScene::Motion
EXTRN	__purecall:PROC
;	COMDAT ??_R4KScene@@6B@
rdata$r	SEGMENT
??_R4KScene@@6B@ DD 00H					; KScene::`RTTI Complete Object Locator'
	DD	00H
	DD	00H
	DD	FLAT:??_R0?AVKScene@@@8
	DD	FLAT:??_R3KScene@@8
rdata$r	ENDS
;	COMDAT ??_7KScene@@6B@
CONST	SEGMENT
??_7KScene@@6B@ DD FLAT:??_R4KScene@@6B@		; KScene::`vftable'
	DD	FLAT:__purecall
	DD	FLAT:__purecall
	DD	FLAT:?Update@KScene@@UAEXM@Z
	DD	FLAT:?Resize@KScene@@UAEXHH@Z
	DD	FLAT:?Mouse@KScene@@UAEXABUKMouse@@@Z
	DD	FLAT:?Motion@KScene@@UAEXMM@Z
	DD	FLAT:?Keyboard@KScene@@UAEXHMM@Z
; Function compile flags: /Odtp /RTCsu /ZI
CONST	ENDS
;	COMDAT ??0KScene@@QAE@XZ
_TEXT	SEGMENT
_this$ = -8						; size = 4
??0KScene@@QAE@XZ PROC					; KScene::KScene, COMDAT
; _this$ = ecx
	push	ebp
	mov	ebp, esp
	sub	esp, 204				; 000000ccH
	push	ebx
	push	esi
	push	edi
	push	ecx
	lea	edi, DWORD PTR [ebp-204]
	mov	ecx, 51					; 00000033H
	mov	eax, -858993460				; ccccccccH
	rep stosd
	pop	ecx
	mov	DWORD PTR _this$[ebp], ecx
	mov	eax, DWORD PTR _this$[ebp]
	mov	DWORD PTR [eax], OFFSET ??_7KScene@@6B@
	mov	eax, DWORD PTR _this$[ebp]
	pop	edi
	pop	esi
	pop	ebx
	mov	esp, ebp
	pop	ebp
	ret	0
??0KScene@@QAE@XZ ENDP					; KScene::KScene
; Function compile flags: /Odtp /RTCsu /ZI
; File c:\users\kmadsen\google drive\opengl_projects\starter\starter\kscene.h
_TEXT	ENDS
;	COMDAT ?Resize@KScene@@UAEXHH@Z
_TEXT	SEGMENT
_this$ = -8						; size = 4
_width$ = 8						; size = 4
_height$ = 12						; size = 4
?Resize@KScene@@UAEXHH@Z PROC				; KScene::Resize, COMDAT
; _this$ = ecx

; 127  : 	virtual void Resize(int width, int height) { };

	push	ebp
	mov	ebp, esp
	sub	esp, 204				; 000000ccH
	push	ebx
	push	esi
	push	edi
	push	ecx
	lea	edi, DWORD PTR [ebp-204]
	mov	ecx, 51					; 00000033H
	mov	eax, -858993460				; ccccccccH
	rep stosd
	pop	ecx
	mov	DWORD PTR _this$[ebp], ecx
	pop	edi
	pop	esi
	pop	ebx
	mov	esp, ebp
	pop	ebp
	ret	8
?Resize@KScene@@UAEXHH@Z ENDP				; KScene::Resize
; Function compile flags: /Odtp /RTCsu /ZI
_TEXT	ENDS
;	COMDAT ?Mouse@KScene@@UAEXABUKMouse@@@Z
_TEXT	SEGMENT
_this$ = -8						; size = 4
_mouse$ = 8						; size = 4
?Mouse@KScene@@UAEXABUKMouse@@@Z PROC			; KScene::Mouse, COMDAT
; _this$ = ecx

; 128  : 	virtual void Mouse(const KMouse &mouse) { }

	push	ebp
	mov	ebp, esp
	sub	esp, 204				; 000000ccH
	push	ebx
	push	esi
	push	edi
	push	ecx
	lea	edi, DWORD PTR [ebp-204]
	mov	ecx, 51					; 00000033H
	mov	eax, -858993460				; ccccccccH
	rep stosd
	pop	ecx
	mov	DWORD PTR _this$[ebp], ecx
	pop	edi
	pop	esi
	pop	ebx
	mov	esp, ebp
	pop	ebp
	ret	4
?Mouse@KScene@@UAEXABUKMouse@@@Z ENDP			; KScene::Mouse
; Function compile flags: /Odtp /RTCsu /ZI
_TEXT	ENDS
;	COMDAT ?Motion@KScene@@UAEXMM@Z
_TEXT	SEGMENT
_this$ = -8						; size = 4
_x$ = 8							; size = 4
_y$ = 12						; size = 4
?Motion@KScene@@UAEXMM@Z PROC				; KScene::Motion, COMDAT
; _this$ = ecx

; 129  : 	virtual void Motion(float x, float y) { }

	push	ebp
	mov	ebp, esp
	sub	esp, 204				; 000000ccH
	push	ebx
	push	esi
	push	edi
	push	ecx
	lea	edi, DWORD PTR [ebp-204]
	mov	ecx, 51					; 00000033H
	mov	eax, -858993460				; ccccccccH
	rep stosd
	pop	ecx
	mov	DWORD PTR _this$[ebp], ecx
	pop	edi
	pop	esi
	pop	ebx
	mov	esp, ebp
	pop	ebp
	ret	8
?Motion@KScene@@UAEXMM@Z ENDP				; KScene::Motion
_TEXT	ENDS
PUBLIC	??0?$tvec2@M@detail@glm@@QAE@XZ			; glm::detail::tvec2<float>::tvec2<float>
; Function compile flags: /Odtp /RTCsu /ZI
;	COMDAT ??0KMouse@@QAE@XZ
_TEXT	SEGMENT
_this$ = -8						; size = 4
??0KMouse@@QAE@XZ PROC					; KMouse::KMouse, COMDAT
; _this$ = ecx
	push	ebp
	mov	ebp, esp
	sub	esp, 204				; 000000ccH
	push	ebx
	push	esi
	push	edi
	push	ecx
	lea	edi, DWORD PTR [ebp-204]
	mov	ecx, 51					; 00000033H
	mov	eax, -858993460				; ccccccccH
	rep stosd
	pop	ecx
	mov	DWORD PTR _this$[ebp], ecx
	mov	ecx, DWORD PTR _this$[ebp]
	add	ecx, 8
	call	??0?$tvec2@M@detail@glm@@QAE@XZ		; glm::detail::tvec2<float>::tvec2<float>
	mov	eax, DWORD PTR _this$[ebp]
	pop	edi
	pop	esi
	pop	ebx
	add	esp, 204				; 000000ccH
	cmp	ebp, esp
	call	__RTC_CheckEsp
	mov	esp, ebp
	pop	ebp
	ret	0
??0KMouse@@QAE@XZ ENDP					; KMouse::KMouse
_TEXT	ENDS
PUBLIC	??1?$basic_string@DU?$char_traits@D@std@@V?$allocator@D@2@@std@@QAE@XZ ; std::basic_string<char,std::char_traits<char>,std::allocator<char> >::~basic_string<char,std::char_traits<char>,std::allocator<char> >
; Function compile flags: /Odtp /RTCsu /ZI
;	COMDAT ??1GLSLProgram@@QAE@XZ
_TEXT	SEGMENT
_this$ = -8						; size = 4
??1GLSLProgram@@QAE@XZ PROC				; GLSLProgram::~GLSLProgram, COMDAT
; _this$ = ecx
	push	ebp
	mov	ebp, esp
	sub	esp, 204				; 000000ccH
	push	ebx
	push	esi
	push	edi
	push	ecx
	lea	edi, DWORD PTR [ebp-204]
	mov	ecx, 51					; 00000033H
	mov	eax, -858993460				; ccccccccH
	rep stosd
	pop	ecx
	mov	DWORD PTR _this$[ebp], ecx
	mov	ecx, DWORD PTR _this$[ebp]
	add	ecx, 8
	call	??1?$basic_string@DU?$char_traits@D@std@@V?$allocator@D@2@@std@@QAE@XZ ; std::basic_string<char,std::char_traits<char>,std::allocator<char> >::~basic_string<char,std::char_traits<char>,std::allocator<char> >
	pop	edi
	pop	esi
	pop	ebx
	add	esp, 204				; 000000ccH
	cmp	ebp, esp
	call	__RTC_CheckEsp
	mov	esp, ebp
	pop	ebp
	ret	0
??1GLSLProgram@@QAE@XZ ENDP				; GLSLProgram::~GLSLProgram
_TEXT	ENDS
;	COMDAT xdata$x
; File c:\users\kmadsen\google drive\opengl_projects\starter\starter\shadowmap.cpp
xdata$x	SEGMENT
__unwindtable$??1ShadowMap@@UAE@XZ DD 0ffffffffH
	DD	FLAT:__unwindfunclet$??1ShadowMap@@UAE@XZ$0
__ehfuncinfo$??1ShadowMap@@UAE@XZ DD 019930522H
	DD	01H
	DD	FLAT:__unwindtable$??1ShadowMap@@UAE@XZ
	DD	2 DUP(00H)
	DD	2 DUP(00H)
	DD	00H
	DD	01H
; Function compile flags: /Odtp /RTCsu /ZI
xdata$x	ENDS
;	COMDAT ??1ShadowMap@@UAE@XZ
_TEXT	SEGMENT
$T71202 = -248						; size = 4
$T71203 = -236						; size = 4
$T71204 = -224						; size = 4
_this$ = -20						; size = 4
__$EHRec$ = -12						; size = 12
??1ShadowMap@@UAE@XZ PROC				; ShadowMap::~ShadowMap, COMDAT
; _this$ = ecx

; 29   : {

	push	ebp
	mov	ebp, esp
	push	-1
	push	__ehhandler$??1ShadowMap@@UAE@XZ
	mov	eax, DWORD PTR fs:0
	push	eax
	sub	esp, 240				; 000000f0H
	push	ebx
	push	esi
	push	edi
	push	ecx
	lea	edi, DWORD PTR [ebp-252]
	mov	ecx, 60					; 0000003cH
	mov	eax, -858993460				; ccccccccH
	rep stosd
	pop	ecx
	mov	eax, DWORD PTR ___security_cookie
	xor	eax, ebp
	push	eax
	lea	eax, DWORD PTR __$EHRec$[ebp]
	mov	DWORD PTR fs:0, eax
	mov	DWORD PTR _this$[ebp], ecx
	mov	eax, DWORD PTR _this$[ebp]
	mov	DWORD PTR [eax], OFFSET ??_7ShadowMap@@6B@
	mov	DWORD PTR __$EHRec$[ebp+8], 0

; 30   : 	delete m_Teapot;

	mov	eax, DWORD PTR _this$[ebp]
	mov	ecx, DWORD PTR [eax+372]
	mov	DWORD PTR $T71202[ebp], ecx
	mov	edx, DWORD PTR $T71202[ebp]
	push	edx
	call	??3@YAXPAX@Z				; operator delete
	add	esp, 4

; 31   : 	delete m_Plane;

	mov	eax, DWORD PTR _this$[ebp]
	mov	ecx, DWORD PTR [eax+380]
	mov	DWORD PTR $T71203[ebp], ecx
	mov	edx, DWORD PTR $T71203[ebp]
	push	edx
	call	??3@YAXPAX@Z				; operator delete
	add	esp, 4

; 32   : 	delete m_Torus;

	mov	eax, DWORD PTR _this$[ebp]
	mov	ecx, DWORD PTR [eax+376]
	mov	DWORD PTR $T71204[ebp], ecx
	mov	edx, DWORD PTR $T71204[ebp]
	push	edx
	call	??3@YAXPAX@Z				; operator delete
	add	esp, 4

; 33   : }

	mov	ecx, DWORD PTR _this$[ebp]
	add	ecx, 100				; 00000064H
	call	??1PerspectiveProjection@@UAE@XZ	; PerspectiveProjection::~PerspectiveProjection
	mov	DWORD PTR __$EHRec$[ebp+8], -1
	mov	ecx, DWORD PTR _this$[ebp]
	add	ecx, 40					; 00000028H
	call	??1GLSLProgram@@QAE@XZ
	mov	ecx, DWORD PTR __$EHRec$[ebp]
	mov	DWORD PTR fs:0, ecx
	pop	ecx
	pop	edi
	pop	esi
	pop	ebx
	add	esp, 252				; 000000fcH
	cmp	ebp, esp
	call	__RTC_CheckEsp
	mov	esp, ebp
	pop	ebp
	ret	0
_TEXT	ENDS
;	COMDAT text$x
text$x	SEGMENT
__unwindfunclet$??1ShadowMap@@UAE@XZ$0:
	mov	ecx, DWORD PTR _this$[ebp]
	add	ecx, 40					; 00000028H
	jmp	??1GLSLProgram@@QAE@XZ
__ehhandler$??1ShadowMap@@UAE@XZ:
	mov	edx, DWORD PTR [esp+8]
	lea	eax, DWORD PTR [edx+12]
	mov	ecx, DWORD PTR [edx-256]
	xor	ecx, eax
	call	@__security_check_cookie@4
	mov	eax, OFFSET __ehfuncinfo$??1ShadowMap@@UAE@XZ
	jmp	___CxxFrameHandler3
text$x	ENDS
??1ShadowMap@@UAE@XZ ENDP				; ShadowMap::~ShadowMap
PUBLIC	?CreateShadowFBO@ShadowMap@@AAEXXZ		; ShadowMap::CreateShadowFBO
PUBLIC	__real@0000000000000000
PUBLIC	??_C@_0BA@BAHLBCPI@shadeWithShadow?$AA@		; `string'
PUBLIC	??_C@_0M@BFKGCCGE@recordDepth?$AA@		; `string'
PUBLIC	??_C@_09HHFBJIPM@ShadowMap?$AA@			; `string'
PUBLIC	??_C@_0BA@IACPDFGP@Light?4Intensity?$AA@	; `string'
PUBLIC	??0?$tvec3@M@detail@glm@@QAE@ABM@Z		; glm::detail::tvec3<float>::tvec3<float>
PUBLIC	__real@3f59999a
PUBLIC	??$?DM@detail@glm@@YA?AU?$tmat4x4@M@01@ABU201@0@Z ; glm::detail::operator*<float>
PUBLIC	__real@42c80000
PUBLIC	??0?$tvec3@M@detail@glm@@QAE@XZ			; glm::detail::tvec3<float>::tvec3<float>
PUBLIC	??0?$tvec3@M@detail@glm@@QAE@ABM00@Z		; glm::detail::tvec3<float>::tvec3<float>
PUBLIC	__real@4015000000000000
PUBLIC	__real@401e000000000000
PUBLIC	__real@3fd33333
PUBLIC	??4?$tmat4x4@M@detail@glm@@QAEAAU012@ABU012@@Z	; glm::detail::tmat4x4<float>::operator=
PUBLIC	??0?$tmat4x4@M@detail@glm@@QAE@ABU?$tvec4@M@12@000@Z ; glm::detail::tmat4x4<float>::tmat4x4<float>
PUBLIC	??0?$tvec4@M@detail@glm@@QAE@ABM000@Z		; glm::detail::tvec4<float>::tvec4<float>
PUBLIC	__real@00000000
PUBLIC	__real@3f000000
PUBLIC	__real@3e4ccccd
PUBLIC	??_C@_0BI@IBMMEIF@Shaders?1shadow_map?4frag?$AA@ ; `string'
PUBLIC	??_C@_0BI@NKLNGAJK@Shaders?1shadow_map?4vert?$AA@ ; `string'
PUBLIC	__$ArrayPad$
EXTRN	__imp____glewGetSubroutineIndex:DWORD
EXTRN	?GetHandle@GLSLProgram@@QAEHXZ:PROC		; GLSLProgram::GetHandle
EXTRN	?SetUniform@GLSLProgram@@QAEXPBDH@Z:PROC	; GLSLProgram::SetUniform
EXTRN	?SetUniform@GLSLProgram@@QAEXPBDABU?$tvec3@M@detail@glm@@@Z:PROC ; GLSLProgram::SetUniform
EXTRN	?GetPerspectiveMatrix@PerspectiveProjection@@QBEABU?$tmat4x4@M@detail@glm@@XZ:PROC ; PerspectiveProjection::GetPerspectiveMatrix
EXTRN	?GetViewMatrix@PerspectiveProjection@@QBEABU?$tmat4x4@M@detail@glm@@XZ:PROC ; PerspectiveProjection::GetViewMatrix
EXTRN	?SetPerspective@PerspectiveProjection@@QAEXMMMM@Z:PROC ; PerspectiveProjection::SetPerspective
EXTRN	?SetView@PerspectiveProjection@@QAEXABU?$tvec3@M@detail@glm@@00@Z:PROC ; PerspectiveProjection::SetView
EXTRN	__imp__glEnable@4:PROC
EXTRN	__imp__glClearColor@16:PROC
EXTRN	?Use@GLSLProgram@@QAEXXZ:PROC			; GLSLProgram::Use
EXTRN	?Link@GLSLProgram@@QAE_NXZ:PROC			; GLSLProgram::Link
EXTRN	__imp__exit:PROC
EXTRN	?CompileShaderFromFile@GLSLProgram@@QAE_NPBDW4GLSLShaderType@GLSLShader@@@Z:PROC ; GLSLProgram::CompileShaderFromFile
EXTRN	@_RTC_CheckStackVars@8:PROC
;	COMDAT __real@0000000000000000
CONST	SEGMENT
__real@0000000000000000 DQ 00000000000000000r	; 0
CONST	ENDS
;	COMDAT ??_C@_0BA@BAHLBCPI@shadeWithShadow?$AA@
CONST	SEGMENT
??_C@_0BA@BAHLBCPI@shadeWithShadow?$AA@ DB 'shadeWithShadow', 00H ; `string'
CONST	ENDS
;	COMDAT ??_C@_0M@BFKGCCGE@recordDepth?$AA@
CONST	SEGMENT
??_C@_0M@BFKGCCGE@recordDepth?$AA@ DB 'recordDepth', 00H ; `string'
CONST	ENDS
;	COMDAT ??_C@_09HHFBJIPM@ShadowMap?$AA@
CONST	SEGMENT
??_C@_09HHFBJIPM@ShadowMap?$AA@ DB 'ShadowMap', 00H	; `string'
CONST	ENDS
;	COMDAT ??_C@_0BA@IACPDFGP@Light?4Intensity?$AA@
CONST	SEGMENT
??_C@_0BA@IACPDFGP@Light?4Intensity?$AA@ DB 'Light.Intensity', 00H ; `string'
CONST	ENDS
;	COMDAT __real@3f59999a
CONST	SEGMENT
__real@3f59999a DD 03f59999ar			; 0.85
CONST	ENDS
;	COMDAT __real@42c80000
CONST	SEGMENT
__real@42c80000 DD 042c80000r			; 100
CONST	ENDS
;	COMDAT __real@4015000000000000
CONST	SEGMENT
__real@4015000000000000 DQ 04015000000000000r	; 5.25
CONST	ENDS
;	COMDAT __real@401e000000000000
CONST	SEGMENT
__real@401e000000000000 DQ 0401e000000000000r	; 7.5
CONST	ENDS
;	COMDAT __real@3fd33333
CONST	SEGMENT
__real@3fd33333 DD 03fd33333r			; 1.65
CONST	ENDS
;	COMDAT __real@00000000
CONST	SEGMENT
__real@00000000 DD 000000000r			; 0
CONST	ENDS
;	COMDAT __real@3f000000
CONST	SEGMENT
__real@3f000000 DD 03f000000r			; 0.5
CONST	ENDS
;	COMDAT __real@3e4ccccd
CONST	SEGMENT
__real@3e4ccccd DD 03e4ccccdr			; 0.2
CONST	ENDS
;	COMDAT ??_C@_0BI@IBMMEIF@Shaders?1shadow_map?4frag?$AA@
CONST	SEGMENT
??_C@_0BI@IBMMEIF@Shaders?1shadow_map?4frag?$AA@ DB 'Shaders/shadow_map.f'
	DB	'rag', 00H					; `string'
CONST	ENDS
;	COMDAT ??_C@_0BI@NKLNGAJK@Shaders?1shadow_map?4vert?$AA@
CONST	SEGMENT
??_C@_0BI@NKLNGAJK@Shaders?1shadow_map?4vert?$AA@ DB 'Shaders/shadow_map.'
	DB	'vert', 00H					; `string'
; Function compile flags: /Odtp /RTCsu /ZI
CONST	ENDS
;	COMDAT ?Init@ShadowMap@@UAEXXZ
_TEXT	SEGMENT
$T71216 = -884						; size = 16
$T71217 = -860						; size = 4
$T71218 = -848						; size = 4
$T71219 = -836						; size = 4
$T71220 = -824						; size = 4
$T71221 = -812						; size = 16
$T71222 = -788						; size = 4
$T71223 = -776						; size = 4
$T71224 = -764						; size = 4
$T71225 = -752						; size = 4
$T71226 = -740						; size = 16
$T71227 = -716						; size = 4
$T71228 = -704						; size = 4
$T71229 = -692						; size = 4
$T71230 = -680						; size = 4
$T71231 = -668						; size = 16
$T71232 = -644						; size = 4
$T71233 = -632						; size = 4
$T71234 = -620						; size = 4
$T71235 = -608						; size = 4
$T71236 = -596						; size = 4
$T71237 = -584						; size = 4
$T71238 = -572						; size = 4
$T71239 = -560						; size = 12
$T71240 = -540						; size = 4
$T71241 = -528						; size = 4
$T71242 = -516						; size = 4
$T71243 = -504						; size = 12
$T71244 = -484						; size = 12
$T71245 = -464						; size = 4
$T63083 = -452						; size = 64
$T63095 = -380						; size = 64
$T63096 = -308						; size = 64
_lightPos$ = -44					; size = 12
_c$ = -24						; size = 4
_this$ = -12						; size = 4
__$ArrayPad$ = -4					; size = 4
?Init@ShadowMap@@UAEXXZ PROC				; ShadowMap::Init, COMDAT
; _this$ = ecx

; 36   : {

	push	ebp
	mov	ebp, esp
	sub	esp, 888				; 00000378H
	push	ebx
	push	esi
	push	edi
	push	ecx
	lea	edi, DWORD PTR [ebp-888]
	mov	ecx, 222				; 000000deH
	mov	eax, -858993460				; ccccccccH
	rep stosd
	pop	ecx
	mov	eax, DWORD PTR ___security_cookie
	xor	eax, ebp
	mov	DWORD PTR __$ArrayPad$[ebp], eax
	mov	DWORD PTR _this$[ebp], ecx

; 37   : 	// Compile and link shaders
; 38   : 	if (!m_Program.CompileShaderFromFile("Shaders/shadow_map.vert", GLSLShader::VERTEX)) {

	push	0
	push	OFFSET ??_C@_0BI@NKLNGAJK@Shaders?1shadow_map?4vert?$AA@
	mov	ecx, DWORD PTR _this$[ebp]
	add	ecx, 40					; 00000028H
	call	?CompileShaderFromFile@GLSLProgram@@QAE_NPBDW4GLSLShaderType@GLSLShader@@@Z ; GLSLProgram::CompileShaderFromFile
	movzx	eax, al
	test	eax, eax
	jne	SHORT $LN3@Init

; 39   : 		exit(1);

	mov	esi, esp
	push	1
	call	DWORD PTR __imp__exit
	cmp	esi, esp
	call	__RTC_CheckEsp
$LN3@Init:

; 40   : 	}
; 41   : 	if (!m_Program.CompileShaderFromFile("Shaders/shadow_map.frag", GLSLShader::FRAGMENT)) {

	push	1
	push	OFFSET ??_C@_0BI@IBMMEIF@Shaders?1shadow_map?4frag?$AA@
	mov	ecx, DWORD PTR _this$[ebp]
	add	ecx, 40					; 00000028H
	call	?CompileShaderFromFile@GLSLProgram@@QAE_NPBDW4GLSLShaderType@GLSLShader@@@Z ; GLSLProgram::CompileShaderFromFile
	movzx	eax, al
	test	eax, eax
	jne	SHORT $LN2@Init

; 42   : 		exit(1);

	mov	esi, esp
	push	1
	call	DWORD PTR __imp__exit
	cmp	esi, esp
	call	__RTC_CheckEsp
$LN2@Init:

; 43   : 	}
; 44   : 	if (!m_Program.Link()) {

	mov	ecx, DWORD PTR _this$[ebp]
	add	ecx, 40					; 00000028H
	call	?Link@GLSLProgram@@QAE_NXZ		; GLSLProgram::Link
	movzx	eax, al
	test	eax, eax
	jne	SHORT $LN1@Init

; 45   : 		exit(1);

	mov	esi, esp
	push	1
	call	DWORD PTR __imp__exit
	cmp	esi, esp
	call	__RTC_CheckEsp
$LN1@Init:

; 46   : 	}
; 47   : 	m_Program.Use();

	mov	ecx, DWORD PTR _this$[ebp]
	add	ecx, 40					; 00000028H
	call	?Use@GLSLProgram@@QAEXXZ		; GLSLProgram::Use

; 48   : 
; 49   : 	// Initialize gl
; 50   : 	glClearColor(0.2f,0.2f,0.2f,1.0f);

	mov	esi, esp
	push	ecx
	fld1
	fstp	DWORD PTR [esp]
	push	ecx
	fld	DWORD PTR __real@3e4ccccd
	fstp	DWORD PTR [esp]
	push	ecx
	fld	DWORD PTR __real@3e4ccccd
	fstp	DWORD PTR [esp]
	push	ecx
	fld	DWORD PTR __real@3e4ccccd
	fstp	DWORD PTR [esp]
	call	DWORD PTR __imp__glClearColor@16
	cmp	esi, esp
	call	__RTC_CheckEsp

; 51   : 	glEnable(GL_DEPTH_TEST);

	mov	esi, esp
	push	2929					; 00000b71H
	call	DWORD PTR __imp__glEnable@4
	cmp	esi, esp
	call	__RTC_CheckEsp

; 52   : 
; 53   : 	// This scales and translates the shadow coordinates to be in a 0 to 1 range
; 54   : 	m_ShadowBias = mat4(vec4(0.5f,0.0f,0.0f,0.0f),
; 55   : 						vec4(0.0f,0.5f,0.0f,0.0f),
; 56   : 						vec4(0.0f,0.0f,0.5f,0.0f),
; 57   : 						vec4(0.5f,0.5f,0.5f,1.0f)
; 58   : 						);

	fld1
	fstp	DWORD PTR $T71217[ebp]
	fld	DWORD PTR __real@3f000000
	fstp	DWORD PTR $T71218[ebp]
	fld	DWORD PTR __real@3f000000
	fstp	DWORD PTR $T71219[ebp]
	fld	DWORD PTR __real@3f000000
	fstp	DWORD PTR $T71220[ebp]
	fldz
	fstp	DWORD PTR $T71222[ebp]
	fld	DWORD PTR __real@3f000000
	fstp	DWORD PTR $T71223[ebp]
	fldz
	fstp	DWORD PTR $T71224[ebp]
	fldz
	fstp	DWORD PTR $T71225[ebp]
	fldz
	fstp	DWORD PTR $T71227[ebp]
	fldz
	fstp	DWORD PTR $T71228[ebp]
	fld	DWORD PTR __real@3f000000
	fstp	DWORD PTR $T71229[ebp]
	fldz
	fstp	DWORD PTR $T71230[ebp]
	fldz
	fstp	DWORD PTR $T71232[ebp]
	fldz
	fstp	DWORD PTR $T71233[ebp]
	fldz
	fstp	DWORD PTR $T71234[ebp]
	fld	DWORD PTR __real@3f000000
	fstp	DWORD PTR $T71235[ebp]
	lea	eax, DWORD PTR $T71217[ebp]
	push	eax
	lea	ecx, DWORD PTR $T71218[ebp]
	push	ecx
	lea	edx, DWORD PTR $T71219[ebp]
	push	edx
	lea	eax, DWORD PTR $T71220[ebp]
	push	eax
	lea	ecx, DWORD PTR $T71216[ebp]
	call	??0?$tvec4@M@detail@glm@@QAE@ABM000@Z	; glm::detail::tvec4<float>::tvec4<float>
	push	eax
	lea	ecx, DWORD PTR $T71222[ebp]
	push	ecx
	lea	edx, DWORD PTR $T71223[ebp]
	push	edx
	lea	eax, DWORD PTR $T71224[ebp]
	push	eax
	lea	ecx, DWORD PTR $T71225[ebp]
	push	ecx
	lea	ecx, DWORD PTR $T71221[ebp]
	call	??0?$tvec4@M@detail@glm@@QAE@ABM000@Z	; glm::detail::tvec4<float>::tvec4<float>
	push	eax
	lea	edx, DWORD PTR $T71227[ebp]
	push	edx
	lea	eax, DWORD PTR $T71228[ebp]
	push	eax
	lea	ecx, DWORD PTR $T71229[ebp]
	push	ecx
	lea	edx, DWORD PTR $T71230[ebp]
	push	edx
	lea	ecx, DWORD PTR $T71226[ebp]
	call	??0?$tvec4@M@detail@glm@@QAE@ABM000@Z	; glm::detail::tvec4<float>::tvec4<float>
	push	eax
	lea	eax, DWORD PTR $T71232[ebp]
	push	eax
	lea	ecx, DWORD PTR $T71233[ebp]
	push	ecx
	lea	edx, DWORD PTR $T71234[ebp]
	push	edx
	lea	eax, DWORD PTR $T71235[ebp]
	push	eax
	lea	ecx, DWORD PTR $T71231[ebp]
	call	??0?$tvec4@M@detail@glm@@QAE@ABM000@Z	; glm::detail::tvec4<float>::tvec4<float>
	push	eax
	lea	ecx, DWORD PTR $T63083[ebp]
	call	??0?$tmat4x4@M@detail@glm@@QAE@ABU?$tvec4@M@12@000@Z ; glm::detail::tmat4x4<float>::tmat4x4<float>
	push	eax
	mov	ecx, DWORD PTR _this$[ebp]
	add	ecx, 244				; 000000f4H
	call	??4?$tmat4x4@M@detail@glm@@QAEAAU012@ABU012@@Z ; glm::detail::tmat4x4<float>::operator=

; 59   : 
; 60   :     float c = 1.65f;

	fld	DWORD PTR __real@3fd33333
	fstp	DWORD PTR _c$[ebp]

; 61   : 	vec3 lightPos = vec3(0.0f, c* 5.25f, c* 7.5f);

	fld	DWORD PTR _c$[ebp]
	fmul	QWORD PTR __real@401e000000000000
	fstp	DWORD PTR $T71236[ebp]
	fld	DWORD PTR _c$[ebp]
	fmul	QWORD PTR __real@4015000000000000
	fstp	DWORD PTR $T71237[ebp]
	fldz
	fstp	DWORD PTR $T71238[ebp]
	lea	eax, DWORD PTR $T71236[ebp]
	push	eax
	lea	ecx, DWORD PTR $T71237[ebp]
	push	ecx
	lea	edx, DWORD PTR $T71238[ebp]
	push	edx
	lea	ecx, DWORD PTR _lightPos$[ebp]
	call	??0?$tvec3@M@detail@glm@@QAE@ABM00@Z	; glm::detail::tvec3<float>::tvec3<float>

; 62   : 	m_LightFrustum.SetView(lightPos, vec3(), vec3(0.0f, 1.0f, 0.0f));

	fldz
	fstp	DWORD PTR $T71240[ebp]
	fld1
	fstp	DWORD PTR $T71241[ebp]
	fldz
	fstp	DWORD PTR $T71242[ebp]
	lea	eax, DWORD PTR $T71240[ebp]
	push	eax
	lea	ecx, DWORD PTR $T71241[ebp]
	push	ecx
	lea	edx, DWORD PTR $T71242[ebp]
	push	edx
	lea	ecx, DWORD PTR $T71239[ebp]
	call	??0?$tvec3@M@detail@glm@@QAE@ABM00@Z	; glm::detail::tvec3<float>::tvec3<float>
	push	eax
	lea	ecx, DWORD PTR $T71243[ebp]
	call	??0?$tvec3@M@detail@glm@@QAE@XZ		; glm::detail::tvec3<float>::tvec3<float>
	push	eax
	lea	eax, DWORD PTR _lightPos$[ebp]
	push	eax
	mov	ecx, DWORD PTR _this$[ebp]
	add	ecx, 100				; 00000064H
	call	?SetView@PerspectiveProjection@@QAEXABU?$tvec3@M@detail@glm@@00@Z ; PerspectiveProjection::SetView

; 63   : 	m_LightFrustum.SetPerspective(50.0f, 1.0f, 1.0f, 100.0f);

	push	ecx
	fld	DWORD PTR __real@42c80000
	fstp	DWORD PTR [esp]
	push	ecx
	fld1
	fstp	DWORD PTR [esp]
	push	ecx
	fld1
	fstp	DWORD PTR [esp]
	push	ecx
	fld	DWORD PTR __real@42480000
	fstp	DWORD PTR [esp]
	mov	ecx, DWORD PTR _this$[ebp]
	add	ecx, 100				; 00000064H
	call	?SetPerspective@PerspectiveProjection@@QAEXMMMM@Z ; PerspectiveProjection::SetPerspective

; 64   : 	m_LightPV = m_ShadowBias * m_LightFrustum.GetPerspectiveMatrix() * 
; 65   : 		m_LightFrustum.GetViewMatrix();

	mov	ecx, DWORD PTR _this$[ebp]
	add	ecx, 100				; 00000064H
	call	?GetViewMatrix@PerspectiveProjection@@QBEABU?$tmat4x4@M@detail@glm@@XZ ; PerspectiveProjection::GetViewMatrix
	push	eax
	mov	ecx, DWORD PTR _this$[ebp]
	add	ecx, 100				; 00000064H
	call	?GetPerspectiveMatrix@PerspectiveProjection@@QBEABU?$tmat4x4@M@detail@glm@@XZ ; PerspectiveProjection::GetPerspectiveMatrix
	push	eax
	mov	eax, DWORD PTR _this$[ebp]
	add	eax, 244				; 000000f4H
	push	eax
	lea	ecx, DWORD PTR $T63095[ebp]
	push	ecx
	call	??$?DM@detail@glm@@YA?AU?$tmat4x4@M@01@ABU201@0@Z ; glm::detail::operator*<float>
	add	esp, 12					; 0000000cH
	push	eax
	lea	edx, DWORD PTR $T63096[ebp]
	push	edx
	call	??$?DM@detail@glm@@YA?AU?$tmat4x4@M@01@ABU201@0@Z ; glm::detail::operator*<float>
	add	esp, 12					; 0000000cH
	push	eax
	mov	ecx, DWORD PTR _this$[ebp]
	add	ecx, 308				; 00000134H
	call	??4?$tmat4x4@M@detail@glm@@QAEAAU012@ABU012@@Z ; glm::detail::tmat4x4<float>::operator=

; 66   : 
; 67   : 	m_Program.SetUniform("Light.Intensity", vec3(0.85f));

	fld	DWORD PTR __real@3f59999a
	fstp	DWORD PTR $T71245[ebp]
	lea	eax, DWORD PTR $T71245[ebp]
	push	eax
	lea	ecx, DWORD PTR $T71244[ebp]
	call	??0?$tvec3@M@detail@glm@@QAE@ABM@Z	; glm::detail::tvec3<float>::tvec3<float>
	push	eax
	push	OFFSET ??_C@_0BA@IACPDFGP@Light?4Intensity?$AA@
	mov	ecx, DWORD PTR _this$[ebp]
	add	ecx, 40					; 00000028H
	call	?SetUniform@GLSLProgram@@QAEXPBDABU?$tvec3@M@detail@glm@@@Z ; GLSLProgram::SetUniform

; 68   : 	m_Program.SetUniform("ShadowMap", 0);

	push	0
	push	OFFSET ??_C@_09HHFBJIPM@ShadowMap?$AA@
	mov	ecx, DWORD PTR _this$[ebp]
	add	ecx, 40					; 00000028H
	call	?SetUniform@GLSLProgram@@QAEXPBDH@Z	; GLSLProgram::SetUniform

; 69   : 
; 70   : 	m_Pass1Index = glGetSubroutineIndex(m_Program.GetHandle(), GL_FRAGMENT_SHADER, "recordDepth");

	mov	esi, esp
	push	OFFSET ??_C@_0M@BFKGCCGE@recordDepth?$AA@
	push	35632					; 00008b30H
	mov	ecx, DWORD PTR _this$[ebp]
	add	ecx, 40					; 00000028H
	call	?GetHandle@GLSLProgram@@QAEHXZ		; GLSLProgram::GetHandle
	push	eax
	mov	eax, DWORD PTR __imp____glewGetSubroutineIndex
	mov	ecx, DWORD PTR [eax]
	call	ecx
	cmp	esi, esp
	call	__RTC_CheckEsp
	mov	edx, DWORD PTR _this$[ebp]
	mov	DWORD PTR [edx+84], eax

; 71   :     m_Pass2Index = glGetSubroutineIndex(m_Program.GetHandle(), GL_FRAGMENT_SHADER, "shadeWithShadow");

	mov	esi, esp
	push	OFFSET ??_C@_0BA@BAHLBCPI@shadeWithShadow?$AA@
	push	35632					; 00008b30H
	mov	ecx, DWORD PTR _this$[ebp]
	add	ecx, 40					; 00000028H
	call	?GetHandle@GLSLProgram@@QAEHXZ		; GLSLProgram::GetHandle
	push	eax
	mov	eax, DWORD PTR __imp____glewGetSubroutineIndex
	mov	ecx, DWORD PTR [eax]
	call	ecx
	cmp	esi, esp
	call	__RTC_CheckEsp
	mov	edx, DWORD PTR _this$[ebp]
	mov	DWORD PTR [edx+88], eax

; 72   : 
; 73   : 	m_Angle = 0;

	mov	eax, DWORD PTR _this$[ebp]
	fldz
	fstp	QWORD PTR [eax+16]

; 74   : 
; 75   : 	CreateShadowFBO();

	mov	ecx, DWORD PTR _this$[ebp]
	call	?CreateShadowFBO@ShadowMap@@AAEXXZ	; ShadowMap::CreateShadowFBO
$LN4@Init:

; 76   : }

	push	edx
	mov	ecx, ebp
	push	eax
	lea	edx, DWORD PTR $LN8@Init
	call	@_RTC_CheckStackVars@8
	pop	eax
	pop	edx
	pop	edi
	pop	esi
	pop	ebx
	mov	ecx, DWORD PTR __$ArrayPad$[ebp]
	xor	ecx, ebp
	call	@__security_check_cookie@4
	add	esp, 888				; 00000378H
	cmp	ebp, esp
	call	__RTC_CheckEsp
	mov	esp, ebp
	pop	ebp
	ret	0
	npad	2
$LN8@Init:
	DD	1
	DD	$LN7@Init
$LN7@Init:
	DD	-44					; ffffffd4H
	DD	12					; 0000000cH
	DD	$LN6@Init
$LN6@Init:
	DB	108					; 0000006cH
	DB	105					; 00000069H
	DB	103					; 00000067H
	DB	104					; 00000068H
	DB	116					; 00000074H
	DB	80					; 00000050H
	DB	111					; 0000006fH
	DB	115					; 00000073H
	DB	0
?Init@ShadowMap@@UAEXXZ ENDP				; ShadowMap::Init
; Function compile flags: /Odtp /RTCsu /ZI
_TEXT	ENDS
;	COMDAT ?Resize@ShadowMap@@UAEXHH@Z
_TEXT	SEGMENT
_this$ = -8						; size = 4
_width$ = 8						; size = 4
_height$ = 12						; size = 4
?Resize@ShadowMap@@UAEXHH@Z PROC			; ShadowMap::Resize, COMDAT
; _this$ = ecx

; 79   : {

	push	ebp
	mov	ebp, esp
	sub	esp, 204				; 000000ccH
	push	ebx
	push	esi
	push	edi
	push	ecx
	lea	edi, DWORD PTR [ebp-204]
	mov	ecx, 51					; 00000033H
	mov	eax, -858993460				; ccccccccH
	rep stosd
	pop	ecx
	mov	DWORD PTR _this$[ebp], ecx

; 80   : 	m_Width = width;

	mov	eax, DWORD PTR _this$[ebp]
	mov	ecx, DWORD PTR _width$[ebp]
	mov	DWORD PTR [eax+4], ecx

; 81   : 	m_Height = height;

	mov	eax, DWORD PTR _this$[ebp]
	mov	ecx, DWORD PTR _height$[ebp]
	mov	DWORD PTR [eax+8], ecx

; 82   : }

	pop	edi
	pop	esi
	pop	ebx
	mov	esp, ebp
	pop	ebp
	ret	8
?Resize@ShadowMap@@UAEXHH@Z ENDP			; ShadowMap::Resize
_TEXT	ENDS
PUBLIC	?SetMatrices@ShadowMap@@AAEXXZ			; ShadowMap::SetMatrices
PUBLIC	??$perspective@M@glm@@YA?AU?$tmat4x4@M@detail@0@ABM000@Z ; glm::perspective<float>
PUBLIC	__real@3dcccccd
PUBLIC	??_C@_0P@LMHDNJPN@Light?4Position?$AA@		; `string'
PUBLIC	??$?DM@detail@glm@@YA?AU?$tvec4@M@01@ABU?$tmat4x4@M@01@ABU201@@Z ; glm::detail::operator*<float>
PUBLIC	??$?0MM@?$tvec4@M@detail@glm@@QAE@ABU?$tvec3@M@12@ABM@Z ; glm::detail::tvec4<float>::tvec4<float><float,float>
PUBLIC	??$lookAt@M@glm@@YA?AU?$tmat4x4@M@detail@0@ABU?$tvec3@M@20@00@Z ; glm::lookAt<float>
PUBLIC	??$?0NMN@?$tvec3@M@detail@glm@@QAE@ABNABM0@Z	; glm::detail::tvec3<float>::tvec3<float><double,float,double>
PUBLIC	__real@401c000000000000
PUBLIC	__real@4027000000000000
PUBLIC	?DrawScene@ShadowMap@@AAEXXZ			; ShadowMap::DrawScene
PUBLIC	__$ArrayPad$
EXTRN	__imp__glDisable@4:PROC
EXTRN	?SetUniform@GLSLProgram@@QAEXPBDABU?$tvec4@M@detail@glm@@@Z:PROC ; GLSLProgram::SetUniform
EXTRN	?GetOrigin@PerspectiveProjection@@QBEABU?$tvec3@M@detail@glm@@XZ:PROC ; PerspectiveProjection::GetOrigin
EXTRN	_cos:PROC
EXTRN	_sin:PROC
EXTRN	__imp__glFinish@0:PROC
EXTRN	__imp__glFlush@0:PROC
EXTRN	__imp__glCullFace@4:PROC
EXTRN	__imp____glewUniformSubroutinesuiv:DWORD
EXTRN	__imp__glClear@4:PROC
EXTRN	__imp____glewBindFramebuffer:DWORD
EXTRN	__imp__glViewport@16:PROC
;	COMDAT __real@3dcccccd
CONST	SEGMENT
__real@3dcccccd DD 03dcccccdr			; 0.1
CONST	ENDS
;	COMDAT ??_C@_0P@LMHDNJPN@Light?4Position?$AA@
CONST	SEGMENT
??_C@_0P@LMHDNJPN@Light?4Position?$AA@ DB 'Light.Position', 00H ; `string'
CONST	ENDS
;	COMDAT __real@401c000000000000
CONST	SEGMENT
__real@401c000000000000 DQ 0401c000000000000r	; 7
CONST	ENDS
;	COMDAT __real@4027000000000000
CONST	SEGMENT
__real@4027000000000000 DQ 04027000000000000r	; 11.5
; Function compile flags: /Odtp /RTCsu /ZI
CONST	ENDS
;	COMDAT ?Render@ShadowMap@@UAEXXZ
_TEXT	SEGMENT
tv319 = -640						; size = 8
tv317 = -632						; size = 8
$T71273 = -620						; size = 8
$T71274 = -604						; size = 4
$T71275 = -592						; size = 8
$T71276 = -576						; size = 12
$T71277 = -556						; size = 4
$T71278 = -544						; size = 4
$T71279 = -532						; size = 4
$T71280 = -520						; size = 12
$T71281 = -500						; size = 4
$T71282 = -488						; size = 16
$T71283 = -464						; size = 4
$T71284 = -452						; size = 16
$T71285 = -428						; size = 4
$T71286 = -416						; size = 4
$T71287 = -404						; size = 4
$T71288 = -392						; size = 4
$T63166 = -380						; size = 64
$T63221 = -308						; size = 64
_cameraPos$ = -44					; size = 12
_c$ = -24						; size = 4
_this$ = -12						; size = 4
__$ArrayPad$ = -4					; size = 4
?Render@ShadowMap@@UAEXXZ PROC				; ShadowMap::Render, COMDAT
; _this$ = ecx

; 85   : {

	push	ebp
	mov	ebp, esp
	sub	esp, 640				; 00000280H
	push	ebx
	push	esi
	push	edi
	push	ecx
	lea	edi, DWORD PTR [ebp-640]
	mov	ecx, 160				; 000000a0H
	mov	eax, -858993460				; ccccccccH
	rep stosd
	pop	ecx
	mov	eax, DWORD PTR ___security_cookie
	xor	eax, ebp
	mov	DWORD PTR __$ArrayPad$[ebp], eax
	mov	DWORD PTR _this$[ebp], ecx

; 86   :     // Set up camera perspective to render depth to a texture
; 87   : 	m_View = m_LightFrustum.GetViewMatrix();

	mov	ecx, DWORD PTR _this$[ebp]
	add	ecx, 100				; 00000064H
	call	?GetViewMatrix@PerspectiveProjection@@QBEABU?$tmat4x4@M@detail@glm@@XZ ; PerspectiveProjection::GetViewMatrix
	push	eax
	mov	ecx, DWORD PTR _this$[ebp]
	add	ecx, 448				; 000001c0H
	call	??4?$tmat4x4@M@detail@glm@@QAEAAU012@ABU012@@Z ; glm::detail::tmat4x4<float>::operator=

; 88   : 	m_Projection = m_LightFrustum.GetPerspectiveMatrix();

	mov	ecx, DWORD PTR _this$[ebp]
	add	ecx, 100				; 00000064H
	call	?GetPerspectiveMatrix@PerspectiveProjection@@QBEABU?$tmat4x4@M@detail@glm@@XZ ; PerspectiveProjection::GetPerspectiveMatrix
	push	eax
	mov	ecx, DWORD PTR _this$[ebp]
	add	ecx, 384				; 00000180H
	call	??4?$tmat4x4@M@detail@glm@@QAEAAU012@ABU012@@Z ; glm::detail::tmat4x4<float>::operator=

; 89   :     glViewport(0, 0, m_ShadowMapWidth, m_ShadowMapHeight);

	mov	esi, esp
	mov	eax, DWORD PTR _this$[ebp]
	mov	ecx, DWORD PTR [eax+96]
	push	ecx
	mov	edx, DWORD PTR _this$[ebp]
	mov	eax, DWORD PTR [edx+92]
	push	eax
	push	0
	push	0
	call	DWORD PTR __imp__glViewport@16
	cmp	esi, esp
	call	__RTC_CheckEsp

; 90   : 
; 91   : 	// Bind the frame buffer associated to the shadow map
; 92   :     glBindFramebuffer(GL_FRAMEBUFFER, m_ShadowFBO);

	mov	esi, esp
	mov	eax, DWORD PTR _this$[ebp]
	mov	ecx, DWORD PTR [eax+80]
	push	ecx
	push	36160					; 00008d40H
	mov	edx, DWORD PTR __imp____glewBindFramebuffer
	mov	eax, DWORD PTR [edx]
	call	eax
	cmp	esi, esp
	call	__RTC_CheckEsp

; 93   : 
; 94   : 	// CLear the depth buffer
; 95   :     glClear(GL_DEPTH_BUFFER_BIT);

	mov	esi, esp
	push	256					; 00000100H
	call	DWORD PTR __imp__glClear@4
	cmp	esi, esp
	call	__RTC_CheckEsp

; 96   : 
; 97   : 	// Set the subroutine to record depth
; 98   : 	glUniformSubroutinesuiv(GL_FRAGMENT_SHADER, 1, &m_Pass1Index);

	mov	eax, DWORD PTR _this$[ebp]
	add	eax, 84					; 00000054H
	mov	esi, esp
	push	eax
	push	1
	push	35632					; 00008b30H
	mov	ecx, DWORD PTR __imp____glewUniformSubroutinesuiv
	mov	edx, DWORD PTR [ecx]
	call	edx
	cmp	esi, esp
	call	__RTC_CheckEsp

; 99   : 
; 100  : 	// Enable front face culling
; 101  :     glEnable(GL_CULL_FACE);

	mov	esi, esp
	push	2884					; 00000b44H
	call	DWORD PTR __imp__glEnable@4
	cmp	esi, esp
	call	__RTC_CheckEsp

; 102  :     glCullFace(GL_FRONT);

	mov	esi, esp
	push	1028					; 00000404H
	call	DWORD PTR __imp__glCullFace@4
	cmp	esi, esp
	call	__RTC_CheckEsp

; 103  : 
; 104  : 	// Draw the scene to the shadow map.
; 105  :     DrawScene();

	mov	ecx, DWORD PTR _this$[ebp]
	call	?DrawScene@ShadowMap@@AAEXXZ		; ShadowMap::DrawScene

; 106  : 
; 107  :     glFlush();

	mov	esi, esp
	call	DWORD PTR __imp__glFlush@0
	cmp	esi, esp
	call	__RTC_CheckEsp

; 108  :     glFinish();

	mov	esi, esp
	call	DWORD PTR __imp__glFinish@0
	cmp	esi, esp
	call	__RTC_CheckEsp

; 109  : 	//SaveDepthBuffer(); // Check to see if it's working...
; 110  : 
; 111  : 	// Bind the viewing frame buffer.
; 112  : 	glBindFramebuffer(GL_FRAMEBUFFER, 0);

	mov	esi, esp
	push	0
	push	36160					; 00008d40H
	mov	eax, DWORD PTR __imp____glewBindFramebuffer
	mov	ecx, DWORD PTR [eax]
	call	ecx
	cmp	esi, esp
	call	__RTC_CheckEsp

; 113  : 	glClear(GL_COLOR_BUFFER_BIT | GL_DEPTH_BUFFER_BIT);

	mov	esi, esp
	push	16640					; 00004100H
	call	DWORD PTR __imp__glClear@4
	cmp	esi, esp
	call	__RTC_CheckEsp

; 114  : 
; 115  : 	// Bind the camera
; 116  : 	float c = 1.0f;

	fld1
	fstp	DWORD PTR _c$[ebp]

; 117  : 	vec3 cameraPos(c * 11.5f * cos(m_Angle),c * 7.0f,c * 11.5f * sin(m_Angle));

	fld	DWORD PTR _c$[ebp]
	fmul	QWORD PTR __real@4027000000000000
	mov	eax, DWORD PTR _this$[ebp]
	sub	esp, 8
	fld	QWORD PTR [eax+16]
	fstp	QWORD PTR [esp]
	fstp	QWORD PTR tv317[ebp]
	call	_sin
	add	esp, 8
	fmul	QWORD PTR tv317[ebp]
	fstp	QWORD PTR $T71273[ebp]
	fld	DWORD PTR _c$[ebp]
	fmul	QWORD PTR __real@401c000000000000
	fstp	DWORD PTR $T71274[ebp]
	fld	DWORD PTR _c$[ebp]
	fmul	QWORD PTR __real@4027000000000000
	mov	ecx, DWORD PTR _this$[ebp]
	sub	esp, 8
	fld	QWORD PTR [ecx+16]
	fstp	QWORD PTR [esp]
	fstp	QWORD PTR tv319[ebp]
	call	_cos
	add	esp, 8
	fmul	QWORD PTR tv319[ebp]
	fstp	QWORD PTR $T71275[ebp]
	lea	edx, DWORD PTR $T71273[ebp]
	push	edx
	lea	eax, DWORD PTR $T71274[ebp]
	push	eax
	lea	ecx, DWORD PTR $T71275[ebp]
	push	ecx
	lea	ecx, DWORD PTR _cameraPos$[ebp]
	call	??$?0NMN@?$tvec3@M@detail@glm@@QAE@ABNABM0@Z ; glm::detail::tvec3<float>::tvec3<float><double,float,double>

; 118  : 	m_View = glm::lookAt(cameraPos,vec3(0.0f),vec3(0.0f,1.0f,0.0f));

	fldz
	fstp	DWORD PTR $T71277[ebp]
	fld1
	fstp	DWORD PTR $T71278[ebp]
	fldz
	fstp	DWORD PTR $T71279[ebp]
	fldz
	fstp	DWORD PTR $T71281[ebp]
	lea	eax, DWORD PTR $T71277[ebp]
	push	eax
	lea	ecx, DWORD PTR $T71278[ebp]
	push	ecx
	lea	edx, DWORD PTR $T71279[ebp]
	push	edx
	lea	ecx, DWORD PTR $T71276[ebp]
	call	??0?$tvec3@M@detail@glm@@QAE@ABM00@Z	; glm::detail::tvec3<float>::tvec3<float>
	push	eax
	lea	eax, DWORD PTR $T71281[ebp]
	push	eax
	lea	ecx, DWORD PTR $T71280[ebp]
	call	??0?$tvec3@M@detail@glm@@QAE@ABM@Z	; glm::detail::tvec3<float>::tvec3<float>
	push	eax
	lea	ecx, DWORD PTR _cameraPos$[ebp]
	push	ecx
	lea	edx, DWORD PTR $T63166[ebp]
	push	edx
	call	??$lookAt@M@glm@@YA?AU?$tmat4x4@M@detail@0@ABU?$tvec3@M@20@00@Z ; glm::lookAt<float>
	add	esp, 16					; 00000010H
	push	eax
	mov	ecx, DWORD PTR _this$[ebp]
	add	ecx, 448				; 000001c0H
	call	??4?$tmat4x4@M@detail@glm@@QAEAAU012@ABU012@@Z ; glm::detail::tmat4x4<float>::operator=

; 119  : 	m_Program.SetUniform("Light.Position", m_View * vec4(m_LightFrustum.GetOrigin(),1.0f));

	fld1
	fstp	DWORD PTR $T71283[ebp]
	lea	eax, DWORD PTR $T71283[ebp]
	push	eax
	mov	ecx, DWORD PTR _this$[ebp]
	add	ecx, 100				; 00000064H
	call	?GetOrigin@PerspectiveProjection@@QBEABU?$tvec3@M@detail@glm@@XZ ; PerspectiveProjection::GetOrigin
	push	eax
	lea	ecx, DWORD PTR $T71282[ebp]
	call	??$?0MM@?$tvec4@M@detail@glm@@QAE@ABU?$tvec3@M@12@ABM@Z ; glm::detail::tvec4<float>::tvec4<float><float,float>
	push	eax
	mov	ecx, DWORD PTR _this$[ebp]
	add	ecx, 448				; 000001c0H
	push	ecx
	lea	edx, DWORD PTR $T71284[ebp]
	push	edx
	call	??$?DM@detail@glm@@YA?AU?$tvec4@M@01@ABU?$tmat4x4@M@01@ABU201@@Z ; glm::detail::operator*<float>
	add	esp, 12					; 0000000cH
	push	eax
	push	OFFSET ??_C@_0P@LMHDNJPN@Light?4Position?$AA@
	mov	ecx, DWORD PTR _this$[ebp]
	add	ecx, 40					; 00000028H
	call	?SetUniform@GLSLProgram@@QAEXPBDABU?$tvec4@M@detail@glm@@@Z ; GLSLProgram::SetUniform

; 120  : 	m_Projection = glm::perspective(50.0f, (float)m_Width/m_Height, 0.1f, 100.0f);

	fld	DWORD PTR __real@42c80000
	fstp	DWORD PTR $T71285[ebp]
	fld	DWORD PTR __real@3dcccccd
	fstp	DWORD PTR $T71286[ebp]
	mov	eax, DWORD PTR _this$[ebp]
	fild	DWORD PTR [eax+4]
	mov	ecx, DWORD PTR _this$[ebp]
	fidiv	DWORD PTR [ecx+8]
	fstp	DWORD PTR $T71287[ebp]
	fld	DWORD PTR __real@42480000
	fstp	DWORD PTR $T71288[ebp]
	lea	edx, DWORD PTR $T71285[ebp]
	push	edx
	lea	eax, DWORD PTR $T71286[ebp]
	push	eax
	lea	ecx, DWORD PTR $T71287[ebp]
	push	ecx
	lea	edx, DWORD PTR $T71288[ebp]
	push	edx
	lea	eax, DWORD PTR $T63221[ebp]
	push	eax
	call	??$perspective@M@glm@@YA?AU?$tmat4x4@M@detail@0@ABM000@Z ; glm::perspective<float>
	add	esp, 20					; 00000014H
	push	eax
	mov	ecx, DWORD PTR _this$[ebp]
	add	ecx, 384				; 00000180H
	call	??4?$tmat4x4@M@detail@glm@@QAEAAU012@ABU012@@Z ; glm::detail::tmat4x4<float>::operator=

; 121  : 	SetMatrices();

	mov	ecx, DWORD PTR _this$[ebp]
	call	?SetMatrices@ShadowMap@@AAEXXZ		; ShadowMap::SetMatrices

; 122  : 	glViewport(0,0,m_Width,m_Height);

	mov	esi, esp
	mov	eax, DWORD PTR _this$[ebp]
	mov	ecx, DWORD PTR [eax+8]
	push	ecx
	mov	edx, DWORD PTR _this$[ebp]
	mov	eax, DWORD PTR [edx+4]
	push	eax
	push	0
	push	0
	call	DWORD PTR __imp__glViewport@16
	cmp	esi, esp
	call	__RTC_CheckEsp

; 123  : 
; 124  : 	// Disable culling (or we could switch to back-face culling)
; 125  : 	glDisable(GL_CULL_FACE);

	mov	esi, esp
	push	2884					; 00000b44H
	call	DWORD PTR __imp__glDisable@4
	cmp	esi, esp
	call	__RTC_CheckEsp

; 126  : 
; 127  : 	// Set the subroutine to shade with shadow
; 128  : 	glUniformSubroutinesuiv(GL_FRAGMENT_SHADER, 1, &m_Pass2Index);

	mov	eax, DWORD PTR _this$[ebp]
	add	eax, 88					; 00000058H
	mov	esi, esp
	push	eax
	push	1
	push	35632					; 00008b30H
	mov	ecx, DWORD PTR __imp____glewUniformSubroutinesuiv
	mov	edx, DWORD PTR [ecx]
	call	edx
	cmp	esi, esp
	call	__RTC_CheckEsp

; 129  : 
; 130  : 	DrawScene();

	mov	ecx, DWORD PTR _this$[ebp]
	call	?DrawScene@ShadowMap@@AAEXXZ		; ShadowMap::DrawScene

; 131  : 
; 132  : 	glFinish();

	mov	esi, esp
	call	DWORD PTR __imp__glFinish@0
	cmp	esi, esp
	call	__RTC_CheckEsp

; 133  : }

	push	edx
	mov	ecx, ebp
	push	eax
	lea	edx, DWORD PTR $LN5@Render
	call	@_RTC_CheckStackVars@8
	pop	eax
	pop	edx
	pop	edi
	pop	esi
	pop	ebx
	mov	ecx, DWORD PTR __$ArrayPad$[ebp]
	xor	ecx, ebp
	call	@__security_check_cookie@4
	add	esp, 640				; 00000280H
	cmp	ebp, esp
	call	__RTC_CheckEsp
	mov	esp, ebp
	pop	ebp
	ret	0
	npad	1
$LN5@Render:
	DD	1
	DD	$LN4@Render
$LN4@Render:
	DD	-44					; ffffffd4H
	DD	12					; 0000000cH
	DD	$LN3@Render
$LN3@Render:
	DB	99					; 00000063H
	DB	97					; 00000061H
	DB	109					; 0000006dH
	DB	101					; 00000065H
	DB	114					; 00000072H
	DB	97					; 00000061H
	DB	80					; 00000050H
	DB	111					; 0000006fH
	DB	115					; 00000073H
	DB	0
?Render@ShadowMap@@UAEXXZ ENDP				; ShadowMap::Render
_TEXT	ENDS
PUBLIC	__real@401921fb54442d18
PUBLIC	?SetPosition@KMouse@@QAEXMM@Z			; KMouse::SetPosition
;	COMDAT __real@401921fb54442d18
CONST	SEGMENT
__real@401921fb54442d18 DQ 0401921fb54442d18r	; 6.28319
; Function compile flags: /Odtp /RTCsu /ZI
CONST	ENDS
;	COMDAT ?Motion@ShadowMap@@UAEXMM@Z
_TEXT	SEGMENT
_dx$ = -20						; size = 4
_this$ = -8						; size = 4
_x$ = 8							; size = 4
_y$ = 12						; size = 4
?Motion@ShadowMap@@UAEXMM@Z PROC			; ShadowMap::Motion, COMDAT
; _this$ = ecx

; 136  : {

	push	ebp
	mov	ebp, esp
	sub	esp, 216				; 000000d8H
	push	ebx
	push	esi
	push	edi
	push	ecx
	lea	edi, DWORD PTR [ebp-216]
	mov	ecx, 54					; 00000036H
	mov	eax, -858993460				; ccccccccH
	rep stosd
	pop	ecx
	mov	DWORD PTR _this$[ebp], ecx

; 137  : 	float dx = x - m_Mouse.Position.x;

	fld	DWORD PTR _x$[ebp]
	mov	eax, DWORD PTR _this$[ebp]
	fsub	DWORD PTR [eax+32]
	fstp	DWORD PTR _dx$[ebp]

; 138  : 	m_Mouse.SetPosition(x, m_Mouse.Position.y);

	mov	eax, DWORD PTR _this$[ebp]
	push	ecx
	fld	DWORD PTR [eax+36]
	fstp	DWORD PTR [esp]
	push	ecx
	fld	DWORD PTR _x$[ebp]
	fstp	DWORD PTR [esp]
	mov	ecx, DWORD PTR _this$[ebp]
	add	ecx, 24					; 00000018H
	call	?SetPosition@KMouse@@QAEXMM@Z		; KMouse::SetPosition

; 139  :     m_Angle += dx;

	fld	DWORD PTR _dx$[ebp]
	mov	eax, DWORD PTR _this$[ebp]
	fadd	QWORD PTR [eax+16]
	mov	ecx, DWORD PTR _this$[ebp]
	fstp	QWORD PTR [ecx+16]

; 140  :     if( m_Angle > TWOPI) m_Angle -= TWOPI;

	mov	eax, DWORD PTR _this$[ebp]
	fld	QWORD PTR __real@401921fb54442d18
	fcomp	QWORD PTR [eax+16]
	fnstsw	ax
	test	ah, 5
	jp	SHORT $LN1@Motion
	mov	eax, DWORD PTR _this$[ebp]
	fld	QWORD PTR [eax+16]
	fsub	QWORD PTR __real@401921fb54442d18
	mov	ecx, DWORD PTR _this$[ebp]
	fstp	QWORD PTR [ecx+16]
$LN1@Motion:

; 141  : }

	pop	edi
	pop	esi
	pop	ebx
	add	esp, 216				; 000000d8H
	cmp	ebp, esp
	call	__RTC_CheckEsp
	mov	esp, ebp
	pop	ebp
	ret	8
?Motion@ShadowMap@@UAEXMM@Z ENDP			; ShadowMap::Motion
; Function compile flags: /Odtp /RTCsu /ZI
; File c:\users\kmadsen\google drive\opengl_projects\starter\starter\kscene.h
_TEXT	ENDS
;	COMDAT ?SetPosition@KMouse@@QAEXMM@Z
_TEXT	SEGMENT
_this$ = -8						; size = 4
_x$ = 8							; size = 4
_y$ = 12						; size = 4
?SetPosition@KMouse@@QAEXMM@Z PROC			; KMouse::SetPosition, COMDAT
; _this$ = ecx

; 111  : 	{

	push	ebp
	mov	ebp, esp
	sub	esp, 204				; 000000ccH
	push	ebx
	push	esi
	push	edi
	push	ecx
	lea	edi, DWORD PTR [ebp-204]
	mov	ecx, 51					; 00000033H
	mov	eax, -858993460				; ccccccccH
	rep stosd
	pop	ecx
	mov	DWORD PTR _this$[ebp], ecx

; 112  : 		Position.x = x; Position.y = y;

	mov	eax, DWORD PTR _this$[ebp]
	fld	DWORD PTR _x$[ebp]
	fstp	DWORD PTR [eax+8]
	mov	eax, DWORD PTR _this$[ebp]
	fld	DWORD PTR _y$[ebp]
	fstp	DWORD PTR [eax+12]

; 113  : 	}

	pop	edi
	pop	esi
	pop	ebx
	mov	esp, ebp
	pop	ebp
	ret	8
?SetPosition@KMouse@@QAEXMM@Z ENDP			; KMouse::SetPosition
_TEXT	ENDS
PUBLIC	??_C@_0BA@HEBHGLLI@depthBuffer?4png?$AA@	; `string'
PUBLIC	__real@406fe00000000000
PUBLIC	??$min@M@std@@YAABMABM0@Z			; std::min<float>
PUBLIC	??$max@M@std@@YAABMABM0@Z			; std::max<float>
PUBLIC	?SaveDepthBuffer@ShadowMap@@AAEXXZ		; ShadowMap::SaveDepthBuffer
EXTRN	??_V@YAXPAX@Z:PROC				; operator delete[]
EXTRN	__imp__FreeImage_Save@16:PROC
EXTRN	__imp__FreeImage_SetPixelColor@16:PROC
EXTRN	__imp__FreeImage_Allocate@24:PROC
EXTRN	__imp__glGetTexImage@20:PROC
EXTRN	??_U@YAPAXI@Z:PROC				; operator new[]
;	COMDAT ??_C@_0BA@HEBHGLLI@depthBuffer?4png?$AA@
; File c:\users\kmadsen\google drive\opengl_projects\starter\starter\shadowmap.cpp
CONST	SEGMENT
??_C@_0BA@HEBHGLLI@depthBuffer?4png?$AA@ DB 'depthBuffer.png', 00H ; `string'
CONST	ENDS
;	COMDAT __real@406fe00000000000
CONST	SEGMENT
__real@406fe00000000000 DQ 0406fe00000000000r	; 255
; Function compile flags: /Odtp /RTCsu /ZI
CONST	ENDS
;	COMDAT ?SaveDepthBuffer@ShadowMap@@AAEXXZ
_TEXT	SEGMENT
tv237 = -420						; size = 4
tv235 = -416						; size = 4
tv232 = -410						; size = 2
$T71306 = -404						; size = 4
$T71307 = -392						; size = 4
_val$63270 = -185					; size = 1
_normValue$63269 = -176					; size = 4
_bufIdx$63268 = -164					; size = 4
_j$63264 = -152						; size = 4
_i$63260 = -140						; size = 4
_color$ = -128						; size = 4
_imgBuffer$ = -116					; size = 4
_diff$ = -104						; size = 4
_currentValue$63246 = -92				; size = 4
_bufIdx$63245 = -80					; size = 4
_j$63241 = -68						; size = 4
_i$63237 = -56						; size = 4
_minValue$ = -44					; size = 4
_maxValue$ = -32					; size = 4
_buffer$ = -20						; size = 4
_this$ = -8						; size = 4
?SaveDepthBuffer@ShadowMap@@AAEXXZ PROC			; ShadowMap::SaveDepthBuffer, COMDAT
; _this$ = ecx

; 144  : {

	push	ebp
	mov	ebp, esp
	sub	esp, 420				; 000001a4H
	push	ebx
	push	esi
	push	edi
	push	ecx
	lea	edi, DWORD PTR [ebp-420]
	mov	ecx, 105				; 00000069H
	mov	eax, -858993460				; ccccccccH
	rep stosd
	pop	ecx
	mov	DWORD PTR _this$[ebp], ecx

; 145  :     float * buffer = new float[m_ShadowMapWidth * m_ShadowMapHeight];

	mov	eax, DWORD PTR _this$[ebp]
	mov	ecx, DWORD PTR _this$[ebp]
	mov	eax, DWORD PTR [eax+92]
	imul	eax, DWORD PTR [ecx+96]
	xor	ecx, ecx
	mov	edx, 4
	mul	edx
	seto	cl
	neg	ecx
	or	ecx, eax
	push	ecx
	call	??_U@YAPAXI@Z				; operator new[]
	add	esp, 4
	mov	DWORD PTR $T71306[ebp], eax
	mov	eax, DWORD PTR $T71306[ebp]
	mov	DWORD PTR _buffer$[ebp], eax

; 146  :     glGetTexImage(GL_TEXTURE_2D,0,GL_DEPTH_COMPONENT,GL_FLOAT,buffer);

	mov	esi, esp
	mov	eax, DWORD PTR _buffer$[ebp]
	push	eax
	push	5126					; 00001406H
	push	6402					; 00001902H
	push	0
	push	3553					; 00000de1H
	call	DWORD PTR __imp__glGetTexImage@20
	cmp	esi, esp
	call	__RTC_CheckEsp

; 147  : 
; 148  : 	// Get min and max depths to have high contrast.
; 149  : 	float maxValue = 0.0f;

	fldz
	fstp	DWORD PTR _maxValue$[ebp]

; 150  : 	float minValue = 1.0f;

	fld1
	fstp	DWORD PTR _minValue$[ebp]

; 151  : 	for( int i = 0; i < m_ShadowMapHeight; i++ ) {

	mov	DWORD PTR _i$63237[ebp], 0
	jmp	SHORT $LN12@SaveDepthB
$LN11@SaveDepthB:
	mov	eax, DWORD PTR _i$63237[ebp]
	add	eax, 1
	mov	DWORD PTR _i$63237[ebp], eax
$LN12@SaveDepthB:
	mov	eax, DWORD PTR _this$[ebp]
	mov	ecx, DWORD PTR _i$63237[ebp]
	cmp	ecx, DWORD PTR [eax+96]
	jge	SHORT $LN10@SaveDepthB

; 152  :         for( int j = 0; j < m_ShadowMapWidth; j++ ) {

	mov	DWORD PTR _j$63241[ebp], 0
	jmp	SHORT $LN9@SaveDepthB
$LN8@SaveDepthB:
	mov	eax, DWORD PTR _j$63241[ebp]
	add	eax, 1
	mov	DWORD PTR _j$63241[ebp], eax
$LN9@SaveDepthB:
	mov	eax, DWORD PTR _this$[ebp]
	mov	ecx, DWORD PTR _j$63241[ebp]
	cmp	ecx, DWORD PTR [eax+92]
	jge	SHORT $LN7@SaveDepthB

; 153  : 			int bufIdx = i * m_ShadowMapWidth + j;

	mov	eax, DWORD PTR _this$[ebp]
	mov	ecx, DWORD PTR _i$63237[ebp]
	imul	ecx, DWORD PTR [eax+92]
	add	ecx, DWORD PTR _j$63241[ebp]
	mov	DWORD PTR _bufIdx$63245[ebp], ecx

; 154  : 			float currentValue = buffer[bufIdx];

	mov	eax, DWORD PTR _bufIdx$63245[ebp]
	mov	ecx, DWORD PTR _buffer$[ebp]
	fld	DWORD PTR [ecx+eax*4]
	fstp	DWORD PTR _currentValue$63246[ebp]

; 155  :             
; 156  : 			maxValue = std::max(currentValue, maxValue);

	lea	eax, DWORD PTR _maxValue$[ebp]
	push	eax
	lea	ecx, DWORD PTR _currentValue$63246[ebp]
	push	ecx
	call	??$max@M@std@@YAABMABM0@Z		; std::max<float>
	add	esp, 8
	fld	DWORD PTR [eax]
	fstp	DWORD PTR _maxValue$[ebp]

; 157  : 			minValue = std::min(currentValue, minValue);

	lea	eax, DWORD PTR _minValue$[ebp]
	push	eax
	lea	ecx, DWORD PTR _currentValue$63246[ebp]
	push	ecx
	call	??$min@M@std@@YAABMABM0@Z		; std::min<float>
	add	esp, 8
	fld	DWORD PTR [eax]
	fstp	DWORD PTR _minValue$[ebp]

; 158  :         }

	jmp	SHORT $LN8@SaveDepthB
$LN7@SaveDepthB:

; 159  : 	}

	jmp	SHORT $LN11@SaveDepthB
$LN10@SaveDepthB:

; 160  : 	float diff = maxValue - minValue;

	fld	DWORD PTR _maxValue$[ebp]
	fsub	DWORD PTR _minValue$[ebp]
	fstp	DWORD PTR _diff$[ebp]

; 161  : 
; 162  : 	// Set to an image buffer.
; 163  :     FIBITMAP *imgBuffer = FreeImage_Allocate(m_ShadowMapWidth, m_ShadowMapHeight, 24);

	mov	esi, esp
	push	0
	push	0
	push	0
	push	24					; 00000018H
	mov	eax, DWORD PTR _this$[ebp]
	mov	ecx, DWORD PTR [eax+96]
	push	ecx
	mov	edx, DWORD PTR _this$[ebp]
	mov	eax, DWORD PTR [edx+92]
	push	eax
	call	DWORD PTR __imp__FreeImage_Allocate@24
	cmp	esi, esp
	call	__RTC_CheckEsp
	mov	DWORD PTR _imgBuffer$[ebp], eax

; 164  : 	RGBQUAD color;
; 165  :     for( int i = 0; i < m_ShadowMapHeight; i++ ) {

	mov	DWORD PTR _i$63260[ebp], 0
	jmp	SHORT $LN6@SaveDepthB
$LN5@SaveDepthB:
	mov	eax, DWORD PTR _i$63260[ebp]
	add	eax, 1
	mov	DWORD PTR _i$63260[ebp], eax
$LN6@SaveDepthB:
	mov	eax, DWORD PTR _this$[ebp]
	mov	ecx, DWORD PTR _i$63260[ebp]
	cmp	ecx, DWORD PTR [eax+96]
	jge	$LN4@SaveDepthB

; 166  :         for( int j = 0; j < m_ShadowMapWidth; j++ ) {

	mov	DWORD PTR _j$63264[ebp], 0
	jmp	SHORT $LN3@SaveDepthB
$LN2@SaveDepthB:
	mov	eax, DWORD PTR _j$63264[ebp]
	add	eax, 1
	mov	DWORD PTR _j$63264[ebp], eax
$LN3@SaveDepthB:
	mov	eax, DWORD PTR _this$[ebp]
	mov	ecx, DWORD PTR _j$63264[ebp]
	cmp	ecx, DWORD PTR [eax+92]
	jge	$LN1@SaveDepthB

; 167  : 			int bufIdx = i * m_ShadowMapWidth + j;

	mov	eax, DWORD PTR _this$[ebp]
	mov	ecx, DWORD PTR _i$63260[ebp]
	imul	ecx, DWORD PTR [eax+92]
	add	ecx, DWORD PTR _j$63264[ebp]
	mov	DWORD PTR _bufIdx$63268[ebp], ecx

; 168  : 			float normValue = (buffer[bufIdx] - minValue) / diff;

	mov	eax, DWORD PTR _bufIdx$63268[ebp]
	mov	ecx, DWORD PTR _buffer$[ebp]
	fld	DWORD PTR [ecx+eax*4]
	fsub	DWORD PTR _minValue$[ebp]
	fdiv	DWORD PTR _diff$[ebp]
	fstp	DWORD PTR _normValue$63269[ebp]

; 169  :             unsigned char val = (unsigned char)(normValue * 255);

	fld	DWORD PTR _normValue$63269[ebp]
	fmul	QWORD PTR __real@406fe00000000000
	fnstcw	WORD PTR tv232[ebp]
	movzx	eax, WORD PTR tv232[ebp]
	or	eax, 3072				; 00000c00H
	mov	DWORD PTR tv235[ebp], eax
	fldcw	WORD PTR tv235[ebp]
	fistp	DWORD PTR tv237[ebp]
	fldcw	WORD PTR tv232[ebp]
	mov	al, BYTE PTR tv237[ebp]
	mov	BYTE PTR _val$63270[ebp], al

; 170  : 			color.rgbRed = val;

	mov	al, BYTE PTR _val$63270[ebp]
	mov	BYTE PTR _color$[ebp+2], al

; 171  : 			color.rgbGreen = val;

	mov	al, BYTE PTR _val$63270[ebp]
	mov	BYTE PTR _color$[ebp+1], al

; 172  : 			color.rgbBlue = val;

	mov	al, BYTE PTR _val$63270[ebp]
	mov	BYTE PTR _color$[ebp], al

; 173  : 			
; 174  : 			FreeImage_SetPixelColor(imgBuffer, j, i, &color); 

	mov	esi, esp
	lea	eax, DWORD PTR _color$[ebp]
	push	eax
	mov	ecx, DWORD PTR _i$63260[ebp]
	push	ecx
	mov	edx, DWORD PTR _j$63264[ebp]
	push	edx
	mov	eax, DWORD PTR _imgBuffer$[ebp]
	push	eax
	call	DWORD PTR __imp__FreeImage_SetPixelColor@16
	cmp	esi, esp
	call	__RTC_CheckEsp

; 175  :         }

	jmp	$LN2@SaveDepthB
$LN1@SaveDepthB:

; 176  : 	}

	jmp	$LN5@SaveDepthB
$LN4@SaveDepthB:

; 177  : 
; 178  : 	// Save as a PNG.
; 179  : 	FreeImage_Save(FIF_PNG, imgBuffer, "depthBuffer.png");

	mov	esi, esp
	push	0
	push	OFFSET ??_C@_0BA@HEBHGLLI@depthBuffer?4png?$AA@
	mov	eax, DWORD PTR _imgBuffer$[ebp]
	push	eax
	push	13					; 0000000dH
	call	DWORD PTR __imp__FreeImage_Save@16
	cmp	esi, esp
	call	__RTC_CheckEsp

; 180  : 
; 181  :     delete [] buffer;

	mov	eax, DWORD PTR _buffer$[ebp]
	mov	DWORD PTR $T71307[ebp], eax
	mov	ecx, DWORD PTR $T71307[ebp]
	push	ecx
	call	??_V@YAXPAX@Z				; operator delete[]
	add	esp, 4

; 182  :     exit(1);

	mov	esi, esp
	push	1
	call	DWORD PTR __imp__exit
	cmp	esi, esp
	call	__RTC_CheckEsp
$LN13@SaveDepthB:

; 183  : }

	push	edx
	mov	ecx, ebp
	push	eax
	lea	edx, DWORD PTR $LN20@SaveDepthB
	call	@_RTC_CheckStackVars@8
	pop	eax
	pop	edx
	pop	edi
	pop	esi
	pop	ebx
	add	esp, 420				; 000001a4H
	cmp	ebp, esp
	call	__RTC_CheckEsp
	mov	esp, ebp
	pop	ebp
	ret	0
$LN20@SaveDepthB:
	DD	4
	DD	$LN19@SaveDepthB
$LN19@SaveDepthB:
	DD	-32					; ffffffe0H
	DD	4
	DD	$LN15@SaveDepthB
	DD	-44					; ffffffd4H
	DD	4
	DD	$LN16@SaveDepthB
	DD	-92					; ffffffa4H
	DD	4
	DD	$LN17@SaveDepthB
	DD	-128					; ffffff80H
	DD	4
	DD	$LN18@SaveDepthB
$LN18@SaveDepthB:
	DB	99					; 00000063H
	DB	111					; 0000006fH
	DB	108					; 0000006cH
	DB	111					; 0000006fH
	DB	114					; 00000072H
	DB	0
$LN17@SaveDepthB:
	DB	99					; 00000063H
	DB	117					; 00000075H
	DB	114					; 00000072H
	DB	114					; 00000072H
	DB	101					; 00000065H
	DB	110					; 0000006eH
	DB	116					; 00000074H
	DB	86					; 00000056H
	DB	97					; 00000061H
	DB	108					; 0000006cH
	DB	117					; 00000075H
	DB	101					; 00000065H
	DB	0
$LN16@SaveDepthB:
	DB	109					; 0000006dH
	DB	105					; 00000069H
	DB	110					; 0000006eH
	DB	86					; 00000056H
	DB	97					; 00000061H
	DB	108					; 0000006cH
	DB	117					; 00000075H
	DB	101					; 00000065H
	DB	0
$LN15@SaveDepthB:
	DB	109					; 0000006dH
	DB	97					; 00000061H
	DB	120					; 00000078H
	DB	86					; 00000056H
	DB	97					; 00000061H
	DB	108					; 0000006cH
	DB	117					; 00000075H
	DB	101					; 00000065H
	DB	0
?SaveDepthBuffer@ShadowMap@@AAEXXZ ENDP			; ShadowMap::SaveDepthBuffer
_TEXT	ENDS
PUBLIC	__$ArrayPad$
EXTRN	__imp____glewDrawBuffers:DWORD
EXTRN	__imp____glewFramebufferTexture2D:DWORD
EXTRN	__imp____glewGenFramebuffers:DWORD
EXTRN	__imp____glewActiveTexture:DWORD
EXTRN	__imp__glTexParameterfv@12:PROC
EXTRN	__imp__glTexParameteri@12:PROC
EXTRN	__imp__glTexImage2D@36:PROC
EXTRN	__imp__glBindTexture@8:PROC
EXTRN	__imp__glGenTextures@8:PROC
; Function compile flags: /Odtp /RTCsu /ZI
;	COMDAT ?CreateShadowFBO@ShadowMap@@AAEXXZ
_TEXT	SEGMENT
_drawBuffers$ = -60					; size = 4
_depthTex$ = -48					; size = 4
_border$ = -36						; size = 16
_this$ = -12						; size = 4
__$ArrayPad$ = -4					; size = 4
?CreateShadowFBO@ShadowMap@@AAEXXZ PROC			; ShadowMap::CreateShadowFBO, COMDAT
; _this$ = ecx

; 186  : {

	push	ebp
	mov	ebp, esp
	sub	esp, 256				; 00000100H
	push	ebx
	push	esi
	push	edi
	push	ecx
	lea	edi, DWORD PTR [ebp-256]
	mov	ecx, 64					; 00000040H
	mov	eax, -858993460				; ccccccccH
	rep stosd
	pop	ecx
	mov	eax, DWORD PTR ___security_cookie
	xor	eax, ebp
	mov	DWORD PTR __$ArrayPad$[ebp], eax
	mov	DWORD PTR _this$[ebp], ecx

; 187  : 	// Depth value of 1.0, this will be farthest possible (not a shadow).
; 188  : 	GLfloat border[] = { 1.0f, 0.0f, 0.0f, 0.0f };

	fld1
	fstp	DWORD PTR _border$[ebp]
	fldz
	fstp	DWORD PTR _border$[ebp+4]
	fldz
	fstp	DWORD PTR _border$[ebp+8]
	fldz
	fstp	DWORD PTR _border$[ebp+12]

; 189  : 
; 190  : 	// The shadow maptexture
; 191  : 	GLuint depthTex;
; 192  : 
; 193  : 	glGenTextures(1, &depthTex);

	mov	esi, esp
	lea	eax, DWORD PTR _depthTex$[ebp]
	push	eax
	push	1
	call	DWORD PTR __imp__glGenTextures@8
	cmp	esi, esp
	call	__RTC_CheckEsp

; 194  : 	glBindTexture(GL_TEXTURE_2D, depthTex);

	mov	esi, esp
	mov	eax, DWORD PTR _depthTex$[ebp]
	push	eax
	push	3553					; 00000de1H
	call	DWORD PTR __imp__glBindTexture@8
	cmp	esi, esp
	call	__RTC_CheckEsp

; 195  : 	glTexImage2D(GL_TEXTURE_2D, 0, GL_DEPTH_COMPONENT, 
; 196  : 		m_ShadowMapWidth, m_ShadowMapHeight, 0, 
; 197  : 		GL_DEPTH_COMPONENT, GL_UNSIGNED_BYTE, NULL);

	mov	esi, esp
	push	0
	push	5121					; 00001401H
	push	6402					; 00001902H
	push	0
	mov	eax, DWORD PTR _this$[ebp]
	mov	ecx, DWORD PTR [eax+96]
	push	ecx
	mov	edx, DWORD PTR _this$[ebp]
	mov	eax, DWORD PTR [edx+92]
	push	eax
	push	6402					; 00001902H
	push	0
	push	3553					; 00000de1H
	call	DWORD PTR __imp__glTexImage2D@36
	cmp	esi, esp
	call	__RTC_CheckEsp

; 198  : 	glTexParameteri(GL_TEXTURE_2D, GL_TEXTURE_MAG_FILTER, GL_NEAREST);

	mov	esi, esp
	push	9728					; 00002600H
	push	10240					; 00002800H
	push	3553					; 00000de1H
	call	DWORD PTR __imp__glTexParameteri@12
	cmp	esi, esp
	call	__RTC_CheckEsp

; 199  : 	glTexParameteri(GL_TEXTURE_2D, GL_TEXTURE_MIN_FILTER, GL_NEAREST);

	mov	esi, esp
	push	9728					; 00002600H
	push	10241					; 00002801H
	push	3553					; 00000de1H
	call	DWORD PTR __imp__glTexParameteri@12
	cmp	esi, esp
	call	__RTC_CheckEsp

; 200  : 	glTexParameteri(GL_TEXTURE_2D, GL_TEXTURE_WRAP_S, GL_CLAMP_TO_BORDER);

	mov	esi, esp
	push	33069					; 0000812dH
	push	10242					; 00002802H
	push	3553					; 00000de1H
	call	DWORD PTR __imp__glTexParameteri@12
	cmp	esi, esp
	call	__RTC_CheckEsp

; 201  : 	glTexParameteri(GL_TEXTURE_2D, GL_TEXTURE_WRAP_T, GL_CLAMP_TO_BORDER);

	mov	esi, esp
	push	33069					; 0000812dH
	push	10243					; 00002803H
	push	3553					; 00000de1H
	call	DWORD PTR __imp__glTexParameteri@12
	cmp	esi, esp
	call	__RTC_CheckEsp

; 202  : 	glTexParameterfv(GL_TEXTURE_2D, GL_TEXTURE_BORDER_COLOR, border);

	mov	esi, esp
	lea	eax, DWORD PTR _border$[ebp]
	push	eax
	push	4100					; 00001004H
	push	3553					; 00000de1H
	call	DWORD PTR __imp__glTexParameterfv@12
	cmp	esi, esp
	call	__RTC_CheckEsp

; 203  : 
; 204  : 	glTexParameteri(GL_TEXTURE_2D, GL_TEXTURE_COMPARE_MODE, GL_COMPARE_REF_TO_TEXTURE);

	mov	esi, esp
	push	34894					; 0000884eH
	push	34892					; 0000884cH
	push	3553					; 00000de1H
	call	DWORD PTR __imp__glTexParameteri@12
	cmp	esi, esp
	call	__RTC_CheckEsp

; 205  : 	glTexParameteri(GL_TEXTURE_2D, GL_TEXTURE_COMPARE_FUNC, GL_LESS);

	mov	esi, esp
	push	513					; 00000201H
	push	34893					; 0000884dH
	push	3553					; 00000de1H
	call	DWORD PTR __imp__glTexParameteri@12
	cmp	esi, esp
	call	__RTC_CheckEsp

; 206  : 	
; 207  : 	// Assign the shadow map to texture channel 0
; 208  : 	glActiveTexture(GL_TEXTURE0);

	mov	esi, esp
	push	33984					; 000084c0H
	mov	eax, DWORD PTR __imp____glewActiveTexture
	mov	ecx, DWORD PTR [eax]
	call	ecx
	cmp	esi, esp
	call	__RTC_CheckEsp

; 209  : 	glBindTexture(GL_TEXTURE_2D, depthTex);

	mov	esi, esp
	mov	eax, DWORD PTR _depthTex$[ebp]
	push	eax
	push	3553					; 00000de1H
	call	DWORD PTR __imp__glBindTexture@8
	cmp	esi, esp
	call	__RTC_CheckEsp

; 210  : 
; 211  : 	// Create and set up the FBO
; 212  : 	glGenFramebuffers(1, &m_ShadowFBO);

	mov	eax, DWORD PTR _this$[ebp]
	add	eax, 80					; 00000050H
	mov	esi, esp
	push	eax
	push	1
	mov	ecx, DWORD PTR __imp____glewGenFramebuffers
	mov	edx, DWORD PTR [ecx]
	call	edx
	cmp	esi, esp
	call	__RTC_CheckEsp

; 213  : 	glBindFramebuffer(GL_FRAMEBUFFER, m_ShadowFBO);

	mov	esi, esp
	mov	eax, DWORD PTR _this$[ebp]
	mov	ecx, DWORD PTR [eax+80]
	push	ecx
	push	36160					; 00008d40H
	mov	edx, DWORD PTR __imp____glewBindFramebuffer
	mov	eax, DWORD PTR [edx]
	call	eax
	cmp	esi, esp
	call	__RTC_CheckEsp

; 214  : 	glFramebufferTexture2D(GL_FRAMEBUFFER, GL_DEPTH_ATTACHMENT, GL_TEXTURE_2D, depthTex, 0);

	mov	esi, esp
	push	0
	mov	eax, DWORD PTR _depthTex$[ebp]
	push	eax
	push	3553					; 00000de1H
	push	36096					; 00008d00H
	push	36160					; 00008d40H
	mov	ecx, DWORD PTR __imp____glewFramebufferTexture2D
	mov	edx, DWORD PTR [ecx]
	call	edx
	cmp	esi, esp
	call	__RTC_CheckEsp

; 215  : 
; 216  : 	GLenum drawBuffers[] = {GL_NONE};

	mov	DWORD PTR _drawBuffers$[ebp], 0

; 217  : 	glDrawBuffers(1, drawBuffers);

	mov	esi, esp
	lea	eax, DWORD PTR _drawBuffers$[ebp]
	push	eax
	push	1
	mov	ecx, DWORD PTR __imp____glewDrawBuffers
	mov	edx, DWORD PTR [ecx]
	call	edx
	cmp	esi, esp
	call	__RTC_CheckEsp

; 218  : 
; 219  : 	// Revert to the default framebuffer for now
; 220  : 	glBindFramebuffer(GL_FRAMEBUFFER, 0);

	mov	esi, esp
	push	0
	push	36160					; 00008d40H
	mov	eax, DWORD PTR __imp____glewBindFramebuffer
	mov	ecx, DWORD PTR [eax]
	call	ecx
	cmp	esi, esp
	call	__RTC_CheckEsp

; 221  : }

	push	edx
	mov	ecx, ebp
	push	eax
	lea	edx, DWORD PTR $LN7@CreateShad
	call	@_RTC_CheckStackVars@8
	pop	eax
	pop	edx
	pop	edi
	pop	esi
	pop	ebx
	mov	ecx, DWORD PTR __$ArrayPad$[ebp]
	xor	ecx, ebp
	call	@__security_check_cookie@4
	add	esp, 256				; 00000100H
	cmp	ebp, esp
	call	__RTC_CheckEsp
	mov	esp, ebp
	pop	ebp
	ret	0
$LN7@CreateShad:
	DD	3
	DD	$LN6@CreateShad
$LN6@CreateShad:
	DD	-36					; ffffffdcH
	DD	16					; 00000010H
	DD	$LN3@CreateShad
	DD	-48					; ffffffd0H
	DD	4
	DD	$LN4@CreateShad
	DD	-60					; ffffffc4H
	DD	4
	DD	$LN5@CreateShad
$LN5@CreateShad:
	DB	100					; 00000064H
	DB	114					; 00000072H
	DB	97					; 00000061H
	DB	119					; 00000077H
	DB	66					; 00000042H
	DB	117					; 00000075H
	DB	102					; 00000066H
	DB	102					; 00000066H
	DB	101					; 00000065H
	DB	114					; 00000072H
	DB	115					; 00000073H
	DB	0
$LN4@CreateShad:
	DB	100					; 00000064H
	DB	101					; 00000065H
	DB	112					; 00000070H
	DB	116					; 00000074H
	DB	104					; 00000068H
	DB	84					; 00000054H
	DB	101					; 00000065H
	DB	120					; 00000078H
	DB	0
$LN3@CreateShad:
	DB	98					; 00000062H
	DB	111					; 0000006fH
	DB	114					; 00000072H
	DB	100					; 00000064H
	DB	101					; 00000065H
	DB	114					; 00000072H
	DB	0
?CreateShadowFBO@ShadowMap@@AAEXXZ ENDP			; ShadowMap::CreateShadowFBO
_TEXT	ENDS
PUBLIC	__real@42b40000
PUBLIC	__real@c0a00000
PUBLIC	__real@3e800000
PUBLIC	__real@c2340000
PUBLIC	__real@40a00000
PUBLIC	??$rotate@M@glm@@YA?AU?$tmat4x4@M@detail@0@MABU?$tvec3@M@20@@Z ; glm::rotate<float>
PUBLIC	__real@c2b40000
PUBLIC	??$?XM@?$tmat4x4@M@detail@glm@@QAEAAU012@ABU012@@Z ; glm::detail::tmat4x4<float>::operator*=<float>
PUBLIC	??$translate@M@glm@@YA?AU?$tmat4x4@M@detail@0@ABU?$tvec3@M@20@@Z ; glm::translate<float>
PUBLIC	??_C@_0BD@FDHOOOKA@Material?4Shininess?$AA@	; `string'
PUBLIC	__real@43160000
PUBLIC	??_C@_0BC@MBBKMINF@Material?4Specular?$AA@	; `string'
PUBLIC	__real@3f666666
PUBLIC	??_C@_0BB@HMIEFDJG@Material?4Diffuse?$AA@	; `string'
PUBLIC	??_C@_0BB@MONEOIIK@Material?4Ambient?$AA@	; `string'
PUBLIC	??$?DM@detail@glm@@YA?AU?$tvec3@M@01@ABU201@ABM@Z ; glm::detail::operator*<float>
PUBLIC	__real@3d4ccccd
PUBLIC	__real@3f333333
PUBLIC	__real@3e99999a
PUBLIC	__$ArrayPad$
EXTRN	?SetUniform@GLSLProgram@@QAEXPBDMMM@Z:PROC	; GLSLProgram::SetUniform
EXTRN	?SetUniform@GLSLProgram@@QAEXPBDM@Z:PROC	; GLSLProgram::SetUniform
;	COMDAT __real@42b40000
CONST	SEGMENT
__real@42b40000 DD 042b40000r			; 90
CONST	ENDS
;	COMDAT __real@c0a00000
CONST	SEGMENT
__real@c0a00000 DD 0c0a00000r			; -5
CONST	ENDS
;	COMDAT __real@3e800000
CONST	SEGMENT
__real@3e800000 DD 03e800000r			; 0.25
CONST	ENDS
;	COMDAT __real@c2340000
CONST	SEGMENT
__real@c2340000 DD 0c2340000r			; -45
CONST	ENDS
;	COMDAT __real@40a00000
CONST	SEGMENT
__real@40a00000 DD 040a00000r			; 5
CONST	ENDS
;	COMDAT __real@c2b40000
CONST	SEGMENT
__real@c2b40000 DD 0c2b40000r			; -90
CONST	ENDS
;	COMDAT ??_C@_0BD@FDHOOOKA@Material?4Shininess?$AA@
CONST	SEGMENT
??_C@_0BD@FDHOOOKA@Material?4Shininess?$AA@ DB 'Material.Shininess', 00H ; `string'
CONST	ENDS
;	COMDAT __real@43160000
CONST	SEGMENT
__real@43160000 DD 043160000r			; 150
CONST	ENDS
;	COMDAT ??_C@_0BC@MBBKMINF@Material?4Specular?$AA@
CONST	SEGMENT
??_C@_0BC@MBBKMINF@Material?4Specular?$AA@ DB 'Material.Specular', 00H ; `string'
CONST	ENDS
;	COMDAT __real@3f666666
CONST	SEGMENT
__real@3f666666 DD 03f666666r			; 0.9
CONST	ENDS
;	COMDAT ??_C@_0BB@HMIEFDJG@Material?4Diffuse?$AA@
CONST	SEGMENT
??_C@_0BB@HMIEFDJG@Material?4Diffuse?$AA@ DB 'Material.Diffuse', 00H ; `string'
CONST	ENDS
;	COMDAT ??_C@_0BB@MONEOIIK@Material?4Ambient?$AA@
CONST	SEGMENT
??_C@_0BB@MONEOIIK@Material?4Ambient?$AA@ DB 'Material.Ambient', 00H ; `string'
CONST	ENDS
;	COMDAT __real@3d4ccccd
CONST	SEGMENT
__real@3d4ccccd DD 03d4ccccdr			; 0.05
CONST	ENDS
;	COMDAT __real@3f333333
CONST	SEGMENT
__real@3f333333 DD 03f333333r			; 0.7
CONST	ENDS
;	COMDAT __real@3e99999a
CONST	SEGMENT
__real@3e99999a DD 03e99999ar			; 0.3
; Function compile flags: /Odtp /RTCsu /ZI
CONST	ENDS
;	COMDAT ?DrawScene@ShadowMap@@AAEXXZ
_TEXT	SEGMENT
$T71327 = -2092						; size = 4
$T71328 = -2080						; size = 4
$T71329 = -2068						; size = 4
$T71330 = -2056						; size = 4
$T71331 = -2044						; size = 12
$T71332 = -2024						; size = 12
$T71333 = -2004						; size = 4
$T71334 = -1992						; size = 4
$T71335 = -1980						; size = 4
$T71336 = -1968						; size = 4
$T71337 = -1956						; size = 12
$T71338 = -1936						; size = 4
$T71339 = -1924						; size = 4
$T71340 = -1912						; size = 4
$T71341 = -1900						; size = 12
$T71342 = -1880						; size = 4
$T71343 = -1868						; size = 4
$T71344 = -1856						; size = 4
$T71345 = -1844						; size = 4
$T71346 = -1832						; size = 12
$T71347 = -1812						; size = 12
$T71348 = -1792						; size = 4
$T71349 = -1780						; size = 4
$T71350 = -1768						; size = 4
$T71351 = -1756						; size = 4
$T71352 = -1744						; size = 12
$T71353 = -1724						; size = 4
$T71354 = -1712						; size = 4
$T71355 = -1700						; size = 4
$T71356 = -1688						; size = 12
$T71357 = -1668						; size = 4
$T71358 = -1656						; size = 4
$T71359 = -1644						; size = 4
$T71360 = -1632						; size = 4
$T71361 = -1620						; size = 12
$T71362 = -1600						; size = 4
$T71363 = -1588						; size = 4
$T71364 = -1576						; size = 4
$T71365 = -1564						; size = 4
$T71366 = -1552						; size = 12
$T71367 = -1532						; size = 4
$T71368 = -1520						; size = 4
$T71369 = -1508						; size = 4
$T71370 = -1496						; size = 12
$T71371 = -1476						; size = 4
$T71372 = -1464						; size = 4
$T71373 = -1452						; size = 4
$T71374 = -1440						; size = 4
$T71375 = -1428						; size = 12
$T71376 = -1408						; size = 4
$T71377 = -1396						; size = 4
$T71378 = -1384						; size = 4
$T71379 = -1372						; size = 12
$T71380 = -1352						; size = 4
$T71381 = -1340						; size = 4
$T71382 = -1328						; size = 4
$T71383 = -1316						; size = 4
$T63298 = -1304						; size = 64
$T63310 = -1232						; size = 64
$T63336 = -1160						; size = 64
$T63343 = -1088						; size = 64
$T63349 = -1016						; size = 64
$T63354 = -944						; size = 64
$T63355 = -872						; size = 64
$T63361 = -800						; size = 64
$T63362 = -728						; size = 64
$T63368 = -656						; size = 64
$T63373 = -584						; size = 64
$T63374 = -512						; size = 64
$T63380 = -440						; size = 64
$T63385 = -368						; size = 64
$T63386 = -296						; size = 64
_color$ = -32						; size = 12
_this$ = -12						; size = 4
__$ArrayPad$ = -4					; size = 4
?DrawScene@ShadowMap@@AAEXXZ PROC			; ShadowMap::DrawScene, COMDAT
; _this$ = ecx

; 224  : {

	push	ebp
	mov	ebp, esp
	sub	esp, 2096				; 00000830H
	push	ebx
	push	esi
	push	edi
	push	ecx
	lea	edi, DWORD PTR [ebp-2096]
	mov	ecx, 524				; 0000020cH
	mov	eax, -858993460				; ccccccccH
	rep stosd
	pop	ecx
	mov	eax, DWORD PTR ___security_cookie
	xor	eax, ebp
	mov	DWORD PTR __$ArrayPad$[ebp], eax
	mov	DWORD PTR _this$[ebp], ecx

; 225  :     vec3 color = vec3(0.7f,0.5f,0.3f);

	fld	DWORD PTR __real@3e99999a
	fstp	DWORD PTR $T71327[ebp]
	fld	DWORD PTR __real@3f000000
	fstp	DWORD PTR $T71328[ebp]
	fld	DWORD PTR __real@3f333333
	fstp	DWORD PTR $T71329[ebp]
	lea	eax, DWORD PTR $T71327[ebp]
	push	eax
	lea	ecx, DWORD PTR $T71328[ebp]
	push	ecx
	lea	edx, DWORD PTR $T71329[ebp]
	push	edx
	lea	ecx, DWORD PTR _color$[ebp]
	call	??0?$tvec3@M@detail@glm@@QAE@ABM00@Z	; glm::detail::tvec3<float>::tvec3<float>

; 226  :     m_Program.SetUniform("Material.Ambient", color * 0.05f);

	fld	DWORD PTR __real@3d4ccccd
	fstp	DWORD PTR $T71330[ebp]
	lea	eax, DWORD PTR $T71330[ebp]
	push	eax
	lea	ecx, DWORD PTR _color$[ebp]
	push	ecx
	lea	edx, DWORD PTR $T71331[ebp]
	push	edx
	call	??$?DM@detail@glm@@YA?AU?$tvec3@M@01@ABU201@ABM@Z ; glm::detail::operator*<float>
	add	esp, 12					; 0000000cH
	push	eax
	push	OFFSET ??_C@_0BB@MONEOIIK@Material?4Ambient?$AA@
	mov	ecx, DWORD PTR _this$[ebp]
	add	ecx, 40					; 00000028H
	call	?SetUniform@GLSLProgram@@QAEXPBDABU?$tvec3@M@detail@glm@@@Z ; GLSLProgram::SetUniform

; 227  :     m_Program.SetUniform("Material.Diffuse", color);

	lea	eax, DWORD PTR _color$[ebp]
	push	eax
	push	OFFSET ??_C@_0BB@HMIEFDJG@Material?4Diffuse?$AA@
	mov	ecx, DWORD PTR _this$[ebp]
	add	ecx, 40					; 00000028H
	call	?SetUniform@GLSLProgram@@QAEXPBDABU?$tvec3@M@detail@glm@@@Z ; GLSLProgram::SetUniform

; 228  :     m_Program.SetUniform("Material.Specular", vec3(0.9f,0.9f,0.9f));

	fld	DWORD PTR __real@3f666666
	fstp	DWORD PTR $T71333[ebp]
	fld	DWORD PTR __real@3f666666
	fstp	DWORD PTR $T71334[ebp]
	fld	DWORD PTR __real@3f666666
	fstp	DWORD PTR $T71335[ebp]
	lea	eax, DWORD PTR $T71333[ebp]
	push	eax
	lea	ecx, DWORD PTR $T71334[ebp]
	push	ecx
	lea	edx, DWORD PTR $T71335[ebp]
	push	edx
	lea	ecx, DWORD PTR $T71332[ebp]
	call	??0?$tvec3@M@detail@glm@@QAE@ABM00@Z	; glm::detail::tvec3<float>::tvec3<float>
	push	eax
	push	OFFSET ??_C@_0BC@MBBKMINF@Material?4Specular?$AA@
	mov	ecx, DWORD PTR _this$[ebp]
	add	ecx, 40					; 00000028H
	call	?SetUniform@GLSLProgram@@QAEXPBDABU?$tvec3@M@detail@glm@@@Z ; GLSLProgram::SetUniform

; 229  :     m_Program.SetUniform("Material.Shininess", 150.0f);

	push	ecx
	fld	DWORD PTR __real@43160000
	fstp	DWORD PTR [esp]
	push	OFFSET ??_C@_0BD@FDHOOOKA@Material?4Shininess?$AA@
	mov	ecx, DWORD PTR _this$[ebp]
	add	ecx, 40					; 00000028H
	call	?SetUniform@GLSLProgram@@QAEXPBDM@Z	; GLSLProgram::SetUniform

; 230  :     m_Model = mat4(1.0f);

	fld1
	fstp	DWORD PTR $T71336[ebp]
	lea	eax, DWORD PTR $T71336[ebp]
	push	eax
	lea	ecx, DWORD PTR $T63298[ebp]
	call	??0?$tmat4x4@M@detail@glm@@QAE@ABM@Z	; glm::detail::tmat4x4<float>::tmat4x4<float>
	push	eax
	mov	ecx, DWORD PTR _this$[ebp]
	add	ecx, 512				; 00000200H
	call	??4?$tmat4x4@M@detail@glm@@QAEAAU012@ABU012@@Z ; glm::detail::tmat4x4<float>::operator=

; 231  :     m_Model *= glm::translate(vec3(0.0f,0.0f,0.0f));

	fldz
	fstp	DWORD PTR $T71338[ebp]
	fldz
	fstp	DWORD PTR $T71339[ebp]
	fldz
	fstp	DWORD PTR $T71340[ebp]
	lea	eax, DWORD PTR $T71338[ebp]
	push	eax
	lea	ecx, DWORD PTR $T71339[ebp]
	push	ecx
	lea	edx, DWORD PTR $T71340[ebp]
	push	edx
	lea	ecx, DWORD PTR $T71337[ebp]
	call	??0?$tvec3@M@detail@glm@@QAE@ABM00@Z	; glm::detail::tvec3<float>::tvec3<float>
	push	eax
	lea	eax, DWORD PTR $T63310[ebp]
	push	eax
	call	??$translate@M@glm@@YA?AU?$tmat4x4@M@detail@0@ABU?$tvec3@M@20@@Z ; glm::translate<float>
	add	esp, 8
	push	eax
	mov	ecx, DWORD PTR _this$[ebp]
	add	ecx, 512				; 00000200H
	call	??$?XM@?$tmat4x4@M@detail@glm@@QAEAAU012@ABU012@@Z ; glm::detail::tmat4x4<float>::operator*=<float>

; 232  :     m_Model *= glm::rotate(-90.0f, vec3(1.0f,0.0f,0.0f));

	fldz
	fstp	DWORD PTR $T71342[ebp]
	fldz
	fstp	DWORD PTR $T71343[ebp]
	fld1
	fstp	DWORD PTR $T71344[ebp]
	lea	eax, DWORD PTR $T71342[ebp]
	push	eax
	lea	ecx, DWORD PTR $T71343[ebp]
	push	ecx
	lea	edx, DWORD PTR $T71344[ebp]
	push	edx
	lea	ecx, DWORD PTR $T71341[ebp]
	call	??0?$tvec3@M@detail@glm@@QAE@ABM00@Z	; glm::detail::tvec3<float>::tvec3<float>
	push	eax
	push	ecx
	fld	DWORD PTR __real@c2b40000
	fstp	DWORD PTR [esp]
	lea	eax, DWORD PTR $T63336[ebp]
	push	eax
	call	??$rotate@M@glm@@YA?AU?$tmat4x4@M@detail@0@MABU?$tvec3@M@20@@Z ; glm::rotate<float>
	add	esp, 12					; 0000000cH
	push	eax
	mov	ecx, DWORD PTR _this$[ebp]
	add	ecx, 512				; 00000200H
	call	??$?XM@?$tmat4x4@M@detail@glm@@QAEAAU012@ABU012@@Z ; glm::detail::tmat4x4<float>::operator*=<float>

; 233  :     SetMatrices();

	mov	ecx, DWORD PTR _this$[ebp]
	call	?SetMatrices@ShadowMap@@AAEXXZ		; ShadowMap::SetMatrices

; 234  :     m_Teapot->render();

	mov	eax, DWORD PTR _this$[ebp]
	mov	ecx, DWORD PTR [eax+372]
	mov	edx, DWORD PTR _this$[ebp]
	mov	eax, DWORD PTR [edx+372]
	mov	edx, DWORD PTR [ecx]
	mov	esi, esp
	mov	ecx, eax
	mov	eax, DWORD PTR [edx]
	call	eax
	cmp	esi, esp
	call	__RTC_CheckEsp

; 235  : 
; 236  :     m_Program.SetUniform("Material.Ambient", color * 0.05f);

	fld	DWORD PTR __real@3d4ccccd
	fstp	DWORD PTR $T71345[ebp]
	lea	eax, DWORD PTR $T71345[ebp]
	push	eax
	lea	ecx, DWORD PTR _color$[ebp]
	push	ecx
	lea	edx, DWORD PTR $T71346[ebp]
	push	edx
	call	??$?DM@detail@glm@@YA?AU?$tvec3@M@01@ABU201@ABM@Z ; glm::detail::operator*<float>
	add	esp, 12					; 0000000cH
	push	eax
	push	OFFSET ??_C@_0BB@MONEOIIK@Material?4Ambient?$AA@
	mov	ecx, DWORD PTR _this$[ebp]
	add	ecx, 40					; 00000028H
	call	?SetUniform@GLSLProgram@@QAEXPBDABU?$tvec3@M@detail@glm@@@Z ; GLSLProgram::SetUniform

; 237  :     m_Program.SetUniform("Material.Diffuse", color);

	lea	eax, DWORD PTR _color$[ebp]
	push	eax
	push	OFFSET ??_C@_0BB@HMIEFDJG@Material?4Diffuse?$AA@
	mov	ecx, DWORD PTR _this$[ebp]
	add	ecx, 40					; 00000028H
	call	?SetUniform@GLSLProgram@@QAEXPBDABU?$tvec3@M@detail@glm@@@Z ; GLSLProgram::SetUniform

; 238  :     m_Program.SetUniform("Material.Specular", vec3(0.9f,0.9f,0.9f));

	fld	DWORD PTR __real@3f666666
	fstp	DWORD PTR $T71348[ebp]
	fld	DWORD PTR __real@3f666666
	fstp	DWORD PTR $T71349[ebp]
	fld	DWORD PTR __real@3f666666
	fstp	DWORD PTR $T71350[ebp]
	lea	eax, DWORD PTR $T71348[ebp]
	push	eax
	lea	ecx, DWORD PTR $T71349[ebp]
	push	ecx
	lea	edx, DWORD PTR $T71350[ebp]
	push	edx
	lea	ecx, DWORD PTR $T71347[ebp]
	call	??0?$tvec3@M@detail@glm@@QAE@ABM00@Z	; glm::detail::tvec3<float>::tvec3<float>
	push	eax
	push	OFFSET ??_C@_0BC@MBBKMINF@Material?4Specular?$AA@
	mov	ecx, DWORD PTR _this$[ebp]
	add	ecx, 40					; 00000028H
	call	?SetUniform@GLSLProgram@@QAEXPBDABU?$tvec3@M@detail@glm@@@Z ; GLSLProgram::SetUniform

; 239  :     m_Program.SetUniform("Material.Shininess", 150.0f);

	push	ecx
	fld	DWORD PTR __real@43160000
	fstp	DWORD PTR [esp]
	push	OFFSET ??_C@_0BD@FDHOOOKA@Material?4Shininess?$AA@
	mov	ecx, DWORD PTR _this$[ebp]
	add	ecx, 40					; 00000028H
	call	?SetUniform@GLSLProgram@@QAEXPBDM@Z	; GLSLProgram::SetUniform

; 240  :     m_Model = mat4(1.0f);

	fld1
	fstp	DWORD PTR $T71351[ebp]
	lea	eax, DWORD PTR $T71351[ebp]
	push	eax
	lea	ecx, DWORD PTR $T63343[ebp]
	call	??0?$tmat4x4@M@detail@glm@@QAE@ABM@Z	; glm::detail::tmat4x4<float>::tmat4x4<float>
	push	eax
	mov	ecx, DWORD PTR _this$[ebp]
	add	ecx, 512				; 00000200H
	call	??4?$tmat4x4@M@detail@glm@@QAEAAU012@ABU012@@Z ; glm::detail::tmat4x4<float>::operator=

; 241  :     m_Model *= glm::translate(vec3(0.0f,2.0f,5.0f));

	fld	DWORD PTR __real@40a00000
	fstp	DWORD PTR $T71353[ebp]
	fld	DWORD PTR __real@40000000
	fstp	DWORD PTR $T71354[ebp]
	fldz
	fstp	DWORD PTR $T71355[ebp]
	lea	eax, DWORD PTR $T71353[ebp]
	push	eax
	lea	ecx, DWORD PTR $T71354[ebp]
	push	ecx
	lea	edx, DWORD PTR $T71355[ebp]
	push	edx
	lea	ecx, DWORD PTR $T71352[ebp]
	call	??0?$tvec3@M@detail@glm@@QAE@ABM00@Z	; glm::detail::tvec3<float>::tvec3<float>
	push	eax
	lea	eax, DWORD PTR $T63349[ebp]
	push	eax
	call	??$translate@M@glm@@YA?AU?$tmat4x4@M@detail@0@ABU?$tvec3@M@20@@Z ; glm::translate<float>
	add	esp, 8
	push	eax
	mov	ecx, DWORD PTR _this$[ebp]
	add	ecx, 512				; 00000200H
	call	??$?XM@?$tmat4x4@M@detail@glm@@QAEAAU012@ABU012@@Z ; glm::detail::tmat4x4<float>::operator*=<float>

; 242  :     m_Model *= glm::rotate(-45.0f, vec3(1.0f,0.0f,0.0f));

	fldz
	fstp	DWORD PTR $T71357[ebp]
	fldz
	fstp	DWORD PTR $T71358[ebp]
	fld1
	fstp	DWORD PTR $T71359[ebp]
	lea	eax, DWORD PTR $T71357[ebp]
	push	eax
	lea	ecx, DWORD PTR $T71358[ebp]
	push	ecx
	lea	edx, DWORD PTR $T71359[ebp]
	push	edx
	lea	ecx, DWORD PTR $T71356[ebp]
	call	??0?$tvec3@M@detail@glm@@QAE@ABM00@Z	; glm::detail::tvec3<float>::tvec3<float>
	push	eax
	push	ecx
	fld	DWORD PTR __real@c2340000
	fstp	DWORD PTR [esp]
	lea	eax, DWORD PTR $T63354[ebp]
	push	eax
	call	??$rotate@M@glm@@YA?AU?$tmat4x4@M@detail@0@MABU?$tvec3@M@20@@Z ; glm::rotate<float>
	add	esp, 12					; 0000000cH
	push	eax
	mov	ecx, DWORD PTR _this$[ebp]
	add	ecx, 512				; 00000200H
	call	??$?XM@?$tmat4x4@M@detail@glm@@QAEAAU012@ABU012@@Z ; glm::detail::tmat4x4<float>::operator*=<float>

; 243  :     SetMatrices();

	mov	ecx, DWORD PTR _this$[ebp]
	call	?SetMatrices@ShadowMap@@AAEXXZ		; ShadowMap::SetMatrices

; 244  :     m_Torus->render();

	mov	eax, DWORD PTR _this$[ebp]
	mov	ecx, DWORD PTR [eax+376]
	mov	edx, DWORD PTR _this$[ebp]
	mov	eax, DWORD PTR [edx+376]
	mov	edx, DWORD PTR [ecx]
	mov	esi, esp
	mov	ecx, eax
	mov	eax, DWORD PTR [edx]
	call	eax
	cmp	esi, esp
	call	__RTC_CheckEsp

; 245  : 
; 246  : 	m_Program.SetUniform("Material.Ambient", 0.05f, 0.05f, 0.05f);

	push	ecx
	fld	DWORD PTR __real@3d4ccccd
	fstp	DWORD PTR [esp]
	push	ecx
	fld	DWORD PTR __real@3d4ccccd
	fstp	DWORD PTR [esp]
	push	ecx
	fld	DWORD PTR __real@3d4ccccd
	fstp	DWORD PTR [esp]
	push	OFFSET ??_C@_0BB@MONEOIIK@Material?4Ambient?$AA@
	mov	ecx, DWORD PTR _this$[ebp]
	add	ecx, 40					; 00000028H
	call	?SetUniform@GLSLProgram@@QAEXPBDMMM@Z	; GLSLProgram::SetUniform

; 247  :     m_Program.SetUniform("Material.Diffuse", 0.25f, 0.25f, 0.25f);

	push	ecx
	fld	DWORD PTR __real@3e800000
	fstp	DWORD PTR [esp]
	push	ecx
	fld	DWORD PTR __real@3e800000
	fstp	DWORD PTR [esp]
	push	ecx
	fld	DWORD PTR __real@3e800000
	fstp	DWORD PTR [esp]
	push	OFFSET ??_C@_0BB@HMIEFDJG@Material?4Diffuse?$AA@
	mov	ecx, DWORD PTR _this$[ebp]
	add	ecx, 40					; 00000028H
	call	?SetUniform@GLSLProgram@@QAEXPBDMMM@Z	; GLSLProgram::SetUniform

; 248  :     m_Program.SetUniform("Material.Specular", 0.0f, 0.0f, 0.0f);

	push	ecx
	fldz
	fstp	DWORD PTR [esp]
	push	ecx
	fldz
	fstp	DWORD PTR [esp]
	push	ecx
	fldz
	fstp	DWORD PTR [esp]
	push	OFFSET ??_C@_0BC@MBBKMINF@Material?4Specular?$AA@
	mov	ecx, DWORD PTR _this$[ebp]
	add	ecx, 40					; 00000028H
	call	?SetUniform@GLSLProgram@@QAEXPBDMMM@Z	; GLSLProgram::SetUniform

; 249  :     m_Program.SetUniform("Material.Shininess", 1.0f);

	push	ecx
	fld1
	fstp	DWORD PTR [esp]
	push	OFFSET ??_C@_0BD@FDHOOOKA@Material?4Shininess?$AA@
	mov	ecx, DWORD PTR _this$[ebp]
	add	ecx, 40					; 00000028H
	call	?SetUniform@GLSLProgram@@QAEXPBDM@Z	; GLSLProgram::SetUniform

; 250  :     m_Model = mat4(1.0f);

	fld1
	fstp	DWORD PTR $T71360[ebp]
	lea	eax, DWORD PTR $T71360[ebp]
	push	eax
	lea	ecx, DWORD PTR $T63355[ebp]
	call	??0?$tmat4x4@M@detail@glm@@QAE@ABM@Z	; glm::detail::tmat4x4<float>::tmat4x4<float>
	push	eax
	mov	ecx, DWORD PTR _this$[ebp]
	add	ecx, 512				; 00000200H
	call	??4?$tmat4x4@M@detail@glm@@QAEAAU012@ABU012@@Z ; glm::detail::tmat4x4<float>::operator=

; 251  :     m_Model *= glm::translate(vec3(0.0f,0.0f,0.0f));

	fldz
	fstp	DWORD PTR $T71362[ebp]
	fldz
	fstp	DWORD PTR $T71363[ebp]
	fldz
	fstp	DWORD PTR $T71364[ebp]
	lea	eax, DWORD PTR $T71362[ebp]
	push	eax
	lea	ecx, DWORD PTR $T71363[ebp]
	push	ecx
	lea	edx, DWORD PTR $T71364[ebp]
	push	edx
	lea	ecx, DWORD PTR $T71361[ebp]
	call	??0?$tvec3@M@detail@glm@@QAE@ABM00@Z	; glm::detail::tvec3<float>::tvec3<float>
	push	eax
	lea	eax, DWORD PTR $T63361[ebp]
	push	eax
	call	??$translate@M@glm@@YA?AU?$tmat4x4@M@detail@0@ABU?$tvec3@M@20@@Z ; glm::translate<float>
	add	esp, 8
	push	eax
	mov	ecx, DWORD PTR _this$[ebp]
	add	ecx, 512				; 00000200H
	call	??$?XM@?$tmat4x4@M@detail@glm@@QAEAAU012@ABU012@@Z ; glm::detail::tmat4x4<float>::operator*=<float>

; 252  :     SetMatrices();

	mov	ecx, DWORD PTR _this$[ebp]
	call	?SetMatrices@ShadowMap@@AAEXXZ		; ShadowMap::SetMatrices

; 253  :     m_Plane->render();

	mov	eax, DWORD PTR _this$[ebp]
	mov	ecx, DWORD PTR [eax+380]
	mov	edx, DWORD PTR _this$[ebp]
	mov	eax, DWORD PTR [edx+380]
	mov	edx, DWORD PTR [ecx]
	mov	esi, esp
	mov	ecx, eax
	mov	eax, DWORD PTR [edx]
	call	eax
	cmp	esi, esp
	call	__RTC_CheckEsp

; 254  :     m_Model = mat4(1.0f);

	fld1
	fstp	DWORD PTR $T71365[ebp]
	lea	eax, DWORD PTR $T71365[ebp]
	push	eax
	lea	ecx, DWORD PTR $T63362[ebp]
	call	??0?$tmat4x4@M@detail@glm@@QAE@ABM@Z	; glm::detail::tmat4x4<float>::tmat4x4<float>
	push	eax
	mov	ecx, DWORD PTR _this$[ebp]
	add	ecx, 512				; 00000200H
	call	??4?$tmat4x4@M@detail@glm@@QAEAAU012@ABU012@@Z ; glm::detail::tmat4x4<float>::operator=

; 255  :     m_Model *= glm::translate(vec3(-5.0f,5.0f,0.0f));

	fldz
	fstp	DWORD PTR $T71367[ebp]
	fld	DWORD PTR __real@40a00000
	fstp	DWORD PTR $T71368[ebp]
	fld	DWORD PTR __real@c0a00000
	fstp	DWORD PTR $T71369[ebp]
	lea	eax, DWORD PTR $T71367[ebp]
	push	eax
	lea	ecx, DWORD PTR $T71368[ebp]
	push	ecx
	lea	edx, DWORD PTR $T71369[ebp]
	push	edx
	lea	ecx, DWORD PTR $T71366[ebp]
	call	??0?$tvec3@M@detail@glm@@QAE@ABM00@Z	; glm::detail::tvec3<float>::tvec3<float>
	push	eax
	lea	eax, DWORD PTR $T63368[ebp]
	push	eax
	call	??$translate@M@glm@@YA?AU?$tmat4x4@M@detail@0@ABU?$tvec3@M@20@@Z ; glm::translate<float>
	add	esp, 8
	push	eax
	mov	ecx, DWORD PTR _this$[ebp]
	add	ecx, 512				; 00000200H
	call	??$?XM@?$tmat4x4@M@detail@glm@@QAEAAU012@ABU012@@Z ; glm::detail::tmat4x4<float>::operator*=<float>

; 256  :     m_Model *= glm::rotate(-90.0f,vec3(0.0f,0.0f,1.0f));

	fld1
	fstp	DWORD PTR $T71371[ebp]
	fldz
	fstp	DWORD PTR $T71372[ebp]
	fldz
	fstp	DWORD PTR $T71373[ebp]
	lea	eax, DWORD PTR $T71371[ebp]
	push	eax
	lea	ecx, DWORD PTR $T71372[ebp]
	push	ecx
	lea	edx, DWORD PTR $T71373[ebp]
	push	edx
	lea	ecx, DWORD PTR $T71370[ebp]
	call	??0?$tvec3@M@detail@glm@@QAE@ABM00@Z	; glm::detail::tvec3<float>::tvec3<float>
	push	eax
	push	ecx
	fld	DWORD PTR __real@c2b40000
	fstp	DWORD PTR [esp]
	lea	eax, DWORD PTR $T63373[ebp]
	push	eax
	call	??$rotate@M@glm@@YA?AU?$tmat4x4@M@detail@0@MABU?$tvec3@M@20@@Z ; glm::rotate<float>
	add	esp, 12					; 0000000cH
	push	eax
	mov	ecx, DWORD PTR _this$[ebp]
	add	ecx, 512				; 00000200H
	call	??$?XM@?$tmat4x4@M@detail@glm@@QAEAAU012@ABU012@@Z ; glm::detail::tmat4x4<float>::operator*=<float>

; 257  :     SetMatrices();

	mov	ecx, DWORD PTR _this$[ebp]
	call	?SetMatrices@ShadowMap@@AAEXXZ		; ShadowMap::SetMatrices

; 258  :     m_Plane->render();

	mov	eax, DWORD PTR _this$[ebp]
	mov	ecx, DWORD PTR [eax+380]
	mov	edx, DWORD PTR _this$[ebp]
	mov	eax, DWORD PTR [edx+380]
	mov	edx, DWORD PTR [ecx]
	mov	esi, esp
	mov	ecx, eax
	mov	eax, DWORD PTR [edx]
	call	eax
	cmp	esi, esp
	call	__RTC_CheckEsp

; 259  :     m_Model = mat4(1.0f);

	fld1
	fstp	DWORD PTR $T71374[ebp]
	lea	eax, DWORD PTR $T71374[ebp]
	push	eax
	lea	ecx, DWORD PTR $T63374[ebp]
	call	??0?$tmat4x4@M@detail@glm@@QAE@ABM@Z	; glm::detail::tmat4x4<float>::tmat4x4<float>
	push	eax
	mov	ecx, DWORD PTR _this$[ebp]
	add	ecx, 512				; 00000200H
	call	??4?$tmat4x4@M@detail@glm@@QAEAAU012@ABU012@@Z ; glm::detail::tmat4x4<float>::operator=

; 260  :     m_Model *= glm::translate(vec3(0.0f,5.0f,-5.0f));

	fld	DWORD PTR __real@c0a00000
	fstp	DWORD PTR $T71376[ebp]
	fld	DWORD PTR __real@40a00000
	fstp	DWORD PTR $T71377[ebp]
	fldz
	fstp	DWORD PTR $T71378[ebp]
	lea	eax, DWORD PTR $T71376[ebp]
	push	eax
	lea	ecx, DWORD PTR $T71377[ebp]
	push	ecx
	lea	edx, DWORD PTR $T71378[ebp]
	push	edx
	lea	ecx, DWORD PTR $T71375[ebp]
	call	??0?$tvec3@M@detail@glm@@QAE@ABM00@Z	; glm::detail::tvec3<float>::tvec3<float>
	push	eax
	lea	eax, DWORD PTR $T63380[ebp]
	push	eax
	call	??$translate@M@glm@@YA?AU?$tmat4x4@M@detail@0@ABU?$tvec3@M@20@@Z ; glm::translate<float>
	add	esp, 8
	push	eax
	mov	ecx, DWORD PTR _this$[ebp]
	add	ecx, 512				; 00000200H
	call	??$?XM@?$tmat4x4@M@detail@glm@@QAEAAU012@ABU012@@Z ; glm::detail::tmat4x4<float>::operator*=<float>

; 261  :     m_Model *= glm::rotate(90.0f,vec3(1.0f,0.0f,0.0f));

	fldz
	fstp	DWORD PTR $T71380[ebp]
	fldz
	fstp	DWORD PTR $T71381[ebp]
	fld1
	fstp	DWORD PTR $T71382[ebp]
	lea	eax, DWORD PTR $T71380[ebp]
	push	eax
	lea	ecx, DWORD PTR $T71381[ebp]
	push	ecx
	lea	edx, DWORD PTR $T71382[ebp]
	push	edx
	lea	ecx, DWORD PTR $T71379[ebp]
	call	??0?$tvec3@M@detail@glm@@QAE@ABM00@Z	; glm::detail::tvec3<float>::tvec3<float>
	push	eax
	push	ecx
	fld	DWORD PTR __real@42b40000
	fstp	DWORD PTR [esp]
	lea	eax, DWORD PTR $T63385[ebp]
	push	eax
	call	??$rotate@M@glm@@YA?AU?$tmat4x4@M@detail@0@MABU?$tvec3@M@20@@Z ; glm::rotate<float>
	add	esp, 12					; 0000000cH
	push	eax
	mov	ecx, DWORD PTR _this$[ebp]
	add	ecx, 512				; 00000200H
	call	??$?XM@?$tmat4x4@M@detail@glm@@QAEAAU012@ABU012@@Z ; glm::detail::tmat4x4<float>::operator*=<float>

; 262  :     SetMatrices();

	mov	ecx, DWORD PTR _this$[ebp]
	call	?SetMatrices@ShadowMap@@AAEXXZ		; ShadowMap::SetMatrices

; 263  :     m_Plane->render();

	mov	eax, DWORD PTR _this$[ebp]
	mov	ecx, DWORD PTR [eax+380]
	mov	edx, DWORD PTR _this$[ebp]
	mov	eax, DWORD PTR [edx+380]
	mov	edx, DWORD PTR [ecx]
	mov	esi, esp
	mov	ecx, eax
	mov	eax, DWORD PTR [edx]
	call	eax
	cmp	esi, esp
	call	__RTC_CheckEsp

; 264  :     m_Model = mat4(1.0f);

	fld1
	fstp	DWORD PTR $T71383[ebp]
	lea	eax, DWORD PTR $T71383[ebp]
	push	eax
	lea	ecx, DWORD PTR $T63386[ebp]
	call	??0?$tmat4x4@M@detail@glm@@QAE@ABM@Z	; glm::detail::tmat4x4<float>::tmat4x4<float>
	push	eax
	mov	ecx, DWORD PTR _this$[ebp]
	add	ecx, 512				; 00000200H
	call	??4?$tmat4x4@M@detail@glm@@QAEAAU012@ABU012@@Z ; glm::detail::tmat4x4<float>::operator=

; 265  : }

	push	edx
	mov	ecx, ebp
	push	eax
	lea	edx, DWORD PTR $LN5@DrawScene
	call	@_RTC_CheckStackVars@8
	pop	eax
	pop	edx
	pop	edi
	pop	esi
	pop	ebx
	mov	ecx, DWORD PTR __$ArrayPad$[ebp]
	xor	ecx, ebp
	call	@__security_check_cookie@4
	add	esp, 2096				; 00000830H
	cmp	ebp, esp
	call	__RTC_CheckEsp
	mov	esp, ebp
	pop	ebp
	ret	0
	npad	3
$LN5@DrawScene:
	DD	1
	DD	$LN4@DrawScene
$LN4@DrawScene:
	DD	-32					; ffffffe0H
	DD	12					; 0000000cH
	DD	$LN3@DrawScene
$LN3@DrawScene:
	DB	99					; 00000063H
	DB	111					; 0000006fH
	DB	108					; 0000006cH
	DB	111					; 0000006fH
	DB	114					; 00000072H
	DB	0
?DrawScene@ShadowMap@@AAEXXZ ENDP			; ShadowMap::DrawScene
_TEXT	ENDS
PUBLIC	??_C@_0N@INHMCGDF@ShadowMatrix?$AA@		; `string'
PUBLIC	??_C@_03GFEPKPFF@MVP?$AA@			; `string'
PUBLIC	??_C@_0BA@PFLEPDB@ModelViewMatrix?$AA@		; `string'
PUBLIC	??_C@_0N@CINNHGPB@NormalMatrix?$AA@		; `string'
PUBLIC	??0?$tmat3x3@M@detail@glm@@QAE@ABU?$tvec3@M@12@00@Z ; glm::detail::tmat3x3<float>::tmat3x3<float>
PUBLIC	??$?0M@?$tvec3@M@detail@glm@@QAE@ABU?$tvec4@M@12@@Z ; glm::detail::tvec3<float>::tvec3<float><float>
PUBLIC	??A?$tmat4x4@M@detail@glm@@QAEAAU?$tvec4@M@12@I@Z ; glm::detail::tmat4x4<float>::operator[]
PUBLIC	__$ArrayPad$
EXTRN	?SetUniform@GLSLProgram@@QAEXPBDABU?$tmat4x4@M@detail@glm@@@Z:PROC ; GLSLProgram::SetUniform
EXTRN	?SetUniform@GLSLProgram@@QAEXPBDABU?$tmat3x3@M@detail@glm@@@Z:PROC ; GLSLProgram::SetUniform
;	COMDAT ??_C@_0N@INHMCGDF@ShadowMatrix?$AA@
CONST	SEGMENT
??_C@_0N@INHMCGDF@ShadowMatrix?$AA@ DB 'ShadowMatrix', 00H ; `string'
CONST	ENDS
;	COMDAT ??_C@_03GFEPKPFF@MVP?$AA@
CONST	SEGMENT
??_C@_03GFEPKPFF@MVP?$AA@ DB 'MVP', 00H			; `string'
CONST	ENDS
;	COMDAT ??_C@_0BA@PFLEPDB@ModelViewMatrix?$AA@
CONST	SEGMENT
??_C@_0BA@PFLEPDB@ModelViewMatrix?$AA@ DB 'ModelViewMatrix', 00H ; `string'
CONST	ENDS
;	COMDAT ??_C@_0N@CINNHGPB@NormalMatrix?$AA@
CONST	SEGMENT
??_C@_0N@CINNHGPB@NormalMatrix?$AA@ DB 'NormalMatrix', 00H ; `string'
; Function compile flags: /Odtp /RTCsu /ZI
CONST	ENDS
;	COMDAT ?SetMatrices@ShadowMap@@AAEXXZ
_TEXT	SEGMENT
$T71412 = -524						; size = 12
$T71413 = -504						; size = 12
$T71414 = -484						; size = 12
$T63452 = -464						; size = 64
_normalMatrix$ = -200					; size = 36
_modelViewProjection$ = -156				; size = 64
_modelView$ = -84					; size = 64
_this$ = -12						; size = 4
__$ArrayPad$ = -4					; size = 4
?SetMatrices@ShadowMap@@AAEXXZ PROC			; ShadowMap::SetMatrices, COMDAT
; _this$ = ecx

; 268  : {

	push	ebp
	mov	ebp, esp
	sub	esp, 528				; 00000210H
	push	ebx
	push	esi
	push	edi
	push	ecx
	lea	edi, DWORD PTR [ebp-528]
	mov	ecx, 132				; 00000084H
	mov	eax, -858993460				; ccccccccH
	rep stosd
	pop	ecx
	mov	eax, DWORD PTR ___security_cookie
	xor	eax, ebp
	mov	DWORD PTR __$ArrayPad$[ebp], eax
	mov	DWORD PTR _this$[ebp], ecx

; 269  : 	mat4 modelView = m_View * m_Model;

	mov	eax, DWORD PTR _this$[ebp]
	add	eax, 512				; 00000200H
	push	eax
	mov	ecx, DWORD PTR _this$[ebp]
	add	ecx, 448				; 000001c0H
	push	ecx
	lea	edx, DWORD PTR _modelView$[ebp]
	push	edx
	call	??$?DM@detail@glm@@YA?AU?$tmat4x4@M@01@ABU201@0@Z ; glm::detail::operator*<float>
	add	esp, 12					; 0000000cH

; 270  : 	mat4 modelViewProjection = m_Projection * modelView;

	lea	eax, DWORD PTR _modelView$[ebp]
	push	eax
	mov	ecx, DWORD PTR _this$[ebp]
	add	ecx, 384				; 00000180H
	push	ecx
	lea	edx, DWORD PTR _modelViewProjection$[ebp]
	push	edx
	call	??$?DM@detail@glm@@YA?AU?$tmat4x4@M@01@ABU201@0@Z ; glm::detail::operator*<float>
	add	esp, 12					; 0000000cH

; 271  : 	mat3 normalMatrix = 
; 272  : 		mat3(vec3(modelView[0]),
; 273  : 			 vec3(modelView[1]),
; 274  : 			 vec3(modelView[2]));

	push	2
	lea	ecx, DWORD PTR _modelView$[ebp]
	call	??A?$tmat4x4@M@detail@glm@@QAEAAU?$tvec4@M@12@I@Z ; glm::detail::tmat4x4<float>::operator[]
	push	eax
	lea	ecx, DWORD PTR $T71412[ebp]
	call	??$?0M@?$tvec3@M@detail@glm@@QAE@ABU?$tvec4@M@12@@Z ; glm::detail::tvec3<float>::tvec3<float><float>
	push	eax
	push	1
	lea	ecx, DWORD PTR _modelView$[ebp]
	call	??A?$tmat4x4@M@detail@glm@@QAEAAU?$tvec4@M@12@I@Z ; glm::detail::tmat4x4<float>::operator[]
	push	eax
	lea	ecx, DWORD PTR $T71413[ebp]
	call	??$?0M@?$tvec3@M@detail@glm@@QAE@ABU?$tvec4@M@12@@Z ; glm::detail::tvec3<float>::tvec3<float><float>
	push	eax
	push	0
	lea	ecx, DWORD PTR _modelView$[ebp]
	call	??A?$tmat4x4@M@detail@glm@@QAEAAU?$tvec4@M@12@I@Z ; glm::detail::tmat4x4<float>::operator[]
	push	eax
	lea	ecx, DWORD PTR $T71414[ebp]
	call	??$?0M@?$tvec3@M@detail@glm@@QAE@ABU?$tvec4@M@12@@Z ; glm::detail::tvec3<float>::tvec3<float><float>
	push	eax
	lea	ecx, DWORD PTR _normalMatrix$[ebp]
	call	??0?$tmat3x3@M@detail@glm@@QAE@ABU?$tvec3@M@12@00@Z ; glm::detail::tmat3x3<float>::tmat3x3<float>

; 275  : 
; 276  : 	m_Program.SetUniform("NormalMatrix", normalMatrix);

	lea	eax, DWORD PTR _normalMatrix$[ebp]
	push	eax
	push	OFFSET ??_C@_0N@CINNHGPB@NormalMatrix?$AA@
	mov	ecx, DWORD PTR _this$[ebp]
	add	ecx, 40					; 00000028H
	call	?SetUniform@GLSLProgram@@QAEXPBDABU?$tmat3x3@M@detail@glm@@@Z ; GLSLProgram::SetUniform

; 277  : 	m_Program.SetUniform("ModelViewMatrix", modelView);

	lea	eax, DWORD PTR _modelView$[ebp]
	push	eax
	push	OFFSET ??_C@_0BA@PFLEPDB@ModelViewMatrix?$AA@
	mov	ecx, DWORD PTR _this$[ebp]
	add	ecx, 40					; 00000028H
	call	?SetUniform@GLSLProgram@@QAEXPBDABU?$tmat4x4@M@detail@glm@@@Z ; GLSLProgram::SetUniform

; 278  : 	m_Program.SetUniform("MVP", modelViewProjection);

	lea	eax, DWORD PTR _modelViewProjection$[ebp]
	push	eax
	push	OFFSET ??_C@_03GFEPKPFF@MVP?$AA@
	mov	ecx, DWORD PTR _this$[ebp]
	add	ecx, 40					; 00000028H
	call	?SetUniform@GLSLProgram@@QAEXPBDABU?$tmat4x4@M@detail@glm@@@Z ; GLSLProgram::SetUniform

; 279  : 	m_Program.SetUniform("ShadowMatrix", m_LightPV * m_Model);

	mov	eax, DWORD PTR _this$[ebp]
	add	eax, 512				; 00000200H
	push	eax
	mov	ecx, DWORD PTR _this$[ebp]
	add	ecx, 308				; 00000134H
	push	ecx
	lea	edx, DWORD PTR $T63452[ebp]
	push	edx
	call	??$?DM@detail@glm@@YA?AU?$tmat4x4@M@01@ABU201@0@Z ; glm::detail::operator*<float>
	add	esp, 12					; 0000000cH
	push	eax
	push	OFFSET ??_C@_0N@INHMCGDF@ShadowMatrix?$AA@
	mov	ecx, DWORD PTR _this$[ebp]
	add	ecx, 40					; 00000028H
	call	?SetUniform@GLSLProgram@@QAEXPBDABU?$tmat4x4@M@detail@glm@@@Z ; GLSLProgram::SetUniform

; 280  : }

	push	edx
	mov	ecx, ebp
	push	eax
	lea	edx, DWORD PTR $LN7@SetMatrice
	call	@_RTC_CheckStackVars@8
	pop	eax
	pop	edx
	pop	edi
	pop	esi
	pop	ebx
	mov	ecx, DWORD PTR __$ArrayPad$[ebp]
	xor	ecx, ebp
	call	@__security_check_cookie@4
	add	esp, 528				; 00000210H
	cmp	ebp, esp
	call	__RTC_CheckEsp
	mov	esp, ebp
	pop	ebp
	ret	0
	npad	3
$LN7@SetMatrice:
	DD	3
	DD	$LN6@SetMatrice
$LN6@SetMatrice:
	DD	-84					; ffffffacH
	DD	64					; 00000040H
	DD	$LN3@SetMatrice
	DD	-156					; ffffff64H
	DD	64					; 00000040H
	DD	$LN4@SetMatrice
	DD	-200					; ffffff38H
	DD	36					; 00000024H
	DD	$LN5@SetMatrice
$LN5@SetMatrice:
	DB	110					; 0000006eH
	DB	111					; 0000006fH
	DB	114					; 00000072H
	DB	109					; 0000006dH
	DB	97					; 00000061H
	DB	108					; 0000006cH
	DB	77					; 0000004dH
	DB	97					; 00000061H
	DB	116					; 00000074H
	DB	114					; 00000072H
	DB	105					; 00000069H
	DB	120					; 00000078H
	DB	0
$LN4@SetMatrice:
	DB	109					; 0000006dH
	DB	111					; 0000006fH
	DB	100					; 00000064H
	DB	101					; 00000065H
	DB	108					; 0000006cH
	DB	86					; 00000056H
	DB	105					; 00000069H
	DB	101					; 00000065H
	DB	119					; 00000077H
	DB	80					; 00000050H
	DB	114					; 00000072H
	DB	111					; 0000006fH
	DB	106					; 0000006aH
	DB	101					; 00000065H
	DB	99					; 00000063H
	DB	116					; 00000074H
	DB	105					; 00000069H
	DB	111					; 0000006fH
	DB	110					; 0000006eH
	DB	0
$LN3@SetMatrice:
	DB	109					; 0000006dH
	DB	111					; 0000006fH
	DB	100					; 00000064H
	DB	101					; 00000065H
	DB	108					; 0000006cH
	DB	86					; 00000056H
	DB	105					; 00000069H
	DB	101					; 00000065H
	DB	119					; 00000077H
	DB	0
?SetMatrices@ShadowMap@@AAEXXZ ENDP			; ShadowMap::SetMatrices
_TEXT	ENDS
PUBLIC	??1?$_String_val@DV?$allocator@D@std@@@std@@QAE@XZ ; std::_String_val<char,std::allocator<char> >::~_String_val<char,std::allocator<char> >
PUBLIC	?_Tidy@?$basic_string@DU?$char_traits@D@std@@V?$allocator@D@2@@std@@QAEX_NI@Z ; std::basic_string<char,std::char_traits<char>,std::allocator<char> >::_Tidy
;	COMDAT xdata$x
; File c:\program files (x86)\microsoft visual studio 10.0\vc\include\xstring
xdata$x	SEGMENT
__unwindtable$??1?$basic_string@DU?$char_traits@D@std@@V?$allocator@D@2@@std@@QAE@XZ DD 0ffffffffH
	DD	FLAT:__unwindfunclet$??1?$basic_string@DU?$char_traits@D@std@@V?$allocator@D@2@@std@@QAE@XZ$0
__ehfuncinfo$??1?$basic_string@DU?$char_traits@D@std@@V?$allocator@D@2@@std@@QAE@XZ DD 019930522H
	DD	01H
	DD	FLAT:__unwindtable$??1?$basic_string@DU?$char_traits@D@std@@V?$allocator@D@2@@std@@QAE@XZ
	DD	2 DUP(00H)
	DD	2 DUP(00H)
	DD	00H
	DD	01H
; Function compile flags: /Odtp /RTCsu /ZI
xdata$x	ENDS
;	COMDAT ??1?$basic_string@DU?$char_traits@D@std@@V?$allocator@D@2@@std@@QAE@XZ
_TEXT	SEGMENT
_this$ = -20						; size = 4
__$EHRec$ = -12						; size = 12
??1?$basic_string@DU?$char_traits@D@std@@V?$allocator@D@2@@std@@QAE@XZ PROC ; std::basic_string<char,std::char_traits<char>,std::allocator<char> >::~basic_string<char,std::char_traits<char>,std::allocator<char> >, COMDAT
; _this$ = ecx

; 752  : 		{	// destroy the string

	push	ebp
	mov	ebp, esp
	push	-1
	push	__ehhandler$??1?$basic_string@DU?$char_traits@D@std@@V?$allocator@D@2@@std@@QAE@XZ
	mov	eax, DWORD PTR fs:0
	push	eax
	sub	esp, 204				; 000000ccH
	push	ebx
	push	esi
	push	edi
	push	ecx
	lea	edi, DWORD PTR [ebp-216]
	mov	ecx, 51					; 00000033H
	mov	eax, -858993460				; ccccccccH
	rep stosd
	pop	ecx
	mov	eax, DWORD PTR ___security_cookie
	xor	eax, ebp
	push	eax
	lea	eax, DWORD PTR __$EHRec$[ebp]
	mov	DWORD PTR fs:0, eax
	mov	DWORD PTR _this$[ebp], ecx
	mov	DWORD PTR __$EHRec$[ebp+8], 0

; 753  : 		_Tidy(true);

	push	0
	push	1
	mov	ecx, DWORD PTR _this$[ebp]
	call	?_Tidy@?$basic_string@DU?$char_traits@D@std@@V?$allocator@D@2@@std@@QAEX_NI@Z ; std::basic_string<char,std::char_traits<char>,std::allocator<char> >::_Tidy

; 754  : 		}

	mov	DWORD PTR __$EHRec$[ebp+8], -1
	mov	ecx, DWORD PTR _this$[ebp]
	call	??1?$_String_val@DV?$allocator@D@std@@@std@@QAE@XZ ; std::_String_val<char,std::allocator<char> >::~_String_val<char,std::allocator<char> >
	mov	ecx, DWORD PTR __$EHRec$[ebp]
	mov	DWORD PTR fs:0, ecx
	pop	ecx
	pop	edi
	pop	esi
	pop	ebx
	add	esp, 216				; 000000d8H
	cmp	ebp, esp
	call	__RTC_CheckEsp
	mov	esp, ebp
	pop	ebp
	ret	0
_TEXT	ENDS
;	COMDAT text$x
text$x	SEGMENT
__unwindfunclet$??1?$basic_string@DU?$char_traits@D@std@@V?$allocator@D@2@@std@@QAE@XZ$0:
	mov	ecx, DWORD PTR _this$[ebp]
	jmp	??1?$_String_val@DV?$allocator@D@std@@@std@@QAE@XZ ; std::_String_val<char,std::allocator<char> >::~_String_val<char,std::allocator<char> >
__ehhandler$??1?$basic_string@DU?$char_traits@D@std@@V?$allocator@D@2@@std@@QAE@XZ:
	mov	edx, DWORD PTR [esp+8]
	lea	eax, DWORD PTR [edx+12]
	mov	ecx, DWORD PTR [edx-220]
	xor	ecx, eax
	call	@__security_check_cookie@4
	mov	eax, OFFSET __ehfuncinfo$??1?$basic_string@DU?$char_traits@D@std@@V?$allocator@D@2@@std@@QAE@XZ
	jmp	___CxxFrameHandler3
text$x	ENDS
??1?$basic_string@DU?$char_traits@D@std@@V?$allocator@D@2@@std@@QAE@XZ ENDP ; std::basic_string<char,std::char_traits<char>,std::allocator<char> >::~basic_string<char,std::char_traits<char>,std::allocator<char> >
PUBLIC	?_Eos@?$basic_string@DU?$char_traits@D@std@@V?$allocator@D@2@@std@@QAEXI@Z ; std::basic_string<char,std::char_traits<char>,std::allocator<char> >::_Eos
PUBLIC	?deallocate@?$allocator@D@std@@QAEXPADI@Z	; std::allocator<char>::deallocate
PUBLIC	?copy@?$char_traits@D@std@@SAPADPADPBDI@Z	; std::char_traits<char>::copy
; Function compile flags: /Odtp /RTCsu /ZI
;	COMDAT ?_Tidy@?$basic_string@DU?$char_traits@D@std@@V?$allocator@D@2@@std@@QAEX_NI@Z
_TEXT	SEGMENT
__Ptr$65326 = -20					; size = 4
_this$ = -8						; size = 4
__Built$ = 8						; size = 1
__Newsize$ = 12						; size = 4
?_Tidy@?$basic_string@DU?$char_traits@D@std@@V?$allocator@D@2@@std@@QAEX_NI@Z PROC ; std::basic_string<char,std::char_traits<char>,std::allocator<char> >::_Tidy, COMDAT
; _this$ = ecx

; 1987 : 		{	// initialize buffer, deallocating any storage

	push	ebp
	mov	ebp, esp
	sub	esp, 216				; 000000d8H
	push	ebx
	push	esi
	push	edi
	push	ecx
	lea	edi, DWORD PTR [ebp-216]
	mov	ecx, 54					; 00000036H
	mov	eax, -858993460				; ccccccccH
	rep stosd
	pop	ecx
	mov	DWORD PTR _this$[ebp], ecx

; 1988 : 		if (!_Built)

	movzx	eax, BYTE PTR __Built$[ebp]
	test	eax, eax
	jne	SHORT $LN4@Tidy
	jmp	SHORT $LN3@Tidy
$LN4@Tidy:

; 1989 : 			;
; 1990 : 		else if (this->_BUF_SIZE <= this->_Myres)

	mov	eax, DWORD PTR _this$[ebp]
	cmp	DWORD PTR [eax+24], 16			; 00000010H
	jb	SHORT $LN3@Tidy

; 1991 : 			{	// copy any leftovers to small buffer and deallocate
; 1992 : 			_Elem *_Ptr = this->_Bx._Ptr;

	mov	eax, DWORD PTR _this$[ebp]
	mov	ecx, DWORD PTR [eax+4]
	mov	DWORD PTR __Ptr$65326[ebp], ecx

; 1993 : 			if (0 < _Newsize)

	cmp	DWORD PTR __Newsize$[ebp], 0
	jbe	SHORT $LN1@Tidy

; 1994 : 				_Traits::copy(this->_Bx._Buf, _Ptr, _Newsize);

	mov	eax, DWORD PTR __Newsize$[ebp]
	push	eax
	mov	ecx, DWORD PTR __Ptr$65326[ebp]
	push	ecx
	mov	edx, DWORD PTR _this$[ebp]
	add	edx, 4
	push	edx
	call	?copy@?$char_traits@D@std@@SAPADPADPBDI@Z ; std::char_traits<char>::copy
	add	esp, 12					; 0000000cH
$LN1@Tidy:

; 1995 : 			this->_Alval.deallocate(_Ptr, this->_Myres + 1);

	mov	eax, DWORD PTR _this$[ebp]
	mov	ecx, DWORD PTR [eax+24]
	add	ecx, 1
	push	ecx
	mov	edx, DWORD PTR __Ptr$65326[ebp]
	push	edx
	mov	ecx, DWORD PTR _this$[ebp]
	add	ecx, 28					; 0000001cH
	call	?deallocate@?$allocator@D@std@@QAEXPADI@Z ; std::allocator<char>::deallocate
$LN3@Tidy:

; 1996 : 			}
; 1997 : 		this->_Myres = this->_BUF_SIZE - 1;

	mov	eax, DWORD PTR _this$[ebp]
	mov	DWORD PTR [eax+24], 15			; 0000000fH

; 1998 : 		_Eos(_Newsize);

	mov	eax, DWORD PTR __Newsize$[ebp]
	push	eax
	mov	ecx, DWORD PTR _this$[ebp]
	call	?_Eos@?$basic_string@DU?$char_traits@D@std@@V?$allocator@D@2@@std@@QAEXI@Z ; std::basic_string<char,std::char_traits<char>,std::allocator<char> >::_Eos

; 1999 : 		}

	pop	edi
	pop	esi
	pop	ebx
	add	esp, 216				; 000000d8H
	cmp	ebp, esp
	call	__RTC_CheckEsp
	mov	esp, ebp
	pop	ebp
	ret	8
?_Tidy@?$basic_string@DU?$char_traits@D@std@@V?$allocator@D@2@@std@@QAEX_NI@Z ENDP ; std::basic_string<char,std::char_traits<char>,std::allocator<char> >::_Tidy
_TEXT	ENDS
EXTRN	_memcpy:PROC
; Function compile flags: /Odtp /RTCsu /ZI
; File c:\program files (x86)\microsoft visual studio 10.0\vc\include\iosfwd
;	COMDAT ?copy@?$char_traits@D@std@@SAPADPADPBDI@Z
_TEXT	SEGMENT
__First1$ = 8						; size = 4
__First2$ = 12						; size = 4
__Count$ = 16						; size = 4
?copy@?$char_traits@D@std@@SAPADPADPBDI@Z PROC		; std::char_traits<char>::copy, COMDAT

; 496  : 		{	// copy [_First1, _First1 + _Count) to [_First2, ...)

	push	ebp
	mov	ebp, esp
	sub	esp, 192				; 000000c0H
	push	ebx
	push	esi
	push	edi
	lea	edi, DWORD PTR [ebp-192]
	mov	ecx, 48					; 00000030H
	mov	eax, -858993460				; ccccccccH
	rep stosd

; 497  : 		return ((_Elem *)_CSTD memcpy(_First1, _First2, _Count));

	mov	eax, DWORD PTR __Count$[ebp]
	push	eax
	mov	ecx, DWORD PTR __First2$[ebp]
	push	ecx
	mov	edx, DWORD PTR __First1$[ebp]
	push	edx
	call	_memcpy
	add	esp, 12					; 0000000cH

; 498  : 		}

	pop	edi
	pop	esi
	pop	ebx
	add	esp, 192				; 000000c0H
	cmp	ebp, esp
	call	__RTC_CheckEsp
	mov	esp, ebp
	pop	ebp
	ret	0
?copy@?$char_traits@D@std@@SAPADPADPBDI@Z ENDP		; std::char_traits<char>::copy
_TEXT	ENDS
PUBLIC	?deallocate@?$allocator@U_Container_proxy@std@@@std@@QAEXPAU_Container_proxy@2@I@Z ; std::allocator<std::_Container_proxy>::deallocate
PUBLIC	??$_Dest_val@V?$allocator@U_Container_proxy@std@@@std@@U_Container_proxy@2@@std@@YAXAAV?$allocator@U_Container_proxy@std@@@0@PAU_Container_proxy@0@@Z ; std::_Dest_val<std::allocator<std::_Container_proxy>,std::_Container_proxy>
PUBLIC	??$?0D@?$allocator@U_Container_proxy@std@@@std@@QAE@ABV?$allocator@D@1@@Z ; std::allocator<std::_Container_proxy>::allocator<std::_Container_proxy><char>
EXTRN	__imp_??1_Container_base12@std@@QAE@XZ:PROC
EXTRN	__imp_?_Orphan_all@_Container_base12@std@@QAEXXZ:PROC
;	COMDAT xdata$x
; File c:\program files (x86)\microsoft visual studio 10.0\vc\include\xstring
xdata$x	SEGMENT
__unwindtable$??1?$_String_val@DV?$allocator@D@std@@@std@@QAE@XZ DD 0ffffffffH
	DD	FLAT:__unwindfunclet$??1?$_String_val@DV?$allocator@D@std@@@std@@QAE@XZ$0
__ehfuncinfo$??1?$_String_val@DV?$allocator@D@std@@@std@@QAE@XZ DD 019930522H
	DD	01H
	DD	FLAT:__unwindtable$??1?$_String_val@DV?$allocator@D@std@@@std@@QAE@XZ
	DD	2 DUP(00H)
	DD	2 DUP(00H)
	DD	00H
	DD	01H
; Function compile flags: /Odtp /RTCsu /ZI
xdata$x	ENDS
;	COMDAT ??1?$_String_val@DV?$allocator@D@std@@@std@@QAE@XZ
_TEXT	SEGMENT
__Alproxy$ = -29					; size = 1
_this$ = -20						; size = 4
__$EHRec$ = -12						; size = 12
??1?$_String_val@DV?$allocator@D@std@@@std@@QAE@XZ PROC	; std::_String_val<char,std::allocator<char> >::~_String_val<char,std::allocator<char> >, COMDAT
; _this$ = ecx

; 475  : 		{	// destroy the object

	push	ebp
	mov	ebp, esp
	push	-1
	push	__ehhandler$??1?$_String_val@DV?$allocator@D@std@@@std@@QAE@XZ
	mov	eax, DWORD PTR fs:0
	push	eax
	sub	esp, 216				; 000000d8H
	push	ebx
	push	esi
	push	edi
	push	ecx
	lea	edi, DWORD PTR [ebp-228]
	mov	ecx, 54					; 00000036H
	mov	eax, -858993460				; ccccccccH
	rep stosd
	pop	ecx
	mov	eax, DWORD PTR ___security_cookie
	xor	eax, ebp
	push	eax
	lea	eax, DWORD PTR __$EHRec$[ebp]
	mov	DWORD PTR fs:0, eax
	mov	DWORD PTR _this$[ebp], ecx
	mov	DWORD PTR __$EHRec$[ebp+8], 0

; 476  : 		typename _Alloc::template rebind<_Container_proxy>::other
; 477  : 			_Alproxy(_Alval);

	mov	eax, DWORD PTR _this$[ebp]
	add	eax, 28					; 0000001cH
	push	eax
	lea	ecx, DWORD PTR __Alproxy$[ebp]
	call	??$?0D@?$allocator@U_Container_proxy@std@@@std@@QAE@ABV?$allocator@D@1@@Z ; std::allocator<std::_Container_proxy>::allocator<std::_Container_proxy><char>

; 478  : 		this->_Orphan_all();

	mov	esi, esp
	mov	ecx, DWORD PTR _this$[ebp]
	call	DWORD PTR __imp_?_Orphan_all@_Container_base12@std@@QAEXXZ
	cmp	esi, esp
	call	__RTC_CheckEsp

; 479  : 		_Dest_val(_Alproxy, this->_Myproxy);

	mov	eax, DWORD PTR _this$[ebp]
	mov	ecx, DWORD PTR [eax]
	push	ecx
	lea	edx, DWORD PTR __Alproxy$[ebp]
	push	edx
	call	??$_Dest_val@V?$allocator@U_Container_proxy@std@@@std@@U_Container_proxy@2@@std@@YAXAAV?$allocator@U_Container_proxy@std@@@0@PAU_Container_proxy@0@@Z ; std::_Dest_val<std::allocator<std::_Container_proxy>,std::_Container_proxy>
	add	esp, 8

; 480  : 		_Alproxy.deallocate(this->_Myproxy, 1);

	push	1
	mov	eax, DWORD PTR _this$[ebp]
	mov	ecx, DWORD PTR [eax]
	push	ecx
	lea	ecx, DWORD PTR __Alproxy$[ebp]
	call	?deallocate@?$allocator@U_Container_proxy@std@@@std@@QAEXPAU_Container_proxy@2@I@Z ; std::allocator<std::_Container_proxy>::deallocate

; 481  : 		this->_Myproxy = 0;

	mov	eax, DWORD PTR _this$[ebp]
	mov	DWORD PTR [eax], 0

; 482  : 		}

	mov	DWORD PTR __$EHRec$[ebp+8], -1
	mov	esi, esp
	mov	ecx, DWORD PTR _this$[ebp]
	call	DWORD PTR __imp_??1_Container_base12@std@@QAE@XZ
	cmp	esi, esp
	call	__RTC_CheckEsp
	push	edx
	mov	ecx, ebp
	push	eax
	lea	edx, DWORD PTR $LN7@String_val
	call	@_RTC_CheckStackVars@8
	pop	eax
	pop	edx
	mov	ecx, DWORD PTR __$EHRec$[ebp]
	mov	DWORD PTR fs:0, ecx
	pop	ecx
	pop	edi
	pop	esi
	pop	ebx
	add	esp, 228				; 000000e4H
	cmp	ebp, esp
	call	__RTC_CheckEsp
	mov	esp, ebp
	pop	ebp
	ret	0
	npad	2
$LN7@String_val:
	DD	1
	DD	$LN6@String_val
$LN6@String_val:
	DD	-29					; ffffffe3H
	DD	1
	DD	$LN4@String_val
$LN4@String_val:
	DB	95					; 0000005fH
	DB	65					; 00000041H
	DB	108					; 0000006cH
	DB	112					; 00000070H
	DB	114					; 00000072H
	DB	111					; 0000006fH
	DB	120					; 00000078H
	DB	121					; 00000079H
	DB	0
_TEXT	ENDS
;	COMDAT text$x
text$x	SEGMENT
__unwindfunclet$??1?$_String_val@DV?$allocator@D@std@@@std@@QAE@XZ$0:
	mov	esi, esp
	mov	ecx, DWORD PTR _this$[ebp]
	call	DWORD PTR __imp_??1_Container_base12@std@@QAE@XZ
	cmp	esi, esp
	jmp	__RTC_CheckEsp
__ehhandler$??1?$_String_val@DV?$allocator@D@std@@@std@@QAE@XZ:
	mov	edx, DWORD PTR [esp+8]
	lea	eax, DWORD PTR [edx+12]
	mov	ecx, DWORD PTR [edx-232]
	xor	ecx, eax
	call	@__security_check_cookie@4
	mov	eax, OFFSET __ehfuncinfo$??1?$_String_val@DV?$allocator@D@std@@@std@@QAE@XZ
	jmp	___CxxFrameHandler3
text$x	ENDS
??1?$_String_val@DV?$allocator@D@std@@@std@@QAE@XZ ENDP	; std::_String_val<char,std::allocator<char> >::~_String_val<char,std::allocator<char> >
PUBLIC	?assign@?$char_traits@D@std@@SAXAADABD@Z	; std::char_traits<char>::assign
PUBLIC	?_Myptr@?$basic_string@DU?$char_traits@D@std@@V?$allocator@D@2@@std@@QAEPADXZ ; std::basic_string<char,std::char_traits<char>,std::allocator<char> >::_Myptr
; Function compile flags: /Odtp /RTCsu /ZI
;	COMDAT ?_Eos@?$basic_string@DU?$char_traits@D@std@@V?$allocator@D@2@@std@@QAEXI@Z
_TEXT	SEGMENT
$T71447 = -209						; size = 1
_this$ = -8						; size = 4
__Newsize$ = 8						; size = 4
?_Eos@?$basic_string@DU?$char_traits@D@std@@V?$allocator@D@2@@std@@QAEXI@Z PROC ; std::basic_string<char,std::char_traits<char>,std::allocator<char> >::_Eos, COMDAT
; _this$ = ecx

; 1952 : 		{	// set new length and null terminator

	push	ebp
	mov	ebp, esp
	sub	esp, 216				; 000000d8H
	push	ebx
	push	esi
	push	edi
	push	ecx
	lea	edi, DWORD PTR [ebp-216]
	mov	ecx, 54					; 00000036H
	mov	eax, -858993460				; ccccccccH
	rep stosd
	pop	ecx
	mov	DWORD PTR _this$[ebp], ecx

; 1953 : 		_Traits::assign(_Myptr()[this->_Mysize = _Newsize], _Elem());

	mov	BYTE PTR $T71447[ebp], 0
	mov	eax, DWORD PTR _this$[ebp]
	mov	ecx, DWORD PTR __Newsize$[ebp]
	mov	DWORD PTR [eax+20], ecx
	lea	edx, DWORD PTR $T71447[ebp]
	push	edx
	mov	ecx, DWORD PTR _this$[ebp]
	call	?_Myptr@?$basic_string@DU?$char_traits@D@std@@V?$allocator@D@2@@std@@QAEPADXZ ; std::basic_string<char,std::char_traits<char>,std::allocator<char> >::_Myptr
	add	eax, DWORD PTR __Newsize$[ebp]
	push	eax
	call	?assign@?$char_traits@D@std@@SAXAADABD@Z ; std::char_traits<char>::assign
	add	esp, 8

; 1954 : 		}

	pop	edi
	pop	esi
	pop	ebx
	add	esp, 216				; 000000d8H
	cmp	ebp, esp
	call	__RTC_CheckEsp
	mov	esp, ebp
	pop	ebp
	ret	4
?_Eos@?$basic_string@DU?$char_traits@D@std@@V?$allocator@D@2@@std@@QAEXI@Z ENDP ; std::basic_string<char,std::char_traits<char>,std::allocator<char> >::_Eos
; Function compile flags: /Odtp /RTCsu /ZI
; File c:\program files (x86)\microsoft visual studio 10.0\vc\include\iosfwd
_TEXT	ENDS
;	COMDAT ?assign@?$char_traits@D@std@@SAXAADABD@Z
_TEXT	SEGMENT
__Left$ = 8						; size = 4
__Right$ = 12						; size = 4
?assign@?$char_traits@D@std@@SAXAADABD@Z PROC		; std::char_traits<char>::assign, COMDAT

; 526  : 		{	// assign an element

	push	ebp
	mov	ebp, esp
	sub	esp, 192				; 000000c0H
	push	ebx
	push	esi
	push	edi
	lea	edi, DWORD PTR [ebp-192]
	mov	ecx, 48					; 00000030H
	mov	eax, -858993460				; ccccccccH
	rep stosd

; 527  : 		_Left = _Right;

	mov	eax, DWORD PTR __Left$[ebp]
	mov	ecx, DWORD PTR __Right$[ebp]
	mov	dl, BYTE PTR [ecx]
	mov	BYTE PTR [eax], dl

; 528  : 		}

	pop	edi
	pop	esi
	pop	ebx
	mov	esp, ebp
	pop	ebp
	ret	0
?assign@?$char_traits@D@std@@SAXAADABD@Z ENDP		; std::char_traits<char>::assign
; Function compile flags: /Odtp /RTCsu /ZI
; File c:\program files (x86)\microsoft visual studio 10.0\vc\include\xstring
_TEXT	ENDS
;	COMDAT ?_Myptr@?$basic_string@DU?$char_traits@D@std@@V?$allocator@D@2@@std@@QAEPADXZ
_TEXT	SEGMENT
tv82 = -208						; size = 4
_this$ = -8						; size = 4
?_Myptr@?$basic_string@DU?$char_traits@D@std@@V?$allocator@D@2@@std@@QAEPADXZ PROC ; std::basic_string<char,std::char_traits<char>,std::allocator<char> >::_Myptr, COMDAT
; _this$ = ecx

; 2002 : 		{	// determine current pointer to buffer for mutable string

	push	ebp
	mov	ebp, esp
	sub	esp, 208				; 000000d0H
	push	ebx
	push	esi
	push	edi
	push	ecx
	lea	edi, DWORD PTR [ebp-208]
	mov	ecx, 52					; 00000034H
	mov	eax, -858993460				; ccccccccH
	rep stosd
	pop	ecx
	mov	DWORD PTR _this$[ebp], ecx

; 2003 : 		return (this->_BUF_SIZE <= this->_Myres ? this->_Bx._Ptr
; 2004 : 			: this->_Bx._Buf);

	mov	eax, DWORD PTR _this$[ebp]
	cmp	DWORD PTR [eax+24], 16			; 00000010H
	jb	SHORT $LN3@Myptr
	mov	ecx, DWORD PTR _this$[ebp]
	mov	edx, DWORD PTR [ecx+4]
	mov	DWORD PTR tv82[ebp], edx
	jmp	SHORT $LN4@Myptr
$LN3@Myptr:
	mov	eax, DWORD PTR _this$[ebp]
	add	eax, 4
	mov	DWORD PTR tv82[ebp], eax
$LN4@Myptr:
	mov	eax, DWORD PTR tv82[ebp]

; 2005 : 		}

	pop	edi
	pop	esi
	pop	ebx
	mov	esp, ebp
	pop	ebp
	ret	0
?_Myptr@?$basic_string@DU?$char_traits@D@std@@V?$allocator@D@2@@std@@QAEPADXZ ENDP ; std::basic_string<char,std::char_traits<char>,std::allocator<char> >::_Myptr
; Function compile flags: /Odtp /RTCsu /ZI
; File c:\program files (x86)\microsoft visual studio 10.0\vc\include\xmemory
_TEXT	ENDS
;	COMDAT ?deallocate@?$allocator@D@std@@QAEXPADI@Z
_TEXT	SEGMENT
_this$ = -8						; size = 4
__Ptr$ = 8						; size = 4
___formal$ = 12						; size = 4
?deallocate@?$allocator@D@std@@QAEXPADI@Z PROC		; std::allocator<char>::deallocate, COMDAT
; _this$ = ecx

; 181  : 		{	// deallocate object at _Ptr, ignore size

	push	ebp
	mov	ebp, esp
	sub	esp, 204				; 000000ccH
	push	ebx
	push	esi
	push	edi
	push	ecx
	lea	edi, DWORD PTR [ebp-204]
	mov	ecx, 51					; 00000033H
	mov	eax, -858993460				; ccccccccH
	rep stosd
	pop	ecx
	mov	DWORD PTR _this$[ebp], ecx

; 182  : 		::operator delete(_Ptr);

	mov	eax, DWORD PTR __Ptr$[ebp]
	push	eax
	call	??3@YAXPAX@Z				; operator delete
	add	esp, 4

; 183  : 		}

	pop	edi
	pop	esi
	pop	ebx
	add	esp, 204				; 000000ccH
	cmp	ebp, esp
	call	__RTC_CheckEsp
	mov	esp, ebp
	pop	ebp
	ret	8
?deallocate@?$allocator@D@std@@QAEXPADI@Z ENDP		; std::allocator<char>::deallocate
; Function compile flags: /Odtp /RTCsu /ZI
_TEXT	ENDS
;	COMDAT ?deallocate@?$allocator@U_Container_proxy@std@@@std@@QAEXPAU_Container_proxy@2@I@Z
_TEXT	SEGMENT
_this$ = -8						; size = 4
__Ptr$ = 8						; size = 4
___formal$ = 12						; size = 4
?deallocate@?$allocator@U_Container_proxy@std@@@std@@QAEXPAU_Container_proxy@2@I@Z PROC ; std::allocator<std::_Container_proxy>::deallocate, COMDAT
; _this$ = ecx

; 181  : 		{	// deallocate object at _Ptr, ignore size

	push	ebp
	mov	ebp, esp
	sub	esp, 204				; 000000ccH
	push	ebx
	push	esi
	push	edi
	push	ecx
	lea	edi, DWORD PTR [ebp-204]
	mov	ecx, 51					; 00000033H
	mov	eax, -858993460				; ccccccccH
	rep stosd
	pop	ecx
	mov	DWORD PTR _this$[ebp], ecx

; 182  : 		::operator delete(_Ptr);

	mov	eax, DWORD PTR __Ptr$[ebp]
	push	eax
	call	??3@YAXPAX@Z				; operator delete
	add	esp, 4

; 183  : 		}

	pop	edi
	pop	esi
	pop	ebx
	add	esp, 204				; 000000ccH
	cmp	ebp, esp
	call	__RTC_CheckEsp
	mov	esp, ebp
	pop	ebp
	ret	8
?deallocate@?$allocator@U_Container_proxy@std@@@std@@QAEXPAU_Container_proxy@2@I@Z ENDP ; std::allocator<std::_Container_proxy>::deallocate
; Function compile flags: /Odtp /RTCsu /ZI
; File c:\opengl\glm-0.9.3.1\glm\core\type_vec2.inl
_TEXT	ENDS
;	COMDAT ??0?$tvec2@M@detail@glm@@QAE@XZ
_TEXT	SEGMENT
_this$ = -8						; size = 4
??0?$tvec2@M@detail@glm@@QAE@XZ PROC			; glm::detail::tvec2<float>::tvec2<float>, COMDAT
; _this$ = ecx

; 70   : 	{}

	push	ebp
	mov	ebp, esp
	sub	esp, 204				; 000000ccH
	push	ebx
	push	esi
	push	edi
	push	ecx
	lea	edi, DWORD PTR [ebp-204]
	mov	ecx, 51					; 00000033H
	mov	eax, -858993460				; ccccccccH
	rep stosd
	pop	ecx
	mov	DWORD PTR _this$[ebp], ecx
	mov	eax, DWORD PTR _this$[ebp]
	fldz
	fstp	DWORD PTR [eax]
	mov	eax, DWORD PTR _this$[ebp]
	fldz
	fstp	DWORD PTR [eax+4]
	mov	eax, DWORD PTR _this$[ebp]
	pop	edi
	pop	esi
	pop	ebx
	mov	esp, ebp
	pop	ebp
	ret	0
??0?$tvec2@M@detail@glm@@QAE@XZ ENDP			; glm::detail::tvec2<float>::tvec2<float>
; Function compile flags: /Odtp /RTCsu /ZI
_TEXT	ENDS
;	COMDAT ??4?$tvec2@M@detail@glm@@QAEAAU012@ABU012@@Z
_TEXT	SEGMENT
_this$ = -8						; size = 4
_v$ = 8							; size = 4
??4?$tvec2@M@detail@glm@@QAEAAU012@ABU012@@Z PROC	; glm::detail::tvec2<float>::operator=, COMDAT
; _this$ = ecx

; 187  : 	{

	push	ebp
	mov	ebp, esp
	sub	esp, 204				; 000000ccH
	push	ebx
	push	esi
	push	edi
	push	ecx
	lea	edi, DWORD PTR [ebp-204]
	mov	ecx, 51					; 00000033H
	mov	eax, -858993460				; ccccccccH
	rep stosd
	pop	ecx
	mov	DWORD PTR _this$[ebp], ecx

; 188  : 		this->x = v.x;

	mov	eax, DWORD PTR _this$[ebp]
	mov	ecx, DWORD PTR _v$[ebp]
	fld	DWORD PTR [ecx]
	fstp	DWORD PTR [eax]

; 189  : 		this->y = v.y;

	mov	eax, DWORD PTR _this$[ebp]
	mov	ecx, DWORD PTR _v$[ebp]
	fld	DWORD PTR [ecx+4]
	fstp	DWORD PTR [eax+4]

; 190  : 		return *this;

	mov	eax, DWORD PTR _this$[ebp]

; 191  : 	}

	pop	edi
	pop	esi
	pop	ebx
	mov	esp, ebp
	pop	ebp
	ret	4
??4?$tvec2@M@detail@glm@@QAEAAU012@ABU012@@Z ENDP	; glm::detail::tvec2<float>::operator=
; Function compile flags: /Odtp /RTCsu /ZI
; File c:\opengl\glm-0.9.3.1\glm\core\type_vec3.inl
_TEXT	ENDS
;	COMDAT ??0?$tvec3@M@detail@glm@@QAE@ABM00@Z
_TEXT	SEGMENT
_this$ = -8						; size = 4
_s0$ = 8						; size = 4
_s1$ = 12						; size = 4
_s2$ = 16						; size = 4
??0?$tvec3@M@detail@glm@@QAE@ABM00@Z PROC		; glm::detail::tvec3<float>::tvec3<float>, COMDAT
; _this$ = ecx

; 113  : 	{}

	push	ebp
	mov	ebp, esp
	sub	esp, 204				; 000000ccH
	push	ebx
	push	esi
	push	edi
	push	ecx
	lea	edi, DWORD PTR [ebp-204]
	mov	ecx, 51					; 00000033H
	mov	eax, -858993460				; ccccccccH
	rep stosd
	pop	ecx
	mov	DWORD PTR _this$[ebp], ecx
	mov	eax, DWORD PTR _this$[ebp]
	mov	ecx, DWORD PTR _s0$[ebp]
	fld	DWORD PTR [ecx]
	fstp	DWORD PTR [eax]
	mov	eax, DWORD PTR _this$[ebp]
	mov	ecx, DWORD PTR _s1$[ebp]
	fld	DWORD PTR [ecx]
	fstp	DWORD PTR [eax+4]
	mov	eax, DWORD PTR _this$[ebp]
	mov	ecx, DWORD PTR _s2$[ebp]
	fld	DWORD PTR [ecx]
	fstp	DWORD PTR [eax+8]
	mov	eax, DWORD PTR _this$[ebp]
	pop	edi
	pop	esi
	pop	ebx
	mov	esp, ebp
	pop	ebp
	ret	12					; 0000000cH
??0?$tvec3@M@detail@glm@@QAE@ABM00@Z ENDP		; glm::detail::tvec3<float>::tvec3<float>
; Function compile flags: /Odtp /RTCsu /ZI
_TEXT	ENDS
;	COMDAT ??0?$tvec3@M@detail@glm@@QAE@ABM@Z
_TEXT	SEGMENT
_this$ = -8						; size = 4
_s$ = 8							; size = 4
??0?$tvec3@M@detail@glm@@QAE@ABM@Z PROC			; glm::detail::tvec3<float>::tvec3<float>, COMDAT
; _this$ = ecx

; 101  : 	{}

	push	ebp
	mov	ebp, esp
	sub	esp, 204				; 000000ccH
	push	ebx
	push	esi
	push	edi
	push	ecx
	lea	edi, DWORD PTR [ebp-204]
	mov	ecx, 51					; 00000033H
	mov	eax, -858993460				; ccccccccH
	rep stosd
	pop	ecx
	mov	DWORD PTR _this$[ebp], ecx
	mov	eax, DWORD PTR _this$[ebp]
	mov	ecx, DWORD PTR _s$[ebp]
	fld	DWORD PTR [ecx]
	fstp	DWORD PTR [eax]
	mov	eax, DWORD PTR _this$[ebp]
	mov	ecx, DWORD PTR _s$[ebp]
	fld	DWORD PTR [ecx]
	fstp	DWORD PTR [eax+4]
	mov	eax, DWORD PTR _this$[ebp]
	mov	ecx, DWORD PTR _s$[ebp]
	fld	DWORD PTR [ecx]
	fstp	DWORD PTR [eax+8]
	mov	eax, DWORD PTR _this$[ebp]
	pop	edi
	pop	esi
	pop	ebx
	mov	esp, ebp
	pop	ebp
	ret	4
??0?$tvec3@M@detail@glm@@QAE@ABM@Z ENDP			; glm::detail::tvec3<float>::tvec3<float>
; Function compile flags: /Odtp /RTCsu /ZI
_TEXT	ENDS
;	COMDAT ??0?$tvec3@M@detail@glm@@QAE@XZ
_TEXT	SEGMENT
_this$ = -8						; size = 4
??0?$tvec3@M@detail@glm@@QAE@XZ PROC			; glm::detail::tvec3<float>::tvec3<float>, COMDAT
; _this$ = ecx

; 71   : 	{}

	push	ebp
	mov	ebp, esp
	sub	esp, 204				; 000000ccH
	push	ebx
	push	esi
	push	edi
	push	ecx
	lea	edi, DWORD PTR [ebp-204]
	mov	ecx, 51					; 00000033H
	mov	eax, -858993460				; ccccccccH
	rep stosd
	pop	ecx
	mov	DWORD PTR _this$[ebp], ecx
	mov	eax, DWORD PTR _this$[ebp]
	fldz
	fstp	DWORD PTR [eax]
	mov	eax, DWORD PTR _this$[ebp]
	fldz
	fstp	DWORD PTR [eax+4]
	mov	eax, DWORD PTR _this$[ebp]
	fldz
	fstp	DWORD PTR [eax+8]
	mov	eax, DWORD PTR _this$[ebp]
	pop	edi
	pop	esi
	pop	ebx
	mov	esp, ebp
	pop	ebp
	ret	0
??0?$tvec3@M@detail@glm@@QAE@XZ ENDP			; glm::detail::tvec3<float>::tvec3<float>
; Function compile flags: /Odtp /RTCsu /ZI
; File c:\opengl\glm-0.9.3.1\glm\core\type_vec4.inl
_TEXT	ENDS
;	COMDAT ??0?$tvec4@M@detail@glm@@QAE@ABM000@Z
_TEXT	SEGMENT
_this$ = -8						; size = 4
_s1$ = 8						; size = 4
_s2$ = 12						; size = 4
_s3$ = 16						; size = 4
_s4$ = 20						; size = 4
??0?$tvec4@M@detail@glm@@QAE@ABM000@Z PROC		; glm::detail::tvec4<float>::tvec4<float>, COMDAT
; _this$ = ecx

; 118  : 	{}

	push	ebp
	mov	ebp, esp
	sub	esp, 204				; 000000ccH
	push	ebx
	push	esi
	push	edi
	push	ecx
	lea	edi, DWORD PTR [ebp-204]
	mov	ecx, 51					; 00000033H
	mov	eax, -858993460				; ccccccccH
	rep stosd
	pop	ecx
	mov	DWORD PTR _this$[ebp], ecx
	mov	eax, DWORD PTR _this$[ebp]
	mov	ecx, DWORD PTR _s1$[ebp]
	fld	DWORD PTR [ecx]
	fstp	DWORD PTR [eax]
	mov	eax, DWORD PTR _this$[ebp]
	mov	ecx, DWORD PTR _s2$[ebp]
	fld	DWORD PTR [ecx]
	fstp	DWORD PTR [eax+4]
	mov	eax, DWORD PTR _this$[ebp]
	mov	ecx, DWORD PTR _s3$[ebp]
	fld	DWORD PTR [ecx]
	fstp	DWORD PTR [eax+8]
	mov	eax, DWORD PTR _this$[ebp]
	mov	ecx, DWORD PTR _s4$[ebp]
	fld	DWORD PTR [ecx]
	fstp	DWORD PTR [eax+12]
	mov	eax, DWORD PTR _this$[ebp]
	pop	edi
	pop	esi
	pop	ebx
	mov	esp, ebp
	pop	ebp
	ret	16					; 00000010H
??0?$tvec4@M@detail@glm@@QAE@ABM000@Z ENDP		; glm::detail::tvec4<float>::tvec4<float>
_TEXT	ENDS
PUBLIC	??4?$tvec4@M@detail@glm@@QAEAAU012@ABU012@@Z	; glm::detail::tvec4<float>::operator=
PUBLIC	??_H@YGXPAXIHP6EPAX0@Z@Z			; `vector constructor iterator'
PUBLIC	??0?$tvec4@M@detail@glm@@QAE@XZ			; glm::detail::tvec4<float>::tvec4<float>
; Function compile flags: /Odtp /RTCsu /ZI
; File c:\opengl\glm-0.9.3.1\glm\core\type_mat4x4.inl
;	COMDAT ??0?$tmat4x4@M@detail@glm@@QAE@ABU?$tvec4@M@12@000@Z
_TEXT	SEGMENT
_this$ = -8						; size = 4
_v0$ = 8						; size = 4
_v1$ = 12						; size = 4
_v2$ = 16						; size = 4
_v3$ = 20						; size = 4
??0?$tmat4x4@M@detail@glm@@QAE@ABU?$tvec4@M@12@000@Z PROC ; glm::detail::tmat4x4<float>::tmat4x4<float>, COMDAT
; _this$ = ecx

; 144  :     {

	push	ebp
	mov	ebp, esp
	sub	esp, 204				; 000000ccH
	push	ebx
	push	esi
	push	edi
	push	ecx
	lea	edi, DWORD PTR [ebp-204]
	mov	ecx, 51					; 00000033H
	mov	eax, -858993460				; ccccccccH
	rep stosd
	pop	ecx
	mov	DWORD PTR _this$[ebp], ecx
	push	OFFSET ??0?$tvec4@M@detail@glm@@QAE@XZ	; glm::detail::tvec4<float>::tvec4<float>
	push	4
	push	16					; 00000010H
	mov	eax, DWORD PTR _this$[ebp]
	push	eax
	call	??_H@YGXPAXIHP6EPAX0@Z@Z

; 145  :         this->value[0] = v0;

	mov	eax, DWORD PTR _v0$[ebp]
	push	eax
	mov	ecx, DWORD PTR _this$[ebp]
	call	??4?$tvec4@M@detail@glm@@QAEAAU012@ABU012@@Z ; glm::detail::tvec4<float>::operator=

; 146  :         this->value[1] = v1;

	mov	eax, DWORD PTR _v1$[ebp]
	push	eax
	mov	ecx, DWORD PTR _this$[ebp]
	add	ecx, 16					; 00000010H
	call	??4?$tvec4@M@detail@glm@@QAEAAU012@ABU012@@Z ; glm::detail::tvec4<float>::operator=

; 147  :         this->value[2] = v2;

	mov	eax, DWORD PTR _v2$[ebp]
	push	eax
	mov	ecx, DWORD PTR _this$[ebp]
	add	ecx, 32					; 00000020H
	call	??4?$tvec4@M@detail@glm@@QAEAAU012@ABU012@@Z ; glm::detail::tvec4<float>::operator=

; 148  :         this->value[3] = v3;

	mov	eax, DWORD PTR _v3$[ebp]
	push	eax
	mov	ecx, DWORD PTR _this$[ebp]
	add	ecx, 48					; 00000030H
	call	??4?$tvec4@M@detail@glm@@QAEAAU012@ABU012@@Z ; glm::detail::tvec4<float>::operator=

; 149  :     }

	mov	eax, DWORD PTR _this$[ebp]
	pop	edi
	pop	esi
	pop	ebx
	add	esp, 204				; 000000ccH
	cmp	ebp, esp
	call	__RTC_CheckEsp
	mov	esp, ebp
	pop	ebp
	ret	16					; 00000010H
??0?$tmat4x4@M@detail@glm@@QAE@ABU?$tvec4@M@12@000@Z ENDP ; glm::detail::tmat4x4<float>::tmat4x4<float>
; Function compile flags: /Odtp /RTCsu /ZI
_TEXT	ENDS
;	COMDAT ??0?$tmat4x4@M@detail@glm@@QAE@ABM@Z
_TEXT	SEGMENT
$T71474 = -308						; size = 16
$T71475 = -284						; size = 16
$T71476 = -260						; size = 16
$T71477 = -236						; size = 16
_Zero$ = -20						; size = 4
_this$ = -8						; size = 4
_s$ = 8							; size = 4
??0?$tmat4x4@M@detail@glm@@QAE@ABM@Z PROC		; glm::detail::tmat4x4<float>::tmat4x4<float>, COMDAT
; _this$ = ecx

; 113  :     {

	push	ebp
	mov	ebp, esp
	sub	esp, 312				; 00000138H
	push	ebx
	push	esi
	push	edi
	push	ecx
	lea	edi, DWORD PTR [ebp-312]
	mov	ecx, 78					; 0000004eH
	mov	eax, -858993460				; ccccccccH
	rep stosd
	pop	ecx
	mov	DWORD PTR _this$[ebp], ecx
	push	OFFSET ??0?$tvec4@M@detail@glm@@QAE@XZ	; glm::detail::tvec4<float>::tvec4<float>
	push	4
	push	16					; 00000010H
	mov	eax, DWORD PTR _this$[ebp]
	push	eax
	call	??_H@YGXPAXIHP6EPAX0@Z@Z

; 114  : 		value_type const Zero(0);

	fldz
	fstp	DWORD PTR _Zero$[ebp]

; 115  :         this->value[0] = col_type(s, Zero, Zero, Zero);

	lea	eax, DWORD PTR _Zero$[ebp]
	push	eax
	lea	ecx, DWORD PTR _Zero$[ebp]
	push	ecx
	lea	edx, DWORD PTR _Zero$[ebp]
	push	edx
	mov	eax, DWORD PTR _s$[ebp]
	push	eax
	lea	ecx, DWORD PTR $T71474[ebp]
	call	??0?$tvec4@M@detail@glm@@QAE@ABM000@Z	; glm::detail::tvec4<float>::tvec4<float>
	push	eax
	mov	ecx, DWORD PTR _this$[ebp]
	call	??4?$tvec4@M@detail@glm@@QAEAAU012@ABU012@@Z ; glm::detail::tvec4<float>::operator=

; 116  :         this->value[1] = col_type(Zero, s, Zero, Zero);

	lea	eax, DWORD PTR _Zero$[ebp]
	push	eax
	lea	ecx, DWORD PTR _Zero$[ebp]
	push	ecx
	mov	edx, DWORD PTR _s$[ebp]
	push	edx
	lea	eax, DWORD PTR _Zero$[ebp]
	push	eax
	lea	ecx, DWORD PTR $T71475[ebp]
	call	??0?$tvec4@M@detail@glm@@QAE@ABM000@Z	; glm::detail::tvec4<float>::tvec4<float>
	push	eax
	mov	ecx, DWORD PTR _this$[ebp]
	add	ecx, 16					; 00000010H
	call	??4?$tvec4@M@detail@glm@@QAEAAU012@ABU012@@Z ; glm::detail::tvec4<float>::operator=

; 117  :         this->value[2] = col_type(Zero, Zero, s, Zero);

	lea	eax, DWORD PTR _Zero$[ebp]
	push	eax
	mov	ecx, DWORD PTR _s$[ebp]
	push	ecx
	lea	edx, DWORD PTR _Zero$[ebp]
	push	edx
	lea	eax, DWORD PTR _Zero$[ebp]
	push	eax
	lea	ecx, DWORD PTR $T71476[ebp]
	call	??0?$tvec4@M@detail@glm@@QAE@ABM000@Z	; glm::detail::tvec4<float>::tvec4<float>
	push	eax
	mov	ecx, DWORD PTR _this$[ebp]
	add	ecx, 32					; 00000020H
	call	??4?$tvec4@M@detail@glm@@QAEAAU012@ABU012@@Z ; glm::detail::tvec4<float>::operator=

; 118  :         this->value[3] = col_type(Zero, Zero, Zero, s);

	mov	eax, DWORD PTR _s$[ebp]
	push	eax
	lea	ecx, DWORD PTR _Zero$[ebp]
	push	ecx
	lea	edx, DWORD PTR _Zero$[ebp]
	push	edx
	lea	eax, DWORD PTR _Zero$[ebp]
	push	eax
	lea	ecx, DWORD PTR $T71477[ebp]
	call	??0?$tvec4@M@detail@glm@@QAE@ABM000@Z	; glm::detail::tvec4<float>::tvec4<float>
	push	eax
	mov	ecx, DWORD PTR _this$[ebp]
	add	ecx, 48					; 00000030H
	call	??4?$tvec4@M@detail@glm@@QAEAAU012@ABU012@@Z ; glm::detail::tvec4<float>::operator=

; 119  :     }

	mov	eax, DWORD PTR _this$[ebp]
	push	edx
	mov	ecx, ebp
	push	eax
	lea	edx, DWORD PTR $LN5@tmat4x4
	call	@_RTC_CheckStackVars@8
	pop	eax
	pop	edx
	pop	edi
	pop	esi
	pop	ebx
	add	esp, 312				; 00000138H
	cmp	ebp, esp
	call	__RTC_CheckEsp
	mov	esp, ebp
	pop	ebp
	ret	4
	npad	3
$LN5@tmat4x4:
	DD	1
	DD	$LN4@tmat4x4
$LN4@tmat4x4:
	DD	-20					; ffffffecH
	DD	4
	DD	$LN3@tmat4x4
$LN3@tmat4x4:
	DB	90					; 0000005aH
	DB	101					; 00000065H
	DB	114					; 00000072H
	DB	111					; 0000006fH
	DB	0
??0?$tmat4x4@M@detail@glm@@QAE@ABM@Z ENDP		; glm::detail::tmat4x4<float>::tmat4x4<float>
; Function compile flags: /Odtp /RTCsu /ZI
_TEXT	ENDS
;	COMDAT ??0?$tmat4x4@M@detail@glm@@QAE@XZ
_TEXT	SEGMENT
$T71483 = -320						; size = 16
$T71484 = -296						; size = 16
$T71485 = -272						; size = 16
$T71486 = -248						; size = 16
_One$ = -32						; size = 4
_Zero$ = -20						; size = 4
_this$ = -8						; size = 4
??0?$tmat4x4@M@detail@glm@@QAE@XZ PROC			; glm::detail::tmat4x4<float>::tmat4x4<float>, COMDAT
; _this$ = ecx

; 80   :     {

	push	ebp
	mov	ebp, esp
	sub	esp, 324				; 00000144H
	push	ebx
	push	esi
	push	edi
	push	ecx
	lea	edi, DWORD PTR [ebp-324]
	mov	ecx, 81					; 00000051H
	mov	eax, -858993460				; ccccccccH
	rep stosd
	pop	ecx
	mov	DWORD PTR _this$[ebp], ecx
	push	OFFSET ??0?$tvec4@M@detail@glm@@QAE@XZ	; glm::detail::tvec4<float>::tvec4<float>
	push	4
	push	16					; 00000010H
	mov	eax, DWORD PTR _this$[ebp]
	push	eax
	call	??_H@YGXPAXIHP6EPAX0@Z@Z

; 81   : 		value_type Zero(0);

	fldz
	fstp	DWORD PTR _Zero$[ebp]

; 82   : 		value_type One(1);

	fld1
	fstp	DWORD PTR _One$[ebp]

; 83   :         this->value[0] = col_type(One, Zero, Zero, Zero);

	lea	eax, DWORD PTR _Zero$[ebp]
	push	eax
	lea	ecx, DWORD PTR _Zero$[ebp]
	push	ecx
	lea	edx, DWORD PTR _Zero$[ebp]
	push	edx
	lea	eax, DWORD PTR _One$[ebp]
	push	eax
	lea	ecx, DWORD PTR $T71483[ebp]
	call	??0?$tvec4@M@detail@glm@@QAE@ABM000@Z	; glm::detail::tvec4<float>::tvec4<float>
	push	eax
	mov	ecx, DWORD PTR _this$[ebp]
	call	??4?$tvec4@M@detail@glm@@QAEAAU012@ABU012@@Z ; glm::detail::tvec4<float>::operator=

; 84   :         this->value[1] = col_type(Zero, One, Zero, Zero);

	lea	eax, DWORD PTR _Zero$[ebp]
	push	eax
	lea	ecx, DWORD PTR _Zero$[ebp]
	push	ecx
	lea	edx, DWORD PTR _One$[ebp]
	push	edx
	lea	eax, DWORD PTR _Zero$[ebp]
	push	eax
	lea	ecx, DWORD PTR $T71484[ebp]
	call	??0?$tvec4@M@detail@glm@@QAE@ABM000@Z	; glm::detail::tvec4<float>::tvec4<float>
	push	eax
	mov	ecx, DWORD PTR _this$[ebp]
	add	ecx, 16					; 00000010H
	call	??4?$tvec4@M@detail@glm@@QAEAAU012@ABU012@@Z ; glm::detail::tvec4<float>::operator=

; 85   :         this->value[2] = col_type(Zero, Zero, One, Zero);

	lea	eax, DWORD PTR _Zero$[ebp]
	push	eax
	lea	ecx, DWORD PTR _One$[ebp]
	push	ecx
	lea	edx, DWORD PTR _Zero$[ebp]
	push	edx
	lea	eax, DWORD PTR _Zero$[ebp]
	push	eax
	lea	ecx, DWORD PTR $T71485[ebp]
	call	??0?$tvec4@M@detail@glm@@QAE@ABM000@Z	; glm::detail::tvec4<float>::tvec4<float>
	push	eax
	mov	ecx, DWORD PTR _this$[ebp]
	add	ecx, 32					; 00000020H
	call	??4?$tvec4@M@detail@glm@@QAEAAU012@ABU012@@Z ; glm::detail::tvec4<float>::operator=

; 86   :         this->value[3] = col_type(Zero, Zero, Zero, One);

	lea	eax, DWORD PTR _One$[ebp]
	push	eax
	lea	ecx, DWORD PTR _Zero$[ebp]
	push	ecx
	lea	edx, DWORD PTR _Zero$[ebp]
	push	edx
	lea	eax, DWORD PTR _Zero$[ebp]
	push	eax
	lea	ecx, DWORD PTR $T71486[ebp]
	call	??0?$tvec4@M@detail@glm@@QAE@ABM000@Z	; glm::detail::tvec4<float>::tvec4<float>
	push	eax
	mov	ecx, DWORD PTR _this$[ebp]
	add	ecx, 48					; 00000030H
	call	??4?$tvec4@M@detail@glm@@QAEAAU012@ABU012@@Z ; glm::detail::tvec4<float>::operator=

; 87   :     }

	mov	eax, DWORD PTR _this$[ebp]
	push	edx
	mov	ecx, ebp
	push	eax
	lea	edx, DWORD PTR $LN6@tmat4x4@2
	call	@_RTC_CheckStackVars@8
	pop	eax
	pop	edx
	pop	edi
	pop	esi
	pop	ebx
	add	esp, 324				; 00000144H
	cmp	ebp, esp
	call	__RTC_CheckEsp
	mov	esp, ebp
	pop	ebp
	ret	0
$LN6@tmat4x4@2:
	DD	2
	DD	$LN5@tmat4x4@2
$LN5@tmat4x4@2:
	DD	-20					; ffffffecH
	DD	4
	DD	$LN3@tmat4x4@2
	DD	-32					; ffffffe0H
	DD	4
	DD	$LN4@tmat4x4@2
$LN4@tmat4x4@2:
	DB	79					; 0000004fH
	DB	110					; 0000006eH
	DB	101					; 00000065H
	DB	0
$LN3@tmat4x4@2:
	DB	90					; 0000005aH
	DB	101					; 00000065H
	DB	114					; 00000072H
	DB	111					; 0000006fH
	DB	0
??0?$tmat4x4@M@detail@glm@@QAE@XZ ENDP			; glm::detail::tmat4x4<float>::tmat4x4<float>
_TEXT	ENDS
PUBLIC	??_C@_1CG@KOFHLCJL@?$AAi?$AA?5?$AA?$DM?$AA?5?$AAt?$AAh?$AAi?$AAs?$AA?9?$AA?$DO?$AAl?$AAe?$AAn?$AAg?$AAt?$AAh?$AA?$CI?$AA?$CJ?$AA?$AA@ ; `string'
PUBLIC	??_C@_1FO@LCBJDNCK@?$AAc?$AA?3?$AA?2?$AAo?$AAp?$AAe?$AAn?$AAg?$AAl?$AA?2?$AAg?$AAl?$AAm?$AA?9?$AA0?$AA?4?$AA9?$AA?4?$AA3?$AA?4?$AA1?$AA?2?$AAg?$AAl?$AAm?$AA?2?$AAc?$AAo?$AAr?$AAe?$AA?2?$AAt@ ; `string'
PUBLIC	?length@?$tmat4x4@M@detail@glm@@QBEIXZ		; glm::detail::tmat4x4<float>::length
EXTRN	__imp___wassert:PROC
;	COMDAT ??_C@_1CG@KOFHLCJL@?$AAi?$AA?5?$AA?$DM?$AA?5?$AAt?$AAh?$AAi?$AAs?$AA?9?$AA?$DO?$AAl?$AAe?$AAn?$AAg?$AAt?$AAh?$AA?$CI?$AA?$CJ?$AA?$AA@
CONST	SEGMENT
??_C@_1CG@KOFHLCJL@?$AAi?$AA?5?$AA?$DM?$AA?5?$AAt?$AAh?$AAi?$AAs?$AA?9?$AA?$DO?$AAl?$AAe?$AAn?$AAg?$AAt?$AAh?$AA?$CI?$AA?$CJ?$AA?$AA@ DB 'i'
	DB	00H, ' ', 00H, '<', 00H, ' ', 00H, 't', 00H, 'h', 00H, 'i', 00H
	DB	's', 00H, '-', 00H, '>', 00H, 'l', 00H, 'e', 00H, 'n', 00H, 'g'
	DB	00H, 't', 00H, 'h', 00H, '(', 00H, ')', 00H, 00H, 00H ; `string'
CONST	ENDS
;	COMDAT ??_C@_1FO@LCBJDNCK@?$AAc?$AA?3?$AA?2?$AAo?$AAp?$AAe?$AAn?$AAg?$AAl?$AA?2?$AAg?$AAl?$AAm?$AA?9?$AA0?$AA?4?$AA9?$AA?4?$AA3?$AA?4?$AA1?$AA?2?$AAg?$AAl?$AAm?$AA?2?$AAc?$AAo?$AAr?$AAe?$AA?2?$AAt@
CONST	SEGMENT
??_C@_1FO@LCBJDNCK@?$AAc?$AA?3?$AA?2?$AAo?$AAp?$AAe?$AAn?$AAg?$AAl?$AA?2?$AAg?$AAl?$AAm?$AA?9?$AA0?$AA?4?$AA9?$AA?4?$AA3?$AA?4?$AA1?$AA?2?$AAg?$AAl?$AAm?$AA?2?$AAc?$AAo?$AAr?$AAe?$AA?2?$AAt@ DB 'c'
	DB	00H, ':', 00H, '\', 00H, 'o', 00H, 'p', 00H, 'e', 00H, 'n', 00H
	DB	'g', 00H, 'l', 00H, '\', 00H, 'g', 00H, 'l', 00H, 'm', 00H, '-'
	DB	00H, '0', 00H, '.', 00H, '9', 00H, '.', 00H, '3', 00H, '.', 00H
	DB	'1', 00H, '\', 00H, 'g', 00H, 'l', 00H, 'm', 00H, '\', 00H, 'c'
	DB	00H, 'o', 00H, 'r', 00H, 'e', 00H, '\', 00H, 't', 00H, 'y', 00H
	DB	'p', 00H, 'e', 00H, '_', 00H, 'm', 00H, 'a', 00H, 't', 00H, '4'
	DB	00H, 'x', 00H, '4', 00H, '.', 00H, 'i', 00H, 'n', 00H, 'l', 00H
	DB	00H, 00H					; `string'
; Function compile flags: /Odtp /RTCsu /ZI
CONST	ENDS
;	COMDAT ??A?$tmat4x4@M@detail@glm@@QAEAAU?$tvec4@M@12@I@Z
_TEXT	SEGMENT
_this$ = -8						; size = 4
_i$ = 8							; size = 4
??A?$tmat4x4@M@detail@glm@@QAEAAU?$tvec4@M@12@I@Z PROC	; glm::detail::tmat4x4<float>::operator[], COMDAT
; _this$ = ecx

; 59   : 	{

	push	ebp
	mov	ebp, esp
	sub	esp, 204				; 000000ccH
	push	ebx
	push	esi
	push	edi
	push	ecx
	lea	edi, DWORD PTR [ebp-204]
	mov	ecx, 51					; 00000033H
	mov	eax, -858993460				; ccccccccH
	rep stosd
	pop	ecx
	mov	DWORD PTR _this$[ebp], ecx

; 60   : 		assert(i < this->length());

	mov	ecx, DWORD PTR _this$[ebp]
	call	?length@?$tmat4x4@M@detail@glm@@QBEIXZ	; glm::detail::tmat4x4<float>::length
	cmp	DWORD PTR _i$[ebp], eax
	jb	SHORT $LN3@operator
	mov	esi, esp
	push	60					; 0000003cH
	push	OFFSET ??_C@_1FO@LCBJDNCK@?$AAc?$AA?3?$AA?2?$AAo?$AAp?$AAe?$AAn?$AAg?$AAl?$AA?2?$AAg?$AAl?$AAm?$AA?9?$AA0?$AA?4?$AA9?$AA?4?$AA3?$AA?4?$AA1?$AA?2?$AAg?$AAl?$AAm?$AA?2?$AAc?$AAo?$AAr?$AAe?$AA?2?$AAt@
	push	OFFSET ??_C@_1CG@KOFHLCJL@?$AAi?$AA?5?$AA?$DM?$AA?5?$AAt?$AAh?$AAi?$AAs?$AA?9?$AA?$DO?$AAl?$AAe?$AAn?$AAg?$AAt?$AAh?$AA?$CI?$AA?$CJ?$AA?$AA@
	call	DWORD PTR __imp___wassert
	add	esp, 12					; 0000000cH
	cmp	esi, esp
	call	__RTC_CheckEsp
$LN3@operator:

; 61   : 		return this->value[i];

	mov	eax, DWORD PTR _i$[ebp]
	shl	eax, 4
	add	eax, DWORD PTR _this$[ebp]

; 62   : 	}

	pop	edi
	pop	esi
	pop	ebx
	add	esp, 204				; 000000ccH
	cmp	ebp, esp
	call	__RTC_CheckEsp
	mov	esp, ebp
	pop	ebp
	ret	4
??A?$tmat4x4@M@detail@glm@@QAEAAU?$tvec4@M@12@I@Z ENDP	; glm::detail::tmat4x4<float>::operator[]
_TEXT	ENDS
PUBLIC	??A?$tmat4x4@M@detail@glm@@QBEABU?$tvec4@M@12@I@Z ; glm::detail::tmat4x4<float>::operator[]
; Function compile flags: /Odtp /RTCsu /ZI
;	COMDAT ??4?$tmat4x4@M@detail@glm@@QAEAAU012@ABU012@@Z
_TEXT	SEGMENT
_this$ = -8						; size = 4
_m$ = 8							; size = 4
??4?$tmat4x4@M@detail@glm@@QAEAAU012@ABU012@@Z PROC	; glm::detail::tmat4x4<float>::operator=, COMDAT
; _this$ = ecx

; 349  :     {

	push	ebp
	mov	ebp, esp
	sub	esp, 204				; 000000ccH
	push	ebx
	push	esi
	push	edi
	push	ecx
	lea	edi, DWORD PTR [ebp-204]
	mov	ecx, 51					; 00000033H
	mov	eax, -858993460				; ccccccccH
	rep stosd
	pop	ecx
	mov	DWORD PTR _this$[ebp], ecx

; 350  :         //memcpy could be faster
; 351  :         //memcpy(&this->value, &m.value, 16 * sizeof(valType));
; 352  :         this->value[0] = m[0];

	push	0
	mov	ecx, DWORD PTR _m$[ebp]
	call	??A?$tmat4x4@M@detail@glm@@QBEABU?$tvec4@M@12@I@Z ; glm::detail::tmat4x4<float>::operator[]
	push	eax
	mov	ecx, DWORD PTR _this$[ebp]
	call	??4?$tvec4@M@detail@glm@@QAEAAU012@ABU012@@Z ; glm::detail::tvec4<float>::operator=

; 353  :         this->value[1] = m[1];

	push	1
	mov	ecx, DWORD PTR _m$[ebp]
	call	??A?$tmat4x4@M@detail@glm@@QBEABU?$tvec4@M@12@I@Z ; glm::detail::tmat4x4<float>::operator[]
	push	eax
	mov	ecx, DWORD PTR _this$[ebp]
	add	ecx, 16					; 00000010H
	call	??4?$tvec4@M@detail@glm@@QAEAAU012@ABU012@@Z ; glm::detail::tvec4<float>::operator=

; 354  :         this->value[2] = m[2];

	push	2
	mov	ecx, DWORD PTR _m$[ebp]
	call	??A?$tmat4x4@M@detail@glm@@QBEABU?$tvec4@M@12@I@Z ; glm::detail::tmat4x4<float>::operator[]
	push	eax
	mov	ecx, DWORD PTR _this$[ebp]
	add	ecx, 32					; 00000020H
	call	??4?$tvec4@M@detail@glm@@QAEAAU012@ABU012@@Z ; glm::detail::tvec4<float>::operator=

; 355  :         this->value[3] = m[3];

	push	3
	mov	ecx, DWORD PTR _m$[ebp]
	call	??A?$tmat4x4@M@detail@glm@@QBEABU?$tvec4@M@12@I@Z ; glm::detail::tmat4x4<float>::operator[]
	push	eax
	mov	ecx, DWORD PTR _this$[ebp]
	add	ecx, 48					; 00000030H
	call	??4?$tvec4@M@detail@glm@@QAEAAU012@ABU012@@Z ; glm::detail::tvec4<float>::operator=

; 356  :         return *this;

	mov	eax, DWORD PTR _this$[ebp]

; 357  :     }

	pop	edi
	pop	esi
	pop	ebx
	add	esp, 204				; 000000ccH
	cmp	ebp, esp
	call	__RTC_CheckEsp
	mov	esp, ebp
	pop	ebp
	ret	4
??4?$tmat4x4@M@detail@glm@@QAEAAU012@ABU012@@Z ENDP	; glm::detail::tmat4x4<float>::operator=
_TEXT	ENDS
PUBLIC	??4?$tvec3@M@detail@glm@@QAEAAU012@ABU012@@Z	; glm::detail::tvec3<float>::operator=
; Function compile flags: /Odtp /RTCsu /ZI
; File c:\opengl\glm-0.9.3.1\glm\core\type_mat3x3.inl
;	COMDAT ??0?$tmat3x3@M@detail@glm@@QAE@ABU?$tvec3@M@12@00@Z
_TEXT	SEGMENT
_this$ = -8						; size = 4
_v0$ = 8						; size = 4
_v1$ = 12						; size = 4
_v2$ = 16						; size = 4
??0?$tmat3x3@M@detail@glm@@QAE@ABU?$tvec3@M@12@00@Z PROC ; glm::detail::tmat3x3<float>::tmat3x3<float>, COMDAT
; _this$ = ecx

; 138  :     {

	push	ebp
	mov	ebp, esp
	sub	esp, 204				; 000000ccH
	push	ebx
	push	esi
	push	edi
	push	ecx
	lea	edi, DWORD PTR [ebp-204]
	mov	ecx, 51					; 00000033H
	mov	eax, -858993460				; ccccccccH
	rep stosd
	pop	ecx
	mov	DWORD PTR _this$[ebp], ecx
	push	OFFSET ??0?$tvec3@M@detail@glm@@QAE@XZ	; glm::detail::tvec3<float>::tvec3<float>
	push	3
	push	12					; 0000000cH
	mov	eax, DWORD PTR _this$[ebp]
	push	eax
	call	??_H@YGXPAXIHP6EPAX0@Z@Z

; 139  :         this->value[0] = v0;

	mov	eax, DWORD PTR _v0$[ebp]
	push	eax
	mov	ecx, DWORD PTR _this$[ebp]
	call	??4?$tvec3@M@detail@glm@@QAEAAU012@ABU012@@Z ; glm::detail::tvec3<float>::operator=

; 140  :         this->value[1] = v1;

	mov	eax, DWORD PTR _v1$[ebp]
	push	eax
	mov	ecx, DWORD PTR _this$[ebp]
	add	ecx, 12					; 0000000cH
	call	??4?$tvec3@M@detail@glm@@QAEAAU012@ABU012@@Z ; glm::detail::tvec3<float>::operator=

; 141  :         this->value[2] = v2;

	mov	eax, DWORD PTR _v2$[ebp]
	push	eax
	mov	ecx, DWORD PTR _this$[ebp]
	add	ecx, 24					; 00000018H
	call	??4?$tvec3@M@detail@glm@@QAEAAU012@ABU012@@Z ; glm::detail::tvec3<float>::operator=

; 142  :     }

	mov	eax, DWORD PTR _this$[ebp]
	pop	edi
	pop	esi
	pop	ebx
	add	esp, 204				; 000000ccH
	cmp	ebp, esp
	call	__RTC_CheckEsp
	mov	esp, ebp
	pop	ebp
	ret	12					; 0000000cH
??0?$tmat3x3@M@detail@glm@@QAE@ABU?$tvec3@M@12@00@Z ENDP ; glm::detail::tmat3x3<float>::tmat3x3<float>
; Function compile flags: /Odtp /RTCsu /ZI
; File c:\opengl\glm-0.9.3.1\glm\core\type_vec3.inl
_TEXT	ENDS
;	COMDAT ??4?$tvec3@M@detail@glm@@QAEAAU012@ABU012@@Z
_TEXT	SEGMENT
_this$ = -8						; size = 4
_v$ = 8							; size = 4
??4?$tvec3@M@detail@glm@@QAEAAU012@ABU012@@Z PROC	; glm::detail::tvec3<float>::operator=, COMDAT
; _this$ = ecx

; 236  : 	{

	push	ebp
	mov	ebp, esp
	sub	esp, 204				; 000000ccH
	push	ebx
	push	esi
	push	edi
	push	ecx
	lea	edi, DWORD PTR [ebp-204]
	mov	ecx, 51					; 00000033H
	mov	eax, -858993460				; ccccccccH
	rep stosd
	pop	ecx
	mov	DWORD PTR _this$[ebp], ecx

; 237  : 		this->x = v.x;

	mov	eax, DWORD PTR _this$[ebp]
	mov	ecx, DWORD PTR _v$[ebp]
	fld	DWORD PTR [ecx]
	fstp	DWORD PTR [eax]

; 238  : 		this->y = v.y;

	mov	eax, DWORD PTR _this$[ebp]
	mov	ecx, DWORD PTR _v$[ebp]
	fld	DWORD PTR [ecx+4]
	fstp	DWORD PTR [eax+4]

; 239  : 		this->z = v.z;

	mov	eax, DWORD PTR _this$[ebp]
	mov	ecx, DWORD PTR _v$[ebp]
	fld	DWORD PTR [ecx+8]
	fstp	DWORD PTR [eax+8]

; 240  : 		return *this;

	mov	eax, DWORD PTR _this$[ebp]

; 241  : 	}

	pop	edi
	pop	esi
	pop	ebx
	mov	esp, ebp
	pop	ebp
	ret	4
??4?$tvec3@M@detail@glm@@QAEAAU012@ABU012@@Z ENDP	; glm::detail::tvec3<float>::operator=
; Function compile flags: /Odtp /RTCsu /ZI
_TEXT	ENDS
;	COMDAT ??$?DM@detail@glm@@YA?AU?$tvec3@M@01@ABU201@ABM@Z
_TEXT	SEGMENT
$T71502 = -224						; size = 4
$T71503 = -212						; size = 4
$T71504 = -200						; size = 4
___$ReturnUdt$ = 8					; size = 4
_v$ = 12						; size = 4
_s$ = 16						; size = 4
??$?DM@detail@glm@@YA?AU?$tvec3@M@01@ABU201@ABM@Z PROC	; glm::detail::operator*<float>, COMDAT

; 730  : 	{

	push	ebp
	mov	ebp, esp
	sub	esp, 228				; 000000e4H
	push	ebx
	push	esi
	push	edi
	lea	edi, DWORD PTR [ebp-228]
	mov	ecx, 57					; 00000039H
	mov	eax, -858993460				; ccccccccH
	rep stosd

; 731  : 		return tvec3<T>(
; 732  : 			v.x * T(s),
; 733  : 			v.y * T(s),
; 734  : 			v.z * T(s));

	mov	eax, DWORD PTR _v$[ebp]
	fld	DWORD PTR [eax+8]
	mov	ecx, DWORD PTR _s$[ebp]
	fmul	DWORD PTR [ecx]
	fstp	DWORD PTR $T71502[ebp]
	mov	edx, DWORD PTR _v$[ebp]
	fld	DWORD PTR [edx+4]
	mov	eax, DWORD PTR _s$[ebp]
	fmul	DWORD PTR [eax]
	fstp	DWORD PTR $T71503[ebp]
	mov	ecx, DWORD PTR _v$[ebp]
	fld	DWORD PTR [ecx]
	mov	edx, DWORD PTR _s$[ebp]
	fmul	DWORD PTR [edx]
	fstp	DWORD PTR $T71504[ebp]
	lea	eax, DWORD PTR $T71502[ebp]
	push	eax
	lea	ecx, DWORD PTR $T71503[ebp]
	push	ecx
	lea	edx, DWORD PTR $T71504[ebp]
	push	edx
	mov	ecx, DWORD PTR ___$ReturnUdt$[ebp]
	call	??0?$tvec3@M@detail@glm@@QAE@ABM00@Z	; glm::detail::tvec3<float>::tvec3<float>
	mov	eax, DWORD PTR ___$ReturnUdt$[ebp]

; 735  : 	}

	pop	edi
	pop	esi
	pop	ebx
	add	esp, 228				; 000000e4H
	cmp	ebp, esp
	call	__RTC_CheckEsp
	mov	esp, ebp
	pop	ebp
	ret	0
??$?DM@detail@glm@@YA?AU?$tvec3@M@01@ABU201@ABM@Z ENDP	; glm::detail::operator*<float>
_TEXT	ENDS
PUBLIC	??$translate@M@glm@@YA?AU?$tmat4x4@M@detail@0@ABU120@ABU?$tvec3@M@20@@Z ; glm::translate<float>
PUBLIC	??$?GM@detail@glm@@YA?AU?$tvec3@M@01@ABU201@@Z	; glm::detail::operator-<float>
PUBLIC	??A?$tvec4@M@detail@glm@@QAEAAMI@Z		; glm::detail::tvec4<float>::operator[]
PUBLIC	??$?0H@?$tmat4x4@M@detail@glm@@QAE@ABH@Z	; glm::detail::tmat4x4<float>::tmat4x4<float><int>
PUBLIC	??$cross@M@glm@@YA?AU?$tvec3@M@detail@0@ABU120@0@Z ; glm::cross<float>
PUBLIC	??$normalize@M@glm@@YA?AU?$tvec3@M@detail@0@ABU120@@Z ; glm::normalize<float>
PUBLIC	??$?GM@detail@glm@@YA?AU?$tvec3@M@01@ABU201@0@Z	; glm::detail::operator-<float>
PUBLIC	__$ArrayPad$
; Function compile flags: /Odtp /RTCsu /ZI
; File c:\opengl\glm-0.9.3.1\glm\gtc\matrix_transform.inl
;	COMDAT ??$lookAt@M@glm@@YA?AU?$tmat4x4@M@detail@0@ABU?$tvec3@M@20@00@Z
_TEXT	SEGMENT
tv235 = -424						; size = 4
tv233 = -424						; size = 4
tv231 = -424						; size = 4
$T71508 = -416						; size = 12
$T71509 = -396						; size = 12
$T71510 = -376						; size = 12
$T71511 = -356						; size = 4
$T71512 = -344						; size = 12
_Result$ = -132						; size = 64
_s$ = -60						; size = 12
_u$ = -40						; size = 12
_f$ = -20						; size = 12
__$ArrayPad$ = -4					; size = 4
___$ReturnUdt$ = 8					; size = 4
_eye$ = 12						; size = 4
_center$ = 16						; size = 4
_up$ = 20						; size = 4
??$lookAt@M@glm@@YA?AU?$tmat4x4@M@detail@0@ABU?$tvec3@M@20@00@Z PROC ; glm::lookAt<float>, COMDAT

; 389  : 	{

	push	ebp
	mov	ebp, esp
	sub	esp, 424				; 000001a8H
	push	ebx
	push	esi
	push	edi
	lea	edi, DWORD PTR [ebp-424]
	mov	ecx, 106				; 0000006aH
	mov	eax, -858993460				; ccccccccH
	rep stosd
	mov	eax, DWORD PTR ___security_cookie
	xor	eax, ebp
	mov	DWORD PTR __$ArrayPad$[ebp], eax

; 390  : 		detail::tvec3<T> f = normalize(center - eye);

	mov	eax, DWORD PTR _eye$[ebp]
	push	eax
	mov	ecx, DWORD PTR _center$[ebp]
	push	ecx
	lea	edx, DWORD PTR $T71508[ebp]
	push	edx
	call	??$?GM@detail@glm@@YA?AU?$tvec3@M@01@ABU201@0@Z ; glm::detail::operator-<float>
	add	esp, 12					; 0000000cH
	push	eax
	lea	eax, DWORD PTR _f$[ebp]
	push	eax
	call	??$normalize@M@glm@@YA?AU?$tvec3@M@detail@0@ABU120@@Z ; glm::normalize<float>
	add	esp, 8

; 391  : 		detail::tvec3<T> u = normalize(up);

	mov	eax, DWORD PTR _up$[ebp]
	push	eax
	lea	ecx, DWORD PTR _u$[ebp]
	push	ecx
	call	??$normalize@M@glm@@YA?AU?$tvec3@M@detail@0@ABU120@@Z ; glm::normalize<float>
	add	esp, 8

; 392  : 		detail::tvec3<T> s = normalize(cross(f, u));

	lea	eax, DWORD PTR _u$[ebp]
	push	eax
	lea	ecx, DWORD PTR _f$[ebp]
	push	ecx
	lea	edx, DWORD PTR $T71509[ebp]
	push	edx
	call	??$cross@M@glm@@YA?AU?$tvec3@M@detail@0@ABU120@0@Z ; glm::cross<float>
	add	esp, 12					; 0000000cH
	push	eax
	lea	eax, DWORD PTR _s$[ebp]
	push	eax
	call	??$normalize@M@glm@@YA?AU?$tvec3@M@detail@0@ABU120@@Z ; glm::normalize<float>
	add	esp, 8

; 393  : 		u = cross(s, f);

	lea	eax, DWORD PTR _f$[ebp]
	push	eax
	lea	ecx, DWORD PTR _s$[ebp]
	push	ecx
	lea	edx, DWORD PTR $T71510[ebp]
	push	edx
	call	??$cross@M@glm@@YA?AU?$tvec3@M@detail@0@ABU120@0@Z ; glm::cross<float>
	add	esp, 12					; 0000000cH
	push	eax
	lea	ecx, DWORD PTR _u$[ebp]
	call	??4?$tvec3@M@detail@glm@@QAEAAU012@ABU012@@Z ; glm::detail::tvec3<float>::operator=

; 394  : 
; 395  : 		detail::tmat4x4<T> Result(1);

	mov	DWORD PTR $T71511[ebp], 1
	lea	eax, DWORD PTR $T71511[ebp]
	push	eax
	lea	ecx, DWORD PTR _Result$[ebp]
	call	??$?0H@?$tmat4x4@M@detail@glm@@QAE@ABH@Z ; glm::detail::tmat4x4<float>::tmat4x4<float><int>

; 396  : 		Result[0][0] = s.x;

	push	0
	push	0
	lea	ecx, DWORD PTR _Result$[ebp]
	call	??A?$tmat4x4@M@detail@glm@@QAEAAU?$tvec4@M@12@I@Z ; glm::detail::tmat4x4<float>::operator[]
	mov	ecx, eax
	call	??A?$tvec4@M@detail@glm@@QAEAAMI@Z	; glm::detail::tvec4<float>::operator[]
	fld	DWORD PTR _s$[ebp]
	fstp	DWORD PTR [eax]

; 397  : 		Result[1][0] = s.y;

	push	0
	push	1
	lea	ecx, DWORD PTR _Result$[ebp]
	call	??A?$tmat4x4@M@detail@glm@@QAEAAU?$tvec4@M@12@I@Z ; glm::detail::tmat4x4<float>::operator[]
	mov	ecx, eax
	call	??A?$tvec4@M@detail@glm@@QAEAAMI@Z	; glm::detail::tvec4<float>::operator[]
	fld	DWORD PTR _s$[ebp+4]
	fstp	DWORD PTR [eax]

; 398  : 		Result[2][0] = s.z;

	push	0
	push	2
	lea	ecx, DWORD PTR _Result$[ebp]
	call	??A?$tmat4x4@M@detail@glm@@QAEAAU?$tvec4@M@12@I@Z ; glm::detail::tmat4x4<float>::operator[]
	mov	ecx, eax
	call	??A?$tvec4@M@detail@glm@@QAEAAMI@Z	; glm::detail::tvec4<float>::operator[]
	fld	DWORD PTR _s$[ebp+8]
	fstp	DWORD PTR [eax]

; 399  : 		Result[0][1] = u.x;

	push	1
	push	0
	lea	ecx, DWORD PTR _Result$[ebp]
	call	??A?$tmat4x4@M@detail@glm@@QAEAAU?$tvec4@M@12@I@Z ; glm::detail::tmat4x4<float>::operator[]
	mov	ecx, eax
	call	??A?$tvec4@M@detail@glm@@QAEAAMI@Z	; glm::detail::tvec4<float>::operator[]
	fld	DWORD PTR _u$[ebp]
	fstp	DWORD PTR [eax]

; 400  : 		Result[1][1] = u.y;

	push	1
	push	1
	lea	ecx, DWORD PTR _Result$[ebp]
	call	??A?$tmat4x4@M@detail@glm@@QAEAAU?$tvec4@M@12@I@Z ; glm::detail::tmat4x4<float>::operator[]
	mov	ecx, eax
	call	??A?$tvec4@M@detail@glm@@QAEAAMI@Z	; glm::detail::tvec4<float>::operator[]
	fld	DWORD PTR _u$[ebp+4]
	fstp	DWORD PTR [eax]

; 401  : 		Result[2][1] = u.z;

	push	1
	push	2
	lea	ecx, DWORD PTR _Result$[ebp]
	call	??A?$tmat4x4@M@detail@glm@@QAEAAU?$tvec4@M@12@I@Z ; glm::detail::tmat4x4<float>::operator[]
	mov	ecx, eax
	call	??A?$tvec4@M@detail@glm@@QAEAAMI@Z	; glm::detail::tvec4<float>::operator[]
	fld	DWORD PTR _u$[ebp+8]
	fstp	DWORD PTR [eax]

; 402  : 		Result[0][2] =-f.x;

	fld	DWORD PTR _f$[ebp]
	fchs
	push	2
	push	0
	lea	ecx, DWORD PTR _Result$[ebp]
	fstp	DWORD PTR tv231[ebp]
	call	??A?$tmat4x4@M@detail@glm@@QAEAAU?$tvec4@M@12@I@Z ; glm::detail::tmat4x4<float>::operator[]
	mov	ecx, eax
	call	??A?$tvec4@M@detail@glm@@QAEAAMI@Z	; glm::detail::tvec4<float>::operator[]
	fld	DWORD PTR tv231[ebp]
	fstp	DWORD PTR [eax]

; 403  : 		Result[1][2] =-f.y;

	fld	DWORD PTR _f$[ebp+4]
	fchs
	push	2
	push	1
	lea	ecx, DWORD PTR _Result$[ebp]
	fstp	DWORD PTR tv233[ebp]
	call	??A?$tmat4x4@M@detail@glm@@QAEAAU?$tvec4@M@12@I@Z ; glm::detail::tmat4x4<float>::operator[]
	mov	ecx, eax
	call	??A?$tvec4@M@detail@glm@@QAEAAMI@Z	; glm::detail::tvec4<float>::operator[]
	fld	DWORD PTR tv233[ebp]
	fstp	DWORD PTR [eax]

; 404  : 		Result[2][2] =-f.z;

	fld	DWORD PTR _f$[ebp+8]
	fchs
	push	2
	push	2
	lea	ecx, DWORD PTR _Result$[ebp]
	fstp	DWORD PTR tv235[ebp]
	call	??A?$tmat4x4@M@detail@glm@@QAEAAU?$tvec4@M@12@I@Z ; glm::detail::tmat4x4<float>::operator[]
	mov	ecx, eax
	call	??A?$tvec4@M@detail@glm@@QAEAAMI@Z	; glm::detail::tvec4<float>::operator[]
	fld	DWORD PTR tv235[ebp]
	fstp	DWORD PTR [eax]

; 405  : 	/*  Test this instead of translate3D
; 406  : 		Result[3][0] =-dot(s, eye);
; 407  : 		Result[3][1] =-dot(y, eye);
; 408  : 		Result[3][2] = dot(f, eye);
; 409  : 	*/  
; 410  : 		return translate(Result, -eye);

	mov	eax, DWORD PTR _eye$[ebp]
	push	eax
	lea	ecx, DWORD PTR $T71512[ebp]
	push	ecx
	call	??$?GM@detail@glm@@YA?AU?$tvec3@M@01@ABU201@@Z ; glm::detail::operator-<float>
	add	esp, 8
	push	eax
	lea	edx, DWORD PTR _Result$[ebp]
	push	edx
	mov	eax, DWORD PTR ___$ReturnUdt$[ebp]
	push	eax
	call	??$translate@M@glm@@YA?AU?$tmat4x4@M@detail@0@ABU120@ABU?$tvec3@M@20@@Z ; glm::translate<float>
	add	esp, 12					; 0000000cH
	mov	eax, DWORD PTR ___$ReturnUdt$[ebp]

; 411  : 	}

	push	edx
	mov	ecx, ebp
	push	eax
	lea	edx, DWORD PTR $LN8@lookAt
	call	@_RTC_CheckStackVars@8
	pop	eax
	pop	edx
	pop	edi
	pop	esi
	pop	ebx
	mov	ecx, DWORD PTR __$ArrayPad$[ebp]
	xor	ecx, ebp
	call	@__security_check_cookie@4
	add	esp, 424				; 000001a8H
	cmp	ebp, esp
	call	__RTC_CheckEsp
	mov	esp, ebp
	pop	ebp
	ret	0
	npad	2
$LN8@lookAt:
	DD	4
	DD	$LN7@lookAt
$LN7@lookAt:
	DD	-20					; ffffffecH
	DD	12					; 0000000cH
	DD	$LN3@lookAt
	DD	-40					; ffffffd8H
	DD	12					; 0000000cH
	DD	$LN4@lookAt
	DD	-60					; ffffffc4H
	DD	12					; 0000000cH
	DD	$LN5@lookAt
	DD	-132					; ffffff7cH
	DD	64					; 00000040H
	DD	$LN6@lookAt
$LN6@lookAt:
	DB	82					; 00000052H
	DB	101					; 00000065H
	DB	115					; 00000073H
	DB	117					; 00000075H
	DB	108					; 0000006cH
	DB	116					; 00000074H
	DB	0
$LN5@lookAt:
	DB	115					; 00000073H
	DB	0
$LN4@lookAt:
	DB	117					; 00000075H
	DB	0
$LN3@lookAt:
	DB	102					; 00000066H
	DB	0
??$lookAt@M@glm@@YA?AU?$tmat4x4@M@detail@0@ABU?$tvec3@M@20@00@Z ENDP ; glm::lookAt<float>
_TEXT	ENDS
PUBLIC	??$inversesqrt@M@glm@@YAMABM@Z			; glm::inversesqrt<float>
; Function compile flags: /Odtp /RTCsu /ZI
; File c:\opengl\glm-0.9.3.1\glm\core\func_geometric.inl
;	COMDAT ??$normalize@M@glm@@YA?AU?$tvec3@M@detail@0@ABU120@@Z
_TEXT	SEGMENT
$T71521 = -212						; size = 4
_sqr$ = -8						; size = 4
___$ReturnUdt$ = 8					; size = 4
_x$ = 12						; size = 4
??$normalize@M@glm@@YA?AU?$tvec3@M@detail@0@ABU120@@Z PROC ; glm::normalize<float>, COMDAT

; 243  :     {

	push	ebp
	mov	ebp, esp
	sub	esp, 216				; 000000d8H
	push	ebx
	push	esi
	push	edi
	lea	edi, DWORD PTR [ebp-216]
	mov	ecx, 54					; 00000036H
	mov	eax, -858993460				; ccccccccH
	rep stosd

; 244  :         GLM_STATIC_ASSERT(detail::type<T>::is_float, "'normalize' only accept floating-point inputs");
; 245  : 
; 246  : 		typename detail::tvec3<T>::value_type sqr = x.x * x.x + x.y * x.y + x.z * x.z;

	mov	eax, DWORD PTR _x$[ebp]
	fld	DWORD PTR [eax]
	mov	ecx, DWORD PTR _x$[ebp]
	fmul	DWORD PTR [ecx]
	mov	edx, DWORD PTR _x$[ebp]
	fld	DWORD PTR [edx+4]
	mov	eax, DWORD PTR _x$[ebp]
	fmul	DWORD PTR [eax+4]
	faddp	ST(1), ST(0)
	mov	ecx, DWORD PTR _x$[ebp]
	fld	DWORD PTR [ecx+8]
	mov	edx, DWORD PTR _x$[ebp]
	fmul	DWORD PTR [edx+8]
	faddp	ST(1), ST(0)
	fstp	DWORD PTR _sqr$[ebp]

; 247  : 	    return x * inversesqrt(sqr);

	lea	eax, DWORD PTR _sqr$[ebp]
	push	eax
	call	??$inversesqrt@M@glm@@YAMABM@Z		; glm::inversesqrt<float>
	add	esp, 4
	fstp	DWORD PTR $T71521[ebp]
	lea	ecx, DWORD PTR $T71521[ebp]
	push	ecx
	mov	edx, DWORD PTR _x$[ebp]
	push	edx
	mov	eax, DWORD PTR ___$ReturnUdt$[ebp]
	push	eax
	call	??$?DM@detail@glm@@YA?AU?$tvec3@M@01@ABU201@ABM@Z ; glm::detail::operator*<float>
	add	esp, 12					; 0000000cH
	mov	eax, DWORD PTR ___$ReturnUdt$[ebp]

; 248  :     }

	push	edx
	mov	ecx, ebp
	push	eax
	lea	edx, DWORD PTR $LN5@normalize
	call	@_RTC_CheckStackVars@8
	pop	eax
	pop	edx
	pop	edi
	pop	esi
	pop	ebx
	add	esp, 216				; 000000d8H
	cmp	ebp, esp
	call	__RTC_CheckEsp
	mov	esp, ebp
	pop	ebp
	ret	0
$LN5@normalize:
	DD	1
	DD	$LN4@normalize
$LN4@normalize:
	DD	-8					; fffffff8H
	DD	4
	DD	$LN3@normalize
$LN3@normalize:
	DB	115					; 00000073H
	DB	113					; 00000071H
	DB	114					; 00000072H
	DB	0
??$normalize@M@glm@@YA?AU?$tvec3@M@detail@0@ABU120@@Z ENDP ; glm::normalize<float>
; Function compile flags: /Odtp /RTCsu /ZI
; File c:\opengl\glm-0.9.3.1\glm\core\type_vec3.inl
_TEXT	ENDS
;	COMDAT ??$?GM@detail@glm@@YA?AU?$tvec3@M@01@ABU201@0@Z
_TEXT	SEGMENT
$T71527 = -224						; size = 4
$T71528 = -212						; size = 4
$T71529 = -200						; size = 4
___$ReturnUdt$ = 8					; size = 4
_v1$ = 12						; size = 4
_v2$ = 16						; size = 4
??$?GM@detail@glm@@YA?AU?$tvec3@M@01@ABU201@0@Z PROC	; glm::detail::operator-<float>, COMDAT

; 716  : 	{

	push	ebp
	mov	ebp, esp
	sub	esp, 228				; 000000e4H
	push	ebx
	push	esi
	push	edi
	lea	edi, DWORD PTR [ebp-228]
	mov	ecx, 57					; 00000039H
	mov	eax, -858993460				; ccccccccH
	rep stosd

; 717  : 		return tvec3<T>(
; 718  : 			v1.x - T(v2.x),
; 719  : 			v1.y - T(v2.y),
; 720  : 			v1.z - T(v2.z));

	mov	eax, DWORD PTR _v1$[ebp]
	fld	DWORD PTR [eax+8]
	mov	ecx, DWORD PTR _v2$[ebp]
	fsub	DWORD PTR [ecx+8]
	fstp	DWORD PTR $T71527[ebp]
	mov	edx, DWORD PTR _v1$[ebp]
	fld	DWORD PTR [edx+4]
	mov	eax, DWORD PTR _v2$[ebp]
	fsub	DWORD PTR [eax+4]
	fstp	DWORD PTR $T71528[ebp]
	mov	ecx, DWORD PTR _v1$[ebp]
	fld	DWORD PTR [ecx]
	mov	edx, DWORD PTR _v2$[ebp]
	fsub	DWORD PTR [edx]
	fstp	DWORD PTR $T71529[ebp]
	lea	eax, DWORD PTR $T71527[ebp]
	push	eax
	lea	ecx, DWORD PTR $T71528[ebp]
	push	ecx
	lea	edx, DWORD PTR $T71529[ebp]
	push	edx
	mov	ecx, DWORD PTR ___$ReturnUdt$[ebp]
	call	??0?$tvec3@M@detail@glm@@QAE@ABM00@Z	; glm::detail::tvec3<float>::tvec3<float>
	mov	eax, DWORD PTR ___$ReturnUdt$[ebp]

; 721  : 	}

	pop	edi
	pop	esi
	pop	ebx
	add	esp, 228				; 000000e4H
	cmp	ebp, esp
	call	__RTC_CheckEsp
	mov	esp, ebp
	pop	ebp
	ret	0
??$?GM@detail@glm@@YA?AU?$tvec3@M@01@ABU201@0@Z ENDP	; glm::detail::operator-<float>
_TEXT	ENDS
PUBLIC	??0?$tmat4x4@M@detail@glm@@QAE@ABU012@@Z	; glm::detail::tmat4x4<float>::tmat4x4<float>
PUBLIC	??$?HM@detail@glm@@YA?AU?$tvec4@M@01@ABU201@0@Z	; glm::detail::operator+<float>
PUBLIC	??$?DM@detail@glm@@YA?AU?$tvec4@M@01@ABU201@ABM@Z ; glm::detail::operator*<float>
PUBLIC	??A?$tvec4@M@detail@glm@@QBEABMI@Z		; glm::detail::tvec4<float>::operator[]
PUBLIC	??0?$tmat4x4@M@detail@glm@@QAE@W4ctor@012@@Z	; glm::detail::tmat4x4<float>::tmat4x4<float>
PUBLIC	??0?$tvec4@M@detail@glm@@QAE@ABU012@@Z		; glm::detail::tvec4<float>::tvec4<float>
PUBLIC	__$ArrayPad$
; Function compile flags: /Odtp /RTCsu /ZI
; File c:\opengl\glm-0.9.3.1\glm\core\type_mat4x4.inl
;	COMDAT ??$?DM@detail@glm@@YA?AU?$tmat4x4@M@01@ABU201@0@Z
_TEXT	SEGMENT
$T71533 = -1128						; size = 16
$T71534 = -1104						; size = 16
$T71535 = -1080						; size = 16
$T71536 = -1056						; size = 16
$T71537 = -1032						; size = 16
$T71538 = -1008						; size = 16
$T71539 = -984						; size = 16
$T71540 = -960						; size = 16
$T71541 = -936						; size = 16
$T71542 = -912						; size = 16
$T71543 = -888						; size = 16
$T71544 = -864						; size = 16
$T71545 = -840						; size = 16
$T71546 = -816						; size = 16
$T71547 = -792						; size = 16
$T71548 = -768						; size = 16
$T71549 = -744						; size = 16
$T71550 = -720						; size = 16
$T71551 = -696						; size = 16
$T71552 = -672						; size = 16
$T71553 = -648						; size = 16
$T71554 = -624						; size = 16
$T71555 = -600						; size = 16
$T71556 = -576						; size = 16
$T71557 = -552						; size = 16
$T71558 = -528						; size = 16
$T71559 = -504						; size = 16
$T71560 = -480						; size = 16
_Result$ = -264						; size = 64
_SrcB3$ = -192						; size = 16
_SrcB2$ = -168						; size = 16
_SrcB1$ = -144						; size = 16
_SrcB0$ = -120						; size = 16
_SrcA3$ = -96						; size = 16
_SrcA2$ = -72						; size = 16
_SrcA1$ = -48						; size = 16
_SrcA0$ = -24						; size = 16
__$ArrayPad$ = -4					; size = 4
___$ReturnUdt$ = 8					; size = 4
_m1$ = 12						; size = 4
_m2$ = 16						; size = 4
??$?DM@detail@glm@@YA?AU?$tmat4x4@M@01@ABU201@0@Z PROC	; glm::detail::operator*<float>, COMDAT

; 762  :     {

	push	ebp
	mov	ebp, esp
	sub	esp, 1132				; 0000046cH
	push	ebx
	push	esi
	push	edi
	lea	edi, DWORD PTR [ebp-1132]
	mov	ecx, 283				; 0000011bH
	mov	eax, -858993460				; ccccccccH
	rep stosd
	mov	eax, DWORD PTR ___security_cookie
	xor	eax, ebp
	mov	DWORD PTR __$ArrayPad$[ebp], eax

; 763  : 		typename tmat4x4<T>::col_type const SrcA0 = m1[0];

	push	0
	mov	ecx, DWORD PTR _m1$[ebp]
	call	??A?$tmat4x4@M@detail@glm@@QBEABU?$tvec4@M@12@I@Z ; glm::detail::tmat4x4<float>::operator[]
	push	eax
	lea	ecx, DWORD PTR _SrcA0$[ebp]
	call	??0?$tvec4@M@detail@glm@@QAE@ABU012@@Z	; glm::detail::tvec4<float>::tvec4<float>

; 764  : 		typename tmat4x4<T>::col_type const SrcA1 = m1[1];

	push	1
	mov	ecx, DWORD PTR _m1$[ebp]
	call	??A?$tmat4x4@M@detail@glm@@QBEABU?$tvec4@M@12@I@Z ; glm::detail::tmat4x4<float>::operator[]
	push	eax
	lea	ecx, DWORD PTR _SrcA1$[ebp]
	call	??0?$tvec4@M@detail@glm@@QAE@ABU012@@Z	; glm::detail::tvec4<float>::tvec4<float>

; 765  : 		typename tmat4x4<T>::col_type const SrcA2 = m1[2];

	push	2
	mov	ecx, DWORD PTR _m1$[ebp]
	call	??A?$tmat4x4@M@detail@glm@@QBEABU?$tvec4@M@12@I@Z ; glm::detail::tmat4x4<float>::operator[]
	push	eax
	lea	ecx, DWORD PTR _SrcA2$[ebp]
	call	??0?$tvec4@M@detail@glm@@QAE@ABU012@@Z	; glm::detail::tvec4<float>::tvec4<float>

; 766  : 		typename tmat4x4<T>::col_type const SrcA3 = m1[3];

	push	3
	mov	ecx, DWORD PTR _m1$[ebp]
	call	??A?$tmat4x4@M@detail@glm@@QBEABU?$tvec4@M@12@I@Z ; glm::detail::tmat4x4<float>::operator[]
	push	eax
	lea	ecx, DWORD PTR _SrcA3$[ebp]
	call	??0?$tvec4@M@detail@glm@@QAE@ABU012@@Z	; glm::detail::tvec4<float>::tvec4<float>

; 767  : 
; 768  : 		typename tmat4x4<T>::col_type const SrcB0 = m2[0];

	push	0
	mov	ecx, DWORD PTR _m2$[ebp]
	call	??A?$tmat4x4@M@detail@glm@@QBEABU?$tvec4@M@12@I@Z ; glm::detail::tmat4x4<float>::operator[]
	push	eax
	lea	ecx, DWORD PTR _SrcB0$[ebp]
	call	??0?$tvec4@M@detail@glm@@QAE@ABU012@@Z	; glm::detail::tvec4<float>::tvec4<float>

; 769  : 		typename tmat4x4<T>::col_type const SrcB1 = m2[1];

	push	1
	mov	ecx, DWORD PTR _m2$[ebp]
	call	??A?$tmat4x4@M@detail@glm@@QBEABU?$tvec4@M@12@I@Z ; glm::detail::tmat4x4<float>::operator[]
	push	eax
	lea	ecx, DWORD PTR _SrcB1$[ebp]
	call	??0?$tvec4@M@detail@glm@@QAE@ABU012@@Z	; glm::detail::tvec4<float>::tvec4<float>

; 770  : 		typename tmat4x4<T>::col_type const SrcB2 = m2[2];

	push	2
	mov	ecx, DWORD PTR _m2$[ebp]
	call	??A?$tmat4x4@M@detail@glm@@QBEABU?$tvec4@M@12@I@Z ; glm::detail::tmat4x4<float>::operator[]
	push	eax
	lea	ecx, DWORD PTR _SrcB2$[ebp]
	call	??0?$tvec4@M@detail@glm@@QAE@ABU012@@Z	; glm::detail::tvec4<float>::tvec4<float>

; 771  : 		typename tmat4x4<T>::col_type const SrcB3 = m2[3];

	push	3
	mov	ecx, DWORD PTR _m2$[ebp]
	call	??A?$tmat4x4@M@detail@glm@@QBEABU?$tvec4@M@12@I@Z ; glm::detail::tmat4x4<float>::operator[]
	push	eax
	lea	ecx, DWORD PTR _SrcB3$[ebp]
	call	??0?$tvec4@M@detail@glm@@QAE@ABU012@@Z	; glm::detail::tvec4<float>::tvec4<float>

; 772  : 
; 773  :         tmat4x4<T> Result(tmat4x4<T>::null);

	push	0
	lea	ecx, DWORD PTR _Result$[ebp]
	call	??0?$tmat4x4@M@detail@glm@@QAE@W4ctor@012@@Z ; glm::detail::tmat4x4<float>::tmat4x4<float>

; 774  : 		Result[0] = SrcA0 * SrcB0[0] + SrcA1 * SrcB0[1] + SrcA2 * SrcB0[2] + SrcA3 * SrcB0[3];

	push	3
	lea	ecx, DWORD PTR _SrcB0$[ebp]
	call	??A?$tvec4@M@detail@glm@@QBEABMI@Z	; glm::detail::tvec4<float>::operator[]
	push	eax
	lea	eax, DWORD PTR _SrcA3$[ebp]
	push	eax
	lea	ecx, DWORD PTR $T71533[ebp]
	push	ecx
	call	??$?DM@detail@glm@@YA?AU?$tvec4@M@01@ABU201@ABM@Z ; glm::detail::operator*<float>
	add	esp, 12					; 0000000cH
	push	eax
	push	2
	lea	ecx, DWORD PTR _SrcB0$[ebp]
	call	??A?$tvec4@M@detail@glm@@QBEABMI@Z	; glm::detail::tvec4<float>::operator[]
	push	eax
	lea	edx, DWORD PTR _SrcA2$[ebp]
	push	edx
	lea	eax, DWORD PTR $T71534[ebp]
	push	eax
	call	??$?DM@detail@glm@@YA?AU?$tvec4@M@01@ABU201@ABM@Z ; glm::detail::operator*<float>
	add	esp, 12					; 0000000cH
	push	eax
	push	1
	lea	ecx, DWORD PTR _SrcB0$[ebp]
	call	??A?$tvec4@M@detail@glm@@QBEABMI@Z	; glm::detail::tvec4<float>::operator[]
	push	eax
	lea	ecx, DWORD PTR _SrcA1$[ebp]
	push	ecx
	lea	edx, DWORD PTR $T71535[ebp]
	push	edx
	call	??$?DM@detail@glm@@YA?AU?$tvec4@M@01@ABU201@ABM@Z ; glm::detail::operator*<float>
	add	esp, 12					; 0000000cH
	push	eax
	push	0
	lea	ecx, DWORD PTR _SrcB0$[ebp]
	call	??A?$tvec4@M@detail@glm@@QBEABMI@Z	; glm::detail::tvec4<float>::operator[]
	push	eax
	lea	eax, DWORD PTR _SrcA0$[ebp]
	push	eax
	lea	ecx, DWORD PTR $T71536[ebp]
	push	ecx
	call	??$?DM@detail@glm@@YA?AU?$tvec4@M@01@ABU201@ABM@Z ; glm::detail::operator*<float>
	add	esp, 12					; 0000000cH
	push	eax
	lea	edx, DWORD PTR $T71537[ebp]
	push	edx
	call	??$?HM@detail@glm@@YA?AU?$tvec4@M@01@ABU201@0@Z ; glm::detail::operator+<float>
	add	esp, 12					; 0000000cH
	push	eax
	lea	eax, DWORD PTR $T71538[ebp]
	push	eax
	call	??$?HM@detail@glm@@YA?AU?$tvec4@M@01@ABU201@0@Z ; glm::detail::operator+<float>
	add	esp, 12					; 0000000cH
	push	eax
	lea	ecx, DWORD PTR $T71539[ebp]
	push	ecx
	call	??$?HM@detail@glm@@YA?AU?$tvec4@M@01@ABU201@0@Z ; glm::detail::operator+<float>
	add	esp, 12					; 0000000cH
	push	eax
	push	0
	lea	ecx, DWORD PTR _Result$[ebp]
	call	??A?$tmat4x4@M@detail@glm@@QAEAAU?$tvec4@M@12@I@Z ; glm::detail::tmat4x4<float>::operator[]
	mov	ecx, eax
	call	??4?$tvec4@M@detail@glm@@QAEAAU012@ABU012@@Z ; glm::detail::tvec4<float>::operator=

; 775  : 		Result[1] = SrcA0 * SrcB1[0] + SrcA1 * SrcB1[1] + SrcA2 * SrcB1[2] + SrcA3 * SrcB1[3];

	push	3
	lea	ecx, DWORD PTR _SrcB1$[ebp]
	call	??A?$tvec4@M@detail@glm@@QBEABMI@Z	; glm::detail::tvec4<float>::operator[]
	push	eax
	lea	eax, DWORD PTR _SrcA3$[ebp]
	push	eax
	lea	ecx, DWORD PTR $T71540[ebp]
	push	ecx
	call	??$?DM@detail@glm@@YA?AU?$tvec4@M@01@ABU201@ABM@Z ; glm::detail::operator*<float>
	add	esp, 12					; 0000000cH
	push	eax
	push	2
	lea	ecx, DWORD PTR _SrcB1$[ebp]
	call	??A?$tvec4@M@detail@glm@@QBEABMI@Z	; glm::detail::tvec4<float>::operator[]
	push	eax
	lea	edx, DWORD PTR _SrcA2$[ebp]
	push	edx
	lea	eax, DWORD PTR $T71541[ebp]
	push	eax
	call	??$?DM@detail@glm@@YA?AU?$tvec4@M@01@ABU201@ABM@Z ; glm::detail::operator*<float>
	add	esp, 12					; 0000000cH
	push	eax
	push	1
	lea	ecx, DWORD PTR _SrcB1$[ebp]
	call	??A?$tvec4@M@detail@glm@@QBEABMI@Z	; glm::detail::tvec4<float>::operator[]
	push	eax
	lea	ecx, DWORD PTR _SrcA1$[ebp]
	push	ecx
	lea	edx, DWORD PTR $T71542[ebp]
	push	edx
	call	??$?DM@detail@glm@@YA?AU?$tvec4@M@01@ABU201@ABM@Z ; glm::detail::operator*<float>
	add	esp, 12					; 0000000cH
	push	eax
	push	0
	lea	ecx, DWORD PTR _SrcB1$[ebp]
	call	??A?$tvec4@M@detail@glm@@QBEABMI@Z	; glm::detail::tvec4<float>::operator[]
	push	eax
	lea	eax, DWORD PTR _SrcA0$[ebp]
	push	eax
	lea	ecx, DWORD PTR $T71543[ebp]
	push	ecx
	call	??$?DM@detail@glm@@YA?AU?$tvec4@M@01@ABU201@ABM@Z ; glm::detail::operator*<float>
	add	esp, 12					; 0000000cH
	push	eax
	lea	edx, DWORD PTR $T71544[ebp]
	push	edx
	call	??$?HM@detail@glm@@YA?AU?$tvec4@M@01@ABU201@0@Z ; glm::detail::operator+<float>
	add	esp, 12					; 0000000cH
	push	eax
	lea	eax, DWORD PTR $T71545[ebp]
	push	eax
	call	??$?HM@detail@glm@@YA?AU?$tvec4@M@01@ABU201@0@Z ; glm::detail::operator+<float>
	add	esp, 12					; 0000000cH
	push	eax
	lea	ecx, DWORD PTR $T71546[ebp]
	push	ecx
	call	??$?HM@detail@glm@@YA?AU?$tvec4@M@01@ABU201@0@Z ; glm::detail::operator+<float>
	add	esp, 12					; 0000000cH
	push	eax
	push	1
	lea	ecx, DWORD PTR _Result$[ebp]
	call	??A?$tmat4x4@M@detail@glm@@QAEAAU?$tvec4@M@12@I@Z ; glm::detail::tmat4x4<float>::operator[]
	mov	ecx, eax
	call	??4?$tvec4@M@detail@glm@@QAEAAU012@ABU012@@Z ; glm::detail::tvec4<float>::operator=

; 776  : 		Result[2] = SrcA0 * SrcB2[0] + SrcA1 * SrcB2[1] + SrcA2 * SrcB2[2] + SrcA3 * SrcB2[3];

	push	3
	lea	ecx, DWORD PTR _SrcB2$[ebp]
	call	??A?$tvec4@M@detail@glm@@QBEABMI@Z	; glm::detail::tvec4<float>::operator[]
	push	eax
	lea	eax, DWORD PTR _SrcA3$[ebp]
	push	eax
	lea	ecx, DWORD PTR $T71547[ebp]
	push	ecx
	call	??$?DM@detail@glm@@YA?AU?$tvec4@M@01@ABU201@ABM@Z ; glm::detail::operator*<float>
	add	esp, 12					; 0000000cH
	push	eax
	push	2
	lea	ecx, DWORD PTR _SrcB2$[ebp]
	call	??A?$tvec4@M@detail@glm@@QBEABMI@Z	; glm::detail::tvec4<float>::operator[]
	push	eax
	lea	edx, DWORD PTR _SrcA2$[ebp]
	push	edx
	lea	eax, DWORD PTR $T71548[ebp]
	push	eax
	call	??$?DM@detail@glm@@YA?AU?$tvec4@M@01@ABU201@ABM@Z ; glm::detail::operator*<float>
	add	esp, 12					; 0000000cH
	push	eax
	push	1
	lea	ecx, DWORD PTR _SrcB2$[ebp]
	call	??A?$tvec4@M@detail@glm@@QBEABMI@Z	; glm::detail::tvec4<float>::operator[]
	push	eax
	lea	ecx, DWORD PTR _SrcA1$[ebp]
	push	ecx
	lea	edx, DWORD PTR $T71549[ebp]
	push	edx
	call	??$?DM@detail@glm@@YA?AU?$tvec4@M@01@ABU201@ABM@Z ; glm::detail::operator*<float>
	add	esp, 12					; 0000000cH
	push	eax
	push	0
	lea	ecx, DWORD PTR _SrcB2$[ebp]
	call	??A?$tvec4@M@detail@glm@@QBEABMI@Z	; glm::detail::tvec4<float>::operator[]
	push	eax
	lea	eax, DWORD PTR _SrcA0$[ebp]
	push	eax
	lea	ecx, DWORD PTR $T71550[ebp]
	push	ecx
	call	??$?DM@detail@glm@@YA?AU?$tvec4@M@01@ABU201@ABM@Z ; glm::detail::operator*<float>
	add	esp, 12					; 0000000cH
	push	eax
	lea	edx, DWORD PTR $T71551[ebp]
	push	edx
	call	??$?HM@detail@glm@@YA?AU?$tvec4@M@01@ABU201@0@Z ; glm::detail::operator+<float>
	add	esp, 12					; 0000000cH
	push	eax
	lea	eax, DWORD PTR $T71552[ebp]
	push	eax
	call	??$?HM@detail@glm@@YA?AU?$tvec4@M@01@ABU201@0@Z ; glm::detail::operator+<float>
	add	esp, 12					; 0000000cH
	push	eax
	lea	ecx, DWORD PTR $T71553[ebp]
	push	ecx
	call	??$?HM@detail@glm@@YA?AU?$tvec4@M@01@ABU201@0@Z ; glm::detail::operator+<float>
	add	esp, 12					; 0000000cH
	push	eax
	push	2
	lea	ecx, DWORD PTR _Result$[ebp]
	call	??A?$tmat4x4@M@detail@glm@@QAEAAU?$tvec4@M@12@I@Z ; glm::detail::tmat4x4<float>::operator[]
	mov	ecx, eax
	call	??4?$tvec4@M@detail@glm@@QAEAAU012@ABU012@@Z ; glm::detail::tvec4<float>::operator=

; 777  : 		Result[3] = SrcA0 * SrcB3[0] + SrcA1 * SrcB3[1] + SrcA2 * SrcB3[2] + SrcA3 * SrcB3[3];

	push	3
	lea	ecx, DWORD PTR _SrcB3$[ebp]
	call	??A?$tvec4@M@detail@glm@@QBEABMI@Z	; glm::detail::tvec4<float>::operator[]
	push	eax
	lea	eax, DWORD PTR _SrcA3$[ebp]
	push	eax
	lea	ecx, DWORD PTR $T71554[ebp]
	push	ecx
	call	??$?DM@detail@glm@@YA?AU?$tvec4@M@01@ABU201@ABM@Z ; glm::detail::operator*<float>
	add	esp, 12					; 0000000cH
	push	eax
	push	2
	lea	ecx, DWORD PTR _SrcB3$[ebp]
	call	??A?$tvec4@M@detail@glm@@QBEABMI@Z	; glm::detail::tvec4<float>::operator[]
	push	eax
	lea	edx, DWORD PTR _SrcA2$[ebp]
	push	edx
	lea	eax, DWORD PTR $T71555[ebp]
	push	eax
	call	??$?DM@detail@glm@@YA?AU?$tvec4@M@01@ABU201@ABM@Z ; glm::detail::operator*<float>
	add	esp, 12					; 0000000cH
	push	eax
	push	1
	lea	ecx, DWORD PTR _SrcB3$[ebp]
	call	??A?$tvec4@M@detail@glm@@QBEABMI@Z	; glm::detail::tvec4<float>::operator[]
	push	eax
	lea	ecx, DWORD PTR _SrcA1$[ebp]
	push	ecx
	lea	edx, DWORD PTR $T71556[ebp]
	push	edx
	call	??$?DM@detail@glm@@YA?AU?$tvec4@M@01@ABU201@ABM@Z ; glm::detail::operator*<float>
	add	esp, 12					; 0000000cH
	push	eax
	push	0
	lea	ecx, DWORD PTR _SrcB3$[ebp]
	call	??A?$tvec4@M@detail@glm@@QBEABMI@Z	; glm::detail::tvec4<float>::operator[]
	push	eax
	lea	eax, DWORD PTR _SrcA0$[ebp]
	push	eax
	lea	ecx, DWORD PTR $T71557[ebp]
	push	ecx
	call	??$?DM@detail@glm@@YA?AU?$tvec4@M@01@ABU201@ABM@Z ; glm::detail::operator*<float>
	add	esp, 12					; 0000000cH
	push	eax
	lea	edx, DWORD PTR $T71558[ebp]
	push	edx
	call	??$?HM@detail@glm@@YA?AU?$tvec4@M@01@ABU201@0@Z ; glm::detail::operator+<float>
	add	esp, 12					; 0000000cH
	push	eax
	lea	eax, DWORD PTR $T71559[ebp]
	push	eax
	call	??$?HM@detail@glm@@YA?AU?$tvec4@M@01@ABU201@0@Z ; glm::detail::operator+<float>
	add	esp, 12					; 0000000cH
	push	eax
	lea	ecx, DWORD PTR $T71560[ebp]
	push	ecx
	call	??$?HM@detail@glm@@YA?AU?$tvec4@M@01@ABU201@0@Z ; glm::detail::operator+<float>
	add	esp, 12					; 0000000cH
	push	eax
	push	3
	lea	ecx, DWORD PTR _Result$[ebp]
	call	??A?$tmat4x4@M@detail@glm@@QAEAAU?$tvec4@M@12@I@Z ; glm::detail::tmat4x4<float>::operator[]
	mov	ecx, eax
	call	??4?$tvec4@M@detail@glm@@QAEAAU012@ABU012@@Z ; glm::detail::tvec4<float>::operator=

; 778  :         return Result;

	lea	eax, DWORD PTR _Result$[ebp]
	push	eax
	mov	ecx, DWORD PTR ___$ReturnUdt$[ebp]
	call	??0?$tmat4x4@M@detail@glm@@QAE@ABU012@@Z ; glm::detail::tmat4x4<float>::tmat4x4<float>
	mov	eax, DWORD PTR ___$ReturnUdt$[ebp]

; 779  :     }

	push	edx
	mov	ecx, ebp
	push	eax
	lea	edx, DWORD PTR $LN13@operator@2
	call	@_RTC_CheckStackVars@8
	pop	eax
	pop	edx
	pop	edi
	pop	esi
	pop	ebx
	mov	ecx, DWORD PTR __$ArrayPad$[ebp]
	xor	ecx, ebp
	call	@__security_check_cookie@4
	add	esp, 1132				; 0000046cH
	cmp	ebp, esp
	call	__RTC_CheckEsp
	mov	esp, ebp
	pop	ebp
	ret	0
	npad	1
$LN13@operator@2:
	DD	9
	DD	$LN12@operator@2
$LN12@operator@2:
	DD	-24					; ffffffe8H
	DD	16					; 00000010H
	DD	$LN3@operator@2
	DD	-48					; ffffffd0H
	DD	16					; 00000010H
	DD	$LN4@operator@2
	DD	-72					; ffffffb8H
	DD	16					; 00000010H
	DD	$LN5@operator@2
	DD	-96					; ffffffa0H
	DD	16					; 00000010H
	DD	$LN6@operator@2
	DD	-120					; ffffff88H
	DD	16					; 00000010H
	DD	$LN7@operator@2
	DD	-144					; ffffff70H
	DD	16					; 00000010H
	DD	$LN8@operator@2
	DD	-168					; ffffff58H
	DD	16					; 00000010H
	DD	$LN9@operator@2
	DD	-192					; ffffff40H
	DD	16					; 00000010H
	DD	$LN10@operator@2
	DD	-264					; fffffef8H
	DD	64					; 00000040H
	DD	$LN11@operator@2
$LN11@operator@2:
	DB	82					; 00000052H
	DB	101					; 00000065H
	DB	115					; 00000073H
	DB	117					; 00000075H
	DB	108					; 0000006cH
	DB	116					; 00000074H
	DB	0
$LN10@operator@2:
	DB	83					; 00000053H
	DB	114					; 00000072H
	DB	99					; 00000063H
	DB	66					; 00000042H
	DB	51					; 00000033H
	DB	0
$LN9@operator@2:
	DB	83					; 00000053H
	DB	114					; 00000072H
	DB	99					; 00000063H
	DB	66					; 00000042H
	DB	50					; 00000032H
	DB	0
$LN8@operator@2:
	DB	83					; 00000053H
	DB	114					; 00000072H
	DB	99					; 00000063H
	DB	66					; 00000042H
	DB	49					; 00000031H
	DB	0
$LN7@operator@2:
	DB	83					; 00000053H
	DB	114					; 00000072H
	DB	99					; 00000063H
	DB	66					; 00000042H
	DB	48					; 00000030H
	DB	0
$LN6@operator@2:
	DB	83					; 00000053H
	DB	114					; 00000072H
	DB	99					; 00000063H
	DB	65					; 00000041H
	DB	51					; 00000033H
	DB	0
$LN5@operator@2:
	DB	83					; 00000053H
	DB	114					; 00000072H
	DB	99					; 00000063H
	DB	65					; 00000041H
	DB	50					; 00000032H
	DB	0
$LN4@operator@2:
	DB	83					; 00000053H
	DB	114					; 00000072H
	DB	99					; 00000063H
	DB	65					; 00000041H
	DB	49					; 00000031H
	DB	0
$LN3@operator@2:
	DB	83					; 00000053H
	DB	114					; 00000072H
	DB	99					; 00000063H
	DB	65					; 00000041H
	DB	48					; 00000030H
	DB	0
??$?DM@detail@glm@@YA?AU?$tmat4x4@M@01@ABU201@0@Z ENDP	; glm::detail::operator*<float>
; Function compile flags: /Odtp /RTCsu /ZI
; File c:\opengl\glm-0.9.3.1\glm\core\type_vec4.inl
_TEXT	ENDS
;	COMDAT ??$?DM@detail@glm@@YA?AU?$tvec4@M@01@ABU201@ABM@Z
_TEXT	SEGMENT
$T71574 = -236						; size = 4
$T71575 = -224						; size = 4
$T71576 = -212						; size = 4
$T71577 = -200						; size = 4
___$ReturnUdt$ = 8					; size = 4
_v$ = 12						; size = 4
_s$ = 16						; size = 4
??$?DM@detail@glm@@YA?AU?$tvec4@M@01@ABU201@ABM@Z PROC	; glm::detail::operator*<float>, COMDAT

; 892  : 	{

	push	ebp
	mov	ebp, esp
	sub	esp, 240				; 000000f0H
	push	ebx
	push	esi
	push	edi
	lea	edi, DWORD PTR [ebp-240]
	mov	ecx, 60					; 0000003cH
	mov	eax, -858993460				; ccccccccH
	rep stosd

; 893  : 		return tvec4<T>(
; 894  : 			v.x * s,
; 895  : 			v.y * s,
; 896  : 			v.z * s,
; 897  : 			v.w * s);

	mov	eax, DWORD PTR _v$[ebp]
	fld	DWORD PTR [eax+12]
	mov	ecx, DWORD PTR _s$[ebp]
	fmul	DWORD PTR [ecx]
	fstp	DWORD PTR $T71574[ebp]
	mov	edx, DWORD PTR _v$[ebp]
	fld	DWORD PTR [edx+8]
	mov	eax, DWORD PTR _s$[ebp]
	fmul	DWORD PTR [eax]
	fstp	DWORD PTR $T71575[ebp]
	mov	ecx, DWORD PTR _v$[ebp]
	fld	DWORD PTR [ecx+4]
	mov	edx, DWORD PTR _s$[ebp]
	fmul	DWORD PTR [edx]
	fstp	DWORD PTR $T71576[ebp]
	mov	eax, DWORD PTR _v$[ebp]
	fld	DWORD PTR [eax]
	mov	ecx, DWORD PTR _s$[ebp]
	fmul	DWORD PTR [ecx]
	fstp	DWORD PTR $T71577[ebp]
	lea	edx, DWORD PTR $T71574[ebp]
	push	edx
	lea	eax, DWORD PTR $T71575[ebp]
	push	eax
	lea	ecx, DWORD PTR $T71576[ebp]
	push	ecx
	lea	edx, DWORD PTR $T71577[ebp]
	push	edx
	mov	ecx, DWORD PTR ___$ReturnUdt$[ebp]
	call	??0?$tvec4@M@detail@glm@@QAE@ABM000@Z	; glm::detail::tvec4<float>::tvec4<float>
	mov	eax, DWORD PTR ___$ReturnUdt$[ebp]

; 898  : 	}

	pop	edi
	pop	esi
	pop	ebx
	add	esp, 240				; 000000f0H
	cmp	ebp, esp
	call	__RTC_CheckEsp
	mov	esp, ebp
	pop	ebp
	ret	0
??$?DM@detail@glm@@YA?AU?$tvec4@M@01@ABU201@ABM@Z ENDP	; glm::detail::operator*<float>
; Function compile flags: /Odtp /RTCsu /ZI
; File c:\opengl\glm-0.9.3.1\glm\core\type_mat4x4.inl
_TEXT	ENDS
;	COMDAT ??0?$tmat4x4@M@detail@glm@@QAE@ABU012@@Z
_TEXT	SEGMENT
_this$ = -8						; size = 4
_m$ = 8							; size = 4
??0?$tmat4x4@M@detail@glm@@QAE@ABU012@@Z PROC		; glm::detail::tmat4x4<float>::tmat4x4<float>, COMDAT
; _this$ = ecx

; 94   :     {

	push	ebp
	mov	ebp, esp
	sub	esp, 204				; 000000ccH
	push	ebx
	push	esi
	push	edi
	push	ecx
	lea	edi, DWORD PTR [ebp-204]
	mov	ecx, 51					; 00000033H
	mov	eax, -858993460				; ccccccccH
	rep stosd
	pop	ecx
	mov	DWORD PTR _this$[ebp], ecx
	push	OFFSET ??0?$tvec4@M@detail@glm@@QAE@XZ	; glm::detail::tvec4<float>::tvec4<float>
	push	4
	push	16					; 00000010H
	mov	eax, DWORD PTR _this$[ebp]
	push	eax
	call	??_H@YGXPAXIHP6EPAX0@Z@Z

; 95   :         this->value[0] = m.value[0];

	mov	eax, DWORD PTR _m$[ebp]
	push	eax
	mov	ecx, DWORD PTR _this$[ebp]
	call	??4?$tvec4@M@detail@glm@@QAEAAU012@ABU012@@Z ; glm::detail::tvec4<float>::operator=

; 96   :         this->value[1] = m.value[1];

	mov	eax, DWORD PTR _m$[ebp]
	add	eax, 16					; 00000010H
	push	eax
	mov	ecx, DWORD PTR _this$[ebp]
	add	ecx, 16					; 00000010H
	call	??4?$tvec4@M@detail@glm@@QAEAAU012@ABU012@@Z ; glm::detail::tvec4<float>::operator=

; 97   :         this->value[2] = m.value[2];

	mov	eax, DWORD PTR _m$[ebp]
	add	eax, 32					; 00000020H
	push	eax
	mov	ecx, DWORD PTR _this$[ebp]
	add	ecx, 32					; 00000020H
	call	??4?$tvec4@M@detail@glm@@QAEAAU012@ABU012@@Z ; glm::detail::tvec4<float>::operator=

; 98   :         this->value[3] = m.value[3];

	mov	eax, DWORD PTR _m$[ebp]
	add	eax, 48					; 00000030H
	push	eax
	mov	ecx, DWORD PTR _this$[ebp]
	add	ecx, 48					; 00000030H
	call	??4?$tvec4@M@detail@glm@@QAEAAU012@ABU012@@Z ; glm::detail::tvec4<float>::operator=

; 99   :     }

	mov	eax, DWORD PTR _this$[ebp]
	pop	edi
	pop	esi
	pop	ebx
	add	esp, 204				; 000000ccH
	cmp	ebp, esp
	call	__RTC_CheckEsp
	mov	esp, ebp
	pop	ebp
	ret	4
??0?$tmat4x4@M@detail@glm@@QAE@ABU012@@Z ENDP		; glm::detail::tmat4x4<float>::tmat4x4<float>
; Function compile flags: /Odtp /RTCsu /ZI
; File c:\opengl\glm-0.9.3.1\glm\core\type_vec3.inl
_TEXT	ENDS
;	COMDAT ??$?0NMN@?$tvec3@M@detail@glm@@QAE@ABNABM0@Z
_TEXT	SEGMENT
_this$ = -8						; size = 4
_x$ = 8							; size = 4
_y$ = 12						; size = 4
_z$ = 16						; size = 4
??$?0NMN@?$tvec3@M@detail@glm@@QAE@ABNABM0@Z PROC	; glm::detail::tvec3<float>::tvec3<float><double,float,double>, COMDAT
; _this$ = ecx

; 177  : 	{}

	push	ebp
	mov	ebp, esp
	sub	esp, 204				; 000000ccH
	push	ebx
	push	esi
	push	edi
	push	ecx
	lea	edi, DWORD PTR [ebp-204]
	mov	ecx, 51					; 00000033H
	mov	eax, -858993460				; ccccccccH
	rep stosd
	pop	ecx
	mov	DWORD PTR _this$[ebp], ecx
	mov	eax, DWORD PTR _x$[ebp]
	fld	QWORD PTR [eax]
	mov	ecx, DWORD PTR _this$[ebp]
	fstp	DWORD PTR [ecx]
	mov	eax, DWORD PTR _this$[ebp]
	mov	ecx, DWORD PTR _y$[ebp]
	fld	DWORD PTR [ecx]
	fstp	DWORD PTR [eax+4]
	mov	eax, DWORD PTR _z$[ebp]
	fld	QWORD PTR [eax]
	mov	ecx, DWORD PTR _this$[ebp]
	fstp	DWORD PTR [ecx+8]
	mov	eax, DWORD PTR _this$[ebp]
	pop	edi
	pop	esi
	pop	ebx
	mov	esp, ebp
	pop	ebp
	ret	12					; 0000000cH
??$?0NMN@?$tvec3@M@detail@glm@@QAE@ABNABM0@Z ENDP	; glm::detail::tvec3<float>::tvec3<float><double,float,double>
; Function compile flags: /Odtp /RTCsu /ZI
; File c:\opengl\glm-0.9.3.1\glm\core\type_vec4.inl
_TEXT	ENDS
;	COMDAT ??$?0MM@?$tvec4@M@detail@glm@@QAE@ABU?$tvec3@M@12@ABM@Z
_TEXT	SEGMENT
_this$ = -8						; size = 4
_v$ = 8							; size = 4
_s$ = 12						; size = 4
??$?0MM@?$tvec4@M@detail@glm@@QAE@ABU?$tvec3@M@12@ABM@Z PROC ; glm::detail::tvec4<float>::tvec4<float><float,float>, COMDAT
; _this$ = ecx

; 327  : 	{}

	push	ebp
	mov	ebp, esp
	sub	esp, 204				; 000000ccH
	push	ebx
	push	esi
	push	edi
	push	ecx
	lea	edi, DWORD PTR [ebp-204]
	mov	ecx, 51					; 00000033H
	mov	eax, -858993460				; ccccccccH
	rep stosd
	pop	ecx
	mov	DWORD PTR _this$[ebp], ecx
	mov	eax, DWORD PTR _this$[ebp]
	mov	ecx, DWORD PTR _v$[ebp]
	fld	DWORD PTR [ecx]
	fstp	DWORD PTR [eax]
	mov	eax, DWORD PTR _this$[ebp]
	mov	ecx, DWORD PTR _v$[ebp]
	fld	DWORD PTR [ecx+4]
	fstp	DWORD PTR [eax+4]
	mov	eax, DWORD PTR _this$[ebp]
	mov	ecx, DWORD PTR _v$[ebp]
	fld	DWORD PTR [ecx+8]
	fstp	DWORD PTR [eax+8]
	mov	eax, DWORD PTR _this$[ebp]
	mov	ecx, DWORD PTR _s$[ebp]
	fld	DWORD PTR [ecx]
	fstp	DWORD PTR [eax+12]
	mov	eax, DWORD PTR _this$[ebp]
	pop	edi
	pop	esi
	pop	ebx
	mov	esp, ebp
	pop	ebp
	ret	8
??$?0MM@?$tvec4@M@detail@glm@@QAE@ABU?$tvec3@M@12@ABM@Z ENDP ; glm::detail::tvec4<float>::tvec4<float><float,float>
; Function compile flags: /Odtp /RTCsu /ZI
; File c:\opengl\glm-0.9.3.1\glm\core\type_mat4x4.inl
_TEXT	ENDS
;	COMDAT ??$?DM@detail@glm@@YA?AU?$tvec4@M@01@ABU?$tmat4x4@M@01@ABU201@@Z
_TEXT	SEGMENT
tv352 = -336						; size = 8
tv350 = -328						; size = 8
tv348 = -320						; size = 8
tv346 = -312						; size = 8
tv344 = -304						; size = 8
tv342 = -296						; size = 8
tv340 = -288						; size = 8
tv338 = -280						; size = 8
tv336 = -272						; size = 8
tv334 = -264						; size = 8
tv332 = -256						; size = 8
tv330 = -248						; size = 8
$T71586 = -236						; size = 4
$T71587 = -224						; size = 4
$T71588 = -212						; size = 4
$T71589 = -200						; size = 4
___$ReturnUdt$ = 8					; size = 4
_m$ = 12						; size = 4
_v$ = 16						; size = 4
??$?DM@detail@glm@@YA?AU?$tvec4@M@01@ABU?$tmat4x4@M@01@ABU201@@Z PROC ; glm::detail::operator*<float>, COMDAT

; 694  :     {

	push	ebp
	mov	ebp, esp
	sub	esp, 336				; 00000150H
	push	ebx
	push	esi
	push	edi
	lea	edi, DWORD PTR [ebp-336]
	mov	ecx, 84					; 00000054H
	mov	eax, -858993460				; ccccccccH
	rep stosd

; 695  :         return typename tmat4x4<T>::col_type(
; 696  :             m[0][0] * v.x + m[1][0] * v.y + m[2][0] * v.z + m[3][0] * v.w,
; 697  :             m[0][1] * v.x + m[1][1] * v.y + m[2][1] * v.z + m[3][1] * v.w,
; 698  :             m[0][2] * v.x + m[1][2] * v.y + m[2][2] * v.z + m[3][2] * v.w,
; 699  :             m[0][3] * v.x + m[1][3] * v.y + m[2][3] * v.z + m[3][3] * v.w);

	push	3
	push	0
	mov	ecx, DWORD PTR _m$[ebp]
	call	??A?$tmat4x4@M@detail@glm@@QBEABU?$tvec4@M@12@I@Z ; glm::detail::tmat4x4<float>::operator[]
	mov	ecx, eax
	call	??A?$tvec4@M@detail@glm@@QBEABMI@Z	; glm::detail::tvec4<float>::operator[]
	fld	DWORD PTR [eax]
	mov	eax, DWORD PTR _v$[ebp]
	fmul	DWORD PTR [eax]
	push	3
	push	1
	mov	ecx, DWORD PTR _m$[ebp]
	fstp	QWORD PTR tv330[ebp]
	call	??A?$tmat4x4@M@detail@glm@@QBEABU?$tvec4@M@12@I@Z ; glm::detail::tmat4x4<float>::operator[]
	mov	ecx, eax
	call	??A?$tvec4@M@detail@glm@@QBEABMI@Z	; glm::detail::tvec4<float>::operator[]
	fld	DWORD PTR [eax]
	mov	ecx, DWORD PTR _v$[ebp]
	fmul	DWORD PTR [ecx+4]
	fadd	QWORD PTR tv330[ebp]
	push	3
	push	2
	mov	ecx, DWORD PTR _m$[ebp]
	fstp	QWORD PTR tv332[ebp]
	call	??A?$tmat4x4@M@detail@glm@@QBEABU?$tvec4@M@12@I@Z ; glm::detail::tmat4x4<float>::operator[]
	mov	ecx, eax
	call	??A?$tvec4@M@detail@glm@@QBEABMI@Z	; glm::detail::tvec4<float>::operator[]
	fld	DWORD PTR [eax]
	mov	edx, DWORD PTR _v$[ebp]
	fmul	DWORD PTR [edx+8]
	fadd	QWORD PTR tv332[ebp]
	push	3
	push	3
	mov	ecx, DWORD PTR _m$[ebp]
	fstp	QWORD PTR tv334[ebp]
	call	??A?$tmat4x4@M@detail@glm@@QBEABU?$tvec4@M@12@I@Z ; glm::detail::tmat4x4<float>::operator[]
	mov	ecx, eax
	call	??A?$tvec4@M@detail@glm@@QBEABMI@Z	; glm::detail::tvec4<float>::operator[]
	fld	DWORD PTR [eax]
	mov	eax, DWORD PTR _v$[ebp]
	fmul	DWORD PTR [eax+12]
	fadd	QWORD PTR tv334[ebp]
	fstp	DWORD PTR $T71586[ebp]
	push	2
	push	0
	mov	ecx, DWORD PTR _m$[ebp]
	call	??A?$tmat4x4@M@detail@glm@@QBEABU?$tvec4@M@12@I@Z ; glm::detail::tmat4x4<float>::operator[]
	mov	ecx, eax
	call	??A?$tvec4@M@detail@glm@@QBEABMI@Z	; glm::detail::tvec4<float>::operator[]
	fld	DWORD PTR [eax]
	mov	ecx, DWORD PTR _v$[ebp]
	fmul	DWORD PTR [ecx]
	push	2
	push	1
	mov	ecx, DWORD PTR _m$[ebp]
	fstp	QWORD PTR tv336[ebp]
	call	??A?$tmat4x4@M@detail@glm@@QBEABU?$tvec4@M@12@I@Z ; glm::detail::tmat4x4<float>::operator[]
	mov	ecx, eax
	call	??A?$tvec4@M@detail@glm@@QBEABMI@Z	; glm::detail::tvec4<float>::operator[]
	fld	DWORD PTR [eax]
	mov	edx, DWORD PTR _v$[ebp]
	fmul	DWORD PTR [edx+4]
	fadd	QWORD PTR tv336[ebp]
	push	2
	push	2
	mov	ecx, DWORD PTR _m$[ebp]
	fstp	QWORD PTR tv338[ebp]
	call	??A?$tmat4x4@M@detail@glm@@QBEABU?$tvec4@M@12@I@Z ; glm::detail::tmat4x4<float>::operator[]
	mov	ecx, eax
	call	??A?$tvec4@M@detail@glm@@QBEABMI@Z	; glm::detail::tvec4<float>::operator[]
	fld	DWORD PTR [eax]
	mov	eax, DWORD PTR _v$[ebp]
	fmul	DWORD PTR [eax+8]
	fadd	QWORD PTR tv338[ebp]
	push	2
	push	3
	mov	ecx, DWORD PTR _m$[ebp]
	fstp	QWORD PTR tv340[ebp]
	call	??A?$tmat4x4@M@detail@glm@@QBEABU?$tvec4@M@12@I@Z ; glm::detail::tmat4x4<float>::operator[]
	mov	ecx, eax
	call	??A?$tvec4@M@detail@glm@@QBEABMI@Z	; glm::detail::tvec4<float>::operator[]
	fld	DWORD PTR [eax]
	mov	ecx, DWORD PTR _v$[ebp]
	fmul	DWORD PTR [ecx+12]
	fadd	QWORD PTR tv340[ebp]
	fstp	DWORD PTR $T71587[ebp]
	push	1
	push	0
	mov	ecx, DWORD PTR _m$[ebp]
	call	??A?$tmat4x4@M@detail@glm@@QBEABU?$tvec4@M@12@I@Z ; glm::detail::tmat4x4<float>::operator[]
	mov	ecx, eax
	call	??A?$tvec4@M@detail@glm@@QBEABMI@Z	; glm::detail::tvec4<float>::operator[]
	fld	DWORD PTR [eax]
	mov	edx, DWORD PTR _v$[ebp]
	fmul	DWORD PTR [edx]
	push	1
	push	1
	mov	ecx, DWORD PTR _m$[ebp]
	fstp	QWORD PTR tv342[ebp]
	call	??A?$tmat4x4@M@detail@glm@@QBEABU?$tvec4@M@12@I@Z ; glm::detail::tmat4x4<float>::operator[]
	mov	ecx, eax
	call	??A?$tvec4@M@detail@glm@@QBEABMI@Z	; glm::detail::tvec4<float>::operator[]
	fld	DWORD PTR [eax]
	mov	eax, DWORD PTR _v$[ebp]
	fmul	DWORD PTR [eax+4]
	fadd	QWORD PTR tv342[ebp]
	push	1
	push	2
	mov	ecx, DWORD PTR _m$[ebp]
	fstp	QWORD PTR tv344[ebp]
	call	??A?$tmat4x4@M@detail@glm@@QBEABU?$tvec4@M@12@I@Z ; glm::detail::tmat4x4<float>::operator[]
	mov	ecx, eax
	call	??A?$tvec4@M@detail@glm@@QBEABMI@Z	; glm::detail::tvec4<float>::operator[]
	fld	DWORD PTR [eax]
	mov	ecx, DWORD PTR _v$[ebp]
	fmul	DWORD PTR [ecx+8]
	fadd	QWORD PTR tv344[ebp]
	push	1
	push	3
	mov	ecx, DWORD PTR _m$[ebp]
	fstp	QWORD PTR tv346[ebp]
	call	??A?$tmat4x4@M@detail@glm@@QBEABU?$tvec4@M@12@I@Z ; glm::detail::tmat4x4<float>::operator[]
	mov	ecx, eax
	call	??A?$tvec4@M@detail@glm@@QBEABMI@Z	; glm::detail::tvec4<float>::operator[]
	fld	DWORD PTR [eax]
	mov	edx, DWORD PTR _v$[ebp]
	fmul	DWORD PTR [edx+12]
	fadd	QWORD PTR tv346[ebp]
	fstp	DWORD PTR $T71588[ebp]
	push	0
	push	0
	mov	ecx, DWORD PTR _m$[ebp]
	call	??A?$tmat4x4@M@detail@glm@@QBEABU?$tvec4@M@12@I@Z ; glm::detail::tmat4x4<float>::operator[]
	mov	ecx, eax
	call	??A?$tvec4@M@detail@glm@@QBEABMI@Z	; glm::detail::tvec4<float>::operator[]
	fld	DWORD PTR [eax]
	mov	eax, DWORD PTR _v$[ebp]
	fmul	DWORD PTR [eax]
	push	0
	push	1
	mov	ecx, DWORD PTR _m$[ebp]
	fstp	QWORD PTR tv348[ebp]
	call	??A?$tmat4x4@M@detail@glm@@QBEABU?$tvec4@M@12@I@Z ; glm::detail::tmat4x4<float>::operator[]
	mov	ecx, eax
	call	??A?$tvec4@M@detail@glm@@QBEABMI@Z	; glm::detail::tvec4<float>::operator[]
	fld	DWORD PTR [eax]
	mov	ecx, DWORD PTR _v$[ebp]
	fmul	DWORD PTR [ecx+4]
	fadd	QWORD PTR tv348[ebp]
	push	0
	push	2
	mov	ecx, DWORD PTR _m$[ebp]
	fstp	QWORD PTR tv350[ebp]
	call	??A?$tmat4x4@M@detail@glm@@QBEABU?$tvec4@M@12@I@Z ; glm::detail::tmat4x4<float>::operator[]
	mov	ecx, eax
	call	??A?$tvec4@M@detail@glm@@QBEABMI@Z	; glm::detail::tvec4<float>::operator[]
	fld	DWORD PTR [eax]
	mov	edx, DWORD PTR _v$[ebp]
	fmul	DWORD PTR [edx+8]
	fadd	QWORD PTR tv350[ebp]
	push	0
	push	3
	mov	ecx, DWORD PTR _m$[ebp]
	fstp	QWORD PTR tv352[ebp]
	call	??A?$tmat4x4@M@detail@glm@@QBEABU?$tvec4@M@12@I@Z ; glm::detail::tmat4x4<float>::operator[]
	mov	ecx, eax
	call	??A?$tvec4@M@detail@glm@@QBEABMI@Z	; glm::detail::tvec4<float>::operator[]
	fld	DWORD PTR [eax]
	mov	eax, DWORD PTR _v$[ebp]
	fmul	DWORD PTR [eax+12]
	fadd	QWORD PTR tv352[ebp]
	fstp	DWORD PTR $T71589[ebp]
	lea	ecx, DWORD PTR $T71586[ebp]
	push	ecx
	lea	edx, DWORD PTR $T71587[ebp]
	push	edx
	lea	eax, DWORD PTR $T71588[ebp]
	push	eax
	lea	ecx, DWORD PTR $T71589[ebp]
	push	ecx
	mov	ecx, DWORD PTR ___$ReturnUdt$[ebp]
	call	??0?$tvec4@M@detail@glm@@QAE@ABM000@Z	; glm::detail::tvec4<float>::tvec4<float>
	mov	eax, DWORD PTR ___$ReturnUdt$[ebp]

; 700  :     }

	pop	edi
	pop	esi
	pop	ebx
	add	esp, 336				; 00000150H
	cmp	ebp, esp
	call	__RTC_CheckEsp
	mov	esp, ebp
	pop	ebp
	ret	0
??$?DM@detail@glm@@YA?AU?$tvec4@M@01@ABU?$tmat4x4@M@01@ABU201@@Z ENDP ; glm::detail::operator*<float>
_TEXT	ENDS
PUBLIC	__real@bf800000
PUBLIC	??$tan@M@glm@@YAMABM@Z				; glm::tan<float>
PUBLIC	??$radians@M@glm@@YAMABM@Z			; glm::radians<float>
PUBLIC	__real@4000000000000000
PUBLIC	__$ArrayPad$
;	COMDAT __real@bf800000
; File c:\opengl\glm-0.9.3.1\glm\gtc\matrix_transform.inl
CONST	SEGMENT
__real@bf800000 DD 0bf800000r			; -1
CONST	ENDS
;	COMDAT __real@4000000000000000
CONST	SEGMENT
__real@4000000000000000 DQ 04000000000000000r	; 2
; Function compile flags: /Odtp /RTCsu /ZI
CONST	ENDS
;	COMDAT ??$perspective@M@glm@@YA?AU?$tmat4x4@M@detail@0@ABM000@Z
_TEXT	SEGMENT
tv259 = -372						; size = 8
tv257 = -372						; size = 4
tv254 = -372						; size = 8
tv251 = -372						; size = 8
tv233 = -368						; size = 4
$T71593 = -360						; size = 4
$T71594 = -348						; size = 4
$T71595 = -336						; size = 4
_Result$ = -132						; size = 64
_top$ = -60						; size = 4
_bottom$ = -48						; size = 4
_right$ = -36						; size = 4
_left$ = -24						; size = 4
_range$ = -12						; size = 4
__$ArrayPad$ = -4					; size = 4
___$ReturnUdt$ = 8					; size = 4
_fovy$ = 12						; size = 4
_aspect$ = 16						; size = 4
_zNear$ = 20						; size = 4
_zFar$ = 24						; size = 4
??$perspective@M@glm@@YA?AU?$tmat4x4@M@detail@0@ABM000@Z PROC ; glm::perspective<float>, COMDAT

; 230  : 	{

	push	ebp
	mov	ebp, esp
	sub	esp, 372				; 00000174H
	push	ebx
	push	esi
	push	edi
	lea	edi, DWORD PTR [ebp-372]
	mov	ecx, 93					; 0000005dH
	mov	eax, -858993460				; ccccccccH
	rep stosd
	mov	eax, DWORD PTR ___security_cookie
	xor	eax, ebp
	mov	DWORD PTR __$ArrayPad$[ebp], eax

; 231  : 		valType range = tan(radians(fovy / valType(2))) * zNear;	

	mov	eax, DWORD PTR _fovy$[ebp]
	fld	DWORD PTR [eax]
	fdiv	QWORD PTR __real@4000000000000000
	fstp	DWORD PTR $T71594[ebp]
	lea	ecx, DWORD PTR $T71594[ebp]
	push	ecx
	call	??$radians@M@glm@@YAMABM@Z		; glm::radians<float>
	add	esp, 4
	fstp	DWORD PTR $T71593[ebp]
	lea	edx, DWORD PTR $T71593[ebp]
	push	edx
	call	??$tan@M@glm@@YAMABM@Z			; glm::tan<float>
	add	esp, 4
	mov	eax, DWORD PTR _zNear$[ebp]
	fmul	DWORD PTR [eax]
	fstp	DWORD PTR _range$[ebp]

; 232  : 		valType left = -range * aspect;

	fld	DWORD PTR _range$[ebp]
	fchs
	mov	eax, DWORD PTR _aspect$[ebp]
	fmul	DWORD PTR [eax]
	fstp	DWORD PTR _left$[ebp]

; 233  : 		valType right = range * aspect;

	fld	DWORD PTR _range$[ebp]
	mov	eax, DWORD PTR _aspect$[ebp]
	fmul	DWORD PTR [eax]
	fstp	DWORD PTR _right$[ebp]

; 234  : 		valType bottom = -range;

	fld	DWORD PTR _range$[ebp]
	fchs
	fstp	DWORD PTR _bottom$[ebp]

; 235  : 		valType top = range;

	fld	DWORD PTR _range$[ebp]
	fstp	DWORD PTR _top$[ebp]

; 236  : 
; 237  : 		detail::tmat4x4<valType> Result(valType(0));

	fldz
	fstp	DWORD PTR $T71595[ebp]
	lea	eax, DWORD PTR $T71595[ebp]
	push	eax
	lea	ecx, DWORD PTR _Result$[ebp]
	call	??0?$tmat4x4@M@detail@glm@@QAE@ABM@Z	; glm::detail::tmat4x4<float>::tmat4x4<float>

; 238  : 		Result[0][0] = (valType(2) * zNear) / (right - left);

	mov	eax, DWORD PTR _zNear$[ebp]
	fld	DWORD PTR [eax]
	fmul	QWORD PTR __real@4000000000000000
	fld	DWORD PTR _right$[ebp]
	fsub	DWORD PTR _left$[ebp]
	fdivp	ST(1), ST(0)
	push	0
	push	0
	lea	ecx, DWORD PTR _Result$[ebp]
	fstp	QWORD PTR tv251[ebp]
	call	??A?$tmat4x4@M@detail@glm@@QAEAAU?$tvec4@M@12@I@Z ; glm::detail::tmat4x4<float>::operator[]
	mov	ecx, eax
	call	??A?$tvec4@M@detail@glm@@QAEAAMI@Z	; glm::detail::tvec4<float>::operator[]
	fld	QWORD PTR tv251[ebp]
	fstp	DWORD PTR [eax]

; 239  : 		Result[1][1] = (valType(2) * zNear) / (top - bottom);

	mov	eax, DWORD PTR _zNear$[ebp]
	fld	DWORD PTR [eax]
	fmul	QWORD PTR __real@4000000000000000
	fld	DWORD PTR _top$[ebp]
	fsub	DWORD PTR _bottom$[ebp]
	fdivp	ST(1), ST(0)
	push	1
	push	1
	lea	ecx, DWORD PTR _Result$[ebp]
	fstp	QWORD PTR tv254[ebp]
	call	??A?$tmat4x4@M@detail@glm@@QAEAAU?$tvec4@M@12@I@Z ; glm::detail::tmat4x4<float>::operator[]
	mov	ecx, eax
	call	??A?$tvec4@M@detail@glm@@QAEAAMI@Z	; glm::detail::tvec4<float>::operator[]
	fld	QWORD PTR tv254[ebp]
	fstp	DWORD PTR [eax]

; 240  : 		Result[2][2] = - (zFar + zNear) / (zFar - zNear);

	mov	eax, DWORD PTR _zFar$[ebp]
	fld	DWORD PTR [eax]
	mov	ecx, DWORD PTR _zNear$[ebp]
	fadd	DWORD PTR [ecx]
	fchs
	mov	edx, DWORD PTR _zFar$[ebp]
	fld	DWORD PTR [edx]
	mov	eax, DWORD PTR _zNear$[ebp]
	fsub	DWORD PTR [eax]
	fdivp	ST(1), ST(0)
	fstp	DWORD PTR tv233[ebp]
	fld	DWORD PTR tv233[ebp]
	push	2
	push	2
	lea	ecx, DWORD PTR _Result$[ebp]
	fstp	DWORD PTR tv257[ebp]
	call	??A?$tmat4x4@M@detail@glm@@QAEAAU?$tvec4@M@12@I@Z ; glm::detail::tmat4x4<float>::operator[]
	mov	ecx, eax
	call	??A?$tvec4@M@detail@glm@@QAEAAMI@Z	; glm::detail::tvec4<float>::operator[]
	fld	DWORD PTR tv257[ebp]
	fstp	DWORD PTR [eax]

; 241  : 		Result[2][3] = - valType(1);

	push	3
	push	2
	lea	ecx, DWORD PTR _Result$[ebp]
	call	??A?$tmat4x4@M@detail@glm@@QAEAAU?$tvec4@M@12@I@Z ; glm::detail::tmat4x4<float>::operator[]
	mov	ecx, eax
	call	??A?$tvec4@M@detail@glm@@QAEAAMI@Z	; glm::detail::tvec4<float>::operator[]
	fld	DWORD PTR __real@bf800000
	fstp	DWORD PTR [eax]

; 242  : 		Result[3][2] = - (valType(2) * zFar * zNear) / (zFar - zNear);

	mov	eax, DWORD PTR _zFar$[ebp]
	fld	DWORD PTR [eax]
	fmul	QWORD PTR __real@4000000000000000
	mov	ecx, DWORD PTR _zNear$[ebp]
	fmul	DWORD PTR [ecx]
	fchs
	mov	edx, DWORD PTR _zFar$[ebp]
	fld	DWORD PTR [edx]
	mov	eax, DWORD PTR _zNear$[ebp]
	fsub	DWORD PTR [eax]
	fdivp	ST(1), ST(0)
	push	2
	push	3
	lea	ecx, DWORD PTR _Result$[ebp]
	fstp	QWORD PTR tv259[ebp]
	call	??A?$tmat4x4@M@detail@glm@@QAEAAU?$tvec4@M@12@I@Z ; glm::detail::tmat4x4<float>::operator[]
	mov	ecx, eax
	call	??A?$tvec4@M@detail@glm@@QAEAAMI@Z	; glm::detail::tvec4<float>::operator[]
	fld	QWORD PTR tv259[ebp]
	fstp	DWORD PTR [eax]

; 243  : 		return Result;

	lea	eax, DWORD PTR _Result$[ebp]
	push	eax
	mov	ecx, DWORD PTR ___$ReturnUdt$[ebp]
	call	??0?$tmat4x4@M@detail@glm@@QAE@ABU012@@Z ; glm::detail::tmat4x4<float>::tmat4x4<float>
	mov	eax, DWORD PTR ___$ReturnUdt$[ebp]

; 244  : 	}

	push	edx
	mov	ecx, ebp
	push	eax
	lea	edx, DWORD PTR $LN5@perspectiv
	call	@_RTC_CheckStackVars@8
	pop	eax
	pop	edx
	pop	edi
	pop	esi
	pop	ebx
	mov	ecx, DWORD PTR __$ArrayPad$[ebp]
	xor	ecx, ebp
	call	@__security_check_cookie@4
	add	esp, 372				; 00000174H
	cmp	ebp, esp
	call	__RTC_CheckEsp
	mov	esp, ebp
	pop	ebp
	ret	0
$LN5@perspectiv:
	DD	1
	DD	$LN4@perspectiv
$LN4@perspectiv:
	DD	-132					; ffffff7cH
	DD	64					; 00000040H
	DD	$LN3@perspectiv
$LN3@perspectiv:
	DB	82					; 00000052H
	DB	101					; 00000065H
	DB	115					; 00000073H
	DB	117					; 00000075H
	DB	108					; 0000006cH
	DB	116					; 00000074H
	DB	0
??$perspective@M@glm@@YA?AU?$tmat4x4@M@detail@0@ABM000@Z ENDP ; glm::perspective<float>
_TEXT	ENDS
PUBLIC	??$_Debug_lt@MM@std@@YA_NABM0PB_WI@Z		; std::_Debug_lt<float,float>
PUBLIC	??_C@_1JA@DBMECOPL@?$AAc?$AA?3?$AA?2?$AAp?$AAr?$AAo?$AAg?$AAr?$AAa?$AAm?$AA?5?$AAf?$AAi?$AAl?$AAe?$AAs?$AA?5?$AA?$CI?$AAx?$AA8?$AA6?$AA?$CJ?$AA?2?$AAm?$AAi?$AAc?$AAr?$AAo?$AAs?$AAo?$AAf?$AAt@ ; `string'
;	COMDAT ??_C@_1JA@DBMECOPL@?$AAc?$AA?3?$AA?2?$AAp?$AAr?$AAo?$AAg?$AAr?$AAa?$AAm?$AA?5?$AAf?$AAi?$AAl?$AAe?$AAs?$AA?5?$AA?$CI?$AAx?$AA8?$AA6?$AA?$CJ?$AA?2?$AAm?$AAi?$AAc?$AAr?$AAo?$AAs?$AAo?$AAf?$AAt@
; File c:\program files (x86)\microsoft visual studio 10.0\vc\include\xutility
CONST	SEGMENT
??_C@_1JA@DBMECOPL@?$AAc?$AA?3?$AA?2?$AAp?$AAr?$AAo?$AAg?$AAr?$AAa?$AAm?$AA?5?$AAf?$AAi?$AAl?$AAe?$AAs?$AA?5?$AA?$CI?$AAx?$AA8?$AA6?$AA?$CJ?$AA?2?$AAm?$AAi?$AAc?$AAr?$AAo?$AAs?$AAo?$AAf?$AAt@ DB 'c'
	DB	00H, ':', 00H, '\', 00H, 'p', 00H, 'r', 00H, 'o', 00H, 'g', 00H
	DB	'r', 00H, 'a', 00H, 'm', 00H, ' ', 00H, 'f', 00H, 'i', 00H, 'l'
	DB	00H, 'e', 00H, 's', 00H, ' ', 00H, '(', 00H, 'x', 00H, '8', 00H
	DB	'6', 00H, ')', 00H, '\', 00H, 'm', 00H, 'i', 00H, 'c', 00H, 'r'
	DB	00H, 'o', 00H, 's', 00H, 'o', 00H, 'f', 00H, 't', 00H, ' ', 00H
	DB	'v', 00H, 'i', 00H, 's', 00H, 'u', 00H, 'a', 00H, 'l', 00H, ' '
	DB	00H, 's', 00H, 't', 00H, 'u', 00H, 'd', 00H, 'i', 00H, 'o', 00H
	DB	' ', 00H, '1', 00H, '0', 00H, '.', 00H, '0', 00H, '\', 00H, 'v'
	DB	00H, 'c', 00H, '\', 00H, 'i', 00H, 'n', 00H, 'c', 00H, 'l', 00H
	DB	'u', 00H, 'd', 00H, 'e', 00H, '\', 00H, 'x', 00H, 'u', 00H, 't'
	DB	00H, 'i', 00H, 'l', 00H, 'i', 00H, 't', 00H, 'y', 00H, 00H, 00H ; `string'
; Function compile flags: /Odtp /RTCsu /ZI
CONST	ENDS
;	COMDAT ??$max@M@std@@YAABMABM0@Z
_TEXT	SEGMENT
tv71 = -208						; size = 4
$T71605 = -200						; size = 4
__Left$ = 8						; size = 4
__Right$ = 12						; size = 4
??$max@M@std@@YAABMABM0@Z PROC				; std::max<float>, COMDAT

; 2079 : 	{	// return larger of _Left and _Right

	push	ebp
	mov	ebp, esp
	sub	esp, 208				; 000000d0H
	push	ebx
	push	esi
	push	edi
	lea	edi, DWORD PTR [ebp-208]
	mov	ecx, 52					; 00000034H
	mov	eax, -858993460				; ccccccccH
	rep stosd

; 2080 : 	return (_DEBUG_LT(_Left, _Right) ? _Right : _Left);

	push	2080					; 00000820H
	push	OFFSET ??_C@_1JA@DBMECOPL@?$AAc?$AA?3?$AA?2?$AAp?$AAr?$AAo?$AAg?$AAr?$AAa?$AAm?$AA?5?$AAf?$AAi?$AAl?$AAe?$AAs?$AA?5?$AA?$CI?$AAx?$AA8?$AA6?$AA?$CJ?$AA?2?$AAm?$AAi?$AAc?$AAr?$AAo?$AAs?$AAo?$AAf?$AAt@
	mov	eax, DWORD PTR __Right$[ebp]
	push	eax
	mov	ecx, DWORD PTR __Left$[ebp]
	push	ecx
	call	??$_Debug_lt@MM@std@@YA_NABM0PB_WI@Z	; std::_Debug_lt<float,float>
	add	esp, 16					; 00000010H
	movzx	edx, al
	test	edx, edx
	je	SHORT $LN3@max
	mov	eax, DWORD PTR __Right$[ebp]
	mov	DWORD PTR tv71[ebp], eax
	jmp	SHORT $LN4@max
$LN3@max:
	mov	ecx, DWORD PTR __Left$[ebp]
	mov	DWORD PTR tv71[ebp], ecx
$LN4@max:
	mov	edx, DWORD PTR tv71[ebp]
	mov	DWORD PTR $T71605[ebp], edx
	mov	eax, DWORD PTR $T71605[ebp]

; 2081 : 	}

	pop	edi
	pop	esi
	pop	ebx
	add	esp, 208				; 000000d0H
	cmp	ebp, esp
	call	__RTC_CheckEsp
	mov	esp, ebp
	pop	ebp
	ret	0
??$max@M@std@@YAABMABM0@Z ENDP				; std::max<float>
; Function compile flags: /Odtp /RTCsu /ZI
_TEXT	ENDS
;	COMDAT ??$min@M@std@@YAABMABM0@Z
_TEXT	SEGMENT
tv71 = -208						; size = 4
$T71610 = -200						; size = 4
__Left$ = 8						; size = 4
__Right$ = 12						; size = 4
??$min@M@std@@YAABMABM0@Z PROC				; std::min<float>, COMDAT

; 2094 : 	{	// return smaller of _Left and _Right

	push	ebp
	mov	ebp, esp
	sub	esp, 208				; 000000d0H
	push	ebx
	push	esi
	push	edi
	lea	edi, DWORD PTR [ebp-208]
	mov	ecx, 52					; 00000034H
	mov	eax, -858993460				; ccccccccH
	rep stosd

; 2095 : 	return (_DEBUG_LT(_Right, _Left) ? _Right : _Left);

	push	2095					; 0000082fH
	push	OFFSET ??_C@_1JA@DBMECOPL@?$AAc?$AA?3?$AA?2?$AAp?$AAr?$AAo?$AAg?$AAr?$AAa?$AAm?$AA?5?$AAf?$AAi?$AAl?$AAe?$AAs?$AA?5?$AA?$CI?$AAx?$AA8?$AA6?$AA?$CJ?$AA?2?$AAm?$AAi?$AAc?$AAr?$AAo?$AAs?$AAo?$AAf?$AAt@
	mov	eax, DWORD PTR __Left$[ebp]
	push	eax
	mov	ecx, DWORD PTR __Right$[ebp]
	push	ecx
	call	??$_Debug_lt@MM@std@@YA_NABM0PB_WI@Z	; std::_Debug_lt<float,float>
	add	esp, 16					; 00000010H
	movzx	edx, al
	test	edx, edx
	je	SHORT $LN3@min
	mov	eax, DWORD PTR __Right$[ebp]
	mov	DWORD PTR tv71[ebp], eax
	jmp	SHORT $LN4@min
$LN3@min:
	mov	ecx, DWORD PTR __Left$[ebp]
	mov	DWORD PTR tv71[ebp], ecx
$LN4@min:
	mov	edx, DWORD PTR tv71[ebp]
	mov	DWORD PTR $T71610[ebp], edx
	mov	eax, DWORD PTR $T71610[ebp]

; 2096 : 	}

	pop	edi
	pop	esi
	pop	ebx
	add	esp, 208				; 000000d0H
	cmp	ebp, esp
	call	__RTC_CheckEsp
	mov	esp, ebp
	pop	ebp
	ret	0
??$min@M@std@@YAABMABM0@Z ENDP				; std::min<float>
_TEXT	ENDS
PUBLIC	__$ArrayPad$
; Function compile flags: /Odtp /RTCsu /ZI
; File c:\opengl\glm-0.9.3.1\glm\gtx\transform.inl
;	COMDAT ??$translate@M@glm@@YA?AU?$tmat4x4@M@detail@0@ABU?$tvec3@M@20@@Z
_TEXT	SEGMENT
$T68257 = -276						; size = 64
$T71616 = -204						; size = 4
__$ArrayPad$ = -4					; size = 4
___$ReturnUdt$ = 8					; size = 4
_v$ = 12						; size = 4
??$translate@M@glm@@YA?AU?$tmat4x4@M@detail@0@ABU?$tvec3@M@20@@Z PROC ; glm::translate<float>, COMDAT

; 33   :     {

	push	ebp
	mov	ebp, esp
	sub	esp, 280				; 00000118H
	push	ebx
	push	esi
	push	edi
	lea	edi, DWORD PTR [ebp-280]
	mov	ecx, 70					; 00000046H
	mov	eax, -858993460				; ccccccccH
	rep stosd
	mov	eax, DWORD PTR ___security_cookie
	xor	eax, ebp
	mov	DWORD PTR __$ArrayPad$[ebp], eax

; 34   : 		return translate(
; 35   : 			detail::tmat4x4<T>(1.0f), v);

	fld1
	fstp	DWORD PTR $T71616[ebp]
	mov	eax, DWORD PTR _v$[ebp]
	push	eax
	lea	ecx, DWORD PTR $T71616[ebp]
	push	ecx
	lea	ecx, DWORD PTR $T68257[ebp]
	call	??0?$tmat4x4@M@detail@glm@@QAE@ABM@Z	; glm::detail::tmat4x4<float>::tmat4x4<float>
	push	eax
	mov	edx, DWORD PTR ___$ReturnUdt$[ebp]
	push	edx
	call	??$translate@M@glm@@YA?AU?$tmat4x4@M@detail@0@ABU120@ABU?$tvec3@M@20@@Z ; glm::translate<float>
	add	esp, 12					; 0000000cH
	mov	eax, DWORD PTR ___$ReturnUdt$[ebp]

; 36   :     }

	pop	edi
	pop	esi
	pop	ebx
	mov	ecx, DWORD PTR __$ArrayPad$[ebp]
	xor	ecx, ebp
	call	@__security_check_cookie@4
	add	esp, 280				; 00000118H
	cmp	ebp, esp
	call	__RTC_CheckEsp
	mov	esp, ebp
	pop	ebp
	ret	0
??$translate@M@glm@@YA?AU?$tmat4x4@M@detail@0@ABU?$tvec3@M@20@@Z ENDP ; glm::translate<float>
_TEXT	ENDS
PUBLIC	__$ArrayPad$
; Function compile flags: /Odtp /RTCsu /ZI
; File c:\opengl\glm-0.9.3.1\glm\core\type_mat4x4.inl
;	COMDAT ??$?XM@?$tmat4x4@M@detail@glm@@QAEAAU012@ABU012@@Z
_TEXT	SEGMENT
$T68262 = -276						; size = 64
_this$ = -12						; size = 4
__$ArrayPad$ = -4					; size = 4
_m$ = 8							; size = 4
??$?XM@?$tmat4x4@M@detail@glm@@QAEAAU012@ABU012@@Z PROC	; glm::detail::tmat4x4<float>::operator*=<float>, COMDAT
; _this$ = ecx

; 451  :     {

	push	ebp
	mov	ebp, esp
	sub	esp, 280				; 00000118H
	push	ebx
	push	esi
	push	edi
	push	ecx
	lea	edi, DWORD PTR [ebp-280]
	mov	ecx, 70					; 00000046H
	mov	eax, -858993460				; ccccccccH
	rep stosd
	pop	ecx
	mov	eax, DWORD PTR ___security_cookie
	xor	eax, ebp
	mov	DWORD PTR __$ArrayPad$[ebp], eax
	mov	DWORD PTR _this$[ebp], ecx

; 452  :         return (*this = *this * m);

	mov	eax, DWORD PTR _m$[ebp]
	push	eax
	mov	ecx, DWORD PTR _this$[ebp]
	push	ecx
	lea	edx, DWORD PTR $T68262[ebp]
	push	edx
	call	??$?DM@detail@glm@@YA?AU?$tmat4x4@M@01@ABU201@0@Z ; glm::detail::operator*<float>
	add	esp, 12					; 0000000cH
	push	eax
	mov	ecx, DWORD PTR _this$[ebp]
	call	??4?$tmat4x4@M@detail@glm@@QAEAAU012@ABU012@@Z ; glm::detail::tmat4x4<float>::operator=

; 453  :     }

	pop	edi
	pop	esi
	pop	ebx
	mov	ecx, DWORD PTR __$ArrayPad$[ebp]
	xor	ecx, ebp
	call	@__security_check_cookie@4
	add	esp, 280				; 00000118H
	cmp	ebp, esp
	call	__RTC_CheckEsp
	mov	esp, ebp
	pop	ebp
	ret	4
??$?XM@?$tmat4x4@M@detail@glm@@QAEAAU012@ABU012@@Z ENDP	; glm::detail::tmat4x4<float>::operator*=<float>
_TEXT	ENDS
PUBLIC	??$rotate@M@glm@@YA?AU?$tmat4x4@M@detail@0@ABU120@ABMABU?$tvec3@M@20@@Z ; glm::rotate<float>
PUBLIC	__$ArrayPad$
; Function compile flags: /Odtp /RTCsu /ZI
; File c:\opengl\glm-0.9.3.1\glm\gtx\transform.inl
;	COMDAT ??$rotate@M@glm@@YA?AU?$tmat4x4@M@detail@0@MABU?$tvec3@M@20@@Z
_TEXT	SEGMENT
$T68266 = -276						; size = 64
$T71623 = -204						; size = 4
__$ArrayPad$ = -4					; size = 4
___$ReturnUdt$ = 8					; size = 4
_angle$ = 12						; size = 4
_v$ = 16						; size = 4
??$rotate@M@glm@@YA?AU?$tmat4x4@M@detail@0@MABU?$tvec3@M@20@@Z PROC ; glm::rotate<float>, COMDAT

; 51   :     {

	push	ebp
	mov	ebp, esp
	sub	esp, 280				; 00000118H
	push	ebx
	push	esi
	push	edi
	lea	edi, DWORD PTR [ebp-280]
	mov	ecx, 70					; 00000046H
	mov	eax, -858993460				; ccccccccH
	rep stosd
	mov	eax, DWORD PTR ___security_cookie
	xor	eax, ebp
	mov	DWORD PTR __$ArrayPad$[ebp], eax

; 52   : 		return rotate(
; 53   : 			detail::tmat4x4<T>(1), angle, v);

	mov	DWORD PTR $T71623[ebp], 1
	mov	eax, DWORD PTR _v$[ebp]
	push	eax
	lea	ecx, DWORD PTR _angle$[ebp]
	push	ecx
	lea	edx, DWORD PTR $T71623[ebp]
	push	edx
	lea	ecx, DWORD PTR $T68266[ebp]
	call	??$?0H@?$tmat4x4@M@detail@glm@@QAE@ABH@Z ; glm::detail::tmat4x4<float>::tmat4x4<float><int>
	push	eax
	mov	eax, DWORD PTR ___$ReturnUdt$[ebp]
	push	eax
	call	??$rotate@M@glm@@YA?AU?$tmat4x4@M@detail@0@ABU120@ABMABU?$tvec3@M@20@@Z ; glm::rotate<float>
	add	esp, 16					; 00000010H
	mov	eax, DWORD PTR ___$ReturnUdt$[ebp]

; 54   :     }

	pop	edi
	pop	esi
	pop	ebx
	mov	ecx, DWORD PTR __$ArrayPad$[ebp]
	xor	ecx, ebp
	call	@__security_check_cookie@4
	add	esp, 280				; 00000118H
	cmp	ebp, esp
	call	__RTC_CheckEsp
	mov	esp, ebp
	pop	ebp
	ret	0
??$rotate@M@glm@@YA?AU?$tmat4x4@M@detail@0@MABU?$tvec3@M@20@@Z ENDP ; glm::rotate<float>
_TEXT	ENDS
PUBLIC	??A?$tvec3@M@detail@glm@@QAEAAMI@Z		; glm::detail::tvec3<float>::operator[]
PUBLIC	??$?DM@detail@glm@@YA?AU?$tvec3@M@01@ABMABU201@@Z ; glm::detail::operator*<float>
PUBLIC	__real@3ff0000000000000
PUBLIC	??$sin@M@glm@@YAMABM@Z				; glm::sin<float>
PUBLIC	??$cos@M@glm@@YAMABM@Z				; glm::cos<float>
PUBLIC	__$ArrayPad$
;	COMDAT __real@3ff0000000000000
; File c:\opengl\glm-0.9.3.1\glm\gtc\matrix_transform.inl
CONST	SEGMENT
__real@3ff0000000000000 DQ 03ff0000000000000r	; 1
; Function compile flags: /Odtp /RTCsu /ZI
CONST	ENDS
;	COMDAT ??$rotate@M@glm@@YA?AU?$tmat4x4@M@detail@0@ABU120@ABMABU?$tvec3@M@20@@Z
_TEXT	SEGMENT
tv650 = -804						; size = 8
tv645 = -804						; size = 8
tv640 = -804						; size = 8
tv632 = -804						; size = 8
tv627 = -804						; size = 8
tv622 = -804						; size = 8
tv653 = -796						; size = 8
tv648 = -796						; size = 8
tv643 = -796						; size = 8
tv638 = -796						; size = 8
tv635 = -796						; size = 8
tv630 = -796						; size = 8
tv625 = -796						; size = 8
tv620 = -796						; size = 8
tv617 = -796						; size = 8
$T71627 = -784						; size = 4
$T71628 = -772						; size = 16
$T71629 = -748						; size = 16
$T71630 = -724						; size = 16
$T71631 = -700						; size = 16
$T71632 = -676						; size = 16
$T71633 = -652						; size = 16
$T71634 = -628						; size = 16
$T71635 = -604						; size = 16
$T71636 = -580						; size = 16
$T71637 = -556						; size = 16
$T71638 = -532						; size = 16
$T71639 = -508						; size = 16
$T71640 = -484						; size = 16
$T71641 = -460						; size = 16
$T71642 = -436						; size = 16
_Result$ = -220						; size = 64
_Rotate$ = -148						; size = 64
_temp$ = -76						; size = 12
_axis$ = -56						; size = 12
_s$ = -36						; size = 4
_c$ = -24						; size = 4
_a$ = -12						; size = 4
__$ArrayPad$ = -4					; size = 4
___$ReturnUdt$ = 8					; size = 4
_m$ = 12						; size = 4
_angle$ = 16						; size = 4
_v$ = 20						; size = 4
??$rotate@M@glm@@YA?AU?$tmat4x4@M@detail@0@ABU120@ABMABU?$tvec3@M@20@@Z PROC ; glm::rotate<float>, COMDAT

; 50   : 	{

	push	ebp
	mov	ebp, esp
	sub	esp, 804				; 00000324H
	push	ebx
	push	esi
	push	edi
	lea	edi, DWORD PTR [ebp-804]
	mov	ecx, 201				; 000000c9H
	mov	eax, -858993460				; ccccccccH
	rep stosd
	mov	eax, DWORD PTR ___security_cookie
	xor	eax, ebp
	mov	DWORD PTR __$ArrayPad$[ebp], eax

; 51   : 		T a = radians(angle);

	mov	eax, DWORD PTR _angle$[ebp]
	push	eax
	call	??$radians@M@glm@@YAMABM@Z		; glm::radians<float>
	add	esp, 4
	fstp	DWORD PTR _a$[ebp]

; 52   : 		T c = cos(a);

	lea	eax, DWORD PTR _a$[ebp]
	push	eax
	call	??$cos@M@glm@@YAMABM@Z			; glm::cos<float>
	add	esp, 4
	fstp	DWORD PTR _c$[ebp]

; 53   : 		T s = sin(a);

	lea	eax, DWORD PTR _a$[ebp]
	push	eax
	call	??$sin@M@glm@@YAMABM@Z			; glm::sin<float>
	add	esp, 4
	fstp	DWORD PTR _s$[ebp]

; 54   : 
; 55   : 		detail::tvec3<T> axis = normalize(v);

	mov	eax, DWORD PTR _v$[ebp]
	push	eax
	lea	ecx, DWORD PTR _axis$[ebp]
	push	ecx
	call	??$normalize@M@glm@@YA?AU?$tvec3@M@detail@0@ABU120@@Z ; glm::normalize<float>
	add	esp, 8

; 56   : 
; 57   : 		detail::tvec3<T> temp = (T(1) - c) * axis;

	fld	DWORD PTR _c$[ebp]
	fld1
	fsubrp	ST(1), ST(0)
	fstp	DWORD PTR $T71627[ebp]
	lea	eax, DWORD PTR _axis$[ebp]
	push	eax
	lea	ecx, DWORD PTR $T71627[ebp]
	push	ecx
	lea	edx, DWORD PTR _temp$[ebp]
	push	edx
	call	??$?DM@detail@glm@@YA?AU?$tvec3@M@01@ABMABU201@@Z ; glm::detail::operator*<float>
	add	esp, 12					; 0000000cH

; 58   : 
; 59   : 		detail::tmat4x4<T> Rotate(detail::tmat4x4<T>::null);

	push	0
	lea	ecx, DWORD PTR _Rotate$[ebp]
	call	??0?$tmat4x4@M@detail@glm@@QAE@W4ctor@012@@Z ; glm::detail::tmat4x4<float>::tmat4x4<float>

; 60   : 		Rotate[0][0] = c + temp[0] * axis[0];

	push	0
	lea	ecx, DWORD PTR _temp$[ebp]
	call	??A?$tvec3@M@detail@glm@@QAEAAMI@Z	; glm::detail::tvec3<float>::operator[]
	mov	esi, eax
	push	0
	lea	ecx, DWORD PTR _axis$[ebp]
	call	??A?$tvec3@M@detail@glm@@QAEAAMI@Z	; glm::detail::tvec3<float>::operator[]
	fld	DWORD PTR [esi]
	fmul	DWORD PTR [eax]
	fadd	DWORD PTR _c$[ebp]
	push	0
	push	0
	lea	ecx, DWORD PTR _Rotate$[ebp]
	fstp	QWORD PTR tv617[ebp]
	call	??A?$tmat4x4@M@detail@glm@@QAEAAU?$tvec4@M@12@I@Z ; glm::detail::tmat4x4<float>::operator[]
	mov	ecx, eax
	call	??A?$tvec4@M@detail@glm@@QAEAAMI@Z	; glm::detail::tvec4<float>::operator[]
	fld	QWORD PTR tv617[ebp]
	fstp	DWORD PTR [eax]

; 61   : 		Rotate[0][1] = 0 + temp[0] * axis[1] + s * axis[2];

	push	0
	lea	ecx, DWORD PTR _temp$[ebp]
	call	??A?$tvec3@M@detail@glm@@QAEAAMI@Z	; glm::detail::tvec3<float>::operator[]
	mov	esi, eax
	push	1
	lea	ecx, DWORD PTR _axis$[ebp]
	call	??A?$tvec3@M@detail@glm@@QAEAAMI@Z	; glm::detail::tvec3<float>::operator[]
	fld	DWORD PTR [esi]
	fmul	DWORD PTR [eax]
	fldz
	faddp	ST(1), ST(0)
	push	2
	lea	ecx, DWORD PTR _axis$[ebp]
	fstp	QWORD PTR tv620[ebp]
	call	??A?$tvec3@M@detail@glm@@QAEAAMI@Z	; glm::detail::tvec3<float>::operator[]
	fld	DWORD PTR _s$[ebp]
	fmul	DWORD PTR [eax]
	fadd	QWORD PTR tv620[ebp]
	push	1
	push	0
	lea	ecx, DWORD PTR _Rotate$[ebp]
	fstp	QWORD PTR tv622[ebp]
	call	??A?$tmat4x4@M@detail@glm@@QAEAAU?$tvec4@M@12@I@Z ; glm::detail::tmat4x4<float>::operator[]
	mov	ecx, eax
	call	??A?$tvec4@M@detail@glm@@QAEAAMI@Z	; glm::detail::tvec4<float>::operator[]
	fld	QWORD PTR tv622[ebp]
	fstp	DWORD PTR [eax]

; 62   : 		Rotate[0][2] = 0 + temp[0] * axis[2] - s * axis[1];

	push	0
	lea	ecx, DWORD PTR _temp$[ebp]
	call	??A?$tvec3@M@detail@glm@@QAEAAMI@Z	; glm::detail::tvec3<float>::operator[]
	mov	esi, eax
	push	2
	lea	ecx, DWORD PTR _axis$[ebp]
	call	??A?$tvec3@M@detail@glm@@QAEAAMI@Z	; glm::detail::tvec3<float>::operator[]
	fld	DWORD PTR [esi]
	fmul	DWORD PTR [eax]
	fldz
	faddp	ST(1), ST(0)
	push	1
	lea	ecx, DWORD PTR _axis$[ebp]
	fstp	QWORD PTR tv625[ebp]
	call	??A?$tvec3@M@detail@glm@@QAEAAMI@Z	; glm::detail::tvec3<float>::operator[]
	fld	DWORD PTR _s$[ebp]
	fmul	DWORD PTR [eax]
	fsubr	QWORD PTR tv625[ebp]
	push	2
	push	0
	lea	ecx, DWORD PTR _Rotate$[ebp]
	fstp	QWORD PTR tv627[ebp]
	call	??A?$tmat4x4@M@detail@glm@@QAEAAU?$tvec4@M@12@I@Z ; glm::detail::tmat4x4<float>::operator[]
	mov	ecx, eax
	call	??A?$tvec4@M@detail@glm@@QAEAAMI@Z	; glm::detail::tvec4<float>::operator[]
	fld	QWORD PTR tv627[ebp]
	fstp	DWORD PTR [eax]

; 63   : 
; 64   : 		Rotate[1][0] = 0 + temp[1] * axis[0] - s * axis[2];

	push	1
	lea	ecx, DWORD PTR _temp$[ebp]
	call	??A?$tvec3@M@detail@glm@@QAEAAMI@Z	; glm::detail::tvec3<float>::operator[]
	mov	esi, eax
	push	0
	lea	ecx, DWORD PTR _axis$[ebp]
	call	??A?$tvec3@M@detail@glm@@QAEAAMI@Z	; glm::detail::tvec3<float>::operator[]
	fld	DWORD PTR [esi]
	fmul	DWORD PTR [eax]
	fldz
	faddp	ST(1), ST(0)
	push	2
	lea	ecx, DWORD PTR _axis$[ebp]
	fstp	QWORD PTR tv630[ebp]
	call	??A?$tvec3@M@detail@glm@@QAEAAMI@Z	; glm::detail::tvec3<float>::operator[]
	fld	DWORD PTR _s$[ebp]
	fmul	DWORD PTR [eax]
	fsubr	QWORD PTR tv630[ebp]
	push	0
	push	1
	lea	ecx, DWORD PTR _Rotate$[ebp]
	fstp	QWORD PTR tv632[ebp]
	call	??A?$tmat4x4@M@detail@glm@@QAEAAU?$tvec4@M@12@I@Z ; glm::detail::tmat4x4<float>::operator[]
	mov	ecx, eax
	call	??A?$tvec4@M@detail@glm@@QAEAAMI@Z	; glm::detail::tvec4<float>::operator[]
	fld	QWORD PTR tv632[ebp]
	fstp	DWORD PTR [eax]

; 65   : 		Rotate[1][1] = c + temp[1] * axis[1];

	push	1
	lea	ecx, DWORD PTR _temp$[ebp]
	call	??A?$tvec3@M@detail@glm@@QAEAAMI@Z	; glm::detail::tvec3<float>::operator[]
	mov	esi, eax
	push	1
	lea	ecx, DWORD PTR _axis$[ebp]
	call	??A?$tvec3@M@detail@glm@@QAEAAMI@Z	; glm::detail::tvec3<float>::operator[]
	fld	DWORD PTR [esi]
	fmul	DWORD PTR [eax]
	fadd	DWORD PTR _c$[ebp]
	push	1
	push	1
	lea	ecx, DWORD PTR _Rotate$[ebp]
	fstp	QWORD PTR tv635[ebp]
	call	??A?$tmat4x4@M@detail@glm@@QAEAAU?$tvec4@M@12@I@Z ; glm::detail::tmat4x4<float>::operator[]
	mov	ecx, eax
	call	??A?$tvec4@M@detail@glm@@QAEAAMI@Z	; glm::detail::tvec4<float>::operator[]
	fld	QWORD PTR tv635[ebp]
	fstp	DWORD PTR [eax]

; 66   : 		Rotate[1][2] = 0 + temp[1] * axis[2] + s * axis[0];

	push	1
	lea	ecx, DWORD PTR _temp$[ebp]
	call	??A?$tvec3@M@detail@glm@@QAEAAMI@Z	; glm::detail::tvec3<float>::operator[]
	mov	esi, eax
	push	2
	lea	ecx, DWORD PTR _axis$[ebp]
	call	??A?$tvec3@M@detail@glm@@QAEAAMI@Z	; glm::detail::tvec3<float>::operator[]
	fld	DWORD PTR [esi]
	fmul	DWORD PTR [eax]
	fldz
	faddp	ST(1), ST(0)
	push	0
	lea	ecx, DWORD PTR _axis$[ebp]
	fstp	QWORD PTR tv638[ebp]
	call	??A?$tvec3@M@detail@glm@@QAEAAMI@Z	; glm::detail::tvec3<float>::operator[]
	fld	DWORD PTR _s$[ebp]
	fmul	DWORD PTR [eax]
	fadd	QWORD PTR tv638[ebp]
	push	2
	push	1
	lea	ecx, DWORD PTR _Rotate$[ebp]
	fstp	QWORD PTR tv640[ebp]
	call	??A?$tmat4x4@M@detail@glm@@QAEAAU?$tvec4@M@12@I@Z ; glm::detail::tmat4x4<float>::operator[]
	mov	ecx, eax
	call	??A?$tvec4@M@detail@glm@@QAEAAMI@Z	; glm::detail::tvec4<float>::operator[]
	fld	QWORD PTR tv640[ebp]
	fstp	DWORD PTR [eax]

; 67   : 
; 68   : 		Rotate[2][0] = 0 + temp[2] * axis[0] + s * axis[1];

	push	2
	lea	ecx, DWORD PTR _temp$[ebp]
	call	??A?$tvec3@M@detail@glm@@QAEAAMI@Z	; glm::detail::tvec3<float>::operator[]
	mov	esi, eax
	push	0
	lea	ecx, DWORD PTR _axis$[ebp]
	call	??A?$tvec3@M@detail@glm@@QAEAAMI@Z	; glm::detail::tvec3<float>::operator[]
	fld	DWORD PTR [esi]
	fmul	DWORD PTR [eax]
	fldz
	faddp	ST(1), ST(0)
	push	1
	lea	ecx, DWORD PTR _axis$[ebp]
	fstp	QWORD PTR tv643[ebp]
	call	??A?$tvec3@M@detail@glm@@QAEAAMI@Z	; glm::detail::tvec3<float>::operator[]
	fld	DWORD PTR _s$[ebp]
	fmul	DWORD PTR [eax]
	fadd	QWORD PTR tv643[ebp]
	push	0
	push	2
	lea	ecx, DWORD PTR _Rotate$[ebp]
	fstp	QWORD PTR tv645[ebp]
	call	??A?$tmat4x4@M@detail@glm@@QAEAAU?$tvec4@M@12@I@Z ; glm::detail::tmat4x4<float>::operator[]
	mov	ecx, eax
	call	??A?$tvec4@M@detail@glm@@QAEAAMI@Z	; glm::detail::tvec4<float>::operator[]
	fld	QWORD PTR tv645[ebp]
	fstp	DWORD PTR [eax]

; 69   : 		Rotate[2][1] = 0 + temp[2] * axis[1] - s * axis[0];

	push	2
	lea	ecx, DWORD PTR _temp$[ebp]
	call	??A?$tvec3@M@detail@glm@@QAEAAMI@Z	; glm::detail::tvec3<float>::operator[]
	mov	esi, eax
	push	1
	lea	ecx, DWORD PTR _axis$[ebp]
	call	??A?$tvec3@M@detail@glm@@QAEAAMI@Z	; glm::detail::tvec3<float>::operator[]
	fld	DWORD PTR [esi]
	fmul	DWORD PTR [eax]
	fldz
	faddp	ST(1), ST(0)
	push	0
	lea	ecx, DWORD PTR _axis$[ebp]
	fstp	QWORD PTR tv648[ebp]
	call	??A?$tvec3@M@detail@glm@@QAEAAMI@Z	; glm::detail::tvec3<float>::operator[]
	fld	DWORD PTR _s$[ebp]
	fmul	DWORD PTR [eax]
	fsubr	QWORD PTR tv648[ebp]
	push	1
	push	2
	lea	ecx, DWORD PTR _Rotate$[ebp]
	fstp	QWORD PTR tv650[ebp]
	call	??A?$tmat4x4@M@detail@glm@@QAEAAU?$tvec4@M@12@I@Z ; glm::detail::tmat4x4<float>::operator[]
	mov	ecx, eax
	call	??A?$tvec4@M@detail@glm@@QAEAAMI@Z	; glm::detail::tvec4<float>::operator[]
	fld	QWORD PTR tv650[ebp]
	fstp	DWORD PTR [eax]

; 70   : 		Rotate[2][2] = c + temp[2] * axis[2];

	push	2
	lea	ecx, DWORD PTR _temp$[ebp]
	call	??A?$tvec3@M@detail@glm@@QAEAAMI@Z	; glm::detail::tvec3<float>::operator[]
	mov	esi, eax
	push	2
	lea	ecx, DWORD PTR _axis$[ebp]
	call	??A?$tvec3@M@detail@glm@@QAEAAMI@Z	; glm::detail::tvec3<float>::operator[]
	fld	DWORD PTR [esi]
	fmul	DWORD PTR [eax]
	fadd	DWORD PTR _c$[ebp]
	push	2
	push	2
	lea	ecx, DWORD PTR _Rotate$[ebp]
	fstp	QWORD PTR tv653[ebp]
	call	??A?$tmat4x4@M@detail@glm@@QAEAAU?$tvec4@M@12@I@Z ; glm::detail::tmat4x4<float>::operator[]
	mov	ecx, eax
	call	??A?$tvec4@M@detail@glm@@QAEAAMI@Z	; glm::detail::tvec4<float>::operator[]
	fld	QWORD PTR tv653[ebp]
	fstp	DWORD PTR [eax]

; 71   : 
; 72   : 		detail::tmat4x4<T> Result(detail::tmat4x4<T>::null);

	push	0
	lea	ecx, DWORD PTR _Result$[ebp]
	call	??0?$tmat4x4@M@detail@glm@@QAE@W4ctor@012@@Z ; glm::detail::tmat4x4<float>::tmat4x4<float>

; 73   : 		Result[0] = m[0] * Rotate[0][0] + m[1] * Rotate[0][1] + m[2] * Rotate[0][2];

	push	2
	push	0
	lea	ecx, DWORD PTR _Rotate$[ebp]
	call	??A?$tmat4x4@M@detail@glm@@QAEAAU?$tvec4@M@12@I@Z ; glm::detail::tmat4x4<float>::operator[]
	mov	ecx, eax
	call	??A?$tvec4@M@detail@glm@@QAEAAMI@Z	; glm::detail::tvec4<float>::operator[]
	push	eax
	push	2
	mov	ecx, DWORD PTR _m$[ebp]
	call	??A?$tmat4x4@M@detail@glm@@QBEABU?$tvec4@M@12@I@Z ; glm::detail::tmat4x4<float>::operator[]
	push	eax
	lea	eax, DWORD PTR $T71628[ebp]
	push	eax
	call	??$?DM@detail@glm@@YA?AU?$tvec4@M@01@ABU201@ABM@Z ; glm::detail::operator*<float>
	add	esp, 12					; 0000000cH
	push	eax
	push	1
	push	0
	lea	ecx, DWORD PTR _Rotate$[ebp]
	call	??A?$tmat4x4@M@detail@glm@@QAEAAU?$tvec4@M@12@I@Z ; glm::detail::tmat4x4<float>::operator[]
	mov	ecx, eax
	call	??A?$tvec4@M@detail@glm@@QAEAAMI@Z	; glm::detail::tvec4<float>::operator[]
	push	eax
	push	1
	mov	ecx, DWORD PTR _m$[ebp]
	call	??A?$tmat4x4@M@detail@glm@@QBEABU?$tvec4@M@12@I@Z ; glm::detail::tmat4x4<float>::operator[]
	push	eax
	lea	ecx, DWORD PTR $T71629[ebp]
	push	ecx
	call	??$?DM@detail@glm@@YA?AU?$tvec4@M@01@ABU201@ABM@Z ; glm::detail::operator*<float>
	add	esp, 12					; 0000000cH
	push	eax
	push	0
	push	0
	lea	ecx, DWORD PTR _Rotate$[ebp]
	call	??A?$tmat4x4@M@detail@glm@@QAEAAU?$tvec4@M@12@I@Z ; glm::detail::tmat4x4<float>::operator[]
	mov	ecx, eax
	call	??A?$tvec4@M@detail@glm@@QAEAAMI@Z	; glm::detail::tvec4<float>::operator[]
	push	eax
	push	0
	mov	ecx, DWORD PTR _m$[ebp]
	call	??A?$tmat4x4@M@detail@glm@@QBEABU?$tvec4@M@12@I@Z ; glm::detail::tmat4x4<float>::operator[]
	push	eax
	lea	edx, DWORD PTR $T71630[ebp]
	push	edx
	call	??$?DM@detail@glm@@YA?AU?$tvec4@M@01@ABU201@ABM@Z ; glm::detail::operator*<float>
	add	esp, 12					; 0000000cH
	push	eax
	lea	eax, DWORD PTR $T71631[ebp]
	push	eax
	call	??$?HM@detail@glm@@YA?AU?$tvec4@M@01@ABU201@0@Z ; glm::detail::operator+<float>
	add	esp, 12					; 0000000cH
	push	eax
	lea	ecx, DWORD PTR $T71632[ebp]
	push	ecx
	call	??$?HM@detail@glm@@YA?AU?$tvec4@M@01@ABU201@0@Z ; glm::detail::operator+<float>
	add	esp, 12					; 0000000cH
	push	eax
	push	0
	lea	ecx, DWORD PTR _Result$[ebp]
	call	??A?$tmat4x4@M@detail@glm@@QAEAAU?$tvec4@M@12@I@Z ; glm::detail::tmat4x4<float>::operator[]
	mov	ecx, eax
	call	??4?$tvec4@M@detail@glm@@QAEAAU012@ABU012@@Z ; glm::detail::tvec4<float>::operator=

; 74   : 		Result[1] = m[0] * Rotate[1][0] + m[1] * Rotate[1][1] + m[2] * Rotate[1][2];

	push	2
	push	1
	lea	ecx, DWORD PTR _Rotate$[ebp]
	call	??A?$tmat4x4@M@detail@glm@@QAEAAU?$tvec4@M@12@I@Z ; glm::detail::tmat4x4<float>::operator[]
	mov	ecx, eax
	call	??A?$tvec4@M@detail@glm@@QAEAAMI@Z	; glm::detail::tvec4<float>::operator[]
	push	eax
	push	2
	mov	ecx, DWORD PTR _m$[ebp]
	call	??A?$tmat4x4@M@detail@glm@@QBEABU?$tvec4@M@12@I@Z ; glm::detail::tmat4x4<float>::operator[]
	push	eax
	lea	eax, DWORD PTR $T71633[ebp]
	push	eax
	call	??$?DM@detail@glm@@YA?AU?$tvec4@M@01@ABU201@ABM@Z ; glm::detail::operator*<float>
	add	esp, 12					; 0000000cH
	push	eax
	push	1
	push	1
	lea	ecx, DWORD PTR _Rotate$[ebp]
