; Listing generated by Microsoft (R) Optimizing Compiler Version 16.00.40219.01 

	TITLE	C:\Users\kmadsen\Google Drive\OpenGL_Projects\Starter\Starter\Tessellation.cpp
	.686P
	.XMM
	include listing.inc
	.model	flat

INCLUDELIB MSVCRTD
INCLUDELIB OLDNAMES

PUBLIC	?value@?$integral_constant@_N$0A@@tr1@std@@2_NB	; std::tr1::integral_constant<bool,0>::value
PUBLIC	?value@?$integral_constant@_N$00@tr1@std@@2_NB	; std::tr1::integral_constant<bool,1>::value
PUBLIC	?value@?$integral_constant@I$0A@@tr1@std@@2IB	; std::tr1::integral_constant<unsigned int,0>::value
PUBLIC	?_Rank@?$_Arithmetic_traits@_N@std@@2HB		; std::_Arithmetic_traits<bool>::_Rank
PUBLIC	?_Rank@?$_Arithmetic_traits@D@std@@2HB		; std::_Arithmetic_traits<char>::_Rank
PUBLIC	?_Rank@?$_Arithmetic_traits@C@std@@2HB		; std::_Arithmetic_traits<signed char>::_Rank
PUBLIC	?_Rank@?$_Arithmetic_traits@E@std@@2HB		; std::_Arithmetic_traits<unsigned char>::_Rank
PUBLIC	?_Rank@?$_Arithmetic_traits@F@std@@2HB		; std::_Arithmetic_traits<short>::_Rank
PUBLIC	?_Rank@?$_Arithmetic_traits@G@std@@2HB		; std::_Arithmetic_traits<unsigned short>::_Rank
PUBLIC	?_Rank@?$_Arithmetic_traits@H@std@@2HB		; std::_Arithmetic_traits<int>::_Rank
PUBLIC	?_Rank@?$_Arithmetic_traits@I@std@@2HB		; std::_Arithmetic_traits<unsigned int>::_Rank
PUBLIC	?_Rank@?$_Arithmetic_traits@J@std@@2HB		; std::_Arithmetic_traits<long>::_Rank
PUBLIC	?_Rank@?$_Arithmetic_traits@K@std@@2HB		; std::_Arithmetic_traits<unsigned long>::_Rank
PUBLIC	?_Rank@?$_Arithmetic_traits@_J@std@@2HB		; std::_Arithmetic_traits<__int64>::_Rank
PUBLIC	?_Rank@?$_Arithmetic_traits@_K@std@@2HB		; std::_Arithmetic_traits<unsigned __int64>::_Rank
PUBLIC	?_Rank@?$_Arithmetic_traits@M@std@@2HB		; std::_Arithmetic_traits<float>::_Rank
PUBLIC	?_Rank@?$_Arithmetic_traits@N@std@@2HB		; std::_Arithmetic_traits<double>::_Rank
PUBLIC	?_Rank@?$_Arithmetic_traits@O@std@@2HB		; std::_Arithmetic_traits<long double>::_Rank
PUBLIC	?collate@?$_Locbase@H@std@@2HB			; std::_Locbase<int>::collate
PUBLIC	?ctype@?$_Locbase@H@std@@2HB			; std::_Locbase<int>::ctype
PUBLIC	?monetary@?$_Locbase@H@std@@2HB			; std::_Locbase<int>::monetary
PUBLIC	?numeric@?$_Locbase@H@std@@2HB			; std::_Locbase<int>::numeric
PUBLIC	?time@?$_Locbase@H@std@@2HB			; std::_Locbase<int>::time
PUBLIC	?messages@?$_Locbase@H@std@@2HB			; std::_Locbase<int>::messages
PUBLIC	?all@?$_Locbase@H@std@@2HB			; std::_Locbase<int>::all
PUBLIC	?none@?$_Locbase@H@std@@2HB			; std::_Locbase<int>::none
PUBLIC	?skipws@?$_Iosb@H@std@@2W4_Fmtflags@12@B	; std::_Iosb<int>::skipws
PUBLIC	?unitbuf@?$_Iosb@H@std@@2W4_Fmtflags@12@B	; std::_Iosb<int>::unitbuf
PUBLIC	?uppercase@?$_Iosb@H@std@@2W4_Fmtflags@12@B	; std::_Iosb<int>::uppercase
PUBLIC	?showbase@?$_Iosb@H@std@@2W4_Fmtflags@12@B	; std::_Iosb<int>::showbase
PUBLIC	?showpoint@?$_Iosb@H@std@@2W4_Fmtflags@12@B	; std::_Iosb<int>::showpoint
PUBLIC	?showpos@?$_Iosb@H@std@@2W4_Fmtflags@12@B	; std::_Iosb<int>::showpos
PUBLIC	?left@?$_Iosb@H@std@@2W4_Fmtflags@12@B		; std::_Iosb<int>::left
PUBLIC	?right@?$_Iosb@H@std@@2W4_Fmtflags@12@B		; std::_Iosb<int>::right
PUBLIC	?internal@?$_Iosb@H@std@@2W4_Fmtflags@12@B	; std::_Iosb<int>::internal
PUBLIC	?dec@?$_Iosb@H@std@@2W4_Fmtflags@12@B		; std::_Iosb<int>::dec
PUBLIC	?oct@?$_Iosb@H@std@@2W4_Fmtflags@12@B		; std::_Iosb<int>::oct
PUBLIC	?hex@?$_Iosb@H@std@@2W4_Fmtflags@12@B		; std::_Iosb<int>::hex
PUBLIC	?scientific@?$_Iosb@H@std@@2W4_Fmtflags@12@B	; std::_Iosb<int>::scientific
PUBLIC	?fixed@?$_Iosb@H@std@@2W4_Fmtflags@12@B		; std::_Iosb<int>::fixed
PUBLIC	?hexfloat@?$_Iosb@H@std@@2W4_Fmtflags@12@B	; std::_Iosb<int>::hexfloat
PUBLIC	?boolalpha@?$_Iosb@H@std@@2W4_Fmtflags@12@B	; std::_Iosb<int>::boolalpha
PUBLIC	?_Stdio@?$_Iosb@H@std@@2W4_Fmtflags@12@B	; std::_Iosb<int>::_Stdio
PUBLIC	?adjustfield@?$_Iosb@H@std@@2W4_Fmtflags@12@B	; std::_Iosb<int>::adjustfield
PUBLIC	?basefield@?$_Iosb@H@std@@2W4_Fmtflags@12@B	; std::_Iosb<int>::basefield
PUBLIC	?floatfield@?$_Iosb@H@std@@2W4_Fmtflags@12@B	; std::_Iosb<int>::floatfield
PUBLIC	?goodbit@?$_Iosb@H@std@@2W4_Iostate@12@B	; std::_Iosb<int>::goodbit
PUBLIC	?eofbit@?$_Iosb@H@std@@2W4_Iostate@12@B		; std::_Iosb<int>::eofbit
PUBLIC	?failbit@?$_Iosb@H@std@@2W4_Iostate@12@B	; std::_Iosb<int>::failbit
PUBLIC	?badbit@?$_Iosb@H@std@@2W4_Iostate@12@B		; std::_Iosb<int>::badbit
PUBLIC	?_Hardfail@?$_Iosb@H@std@@2W4_Iostate@12@B	; std::_Iosb<int>::_Hardfail
PUBLIC	?in@?$_Iosb@H@std@@2W4_Openmode@12@B		; std::_Iosb<int>::in
PUBLIC	?out@?$_Iosb@H@std@@2W4_Openmode@12@B		; std::_Iosb<int>::out
PUBLIC	?ate@?$_Iosb@H@std@@2W4_Openmode@12@B		; std::_Iosb<int>::ate
PUBLIC	?app@?$_Iosb@H@std@@2W4_Openmode@12@B		; std::_Iosb<int>::app
PUBLIC	?trunc@?$_Iosb@H@std@@2W4_Openmode@12@B		; std::_Iosb<int>::trunc
PUBLIC	?_Nocreate@?$_Iosb@H@std@@2W4_Openmode@12@B	; std::_Iosb<int>::_Nocreate
PUBLIC	?_Noreplace@?$_Iosb@H@std@@2W4_Openmode@12@B	; std::_Iosb<int>::_Noreplace
PUBLIC	?binary@?$_Iosb@H@std@@2W4_Openmode@12@B	; std::_Iosb<int>::binary
PUBLIC	?beg@?$_Iosb@H@std@@2W4_Seekdir@12@B		; std::_Iosb<int>::beg
PUBLIC	?cur@?$_Iosb@H@std@@2W4_Seekdir@12@B		; std::_Iosb<int>::cur
PUBLIC	?end@?$_Iosb@H@std@@2W4_Seekdir@12@B		; std::_Iosb<int>::end
;	COMDAT ?end@?$_Iosb@H@std@@2W4_Seekdir@12@B
CONST	SEGMENT
?end@?$_Iosb@H@std@@2W4_Seekdir@12@B DD 02H		; std::_Iosb<int>::end
CONST	ENDS
;	COMDAT ?cur@?$_Iosb@H@std@@2W4_Seekdir@12@B
CONST	SEGMENT
?cur@?$_Iosb@H@std@@2W4_Seekdir@12@B DD 01H		; std::_Iosb<int>::cur
CONST	ENDS
;	COMDAT ?beg@?$_Iosb@H@std@@2W4_Seekdir@12@B
CONST	SEGMENT
?beg@?$_Iosb@H@std@@2W4_Seekdir@12@B DD 00H		; std::_Iosb<int>::beg
CONST	ENDS
;	COMDAT ?binary@?$_Iosb@H@std@@2W4_Openmode@12@B
CONST	SEGMENT
?binary@?$_Iosb@H@std@@2W4_Openmode@12@B DD 020H	; std::_Iosb<int>::binary
CONST	ENDS
;	COMDAT ?_Noreplace@?$_Iosb@H@std@@2W4_Openmode@12@B
CONST	SEGMENT
?_Noreplace@?$_Iosb@H@std@@2W4_Openmode@12@B DD 080H	; std::_Iosb<int>::_Noreplace
CONST	ENDS
;	COMDAT ?_Nocreate@?$_Iosb@H@std@@2W4_Openmode@12@B
CONST	SEGMENT
?_Nocreate@?$_Iosb@H@std@@2W4_Openmode@12@B DD 040H	; std::_Iosb<int>::_Nocreate
CONST	ENDS
;	COMDAT ?trunc@?$_Iosb@H@std@@2W4_Openmode@12@B
CONST	SEGMENT
?trunc@?$_Iosb@H@std@@2W4_Openmode@12@B DD 010H		; std::_Iosb<int>::trunc
CONST	ENDS
;	COMDAT ?app@?$_Iosb@H@std@@2W4_Openmode@12@B
CONST	SEGMENT
?app@?$_Iosb@H@std@@2W4_Openmode@12@B DD 08H		; std::_Iosb<int>::app
CONST	ENDS
;	COMDAT ?ate@?$_Iosb@H@std@@2W4_Openmode@12@B
CONST	SEGMENT
?ate@?$_Iosb@H@std@@2W4_Openmode@12@B DD 04H		; std::_Iosb<int>::ate
CONST	ENDS
;	COMDAT ?out@?$_Iosb@H@std@@2W4_Openmode@12@B
CONST	SEGMENT
?out@?$_Iosb@H@std@@2W4_Openmode@12@B DD 02H		; std::_Iosb<int>::out
CONST	ENDS
;	COMDAT ?in@?$_Iosb@H@std@@2W4_Openmode@12@B
CONST	SEGMENT
?in@?$_Iosb@H@std@@2W4_Openmode@12@B DD 01H		; std::_Iosb<int>::in
CONST	ENDS
;	COMDAT ?_Hardfail@?$_Iosb@H@std@@2W4_Iostate@12@B
CONST	SEGMENT
?_Hardfail@?$_Iosb@H@std@@2W4_Iostate@12@B DD 010H	; std::_Iosb<int>::_Hardfail
CONST	ENDS
;	COMDAT ?badbit@?$_Iosb@H@std@@2W4_Iostate@12@B
CONST	SEGMENT
?badbit@?$_Iosb@H@std@@2W4_Iostate@12@B DD 04H		; std::_Iosb<int>::badbit
CONST	ENDS
;	COMDAT ?failbit@?$_Iosb@H@std@@2W4_Iostate@12@B
CONST	SEGMENT
?failbit@?$_Iosb@H@std@@2W4_Iostate@12@B DD 02H		; std::_Iosb<int>::failbit
CONST	ENDS
;	COMDAT ?eofbit@?$_Iosb@H@std@@2W4_Iostate@12@B
CONST	SEGMENT
?eofbit@?$_Iosb@H@std@@2W4_Iostate@12@B DD 01H		; std::_Iosb<int>::eofbit
CONST	ENDS
;	COMDAT ?goodbit@?$_Iosb@H@std@@2W4_Iostate@12@B
CONST	SEGMENT
?goodbit@?$_Iosb@H@std@@2W4_Iostate@12@B DD 00H		; std::_Iosb<int>::goodbit
CONST	ENDS
;	COMDAT ?floatfield@?$_Iosb@H@std@@2W4_Fmtflags@12@B
CONST	SEGMENT
?floatfield@?$_Iosb@H@std@@2W4_Fmtflags@12@B DD 03000H	; std::_Iosb<int>::floatfield
CONST	ENDS
;	COMDAT ?basefield@?$_Iosb@H@std@@2W4_Fmtflags@12@B
CONST	SEGMENT
?basefield@?$_Iosb@H@std@@2W4_Fmtflags@12@B DD 0e00H	; std::_Iosb<int>::basefield
CONST	ENDS
;	COMDAT ?adjustfield@?$_Iosb@H@std@@2W4_Fmtflags@12@B
CONST	SEGMENT
?adjustfield@?$_Iosb@H@std@@2W4_Fmtflags@12@B DD 01c0H	; std::_Iosb<int>::adjustfield
CONST	ENDS
;	COMDAT ?_Stdio@?$_Iosb@H@std@@2W4_Fmtflags@12@B
CONST	SEGMENT
?_Stdio@?$_Iosb@H@std@@2W4_Fmtflags@12@B DD 08000H	; std::_Iosb<int>::_Stdio
CONST	ENDS
;	COMDAT ?boolalpha@?$_Iosb@H@std@@2W4_Fmtflags@12@B
CONST	SEGMENT
?boolalpha@?$_Iosb@H@std@@2W4_Fmtflags@12@B DD 04000H	; std::_Iosb<int>::boolalpha
CONST	ENDS
;	COMDAT ?hexfloat@?$_Iosb@H@std@@2W4_Fmtflags@12@B
CONST	SEGMENT
?hexfloat@?$_Iosb@H@std@@2W4_Fmtflags@12@B DD 03000H	; std::_Iosb<int>::hexfloat
CONST	ENDS
;	COMDAT ?fixed@?$_Iosb@H@std@@2W4_Fmtflags@12@B
CONST	SEGMENT
?fixed@?$_Iosb@H@std@@2W4_Fmtflags@12@B DD 02000H	; std::_Iosb<int>::fixed
CONST	ENDS
;	COMDAT ?scientific@?$_Iosb@H@std@@2W4_Fmtflags@12@B
CONST	SEGMENT
?scientific@?$_Iosb@H@std@@2W4_Fmtflags@12@B DD 01000H	; std::_Iosb<int>::scientific
CONST	ENDS
;	COMDAT ?hex@?$_Iosb@H@std@@2W4_Fmtflags@12@B
CONST	SEGMENT
?hex@?$_Iosb@H@std@@2W4_Fmtflags@12@B DD 0800H		; std::_Iosb<int>::hex
CONST	ENDS
;	COMDAT ?oct@?$_Iosb@H@std@@2W4_Fmtflags@12@B
CONST	SEGMENT
?oct@?$_Iosb@H@std@@2W4_Fmtflags@12@B DD 0400H		; std::_Iosb<int>::oct
CONST	ENDS
;	COMDAT ?dec@?$_Iosb@H@std@@2W4_Fmtflags@12@B
CONST	SEGMENT
?dec@?$_Iosb@H@std@@2W4_Fmtflags@12@B DD 0200H		; std::_Iosb<int>::dec
CONST	ENDS
;	COMDAT ?internal@?$_Iosb@H@std@@2W4_Fmtflags@12@B
CONST	SEGMENT
?internal@?$_Iosb@H@std@@2W4_Fmtflags@12@B DD 0100H	; std::_Iosb<int>::internal
CONST	ENDS
;	COMDAT ?right@?$_Iosb@H@std@@2W4_Fmtflags@12@B
CONST	SEGMENT
?right@?$_Iosb@H@std@@2W4_Fmtflags@12@B DD 080H		; std::_Iosb<int>::right
CONST	ENDS
;	COMDAT ?left@?$_Iosb@H@std@@2W4_Fmtflags@12@B
CONST	SEGMENT
?left@?$_Iosb@H@std@@2W4_Fmtflags@12@B DD 040H		; std::_Iosb<int>::left
CONST	ENDS
;	COMDAT ?showpos@?$_Iosb@H@std@@2W4_Fmtflags@12@B
CONST	SEGMENT
?showpos@?$_Iosb@H@std@@2W4_Fmtflags@12@B DD 020H	; std::_Iosb<int>::showpos
CONST	ENDS
;	COMDAT ?showpoint@?$_Iosb@H@std@@2W4_Fmtflags@12@B
CONST	SEGMENT
?showpoint@?$_Iosb@H@std@@2W4_Fmtflags@12@B DD 010H	; std::_Iosb<int>::showpoint
CONST	ENDS
;	COMDAT ?showbase@?$_Iosb@H@std@@2W4_Fmtflags@12@B
CONST	SEGMENT
?showbase@?$_Iosb@H@std@@2W4_Fmtflags@12@B DD 08H	; std::_Iosb<int>::showbase
CONST	ENDS
;	COMDAT ?uppercase@?$_Iosb@H@std@@2W4_Fmtflags@12@B
CONST	SEGMENT
?uppercase@?$_Iosb@H@std@@2W4_Fmtflags@12@B DD 04H	; std::_Iosb<int>::uppercase
CONST	ENDS
;	COMDAT ?unitbuf@?$_Iosb@H@std@@2W4_Fmtflags@12@B
CONST	SEGMENT
?unitbuf@?$_Iosb@H@std@@2W4_Fmtflags@12@B DD 02H	; std::_Iosb<int>::unitbuf
CONST	ENDS
;	COMDAT ?skipws@?$_Iosb@H@std@@2W4_Fmtflags@12@B
CONST	SEGMENT
?skipws@?$_Iosb@H@std@@2W4_Fmtflags@12@B DD 01H		; std::_Iosb<int>::skipws
CONST	ENDS
;	COMDAT ?none@?$_Locbase@H@std@@2HB
CONST	SEGMENT
?none@?$_Locbase@H@std@@2HB DD 00H			; std::_Locbase<int>::none
CONST	ENDS
;	COMDAT ?all@?$_Locbase@H@std@@2HB
CONST	SEGMENT
?all@?$_Locbase@H@std@@2HB DD 03fH			; std::_Locbase<int>::all
CONST	ENDS
;	COMDAT ?messages@?$_Locbase@H@std@@2HB
CONST	SEGMENT
?messages@?$_Locbase@H@std@@2HB DD 020H			; std::_Locbase<int>::messages
CONST	ENDS
;	COMDAT ?time@?$_Locbase@H@std@@2HB
CONST	SEGMENT
?time@?$_Locbase@H@std@@2HB DD 010H			; std::_Locbase<int>::time
CONST	ENDS
;	COMDAT ?numeric@?$_Locbase@H@std@@2HB
CONST	SEGMENT
?numeric@?$_Locbase@H@std@@2HB DD 08H			; std::_Locbase<int>::numeric
CONST	ENDS
;	COMDAT ?monetary@?$_Locbase@H@std@@2HB
CONST	SEGMENT
?monetary@?$_Locbase@H@std@@2HB DD 04H			; std::_Locbase<int>::monetary
CONST	ENDS
;	COMDAT ?ctype@?$_Locbase@H@std@@2HB
CONST	SEGMENT
?ctype@?$_Locbase@H@std@@2HB DD 02H			; std::_Locbase<int>::ctype
CONST	ENDS
;	COMDAT ?collate@?$_Locbase@H@std@@2HB
CONST	SEGMENT
?collate@?$_Locbase@H@std@@2HB DD 01H			; std::_Locbase<int>::collate
CONST	ENDS
;	COMDAT ?_Rank@?$_Arithmetic_traits@O@std@@2HB
CONST	SEGMENT
?_Rank@?$_Arithmetic_traits@O@std@@2HB DD 09H		; std::_Arithmetic_traits<long double>::_Rank
CONST	ENDS
;	COMDAT ?_Rank@?$_Arithmetic_traits@N@std@@2HB
CONST	SEGMENT
?_Rank@?$_Arithmetic_traits@N@std@@2HB DD 08H		; std::_Arithmetic_traits<double>::_Rank
CONST	ENDS
;	COMDAT ?_Rank@?$_Arithmetic_traits@M@std@@2HB
CONST	SEGMENT
?_Rank@?$_Arithmetic_traits@M@std@@2HB DD 07H		; std::_Arithmetic_traits<float>::_Rank
CONST	ENDS
;	COMDAT ?_Rank@?$_Arithmetic_traits@_K@std@@2HB
CONST	SEGMENT
?_Rank@?$_Arithmetic_traits@_K@std@@2HB DD 06H		; std::_Arithmetic_traits<unsigned __int64>::_Rank
CONST	ENDS
;	COMDAT ?_Rank@?$_Arithmetic_traits@_J@std@@2HB
CONST	SEGMENT
?_Rank@?$_Arithmetic_traits@_J@std@@2HB DD 06H		; std::_Arithmetic_traits<__int64>::_Rank
CONST	ENDS
;	COMDAT ?_Rank@?$_Arithmetic_traits@K@std@@2HB
CONST	SEGMENT
?_Rank@?$_Arithmetic_traits@K@std@@2HB DD 05H		; std::_Arithmetic_traits<unsigned long>::_Rank
CONST	ENDS
;	COMDAT ?_Rank@?$_Arithmetic_traits@J@std@@2HB
CONST	SEGMENT
?_Rank@?$_Arithmetic_traits@J@std@@2HB DD 05H		; std::_Arithmetic_traits<long>::_Rank
CONST	ENDS
;	COMDAT ?_Rank@?$_Arithmetic_traits@I@std@@2HB
CONST	SEGMENT
?_Rank@?$_Arithmetic_traits@I@std@@2HB DD 04H		; std::_Arithmetic_traits<unsigned int>::_Rank
CONST	ENDS
;	COMDAT ?_Rank@?$_Arithmetic_traits@H@std@@2HB
CONST	SEGMENT
?_Rank@?$_Arithmetic_traits@H@std@@2HB DD 04H		; std::_Arithmetic_traits<int>::_Rank
CONST	ENDS
;	COMDAT ?_Rank@?$_Arithmetic_traits@G@std@@2HB
CONST	SEGMENT
?_Rank@?$_Arithmetic_traits@G@std@@2HB DD 03H		; std::_Arithmetic_traits<unsigned short>::_Rank
CONST	ENDS
;	COMDAT ?_Rank@?$_Arithmetic_traits@F@std@@2HB
CONST	SEGMENT
?_Rank@?$_Arithmetic_traits@F@std@@2HB DD 03H		; std::_Arithmetic_traits<short>::_Rank
CONST	ENDS
;	COMDAT ?_Rank@?$_Arithmetic_traits@E@std@@2HB
CONST	SEGMENT
?_Rank@?$_Arithmetic_traits@E@std@@2HB DD 02H		; std::_Arithmetic_traits<unsigned char>::_Rank
CONST	ENDS
;	COMDAT ?_Rank@?$_Arithmetic_traits@C@std@@2HB
CONST	SEGMENT
?_Rank@?$_Arithmetic_traits@C@std@@2HB DD 02H		; std::_Arithmetic_traits<signed char>::_Rank
CONST	ENDS
;	COMDAT ?_Rank@?$_Arithmetic_traits@D@std@@2HB
CONST	SEGMENT
?_Rank@?$_Arithmetic_traits@D@std@@2HB DD 02H		; std::_Arithmetic_traits<char>::_Rank
CONST	ENDS
;	COMDAT ?_Rank@?$_Arithmetic_traits@_N@std@@2HB
CONST	SEGMENT
?_Rank@?$_Arithmetic_traits@_N@std@@2HB DD 01H		; std::_Arithmetic_traits<bool>::_Rank
CONST	ENDS
;	COMDAT ?value@?$integral_constant@I$0A@@tr1@std@@2IB
CONST	SEGMENT
?value@?$integral_constant@I$0A@@tr1@std@@2IB DD 00H	; std::tr1::integral_constant<unsigned int,0>::value
CONST	ENDS
;	COMDAT ?value@?$integral_constant@_N$00@tr1@std@@2_NB
CONST	SEGMENT
?value@?$integral_constant@_N$00@tr1@std@@2_NB DB 01H	; std::tr1::integral_constant<bool,1>::value
CONST	ENDS
;	COMDAT ?value@?$integral_constant@_N$0A@@tr1@std@@2_NB
CONST	SEGMENT
?value@?$integral_constant@_N$0A@@tr1@std@@2_NB DB 00H	; std::tr1::integral_constant<bool,0>::value
CONST	ENDS
PUBLIC	??1GLSLProgram@@QAE@XZ				; GLSLProgram::~GLSLProgram
PUBLIC	??0KMouse@@QAE@XZ				; KMouse::KMouse
PUBLIC	??0?$tmat4x4@M@detail@glm@@QAE@XZ		; glm::detail::tmat4x4<float>::tmat4x4<float>
PUBLIC	??_7Tessellation@@6B@				; Tessellation::`vftable'
PUBLIC	??0KScene@@QAE@XZ				; KScene::KScene
PUBLIC	??0Tessellation@@QAE@XZ				; Tessellation::Tessellation
PUBLIC	??_R4Tessellation@@6B@				; Tessellation::`RTTI Complete Object Locator'
PUBLIC	??_R0?AVTessellation@@@8			; Tessellation `RTTI Type Descriptor'
PUBLIC	??_R3Tessellation@@8				; Tessellation::`RTTI Class Hierarchy Descriptor'
PUBLIC	??_R2Tessellation@@8				; Tessellation::`RTTI Base Class Array'
PUBLIC	??_R1A@?0A@EA@Tessellation@@8			; Tessellation::`RTTI Base Class Descriptor at (0,-1,0,64)'
PUBLIC	??_R1A@?0A@EA@KScene@@8				; KScene::`RTTI Base Class Descriptor at (0,-1,0,64)'
PUBLIC	??_R0?AVKScene@@@8				; KScene `RTTI Type Descriptor'
PUBLIC	??_R3KScene@@8					; KScene::`RTTI Class Hierarchy Descriptor'
PUBLIC	??_R2KScene@@8					; KScene::`RTTI Base Class Array'
PUBLIC	?Init@Tessellation@@UAEXXZ			; Tessellation::Init
PUBLIC	?Render@Tessellation@@UAEXXZ			; Tessellation::Render
PUBLIC	?Update@KScene@@UAEXM@Z				; KScene::Update
PUBLIC	?Resize@Tessellation@@UAEXHH@Z			; Tessellation::Resize
PUBLIC	?Mouse@Tessellation@@UAEXABUKMouse@@@Z		; Tessellation::Mouse
PUBLIC	?Motion@Tessellation@@UAEXMM@Z			; Tessellation::Motion
PUBLIC	?Keyboard@Tessellation@@UAEXHMM@Z		; Tessellation::Keyboard
EXTRN	??3@YAXPAX@Z:PROC				; operator delete
EXTRN	??0VBOTeapotPatch@@QAE@XZ:PROC			; VBOTeapotPatch::VBOTeapotPatch
EXTRN	??2@YAPAXI@Z:PROC				; operator new
EXTRN	??0GLSLProgram@@QAE@XZ:PROC			; GLSLProgram::GLSLProgram
EXTRN	___security_cookie:DWORD
EXTRN	___CxxFrameHandler3:PROC
EXTRN	@__security_check_cookie@4:PROC
EXTRN	__RTC_CheckEsp:PROC
EXTRN	__RTC_Shutdown:PROC
EXTRN	__RTC_InitBase:PROC
EXTRN	??_7type_info@@6B@:QWORD			; type_info::`vftable'
EXTRN	??_ETessellation@@UAEPAXI@Z:PROC		; Tessellation::`vector deleting destructor'
;	COMDAT ??_R2KScene@@8
; File c:\users\kmadsen\google drive\opengl_projects\starter\starter\tessellation.cpp
rdata$r	SEGMENT
??_R2KScene@@8 DD FLAT:??_R1A@?0A@EA@KScene@@8		; KScene::`RTTI Base Class Array'
rdata$r	ENDS
;	COMDAT ??_R3KScene@@8
rdata$r	SEGMENT
??_R3KScene@@8 DD 00H					; KScene::`RTTI Class Hierarchy Descriptor'
	DD	00H
	DD	01H
	DD	FLAT:??_R2KScene@@8
rdata$r	ENDS
;	COMDAT ??_R0?AVKScene@@@8
_DATA	SEGMENT
??_R0?AVKScene@@@8 DD FLAT:??_7type_info@@6B@		; KScene `RTTI Type Descriptor'
	DD	00H
	DB	'.?AVKScene@@', 00H
_DATA	ENDS
;	COMDAT ??_R1A@?0A@EA@KScene@@8
rdata$r	SEGMENT
??_R1A@?0A@EA@KScene@@8 DD FLAT:??_R0?AVKScene@@@8	; KScene::`RTTI Base Class Descriptor at (0,-1,0,64)'
	DD	00H
	DD	00H
	DD	0ffffffffH
	DD	00H
	DD	040H
	DD	FLAT:??_R3KScene@@8
rdata$r	ENDS
;	COMDAT ??_R1A@?0A@EA@Tessellation@@8
rdata$r	SEGMENT
??_R1A@?0A@EA@Tessellation@@8 DD FLAT:??_R0?AVTessellation@@@8 ; Tessellation::`RTTI Base Class Descriptor at (0,-1,0,64)'
	DD	01H
	DD	00H
	DD	0ffffffffH
	DD	00H
	DD	040H
	DD	FLAT:??_R3Tessellation@@8
rdata$r	ENDS
;	COMDAT ??_R2Tessellation@@8
rdata$r	SEGMENT
??_R2Tessellation@@8 DD FLAT:??_R1A@?0A@EA@Tessellation@@8 ; Tessellation::`RTTI Base Class Array'
	DD	FLAT:??_R1A@?0A@EA@KScene@@8
rdata$r	ENDS
;	COMDAT ??_R3Tessellation@@8
rdata$r	SEGMENT
??_R3Tessellation@@8 DD 00H				; Tessellation::`RTTI Class Hierarchy Descriptor'
	DD	00H
	DD	02H
	DD	FLAT:??_R2Tessellation@@8
rdata$r	ENDS
;	COMDAT ??_R0?AVTessellation@@@8
_DATA	SEGMENT
??_R0?AVTessellation@@@8 DD FLAT:??_7type_info@@6B@	; Tessellation `RTTI Type Descriptor'
	DD	00H
	DB	'.?AVTessellation@@', 00H
_DATA	ENDS
;	COMDAT ??_R4Tessellation@@6B@
rdata$r	SEGMENT
??_R4Tessellation@@6B@ DD 00H				; Tessellation::`RTTI Complete Object Locator'
	DD	00H
	DD	00H
	DD	FLAT:??_R0?AVTessellation@@@8
	DD	FLAT:??_R3Tessellation@@8
rdata$r	ENDS
;	COMDAT ??_7Tessellation@@6B@
CONST	SEGMENT
??_7Tessellation@@6B@ DD FLAT:??_R4Tessellation@@6B@	; Tessellation::`vftable'
	DD	FLAT:?Init@Tessellation@@UAEXXZ
	DD	FLAT:?Render@Tessellation@@UAEXXZ
	DD	FLAT:?Update@KScene@@UAEXM@Z
	DD	FLAT:?Resize@Tessellation@@UAEXHH@Z
	DD	FLAT:?Mouse@Tessellation@@UAEXABUKMouse@@@Z
	DD	FLAT:?Motion@Tessellation@@UAEXMM@Z
	DD	FLAT:?Keyboard@Tessellation@@UAEXHMM@Z
	DD	FLAT:??_ETessellation@@UAEPAXI@Z
CONST	ENDS
;	COMDAT xdata$x
xdata$x	SEGMENT
__unwindtable$??0Tessellation@@QAE@XZ DD 0ffffffffH
	DD	FLAT:__unwindfunclet$??0Tessellation@@QAE@XZ$0
	DD	00H
	DD	FLAT:__unwindfunclet$??0Tessellation@@QAE@XZ$1
__ehfuncinfo$??0Tessellation@@QAE@XZ DD 019930522H
	DD	02H
	DD	FLAT:__unwindtable$??0Tessellation@@QAE@XZ
	DD	2 DUP(00H)
	DD	2 DUP(00H)
	DD	00H
	DD	01H
xdata$x	ENDS
;	COMDAT rtc$TMZ
rtc$TMZ	SEGMENT
__RTC_Shutdown.rtc$TMZ DD FLAT:__RTC_Shutdown
rtc$TMZ	ENDS
;	COMDAT rtc$IMZ
rtc$IMZ	SEGMENT
__RTC_InitBase.rtc$IMZ DD FLAT:__RTC_InitBase
; Function compile flags: /Odtp /RTCsu /ZI
rtc$IMZ	ENDS
;	COMDAT ??0Tessellation@@QAE@XZ
_TEXT	SEGMENT
tv129 = -244						; size = 4
$T70570 = -236						; size = 4
$T70571 = -224						; size = 4
_this$ = -20						; size = 4
__$EHRec$ = -12						; size = 12
??0Tessellation@@QAE@XZ PROC				; Tessellation::Tessellation, COMDAT
; _this$ = ecx

; 13   : {

	push	ebp
	mov	ebp, esp
	push	-1
	push	__ehhandler$??0Tessellation@@QAE@XZ
	mov	eax, DWORD PTR fs:0
	push	eax
	sub	esp, 232				; 000000e8H
	push	ebx
	push	esi
	push	edi
	push	ecx
	lea	edi, DWORD PTR [ebp-244]
	mov	ecx, 58					; 0000003aH
	mov	eax, -858993460				; ccccccccH
	rep stosd
	pop	ecx
	mov	eax, DWORD PTR ___security_cookie
	xor	eax, ebp
	push	eax
	lea	eax, DWORD PTR __$EHRec$[ebp]
	mov	DWORD PTR fs:0, eax
	mov	DWORD PTR _this$[ebp], ecx
	mov	ecx, DWORD PTR _this$[ebp]
	call	??0KScene@@QAE@XZ
	mov	eax, DWORD PTR _this$[ebp]
	mov	DWORD PTR [eax], OFFSET ??_7Tessellation@@6B@
	mov	ecx, DWORD PTR _this$[ebp]
	add	ecx, 4
	call	??0GLSLProgram@@QAE@XZ			; GLSLProgram::GLSLProgram
	mov	DWORD PTR __$EHRec$[ebp+8], 0
	mov	ecx, DWORD PTR _this$[ebp]
	add	ecx, 48					; 00000030H
	call	??0?$tmat4x4@M@detail@glm@@QAE@XZ	; glm::detail::tmat4x4<float>::tmat4x4<float>
	mov	ecx, DWORD PTR _this$[ebp]
	add	ecx, 112				; 00000070H
	call	??0?$tmat4x4@M@detail@glm@@QAE@XZ	; glm::detail::tmat4x4<float>::tmat4x4<float>
	mov	ecx, DWORD PTR _this$[ebp]
	add	ecx, 176				; 000000b0H
	call	??0?$tmat4x4@M@detail@glm@@QAE@XZ	; glm::detail::tmat4x4<float>::tmat4x4<float>
	mov	ecx, DWORD PTR _this$[ebp]
	add	ecx, 240				; 000000f0H
	call	??0?$tmat4x4@M@detail@glm@@QAE@XZ	; glm::detail::tmat4x4<float>::tmat4x4<float>
	mov	ecx, DWORD PTR _this$[ebp]
	add	ecx, 304				; 00000130H
	call	??0KMouse@@QAE@XZ

; 14   : 	m_Teapot = new VBOTeapotPatch();

	push	8
	call	??2@YAPAXI@Z				; operator new
	add	esp, 4
	mov	DWORD PTR $T70571[ebp], eax
	mov	BYTE PTR __$EHRec$[ebp+8], 1
	cmp	DWORD PTR $T70571[ebp], 0
	je	SHORT $LN3@Tessellati
	mov	ecx, DWORD PTR $T70571[ebp]
	call	??0VBOTeapotPatch@@QAE@XZ		; VBOTeapotPatch::VBOTeapotPatch
	mov	DWORD PTR tv129[ebp], eax
	jmp	SHORT $LN4@Tessellati
$LN3@Tessellati:
	mov	DWORD PTR tv129[ebp], 0
$LN4@Tessellati:
	mov	eax, DWORD PTR tv129[ebp]
	mov	DWORD PTR $T70570[ebp], eax
	mov	BYTE PTR __$EHRec$[ebp+8], 0
	mov	ecx, DWORD PTR _this$[ebp]
	mov	edx, DWORD PTR $T70570[ebp]
	mov	DWORD PTR [ecx+44], edx

; 15   : }

	mov	DWORD PTR __$EHRec$[ebp+8], -1
	mov	eax, DWORD PTR _this$[ebp]
	mov	ecx, DWORD PTR __$EHRec$[ebp]
	mov	DWORD PTR fs:0, ecx
	pop	ecx
	pop	edi
	pop	esi
	pop	ebx
	add	esp, 244				; 000000f4H
	cmp	ebp, esp
	call	__RTC_CheckEsp
	mov	esp, ebp
	pop	ebp
	ret	0
_TEXT	ENDS
;	COMDAT text$x
text$x	SEGMENT
__unwindfunclet$??0Tessellation@@QAE@XZ$0:
	mov	ecx, DWORD PTR _this$[ebp]
	add	ecx, 4
	jmp	??1GLSLProgram@@QAE@XZ
__unwindfunclet$??0Tessellation@@QAE@XZ$1:
	mov	eax, DWORD PTR $T70571[ebp]
	push	eax
	call	??3@YAXPAX@Z				; operator delete
	pop	ecx
	ret	0
__ehhandler$??0Tessellation@@QAE@XZ:
	mov	edx, DWORD PTR [esp+8]
	lea	eax, DWORD PTR [edx+12]
	mov	ecx, DWORD PTR [edx-248]
	xor	ecx, eax
	call	@__security_check_cookie@4
	mov	eax, OFFSET __ehfuncinfo$??0Tessellation@@QAE@XZ
	jmp	___CxxFrameHandler3
text$x	ENDS
??0Tessellation@@QAE@XZ ENDP				; Tessellation::Tessellation
; Function compile flags: /Odtp /RTCsu /ZI
; File c:\users\kmadsen\google drive\opengl_projects\starter\starter\kscene.h
;	COMDAT ?Update@KScene@@UAEXM@Z
_TEXT	SEGMENT
_this$ = -8						; size = 4
_dt$ = 8						; size = 4
?Update@KScene@@UAEXM@Z PROC				; KScene::Update, COMDAT
; _this$ = ecx

; 126  : 	virtual void Update(float dt) { };

	push	ebp
	mov	ebp, esp
	sub	esp, 204				; 000000ccH
	push	ebx
	push	esi
	push	edi
	push	ecx
	lea	edi, DWORD PTR [ebp-204]
	mov	ecx, 51					; 00000033H
	mov	eax, -858993460				; ccccccccH
	rep stosd
	pop	ecx
	mov	DWORD PTR _this$[ebp], ecx
	pop	edi
	pop	esi
	pop	ebx
	mov	esp, ebp
	pop	ebp
	ret	4
?Update@KScene@@UAEXM@Z ENDP				; KScene::Update
_TEXT	ENDS
PUBLIC	??4KMouse@@QAEAAU0@ABU0@@Z			; KMouse::operator=
; Function compile flags: /Odtp /RTCsu /ZI
; File c:\users\kmadsen\google drive\opengl_projects\starter\starter\tessellation.h
;	COMDAT ?Mouse@Tessellation@@UAEXABUKMouse@@@Z
_TEXT	SEGMENT
_this$ = -8						; size = 4
_mouse$ = 8						; size = 4
?Mouse@Tessellation@@UAEXABUKMouse@@@Z PROC		; Tessellation::Mouse, COMDAT
; _this$ = ecx

; 18   : 	void Mouse(const KMouse &mouse) override { m_Mouse = mouse; }

	push	ebp
	mov	ebp, esp
	sub	esp, 204				; 000000ccH
	push	ebx
	push	esi
	push	edi
	push	ecx
	lea	edi, DWORD PTR [ebp-204]
	mov	ecx, 51					; 00000033H
	mov	eax, -858993460				; ccccccccH
	rep stosd
	pop	ecx
	mov	DWORD PTR _this$[ebp], ecx
	mov	eax, DWORD PTR _mouse$[ebp]
	push	eax
	mov	ecx, DWORD PTR _this$[ebp]
	add	ecx, 304				; 00000130H
	call	??4KMouse@@QAEAAU0@ABU0@@Z
	pop	edi
	pop	esi
	pop	ebx
	add	esp, 204				; 000000ccH
	cmp	ebp, esp
	call	__RTC_CheckEsp
	mov	esp, ebp
	pop	ebp
	ret	4
?Mouse@Tessellation@@UAEXABUKMouse@@@Z ENDP		; Tessellation::Mouse
_TEXT	ENDS
PUBLIC	??4?$tvec2@M@detail@glm@@QAEAAU012@ABU012@@Z	; glm::detail::tvec2<float>::operator=
; Function compile flags: /Odtp /RTCsu /ZI
;	COMDAT ??4KMouse@@QAEAAU0@ABU0@@Z
_TEXT	SEGMENT
_this$ = -8						; size = 4
___that$ = 8						; size = 4
??4KMouse@@QAEAAU0@ABU0@@Z PROC				; KMouse::operator=, COMDAT
; _this$ = ecx
	push	ebp
	mov	ebp, esp
	sub	esp, 204				; 000000ccH
	push	ebx
	push	esi
	push	edi
	push	ecx
	lea	edi, DWORD PTR [ebp-204]
	mov	ecx, 51					; 00000033H
	mov	eax, -858993460				; ccccccccH
	rep stosd
	pop	ecx
	mov	DWORD PTR _this$[ebp], ecx
	mov	eax, DWORD PTR _this$[ebp]
	mov	ecx, DWORD PTR ___that$[ebp]
	mov	edx, DWORD PTR [ecx]
	mov	DWORD PTR [eax], edx
	mov	eax, DWORD PTR _this$[ebp]
	mov	ecx, DWORD PTR ___that$[ebp]
	mov	edx, DWORD PTR [ecx+4]
	mov	DWORD PTR [eax+4], edx
	mov	eax, DWORD PTR ___that$[ebp]
	add	eax, 8
	push	eax
	mov	ecx, DWORD PTR _this$[ebp]
	add	ecx, 8
	call	??4?$tvec2@M@detail@glm@@QAEAAU012@ABU012@@Z ; glm::detail::tvec2<float>::operator=
	mov	eax, DWORD PTR _this$[ebp]
	pop	edi
	pop	esi
	pop	ebx
	add	esp, 204				; 000000ccH
	cmp	ebp, esp
	call	__RTC_CheckEsp
	mov	esp, ebp
	pop	ebp
	ret	4
??4KMouse@@QAEAAU0@ABU0@@Z ENDP				; KMouse::operator=
_TEXT	ENDS
PUBLIC	??1Tessellation@@UAE@XZ				; Tessellation::~Tessellation
; Function compile flags: /Odtp /RTCsu /ZI
;	COMDAT ??_GTessellation@@UAEPAXI@Z
_TEXT	SEGMENT
_this$ = -8						; size = 4
___flags$ = 8						; size = 4
??_GTessellation@@UAEPAXI@Z PROC			; Tessellation::`scalar deleting destructor', COMDAT
; _this$ = ecx
	push	ebp
	mov	ebp, esp
	sub	esp, 204				; 000000ccH
	push	ebx
	push	esi
	push	edi
	push	ecx
	lea	edi, DWORD PTR [ebp-204]
	mov	ecx, 51					; 00000033H
	mov	eax, -858993460				; ccccccccH
	rep stosd
	pop	ecx
	mov	DWORD PTR _this$[ebp], ecx
	mov	ecx, DWORD PTR _this$[ebp]
	call	??1Tessellation@@UAE@XZ			; Tessellation::~Tessellation
	mov	eax, DWORD PTR ___flags$[ebp]
	and	eax, 1
	je	SHORT $LN1@scalar
	mov	eax, DWORD PTR _this$[ebp]
	push	eax
	call	??3@YAXPAX@Z				; operator delete
	add	esp, 4
$LN1@scalar:
	mov	eax, DWORD PTR _this$[ebp]
	pop	edi
	pop	esi
	pop	ebx
	add	esp, 204				; 000000ccH
	cmp	ebp, esp
	call	__RTC_CheckEsp
	mov	esp, ebp
	pop	ebp
	ret	4
??_GTessellation@@UAEPAXI@Z ENDP			; Tessellation::`scalar deleting destructor'
_TEXT	ENDS
PUBLIC	??_7KScene@@6B@					; KScene::`vftable'
PUBLIC	??_R4KScene@@6B@				; KScene::`RTTI Complete Object Locator'
PUBLIC	?Resize@KScene@@UAEXHH@Z			; KScene::Resize
PUBLIC	?Mouse@KScene@@UAEXABUKMouse@@@Z		; KScene::Mouse
PUBLIC	?Motion@KScene@@UAEXMM@Z			; KScene::Motion
PUBLIC	?Keyboard@KScene@@UAEXHMM@Z			; KScene::Keyboard
EXTRN	__purecall:PROC
;	COMDAT ??_R4KScene@@6B@
rdata$r	SEGMENT
??_R4KScene@@6B@ DD 00H					; KScene::`RTTI Complete Object Locator'
	DD	00H
	DD	00H
	DD	FLAT:??_R0?AVKScene@@@8
	DD	FLAT:??_R3KScene@@8
rdata$r	ENDS
;	COMDAT ??_7KScene@@6B@
CONST	SEGMENT
??_7KScene@@6B@ DD FLAT:??_R4KScene@@6B@		; KScene::`vftable'
	DD	FLAT:__purecall
	DD	FLAT:__purecall
	DD	FLAT:?Update@KScene@@UAEXM@Z
	DD	FLAT:?Resize@KScene@@UAEXHH@Z
	DD	FLAT:?Mouse@KScene@@UAEXABUKMouse@@@Z
	DD	FLAT:?Motion@KScene@@UAEXMM@Z
	DD	FLAT:?Keyboard@KScene@@UAEXHMM@Z
; Function compile flags: /Odtp /RTCsu /ZI
CONST	ENDS
;	COMDAT ??0KScene@@QAE@XZ
_TEXT	SEGMENT
_this$ = -8						; size = 4
??0KScene@@QAE@XZ PROC					; KScene::KScene, COMDAT
; _this$ = ecx
	push	ebp
	mov	ebp, esp
	sub	esp, 204				; 000000ccH
	push	ebx
	push	esi
	push	edi
	push	ecx
	lea	edi, DWORD PTR [ebp-204]
	mov	ecx, 51					; 00000033H
	mov	eax, -858993460				; ccccccccH
	rep stosd
	pop	ecx
	mov	DWORD PTR _this$[ebp], ecx
	mov	eax, DWORD PTR _this$[ebp]
	mov	DWORD PTR [eax], OFFSET ??_7KScene@@6B@
	mov	eax, DWORD PTR _this$[ebp]
	pop	edi
	pop	esi
	pop	ebx
	mov	esp, ebp
	pop	ebp
	ret	0
??0KScene@@QAE@XZ ENDP					; KScene::KScene
; Function compile flags: /Odtp /RTCsu /ZI
; File c:\users\kmadsen\google drive\opengl_projects\starter\starter\kscene.h
_TEXT	ENDS
;	COMDAT ?Resize@KScene@@UAEXHH@Z
_TEXT	SEGMENT
_this$ = -8						; size = 4
_width$ = 8						; size = 4
_height$ = 12						; size = 4
?Resize@KScene@@UAEXHH@Z PROC				; KScene::Resize, COMDAT
; _this$ = ecx

; 127  : 	virtual void Resize(int width, int height) { };

	push	ebp
	mov	ebp, esp
	sub	esp, 204				; 000000ccH
	push	ebx
	push	esi
	push	edi
	push	ecx
	lea	edi, DWORD PTR [ebp-204]
	mov	ecx, 51					; 00000033H
	mov	eax, -858993460				; ccccccccH
	rep stosd
	pop	ecx
	mov	DWORD PTR _this$[ebp], ecx
	pop	edi
	pop	esi
	pop	ebx
	mov	esp, ebp
	pop	ebp
	ret	8
?Resize@KScene@@UAEXHH@Z ENDP				; KScene::Resize
; Function compile flags: /Odtp /RTCsu /ZI
_TEXT	ENDS
;	COMDAT ?Mouse@KScene@@UAEXABUKMouse@@@Z
_TEXT	SEGMENT
_this$ = -8						; size = 4
_mouse$ = 8						; size = 4
?Mouse@KScene@@UAEXABUKMouse@@@Z PROC			; KScene::Mouse, COMDAT
; _this$ = ecx

; 128  : 	virtual void Mouse(const KMouse &mouse) { }

	push	ebp
	mov	ebp, esp
	sub	esp, 204				; 000000ccH
	push	ebx
	push	esi
	push	edi
	push	ecx
	lea	edi, DWORD PTR [ebp-204]
	mov	ecx, 51					; 00000033H
	mov	eax, -858993460				; ccccccccH
	rep stosd
	pop	ecx
	mov	DWORD PTR _this$[ebp], ecx
	pop	edi
	pop	esi
	pop	ebx
	mov	esp, ebp
	pop	ebp
	ret	4
?Mouse@KScene@@UAEXABUKMouse@@@Z ENDP			; KScene::Mouse
; Function compile flags: /Odtp /RTCsu /ZI
_TEXT	ENDS
;	COMDAT ?Motion@KScene@@UAEXMM@Z
_TEXT	SEGMENT
_this$ = -8						; size = 4
_x$ = 8							; size = 4
_y$ = 12						; size = 4
?Motion@KScene@@UAEXMM@Z PROC				; KScene::Motion, COMDAT
; _this$ = ecx

; 129  : 	virtual void Motion(float x, float y) { }

	push	ebp
	mov	ebp, esp
	sub	esp, 204				; 000000ccH
	push	ebx
	push	esi
	push	edi
	push	ecx
	lea	edi, DWORD PTR [ebp-204]
	mov	ecx, 51					; 00000033H
	mov	eax, -858993460				; ccccccccH
	rep stosd
	pop	ecx
	mov	DWORD PTR _this$[ebp], ecx
	pop	edi
	pop	esi
	pop	ebx
	mov	esp, ebp
	pop	ebp
	ret	8
?Motion@KScene@@UAEXMM@Z ENDP				; KScene::Motion
; Function compile flags: /Odtp /RTCsu /ZI
_TEXT	ENDS
;	COMDAT ?Keyboard@KScene@@UAEXHMM@Z
_TEXT	SEGMENT
_this$ = -8						; size = 4
_key$ = 8						; size = 4
_x$ = 12						; size = 4
_y$ = 16						; size = 4
?Keyboard@KScene@@UAEXHMM@Z PROC			; KScene::Keyboard, COMDAT
; _this$ = ecx

; 130  : 	virtual void Keyboard(int key, float x, float y) { }

	push	ebp
	mov	ebp, esp
	sub	esp, 204				; 000000ccH
	push	ebx
	push	esi
	push	edi
	push	ecx
	lea	edi, DWORD PTR [ebp-204]
	mov	ecx, 51					; 00000033H
	mov	eax, -858993460				; ccccccccH
	rep stosd
	pop	ecx
	mov	DWORD PTR _this$[ebp], ecx
	pop	edi
	pop	esi
	pop	ebx
	mov	esp, ebp
	pop	ebp
	ret	12					; 0000000cH
?Keyboard@KScene@@UAEXHMM@Z ENDP			; KScene::Keyboard
_TEXT	ENDS
PUBLIC	??1?$basic_string@DU?$char_traits@D@std@@V?$allocator@D@2@@std@@QAE@XZ ; std::basic_string<char,std::char_traits<char>,std::allocator<char> >::~basic_string<char,std::char_traits<char>,std::allocator<char> >
; Function compile flags: /Odtp /RTCsu /ZI
;	COMDAT ??1GLSLProgram@@QAE@XZ
_TEXT	SEGMENT
_this$ = -8						; size = 4
??1GLSLProgram@@QAE@XZ PROC				; GLSLProgram::~GLSLProgram, COMDAT
; _this$ = ecx
	push	ebp
	mov	ebp, esp
	sub	esp, 204				; 000000ccH
	push	ebx
	push	esi
	push	edi
	push	ecx
	lea	edi, DWORD PTR [ebp-204]
	mov	ecx, 51					; 00000033H
	mov	eax, -858993460				; ccccccccH
	rep stosd
	pop	ecx
	mov	DWORD PTR _this$[ebp], ecx
	mov	ecx, DWORD PTR _this$[ebp]
	add	ecx, 8
	call	??1?$basic_string@DU?$char_traits@D@std@@V?$allocator@D@2@@std@@QAE@XZ ; std::basic_string<char,std::char_traits<char>,std::allocator<char> >::~basic_string<char,std::char_traits<char>,std::allocator<char> >
	pop	edi
	pop	esi
	pop	ebx
	add	esp, 204				; 000000ccH
	cmp	ebp, esp
	call	__RTC_CheckEsp
	mov	esp, ebp
	pop	ebp
	ret	0
??1GLSLProgram@@QAE@XZ ENDP				; GLSLProgram::~GLSLProgram
_TEXT	ENDS
PUBLIC	??0?$tvec2@M@detail@glm@@QAE@XZ			; glm::detail::tvec2<float>::tvec2<float>
; Function compile flags: /Odtp /RTCsu /ZI
;	COMDAT ??0KMouse@@QAE@XZ
_TEXT	SEGMENT
_this$ = -8						; size = 4
??0KMouse@@QAE@XZ PROC					; KMouse::KMouse, COMDAT
; _this$ = ecx
	push	ebp
	mov	ebp, esp
	sub	esp, 204				; 000000ccH
	push	ebx
	push	esi
	push	edi
	push	ecx
	lea	edi, DWORD PTR [ebp-204]
	mov	ecx, 51					; 00000033H
	mov	eax, -858993460				; ccccccccH
	rep stosd
	pop	ecx
	mov	DWORD PTR _this$[ebp], ecx
	mov	ecx, DWORD PTR _this$[ebp]
	add	ecx, 8
	call	??0?$tvec2@M@detail@glm@@QAE@XZ		; glm::detail::tvec2<float>::tvec2<float>
	mov	eax, DWORD PTR _this$[ebp]
	pop	edi
	pop	esi
	pop	ebx
	add	esp, 204				; 000000ccH
	cmp	ebp, esp
	call	__RTC_CheckEsp
	mov	esp, ebp
	pop	ebp
	ret	0
??0KMouse@@QAE@XZ ENDP					; KMouse::KMouse
; Function compile flags: /Odtp /RTCsu /ZI
; File c:\users\kmadsen\google drive\opengl_projects\starter\starter\tessellation.cpp
_TEXT	ENDS
;	COMDAT ??1Tessellation@@UAE@XZ
_TEXT	SEGMENT
$T70621 = -212						; size = 4
_this$ = -8						; size = 4
??1Tessellation@@UAE@XZ PROC				; Tessellation::~Tessellation, COMDAT
; _this$ = ecx

; 18   : {

	push	ebp
	mov	ebp, esp
	sub	esp, 216				; 000000d8H
	push	ebx
	push	esi
	push	edi
	push	ecx
	lea	edi, DWORD PTR [ebp-216]
	mov	ecx, 54					; 00000036H
	mov	eax, -858993460				; ccccccccH
	rep stosd
	pop	ecx
	mov	DWORD PTR _this$[ebp], ecx
	mov	eax, DWORD PTR _this$[ebp]
	mov	DWORD PTR [eax], OFFSET ??_7Tessellation@@6B@

; 19   : 	delete m_Teapot;

	mov	eax, DWORD PTR _this$[ebp]
	mov	ecx, DWORD PTR [eax+44]
	mov	DWORD PTR $T70621[ebp], ecx
	mov	edx, DWORD PTR $T70621[ebp]
	push	edx
	call	??3@YAXPAX@Z				; operator delete
	add	esp, 4

; 20   : }

	mov	ecx, DWORD PTR _this$[ebp]
	add	ecx, 4
	call	??1GLSLProgram@@QAE@XZ
	pop	edi
	pop	esi
	pop	ebx
	add	esp, 216				; 000000d8H
	cmp	ebp, esp
	call	__RTC_CheckEsp
	mov	esp, ebp
	pop	ebp
	ret	0
??1Tessellation@@UAE@XZ ENDP				; Tessellation::~Tessellation
_TEXT	ENDS
PUBLIC	??_C@_08HCPOLCNB@MinDepth?$AA@			; `string'
PUBLIC	__real@40a00000
PUBLIC	??_C@_08KFBFAAJA@MaxDepth?$AA@			; `string'
PUBLIC	__real@41700000
PUBLIC	??_C@_0N@EECAIFGP@MaxTessLevel?$AA@		; `string'
PUBLIC	??_C@_0N@EGPPNBJ@MinTessLevel?$AA@		; `string'
PUBLIC	??_C@_02HNOAOKGP@Kd?$AA@			; `string'
PUBLIC	__real@3f666666
PUBLIC	??_C@_0P@PGLBHNJC@LightIntensity?$AA@		; `string'
PUBLIC	??0?$tvec3@M@detail@glm@@QAE@ABM00@Z		; glm::detail::tvec3<float>::tvec3<float>
PUBLIC	??_C@_0O@POHKLELN@LightPosition?$AA@		; `string'
PUBLIC	??_C@_09MJAANBBP@LineColor?$AA@			; `string'
PUBLIC	??0?$tvec4@M@detail@glm@@QAE@ABM000@Z		; glm::detail::tvec4<float>::tvec4<float>
PUBLIC	__real@3d4ccccd
PUBLIC	??_C@_09LLONPKJH@LineWidth?$AA@			; `string'
PUBLIC	__real@3f4ccccd
PUBLIC	__real@00000000
PUBLIC	__real@3e4ccccd
PUBLIC	__real@3f800000
PUBLIC	??_C@_0BJ@KBMGKFOO@Shaders?1tessellation?4tes?$AA@ ; `string'
PUBLIC	??_C@_0BJ@KFELNJFM@Shaders?1tessellation?4tcs?$AA@ ; `string'
PUBLIC	??_C@_0BK@KFDMKLHG@Shaders?1tessellation?4geom?$AA@ ; `string'
PUBLIC	??_C@_0BK@KFODCIGA@Shaders?1tessellation?4frag?$AA@ ; `string'
PUBLIC	??_C@_0BK@HHECIMHP@Shaders?1tessellation?4vert?$AA@ ; `string'
EXTRN	?SetUniform@GLSLProgram@@QAEXPBDH@Z:PROC	; GLSLProgram::SetUniform
EXTRN	?SetUniform@GLSLProgram@@QAEXPBDABU?$tvec3@M@detail@glm@@@Z:PROC ; GLSLProgram::SetUniform
EXTRN	?SetUniform@GLSLProgram@@QAEXPBDABU?$tvec4@M@detail@glm@@@Z:PROC ; GLSLProgram::SetUniform
EXTRN	?SetUniform@GLSLProgram@@QAEXPBDM@Z:PROC	; GLSLProgram::SetUniform
EXTRN	__imp__glEnable@4:PROC
EXTRN	__imp__glClearColor@16:PROC
EXTRN	?Use@GLSLProgram@@QAEXXZ:PROC			; GLSLProgram::Use
EXTRN	?Link@GLSLProgram@@QAE_NXZ:PROC			; GLSLProgram::Link
EXTRN	__imp__exit:PROC
EXTRN	?CompileShaderFromFile@GLSLProgram@@QAE_NPBDW4GLSLShaderType@GLSLShader@@@Z:PROC ; GLSLProgram::CompileShaderFromFile
EXTRN	__fltused:DWORD
;	COMDAT ??_C@_08HCPOLCNB@MinDepth?$AA@
CONST	SEGMENT
??_C@_08HCPOLCNB@MinDepth?$AA@ DB 'MinDepth', 00H	; `string'
CONST	ENDS
;	COMDAT __real@40a00000
CONST	SEGMENT
__real@40a00000 DD 040a00000r			; 5
CONST	ENDS
;	COMDAT ??_C@_08KFBFAAJA@MaxDepth?$AA@
CONST	SEGMENT
??_C@_08KFBFAAJA@MaxDepth?$AA@ DB 'MaxDepth', 00H	; `string'
CONST	ENDS
;	COMDAT __real@41700000
CONST	SEGMENT
__real@41700000 DD 041700000r			; 15
CONST	ENDS
;	COMDAT ??_C@_0N@EECAIFGP@MaxTessLevel?$AA@
CONST	SEGMENT
??_C@_0N@EECAIFGP@MaxTessLevel?$AA@ DB 'MaxTessLevel', 00H ; `string'
CONST	ENDS
;	COMDAT ??_C@_0N@EGPPNBJ@MinTessLevel?$AA@
CONST	SEGMENT
??_C@_0N@EGPPNBJ@MinTessLevel?$AA@ DB 'MinTessLevel', 00H ; `string'
CONST	ENDS
;	COMDAT ??_C@_02HNOAOKGP@Kd?$AA@
CONST	SEGMENT
??_C@_02HNOAOKGP@Kd?$AA@ DB 'Kd', 00H			; `string'
CONST	ENDS
;	COMDAT __real@3f666666
CONST	SEGMENT
__real@3f666666 DD 03f666666r			; 0.9
CONST	ENDS
;	COMDAT ??_C@_0P@PGLBHNJC@LightIntensity?$AA@
CONST	SEGMENT
??_C@_0P@PGLBHNJC@LightIntensity?$AA@ DB 'LightIntensity', 00H ; `string'
CONST	ENDS
;	COMDAT ??_C@_0O@POHKLELN@LightPosition?$AA@
CONST	SEGMENT
??_C@_0O@POHKLELN@LightPosition?$AA@ DB 'LightPosition', 00H ; `string'
CONST	ENDS
;	COMDAT ??_C@_09MJAANBBP@LineColor?$AA@
CONST	SEGMENT
??_C@_09MJAANBBP@LineColor?$AA@ DB 'LineColor', 00H	; `string'
CONST	ENDS
;	COMDAT __real@3d4ccccd
CONST	SEGMENT
__real@3d4ccccd DD 03d4ccccdr			; 0.05
CONST	ENDS
;	COMDAT ??_C@_09LLONPKJH@LineWidth?$AA@
CONST	SEGMENT
??_C@_09LLONPKJH@LineWidth?$AA@ DB 'LineWidth', 00H	; `string'
CONST	ENDS
;	COMDAT __real@3f4ccccd
CONST	SEGMENT
__real@3f4ccccd DD 03f4ccccdr			; 0.8
CONST	ENDS
;	COMDAT __real@00000000
CONST	SEGMENT
__real@00000000 DD 000000000r			; 0
CONST	ENDS
;	COMDAT __real@3e4ccccd
CONST	SEGMENT
__real@3e4ccccd DD 03e4ccccdr			; 0.2
CONST	ENDS
;	COMDAT __real@3f800000
CONST	SEGMENT
__real@3f800000 DD 03f800000r			; 1
CONST	ENDS
;	COMDAT ??_C@_0BJ@KBMGKFOO@Shaders?1tessellation?4tes?$AA@
CONST	SEGMENT
??_C@_0BJ@KBMGKFOO@Shaders?1tessellation?4tes?$AA@ DB 'Shaders/tessellati'
	DB	'on.tes', 00H				; `string'
CONST	ENDS
;	COMDAT ??_C@_0BJ@KFELNJFM@Shaders?1tessellation?4tcs?$AA@
CONST	SEGMENT
??_C@_0BJ@KFELNJFM@Shaders?1tessellation?4tcs?$AA@ DB 'Shaders/tessellati'
	DB	'on.tcs', 00H				; `string'
CONST	ENDS
;	COMDAT ??_C@_0BK@KFDMKLHG@Shaders?1tessellation?4geom?$AA@
CONST	SEGMENT
??_C@_0BK@KFDMKLHG@Shaders?1tessellation?4geom?$AA@ DB 'Shaders/tessellat'
	DB	'ion.geom', 00H				; `string'
CONST	ENDS
;	COMDAT ??_C@_0BK@KFODCIGA@Shaders?1tessellation?4frag?$AA@
CONST	SEGMENT
??_C@_0BK@KFODCIGA@Shaders?1tessellation?4frag?$AA@ DB 'Shaders/tessellat'
	DB	'ion.frag', 00H				; `string'
CONST	ENDS
;	COMDAT ??_C@_0BK@HHECIMHP@Shaders?1tessellation?4vert?$AA@
CONST	SEGMENT
??_C@_0BK@HHECIMHP@Shaders?1tessellation?4vert?$AA@ DB 'Shaders/tessellat'
	DB	'ion.vert', 00H				; `string'
; Function compile flags: /Odtp /RTCsu /ZI
CONST	ENDS
;	COMDAT ?Init@Tessellation@@UAEXXZ
_TEXT	SEGMENT
$T70625 = -456						; size = 16
$T70626 = -432						; size = 4
$T70627 = -420						; size = 4
$T70628 = -408						; size = 4
$T70629 = -396						; size = 4
$T70630 = -384						; size = 16
$T70631 = -360						; size = 4
$T70632 = -348						; size = 4
$T70633 = -336						; size = 4
$T70634 = -324						; size = 4
$T70635 = -312						; size = 12
$T70636 = -292						; size = 4
$T70637 = -280						; size = 4
$T70638 = -268						; size = 4
$T70639 = -256						; size = 12
$T70640 = -236						; size = 4
$T70641 = -224						; size = 4
$T70642 = -212						; size = 4
_this$ = -8						; size = 4
?Init@Tessellation@@UAEXXZ PROC				; Tessellation::Init, COMDAT
; _this$ = ecx

; 24   : {

	push	ebp
	mov	ebp, esp
	sub	esp, 460				; 000001ccH
	push	ebx
	push	esi
	push	edi
	push	ecx
	lea	edi, DWORD PTR [ebp-460]
	mov	ecx, 115				; 00000073H
	mov	eax, -858993460				; ccccccccH
	rep stosd
	pop	ecx
	mov	DWORD PTR _this$[ebp], ecx

; 25   : 	// Compile and link shaders
; 26   : 	if (!m_Program.CompileShaderFromFile("Shaders/tessellation.vert", GLSLShader::VERTEX)) {

	push	0
	push	OFFSET ??_C@_0BK@HHECIMHP@Shaders?1tessellation?4vert?$AA@
	mov	ecx, DWORD PTR _this$[ebp]
	add	ecx, 4
	call	?CompileShaderFromFile@GLSLProgram@@QAE_NPBDW4GLSLShaderType@GLSLShader@@@Z ; GLSLProgram::CompileShaderFromFile
	movzx	eax, al
	test	eax, eax
	jne	SHORT $LN6@Init

; 27   : 		exit(1);

	mov	esi, esp
	push	1
	call	DWORD PTR __imp__exit
	cmp	esi, esp
	call	__RTC_CheckEsp
$LN6@Init:

; 28   : 	}
; 29   : 	if (!m_Program.CompileShaderFromFile("Shaders/tessellation.frag", GLSLShader::FRAGMENT)) {

	push	1
	push	OFFSET ??_C@_0BK@KFODCIGA@Shaders?1tessellation?4frag?$AA@
	mov	ecx, DWORD PTR _this$[ebp]
	add	ecx, 4
	call	?CompileShaderFromFile@GLSLProgram@@QAE_NPBDW4GLSLShaderType@GLSLShader@@@Z ; GLSLProgram::CompileShaderFromFile
	movzx	eax, al
	test	eax, eax
	jne	SHORT $LN5@Init

; 30   : 		exit(1);

	mov	esi, esp
	push	1
	call	DWORD PTR __imp__exit
	cmp	esi, esp
	call	__RTC_CheckEsp
$LN5@Init:

; 31   : 	}
; 32   : 	if (!m_Program.CompileShaderFromFile("Shaders/tessellation.geom", GLSLShader::GEOMETRY)) {

	push	2
	push	OFFSET ??_C@_0BK@KFDMKLHG@Shaders?1tessellation?4geom?$AA@
	mov	ecx, DWORD PTR _this$[ebp]
	add	ecx, 4
	call	?CompileShaderFromFile@GLSLProgram@@QAE_NPBDW4GLSLShaderType@GLSLShader@@@Z ; GLSLProgram::CompileShaderFromFile
	movzx	eax, al
	test	eax, eax
	jne	SHORT $LN4@Init

; 33   : 		exit(1);

	mov	esi, esp
	push	1
	call	DWORD PTR __imp__exit
	cmp	esi, esp
	call	__RTC_CheckEsp
$LN4@Init:

; 34   : 	}
; 35   : 	if (!m_Program.CompileShaderFromFile("Shaders/tessellation.tcs", GLSLShader::TESS_CONTROL)) {

	push	3
	push	OFFSET ??_C@_0BJ@KFELNJFM@Shaders?1tessellation?4tcs?$AA@
	mov	ecx, DWORD PTR _this$[ebp]
	add	ecx, 4
	call	?CompileShaderFromFile@GLSLProgram@@QAE_NPBDW4GLSLShaderType@GLSLShader@@@Z ; GLSLProgram::CompileShaderFromFile
	movzx	eax, al
	test	eax, eax
	jne	SHORT $LN3@Init

; 36   : 		exit(1);

	mov	esi, esp
	push	1
	call	DWORD PTR __imp__exit
	cmp	esi, esp
	call	__RTC_CheckEsp
$LN3@Init:

; 37   : 	}
; 38   : 	if (!m_Program.CompileShaderFromFile("Shaders/tessellation.tes", GLSLShader::TESS_EVALUATION)) {

	push	4
	push	OFFSET ??_C@_0BJ@KBMGKFOO@Shaders?1tessellation?4tes?$AA@
	mov	ecx, DWORD PTR _this$[ebp]
	add	ecx, 4
	call	?CompileShaderFromFile@GLSLProgram@@QAE_NPBDW4GLSLShaderType@GLSLShader@@@Z ; GLSLProgram::CompileShaderFromFile
	movzx	eax, al
	test	eax, eax
	jne	SHORT $LN2@Init

; 39   : 		exit(1);

	mov	esi, esp
	push	1
	call	DWORD PTR __imp__exit
	cmp	esi, esp
	call	__RTC_CheckEsp
$LN2@Init:

; 40   : 	}
; 41   : 	if (!m_Program.Link()) {

	mov	ecx, DWORD PTR _this$[ebp]
	add	ecx, 4
	call	?Link@GLSLProgram@@QAE_NXZ		; GLSLProgram::Link
	movzx	eax, al
	test	eax, eax
	jne	SHORT $LN1@Init

; 42   : 		exit(1);

	mov	esi, esp
	push	1
	call	DWORD PTR __imp__exit
	cmp	esi, esp
	call	__RTC_CheckEsp
$LN1@Init:

; 43   : 	}
; 44   : 	m_Program.Use();

	mov	ecx, DWORD PTR _this$[ebp]
	add	ecx, 4
	call	?Use@GLSLProgram@@QAEXXZ		; GLSLProgram::Use

; 45   : 
; 46   : 	// Initialize gl
; 47   : 	glClearColor(0.2f,0.2f,0.2f,1.0f);

	mov	esi, esp
	push	ecx
	fld1
	fstp	DWORD PTR [esp]
	push	ecx
	fld	DWORD PTR __real@3e4ccccd
	fstp	DWORD PTR [esp]
	push	ecx
	fld	DWORD PTR __real@3e4ccccd
	fstp	DWORD PTR [esp]
	push	ecx
	fld	DWORD PTR __real@3e4ccccd
	fstp	DWORD PTR [esp]
	call	DWORD PTR __imp__glClearColor@16
	cmp	esi, esp
	call	__RTC_CheckEsp

; 48   : 	glEnable(GL_DEPTH_TEST);

	mov	esi, esp
	push	2929					; 00000b71H
	call	DWORD PTR __imp__glEnable@4
	cmp	esi, esp
	call	__RTC_CheckEsp

; 49   : 
; 50   : 	m_Angle = 0.0f;

	mov	eax, DWORD PTR _this$[ebp]
	fldz
	fstp	DWORD PTR [eax+324]

; 51   : 	m_TessLevel = 4;

	mov	eax, DWORD PTR _this$[ebp]
	mov	DWORD PTR [eax+320], 4

; 52   : 
; 53   :     ///////////// Uniforms //////////////////////
; 54   : 	//m_Program.SetUniform("TessLevel", m_TessLevel);
; 55   :     m_Program.SetUniform("LineWidth", 0.8f);

	push	ecx
	fld	DWORD PTR __real@3f4ccccd
	fstp	DWORD PTR [esp]
	push	OFFSET ??_C@_09LLONPKJH@LineWidth?$AA@
	mov	ecx, DWORD PTR _this$[ebp]
	add	ecx, 4
	call	?SetUniform@GLSLProgram@@QAEXPBDM@Z	; GLSLProgram::SetUniform

; 56   :     m_Program.SetUniform("LineColor", vec4(0.05f,0.0f,0.05f,1.0f));

	fld1
	fstp	DWORD PTR $T70626[ebp]
	fld	DWORD PTR __real@3d4ccccd
	fstp	DWORD PTR $T70627[ebp]
	fldz
	fstp	DWORD PTR $T70628[ebp]
	fld	DWORD PTR __real@3d4ccccd
	fstp	DWORD PTR $T70629[ebp]
	lea	eax, DWORD PTR $T70626[ebp]
	push	eax
	lea	ecx, DWORD PTR $T70627[ebp]
	push	ecx
	lea	edx, DWORD PTR $T70628[ebp]
	push	edx
	lea	eax, DWORD PTR $T70629[ebp]
	push	eax
	lea	ecx, DWORD PTR $T70625[ebp]
	call	??0?$tvec4@M@detail@glm@@QAE@ABM000@Z	; glm::detail::tvec4<float>::tvec4<float>
	push	eax
	push	OFFSET ??_C@_09MJAANBBP@LineColor?$AA@
	mov	ecx, DWORD PTR _this$[ebp]
	add	ecx, 4
	call	?SetUniform@GLSLProgram@@QAEXPBDABU?$tvec4@M@detail@glm@@@Z ; GLSLProgram::SetUniform

; 57   :     m_Program.SetUniform("LightPosition", vec4(0.0f,0.0f,0.0f,1.0f));

	fld1
	fstp	DWORD PTR $T70631[ebp]
	fldz
	fstp	DWORD PTR $T70632[ebp]
	fldz
	fstp	DWORD PTR $T70633[ebp]
	fldz
	fstp	DWORD PTR $T70634[ebp]
	lea	eax, DWORD PTR $T70631[ebp]
	push	eax
	lea	ecx, DWORD PTR $T70632[ebp]
	push	ecx
	lea	edx, DWORD PTR $T70633[ebp]
	push	edx
	lea	eax, DWORD PTR $T70634[ebp]
	push	eax
	lea	ecx, DWORD PTR $T70630[ebp]
	call	??0?$tvec4@M@detail@glm@@QAE@ABM000@Z	; glm::detail::tvec4<float>::tvec4<float>
	push	eax
	push	OFFSET ??_C@_0O@POHKLELN@LightPosition?$AA@
	mov	ecx, DWORD PTR _this$[ebp]
	add	ecx, 4
	call	?SetUniform@GLSLProgram@@QAEXPBDABU?$tvec4@M@detail@glm@@@Z ; GLSLProgram::SetUniform

; 58   :     m_Program.SetUniform("LightIntensity", vec3(1.0f,1.0f,1.0f));

	fld1
	fstp	DWORD PTR $T70636[ebp]
	fld1
	fstp	DWORD PTR $T70637[ebp]
	fld1
	fstp	DWORD PTR $T70638[ebp]
	lea	eax, DWORD PTR $T70636[ebp]
	push	eax
	lea	ecx, DWORD PTR $T70637[ebp]
	push	ecx
	lea	edx, DWORD PTR $T70638[ebp]
	push	edx
	lea	ecx, DWORD PTR $T70635[ebp]
	call	??0?$tvec3@M@detail@glm@@QAE@ABM00@Z	; glm::detail::tvec3<float>::tvec3<float>
	push	eax
	push	OFFSET ??_C@_0P@PGLBHNJC@LightIntensity?$AA@
	mov	ecx, DWORD PTR _this$[ebp]
	add	ecx, 4
	call	?SetUniform@GLSLProgram@@QAEXPBDABU?$tvec3@M@detail@glm@@@Z ; GLSLProgram::SetUniform

; 59   :     m_Program.SetUniform("Kd", vec3(0.9f, 0.9f, 1.0f));

	fld1
	fstp	DWORD PTR $T70640[ebp]
	fld	DWORD PTR __real@3f666666
	fstp	DWORD PTR $T70641[ebp]
	fld	DWORD PTR __real@3f666666
	fstp	DWORD PTR $T70642[ebp]
	lea	eax, DWORD PTR $T70640[ebp]
	push	eax
	lea	ecx, DWORD PTR $T70641[ebp]
	push	ecx
	lea	edx, DWORD PTR $T70642[ebp]
	push	edx
	lea	ecx, DWORD PTR $T70639[ebp]
	call	??0?$tvec3@M@detail@glm@@QAE@ABM00@Z	; glm::detail::tvec3<float>::tvec3<float>
	push	eax
	push	OFFSET ??_C@_02HNOAOKGP@Kd?$AA@
	mov	ecx, DWORD PTR _this$[ebp]
	add	ecx, 4
	call	?SetUniform@GLSLProgram@@QAEXPBDABU?$tvec3@M@detail@glm@@@Z ; GLSLProgram::SetUniform

; 60   : 
; 61   :     m_Program.SetUniform("MinTessLevel", 2);

	push	2
	push	OFFSET ??_C@_0N@EGPPNBJ@MinTessLevel?$AA@
	mov	ecx, DWORD PTR _this$[ebp]
	add	ecx, 4
	call	?SetUniform@GLSLProgram@@QAEXPBDH@Z	; GLSLProgram::SetUniform

; 62   :     m_Program.SetUniform("MaxTessLevel", 20);

	push	20					; 00000014H
	push	OFFSET ??_C@_0N@EECAIFGP@MaxTessLevel?$AA@
	mov	ecx, DWORD PTR _this$[ebp]
	add	ecx, 4
	call	?SetUniform@GLSLProgram@@QAEXPBDH@Z	; GLSLProgram::SetUniform

; 63   :     m_Program.SetUniform("MaxDepth", 15.0f);

	push	ecx
	fld	DWORD PTR __real@41700000
	fstp	DWORD PTR [esp]
	push	OFFSET ??_C@_08KFBFAAJA@MaxDepth?$AA@
	mov	ecx, DWORD PTR _this$[ebp]
	add	ecx, 4
	call	?SetUniform@GLSLProgram@@QAEXPBDM@Z	; GLSLProgram::SetUniform

; 64   :     m_Program.SetUniform("MinDepth", 5.0f);

	push	ecx
	fld	DWORD PTR __real@40a00000
	fstp	DWORD PTR [esp]
	push	OFFSET ??_C@_08HCPOLCNB@MinDepth?$AA@
	mov	ecx, DWORD PTR _this$[ebp]
	add	ecx, 4
	call	?SetUniform@GLSLProgram@@QAEXPBDM@Z	; GLSLProgram::SetUniform
$LN7@Init:

; 65   :     /////////////////////////////////////////////
; 66   : }

	pop	edi
	pop	esi
	pop	ebx
	add	esp, 460				; 000001ccH
	cmp	ebp, esp
	call	__RTC_CheckEsp
	mov	esp, ebp
	pop	ebp
	ret	0
?Init@Tessellation@@UAEXXZ ENDP				; Tessellation::Init
_TEXT	ENDS
PUBLIC	__real@401921fb60000000
PUBLIC	__real@401921fb54442d18
PUBLIC	?SetPosition@KMouse@@QAEXMM@Z			; KMouse::SetPosition
;	COMDAT __real@401921fb60000000
CONST	SEGMENT
__real@401921fb60000000 DQ 0401921fb60000000r	; 6.28319
CONST	ENDS
;	COMDAT __real@401921fb54442d18
CONST	SEGMENT
__real@401921fb54442d18 DQ 0401921fb54442d18r	; 6.28319
; Function compile flags: /Odtp /RTCsu /ZI
CONST	ENDS
;	COMDAT ?Motion@Tessellation@@UAEXMM@Z
_TEXT	SEGMENT
_dx$ = -20						; size = 4
_this$ = -8						; size = 4
_x$ = 8							; size = 4
_y$ = 12						; size = 4
?Motion@Tessellation@@UAEXMM@Z PROC			; Tessellation::Motion, COMDAT
; _this$ = ecx

; 69   : {

	push	ebp
	mov	ebp, esp
	sub	esp, 216				; 000000d8H
	push	ebx
	push	esi
	push	edi
	push	ecx
	lea	edi, DWORD PTR [ebp-216]
	mov	ecx, 54					; 00000036H
	mov	eax, -858993460				; ccccccccH
	rep stosd
	pop	ecx
	mov	DWORD PTR _this$[ebp], ecx

; 70   : 	float dx = x - m_Mouse.Position.x;

	fld	DWORD PTR _x$[ebp]
	mov	eax, DWORD PTR _this$[ebp]
	fsub	DWORD PTR [eax+312]
	fstp	DWORD PTR _dx$[ebp]

; 71   : 	m_Mouse.SetPosition(x, m_Mouse.Position.y);

	mov	eax, DWORD PTR _this$[ebp]
	push	ecx
	fld	DWORD PTR [eax+316]
	fstp	DWORD PTR [esp]
	push	ecx
	fld	DWORD PTR _x$[ebp]
	fstp	DWORD PTR [esp]
	mov	ecx, DWORD PTR _this$[ebp]
	add	ecx, 304				; 00000130H
	call	?SetPosition@KMouse@@QAEXMM@Z		; KMouse::SetPosition

; 72   :     m_Angle += dx + dx;

	fld	DWORD PTR _dx$[ebp]
	fadd	DWORD PTR _dx$[ebp]
	mov	eax, DWORD PTR _this$[ebp]
	fadd	DWORD PTR [eax+324]
	mov	ecx, DWORD PTR _this$[ebp]
	fstp	DWORD PTR [ecx+324]

; 73   :     if( m_Angle > TWOPI) m_Angle -= static_cast<float>(TWOPI);

	mov	eax, DWORD PTR _this$[ebp]
	fld	DWORD PTR [eax+324]
	fcomp	QWORD PTR __real@401921fb54442d18
	fnstsw	ax
	test	ah, 65					; 00000041H
	jne	SHORT $LN1@Motion
	mov	eax, DWORD PTR _this$[ebp]
	fld	DWORD PTR [eax+324]
	fsub	QWORD PTR __real@401921fb60000000
	mov	ecx, DWORD PTR _this$[ebp]
	fstp	DWORD PTR [ecx+324]
$LN1@Motion:

; 74   : }

	pop	edi
	pop	esi
	pop	ebx
	add	esp, 216				; 000000d8H
	cmp	ebp, esp
	call	__RTC_CheckEsp
	mov	esp, ebp
	pop	ebp
	ret	8
?Motion@Tessellation@@UAEXMM@Z ENDP			; Tessellation::Motion
; Function compile flags: /Odtp /RTCsu /ZI
; File c:\users\kmadsen\google drive\opengl_projects\starter\starter\kscene.h
_TEXT	ENDS
;	COMDAT ?SetPosition@KMouse@@QAEXMM@Z
_TEXT	SEGMENT
_this$ = -8						; size = 4
_x$ = 8							; size = 4
_y$ = 12						; size = 4
?SetPosition@KMouse@@QAEXMM@Z PROC			; KMouse::SetPosition, COMDAT
; _this$ = ecx

; 111  : 	{

	push	ebp
	mov	ebp, esp
	sub	esp, 204				; 000000ccH
	push	ebx
	push	esi
	push	edi
	push	ecx
	lea	edi, DWORD PTR [ebp-204]
	mov	ecx, 51					; 00000033H
	mov	eax, -858993460				; ccccccccH
	rep stosd
	pop	ecx
	mov	DWORD PTR _this$[ebp], ecx

; 112  : 		Position.x = x; Position.y = y;

	mov	eax, DWORD PTR _this$[ebp]
	fld	DWORD PTR _x$[ebp]
	fstp	DWORD PTR [eax+8]
	mov	eax, DWORD PTR _this$[ebp]
	fld	DWORD PTR _y$[ebp]
	fstp	DWORD PTR [eax+12]

; 113  : 	}

	pop	edi
	pop	esi
	pop	ebx
	mov	esp, ebp
	pop	ebp
	ret	8
?SetPosition@KMouse@@QAEXMM@Z ENDP			; KMouse::SetPosition
; Function compile flags: /Odtp /RTCsu /ZI
; File c:\users\kmadsen\google drive\opengl_projects\starter\starter\tessellation.cpp
_TEXT	ENDS
;	COMDAT ?Keyboard@Tessellation@@UAEXHMM@Z
_TEXT	SEGMENT
_this$ = -8						; size = 4
_key$ = 8						; size = 4
_x$ = 12						; size = 4
_y$ = 16						; size = 4
?Keyboard@Tessellation@@UAEXHMM@Z PROC			; Tessellation::Keyboard, COMDAT
; _this$ = ecx

; 77   : {

	push	ebp
	mov	ebp, esp
	sub	esp, 204				; 000000ccH
	push	ebx
	push	esi
	push	edi
	push	ecx
	lea	edi, DWORD PTR [ebp-204]
	mov	ecx, 51					; 00000033H
	mov	eax, -858993460				; ccccccccH
	rep stosd
	pop	ecx
	mov	DWORD PTR _this$[ebp], ecx

; 78   : 	if (key == 'u' || key == 'U') {

	cmp	DWORD PTR _key$[ebp], 117		; 00000075H
	je	SHORT $LN4@Keyboard
	cmp	DWORD PTR _key$[ebp], 85		; 00000055H
	jne	SHORT $LN5@Keyboard
$LN4@Keyboard:

; 79   : 		m_TessLevel++;

	mov	eax, DWORD PTR _this$[ebp]
	mov	ecx, DWORD PTR [eax+320]
	add	ecx, 1
	mov	edx, DWORD PTR _this$[ebp]
	mov	DWORD PTR [edx+320], ecx
	jmp	SHORT $LN2@Keyboard
$LN5@Keyboard:

; 80   : 	}
; 81   : 	else if (key == 'd' || key == 'D') {

	cmp	DWORD PTR _key$[ebp], 100		; 00000064H
	je	SHORT $LN1@Keyboard
	cmp	DWORD PTR _key$[ebp], 68		; 00000044H
	jne	SHORT $LN2@Keyboard
$LN1@Keyboard:

; 82   : 		m_TessLevel--;

	mov	eax, DWORD PTR _this$[ebp]
	mov	ecx, DWORD PTR [eax+320]
	sub	ecx, 1
	mov	edx, DWORD PTR _this$[ebp]
	mov	DWORD PTR [edx+320], ecx
$LN2@Keyboard:

; 83   : 	}
; 84   : 	//m_Program.SetUniform("TessLevel", m_TessLevel);
; 85   : 	m_Mouse.SetPosition(x, y);

	push	ecx
	fld	DWORD PTR _y$[ebp]
	fstp	DWORD PTR [esp]
	push	ecx
	fld	DWORD PTR _x$[ebp]
	fstp	DWORD PTR [esp]
	mov	ecx, DWORD PTR _this$[ebp]
	add	ecx, 304				; 00000130H
	call	?SetPosition@KMouse@@QAEXMM@Z		; KMouse::SetPosition

; 86   : }

	pop	edi
	pop	esi
	pop	ebx
	add	esp, 204				; 000000ccH
	cmp	ebp, esp
	call	__RTC_CheckEsp
	mov	esp, ebp
	pop	ebp
	ret	12					; 0000000cH
?Keyboard@Tessellation@@UAEXHMM@Z ENDP			; Tessellation::Keyboard
_TEXT	ENDS
PUBLIC	??0?$tmat4x4@M@detail@glm@@QAE@ABU?$tvec4@M@12@000@Z ; glm::detail::tmat4x4<float>::tmat4x4<float>
PUBLIC	__real@0000000000000000
PUBLIC	__real@4000000000000000
PUBLIC	??4?$tmat4x4@M@detail@glm@@QAEAAU012@ABU012@@Z	; glm::detail::tmat4x4<float>::operator=
PUBLIC	??$perspective@M@glm@@YA?AU?$tmat4x4@M@detail@0@ABM000@Z ; glm::perspective<float>
PUBLIC	__real@42480000
PUBLIC	__real@3e99999a
PUBLIC	__real@42c80000
PUBLIC	__$ArrayPad$
EXTRN	__imp__glViewport@16:PROC
EXTRN	@_RTC_CheckStackVars@8:PROC
;	COMDAT __real@0000000000000000
CONST	SEGMENT
__real@0000000000000000 DQ 00000000000000000r	; 0
CONST	ENDS
;	COMDAT __real@4000000000000000
CONST	SEGMENT
__real@4000000000000000 DQ 04000000000000000r	; 2
CONST	ENDS
;	COMDAT __real@42480000
CONST	SEGMENT
__real@42480000 DD 042480000r			; 50
CONST	ENDS
;	COMDAT __real@3e99999a
CONST	SEGMENT
__real@3e99999a DD 03e99999ar			; 0.3
CONST	ENDS
;	COMDAT __real@42c80000
CONST	SEGMENT
__real@42c80000 DD 042c80000r			; 100
; Function compile flags: /Odtp /RTCsu /ZI
CONST	ENDS
;	COMDAT ?Resize@Tessellation@@UAEXHH@Z
_TEXT	SEGMENT
$T70673 = -684						; size = 4
$T70674 = -672						; size = 4
$T70675 = -660						; size = 4
$T70676 = -648						; size = 4
$T70677 = -636						; size = 16
$T70678 = -612						; size = 4
$T70679 = -600						; size = 4
$T70680 = -588						; size = 4
$T70681 = -576						; size = 4
$T70682 = -564						; size = 16
$T70683 = -540						; size = 4
$T70684 = -528						; size = 4
$T70685 = -516						; size = 4
$T70686 = -504						; size = 4
$T70687 = -492						; size = 16
$T70688 = -468						; size = 4
$T70689 = -456						; size = 4
$T70690 = -444						; size = 4
$T70691 = -432						; size = 16
$T70692 = -408						; size = 4
$T70693 = -396						; size = 4
$T70694 = -384						; size = 4
$T62763 = -372						; size = 64
$T62799 = -300						; size = 64
_h2$ = -36						; size = 4
_w2$ = -24						; size = 4
_this$ = -12						; size = 4
__$ArrayPad$ = -4					; size = 4
_width$ = 8						; size = 4
_height$ = 12						; size = 4
?Resize@Tessellation@@UAEXHH@Z PROC			; Tessellation::Resize, COMDAT
; _this$ = ecx

; 89   : {

	push	ebp
	mov	ebp, esp
	sub	esp, 688				; 000002b0H
	push	ebx
	push	esi
	push	edi
	push	ecx
	lea	edi, DWORD PTR [ebp-688]
	mov	ecx, 172				; 000000acH
	mov	eax, -858993460				; ccccccccH
	rep stosd
	pop	ecx
	mov	eax, DWORD PTR ___security_cookie
	xor	eax, ebp
	mov	DWORD PTR __$ArrayPad$[ebp], eax
	mov	DWORD PTR _this$[ebp], ecx

; 90   :     glViewport(0,0,width,height);

	mov	esi, esp
	mov	eax, DWORD PTR _height$[ebp]
	push	eax
	mov	ecx, DWORD PTR _width$[ebp]
	push	ecx
	push	0
	push	0
	call	DWORD PTR __imp__glViewport@16
	cmp	esi, esp
	call	__RTC_CheckEsp

; 91   :     m_Projection = glm::perspective(50.0f, (float)width/height, 0.3f, 100.0f);

	fld	DWORD PTR __real@42c80000
	fstp	DWORD PTR $T70673[ebp]
	fld	DWORD PTR __real@3e99999a
	fstp	DWORD PTR $T70674[ebp]
	fild	DWORD PTR _width$[ebp]
	fidiv	DWORD PTR _height$[ebp]
	fstp	DWORD PTR $T70675[ebp]
	fld	DWORD PTR __real@42480000
	fstp	DWORD PTR $T70676[ebp]
	lea	eax, DWORD PTR $T70673[ebp]
	push	eax
	lea	ecx, DWORD PTR $T70674[ebp]
	push	ecx
	lea	edx, DWORD PTR $T70675[ebp]
	push	edx
	lea	eax, DWORD PTR $T70676[ebp]
	push	eax
	lea	ecx, DWORD PTR $T62763[ebp]
	push	ecx
	call	??$perspective@M@glm@@YA?AU?$tmat4x4@M@detail@0@ABM000@Z ; glm::perspective<float>
	add	esp, 20					; 00000014H
	push	eax
	mov	ecx, DWORD PTR _this$[ebp]
	add	ecx, 48					; 00000030H
	call	??4?$tmat4x4@M@detail@glm@@QAEAAU012@ABU012@@Z ; glm::detail::tmat4x4<float>::operator=

; 92   : 
; 93   : 	float w2 = width / 2.0f;

	fild	DWORD PTR _width$[ebp]
	fdiv	QWORD PTR __real@4000000000000000
	fstp	DWORD PTR _w2$[ebp]

; 94   :     float h2 = height / 2.0f;

	fild	DWORD PTR _height$[ebp]
	fdiv	QWORD PTR __real@4000000000000000
	fstp	DWORD PTR _h2$[ebp]

; 95   :     m_Viewport = mat4( vec4(w2,0.0f,0.0f,0.0f),
; 96   :                      vec4(0.0f,h2,0.0f,0.0f),
; 97   :                      vec4(0.0f,0.0f,1.0f,0.0f),
; 98   :                      vec4(w2+0, h2+0, 0.0f, 1.0f));

	fld1
	fstp	DWORD PTR $T70678[ebp]
	fldz
	fstp	DWORD PTR $T70679[ebp]
	fld	DWORD PTR _h2$[ebp]
	fadd	QWORD PTR __real@0000000000000000
	fstp	DWORD PTR $T70680[ebp]
	fld	DWORD PTR _w2$[ebp]
	fadd	QWORD PTR __real@0000000000000000
	fstp	DWORD PTR $T70681[ebp]
	fldz
	fstp	DWORD PTR $T70683[ebp]
	fld1
	fstp	DWORD PTR $T70684[ebp]
	fldz
	fstp	DWORD PTR $T70685[ebp]
	fldz
	fstp	DWORD PTR $T70686[ebp]
	fldz
	fstp	DWORD PTR $T70688[ebp]
	fldz
	fstp	DWORD PTR $T70689[ebp]
	fldz
	fstp	DWORD PTR $T70690[ebp]
	fldz
	fstp	DWORD PTR $T70692[ebp]
	fldz
	fstp	DWORD PTR $T70693[ebp]
	fldz
	fstp	DWORD PTR $T70694[ebp]
	lea	eax, DWORD PTR $T70678[ebp]
	push	eax
	lea	ecx, DWORD PTR $T70679[ebp]
	push	ecx
	lea	edx, DWORD PTR $T70680[ebp]
	push	edx
	lea	eax, DWORD PTR $T70681[ebp]
	push	eax
	lea	ecx, DWORD PTR $T70677[ebp]
	call	??0?$tvec4@M@detail@glm@@QAE@ABM000@Z	; glm::detail::tvec4<float>::tvec4<float>
	push	eax
	lea	ecx, DWORD PTR $T70683[ebp]
	push	ecx
	lea	edx, DWORD PTR $T70684[ebp]
	push	edx
	lea	eax, DWORD PTR $T70685[ebp]
	push	eax
	lea	ecx, DWORD PTR $T70686[ebp]
	push	ecx
	lea	ecx, DWORD PTR $T70682[ebp]
	call	??0?$tvec4@M@detail@glm@@QAE@ABM000@Z	; glm::detail::tvec4<float>::tvec4<float>
	push	eax
	lea	edx, DWORD PTR $T70688[ebp]
	push	edx
	lea	eax, DWORD PTR $T70689[ebp]
	push	eax
	lea	ecx, DWORD PTR _h2$[ebp]
	push	ecx
	lea	edx, DWORD PTR $T70690[ebp]
	push	edx
	lea	ecx, DWORD PTR $T70687[ebp]
	call	??0?$tvec4@M@detail@glm@@QAE@ABM000@Z	; glm::detail::tvec4<float>::tvec4<float>
	push	eax
	lea	eax, DWORD PTR $T70692[ebp]
	push	eax
	lea	ecx, DWORD PTR $T70693[ebp]
	push	ecx
	lea	edx, DWORD PTR $T70694[ebp]
	push	edx
	lea	eax, DWORD PTR _w2$[ebp]
	push	eax
	lea	ecx, DWORD PTR $T70691[ebp]
	call	??0?$tvec4@M@detail@glm@@QAE@ABM000@Z	; glm::detail::tvec4<float>::tvec4<float>
	push	eax
	lea	ecx, DWORD PTR $T62799[ebp]
	call	??0?$tmat4x4@M@detail@glm@@QAE@ABU?$tvec4@M@12@000@Z ; glm::detail::tmat4x4<float>::tmat4x4<float>
	push	eax
	mov	ecx, DWORD PTR _this$[ebp]
	add	ecx, 240				; 000000f0H
	call	??4?$tmat4x4@M@detail@glm@@QAEAAU012@ABU012@@Z ; glm::detail::tmat4x4<float>::operator=

; 99   : }

	push	edx
	mov	ecx, ebp
	push	eax
	lea	edx, DWORD PTR $LN6@Resize
	call	@_RTC_CheckStackVars@8
	pop	eax
	pop	edx
	pop	edi
	pop	esi
	pop	ebx
	mov	ecx, DWORD PTR __$ArrayPad$[ebp]
	xor	ecx, ebp
	call	@__security_check_cookie@4
	add	esp, 688				; 000002b0H
	cmp	ebp, esp
	call	__RTC_CheckEsp
	mov	esp, ebp
	pop	ebp
	ret	8
	npad	2
$LN6@Resize:
	DD	2
	DD	$LN5@Resize
$LN5@Resize:
	DD	-24					; ffffffe8H
	DD	4
	DD	$LN3@Resize
	DD	-36					; ffffffdcH
	DD	4
	DD	$LN4@Resize
$LN4@Resize:
	DB	104					; 00000068H
	DB	50					; 00000032H
	DB	0
$LN3@Resize:
	DB	119					; 00000077H
	DB	50					; 00000032H
	DB	0
?Resize@Tessellation@@UAEXHH@Z ENDP			; Tessellation::Resize
_TEXT	ENDS
PUBLIC	??4?$tmat3x3@M@detail@glm@@QAEAAU012@ABU012@@Z	; glm::detail::tmat3x3<float>::operator=
PUBLIC	??$translate@M@glm@@YA?AU?$tmat4x4@M@detail@0@ABU120@ABU?$tvec3@M@20@@Z ; glm::translate<float>
PUBLIC	??$?0HHH@?$tvec3@M@detail@glm@@QAE@ABH00@Z	; glm::detail::tvec3<float>::tvec3<float><int,int,int>
PUBLIC	??_C@_08JOACDBFA@Viewport?$AA@			; `string'
PUBLIC	??_C@_03GFEPKPFF@MVP?$AA@			; `string'
PUBLIC	??_C@_09NJONDDNG@ModelView?$AA@			; `string'
PUBLIC	??_C@_0N@CINNHGPB@NormalMatrix?$AA@		; `string'
PUBLIC	??0?$tmat3x3@M@detail@glm@@QAE@ABU?$tvec3@M@12@00@Z ; glm::detail::tmat3x3<float>::tmat3x3<float>
PUBLIC	??$?0M@?$tvec3@M@detail@glm@@QAE@ABU?$tvec4@M@12@@Z ; glm::detail::tvec3<float>::tvec3<float><float>
PUBLIC	??A?$tmat4x4@M@detail@glm@@QAEAAU?$tvec4@M@12@I@Z ; glm::detail::tmat4x4<float>::operator[]
PUBLIC	??$?DM@detail@glm@@YA?AU?$tmat4x4@M@01@ABU201@0@Z ; glm::detail::operator*<float>
PUBLIC	__real@c2b40000
PUBLIC	??$rotate@M@glm@@YA?AU?$tmat4x4@M@detail@0@ABU120@ABMABU?$tvec3@M@20@@Z ; glm::rotate<float>
PUBLIC	??0?$tmat4x4@M@detail@glm@@QAE@ABM@Z		; glm::detail::tmat4x4<float>::tmat4x4<float>
PUBLIC	__real@4076800000000000
PUBLIC	??$lookAt@M@glm@@YA?AU?$tmat4x4@M@detail@0@ABU?$tvec3@M@20@00@Z ; glm::lookAt<float>
PUBLIC	__real@40b00000
PUBLIC	??$?0HMH@?$tvec3@M@detail@glm@@QAE@ABHABM0@Z	; glm::detail::tvec3<float>::tvec3<float><int,float,int>
PUBLIC	__real@40000000
PUBLIC	__real@41000000
PUBLIC	__$ArrayPad$
EXTRN	__imp__glFinish@0:PROC
EXTRN	?SetUniform@GLSLProgram@@QAEXPBDABU?$tmat4x4@M@detail@glm@@@Z:PROC ; GLSLProgram::SetUniform
EXTRN	?SetUniform@GLSLProgram@@QAEXPBDABU?$tmat3x3@M@detail@glm@@@Z:PROC ; GLSLProgram::SetUniform
EXTRN	__imp__glClear@4:PROC
;	COMDAT ??_C@_08JOACDBFA@Viewport?$AA@
CONST	SEGMENT
??_C@_08JOACDBFA@Viewport?$AA@ DB 'Viewport', 00H	; `string'
CONST	ENDS
;	COMDAT ??_C@_03GFEPKPFF@MVP?$AA@
CONST	SEGMENT
??_C@_03GFEPKPFF@MVP?$AA@ DB 'MVP', 00H			; `string'
CONST	ENDS
;	COMDAT ??_C@_09NJONDDNG@ModelView?$AA@
CONST	SEGMENT
??_C@_09NJONDDNG@ModelView?$AA@ DB 'ModelView', 00H	; `string'
CONST	ENDS
;	COMDAT ??_C@_0N@CINNHGPB@NormalMatrix?$AA@
CONST	SEGMENT
??_C@_0N@CINNHGPB@NormalMatrix?$AA@ DB 'NormalMatrix', 00H ; `string'
CONST	ENDS
;	COMDAT __real@c2b40000
CONST	SEGMENT
__real@c2b40000 DD 0c2b40000r			; -90
CONST	ENDS
;	COMDAT __real@4076800000000000
CONST	SEGMENT
__real@4076800000000000 DQ 04076800000000000r	; 360
CONST	ENDS
;	COMDAT __real@40b00000
CONST	SEGMENT
__real@40b00000 DD 040b00000r			; 5.5
CONST	ENDS
;	COMDAT __real@40000000
CONST	SEGMENT
__real@40000000 DD 040000000r			; 2
CONST	ENDS
;	COMDAT __real@41000000
CONST	SEGMENT
__real@41000000 DD 041000000r			; 8
; Function compile flags: /Odtp /RTCsu /ZI
CONST	ENDS
;	COMDAT ?Render@Tessellation@@UAEXXZ
_TEXT	SEGMENT
$T70713 = -1820						; size = 4
$T70714 = -1808						; size = 4
$T70715 = -1796						; size = 4
$T70716 = -1784						; size = 12
$T70717 = -1764						; size = 4
$T70718 = -1752						; size = 4
$T70719 = -1740						; size = 4
$T70720 = -1728						; size = 12
$T70721 = -1708						; size = 4
$T70722 = -1696						; size = 4
$T70723 = -1684						; size = 4
$T70724 = -1672						; size = 12
$T70725 = -1652						; size = 4
$T70726 = -1640						; size = 4
$T70727 = -1628						; size = 4
$T70728 = -1616						; size = 4
$T70729 = -1604						; size = 4
$T70730 = -1592						; size = 12
$T70731 = -1572						; size = 4
$T70732 = -1560						; size = 4
$T70733 = -1548						; size = 4
$T70734 = -1536						; size = 4
$T70735 = -1524						; size = 12
$T70736 = -1504						; size = 12
$T70737 = -1484						; size = 12
$T70738 = -1464						; size = 12
$T70739 = -1444						; size = 4
$T70740 = -1432						; size = 4
$T70741 = -1420						; size = 4
$T70742 = -1408						; size = 12
$T70743 = -1388						; size = 12
$T70744 = -1368						; size = 12
$T70745 = -1348						; size = 12
$T70746 = -1328						; size = 4
$T70747 = -1316						; size = 4
$T70748 = -1304						; size = 4
$T70749 = -1292						; size = 12
$T70750 = -1272						; size = 12
$T70751 = -1252						; size = 12
$T62825 = -1232						; size = 64
$T62861 = -1160						; size = 64
$T62868 = -1088						; size = 64
$T62874 = -1016						; size = 64
$T62958 = -944						; size = 64
$T62959 = -872						; size = 64
$T62960 = -800						; size = 64
$T62964 = -728						; size = 36
$T62976 = -684						; size = 64
$T62977 = -612						; size = 64
$T62978 = -540						; size = 64
$T62982 = -468						; size = 36
_normalMatrix$ = -232					; size = 36
_modelViewProjection$ = -188				; size = 64
_modelView$ = -116					; size = 64
_cameraPos$ = -44					; size = 12
_zDist$ = -24						; size = 4
_this$ = -12						; size = 4
__$ArrayPad$ = -4					; size = 4
?Render@Tessellation@@UAEXXZ PROC			; Tessellation::Render, COMDAT
; _this$ = ecx

; 102  : {

	push	ebp
	mov	ebp, esp
	sub	esp, 1824				; 00000720H
	push	ebx
	push	esi
	push	edi
	push	ecx
	lea	edi, DWORD PTR [ebp-1824]
	mov	ecx, 456				; 000001c8H
	mov	eax, -858993460				; ccccccccH
	rep stosd
	pop	ecx
	mov	eax, DWORD PTR ___security_cookie
	xor	eax, ebp
	mov	DWORD PTR __$ArrayPad$[ebp], eax
	mov	DWORD PTR _this$[ebp], ecx

; 103  :     glClear(GL_COLOR_BUFFER_BIT | GL_DEPTH_BUFFER_BIT);

	mov	esi, esp
	push	16640					; 00004100H
	call	DWORD PTR __imp__glClear@4
	cmp	esi, esp
	call	__RTC_CheckEsp

; 104  : 
; 105  : 	float zDist = 8.0f;

	fld	DWORD PTR __real@41000000
	fstp	DWORD PTR _zDist$[ebp]

; 106  :     vec3 cameraPos(9,2.0f, 3);

	mov	DWORD PTR $T70713[ebp], 3
	fld	DWORD PTR __real@40000000
	fstp	DWORD PTR $T70714[ebp]
	mov	DWORD PTR $T70715[ebp], 9
	lea	eax, DWORD PTR $T70713[ebp]
	push	eax
	lea	ecx, DWORD PTR $T70714[ebp]
	push	ecx
	lea	edx, DWORD PTR $T70715[ebp]
	push	edx
	lea	ecx, DWORD PTR _cameraPos$[ebp]
	call	??$?0HMH@?$tvec3@M@detail@glm@@QAE@ABHABM0@Z ; glm::detail::tvec3<float>::tvec3<float><int,float,int>

; 107  : 	m_View = glm::lookAt(cameraPos,
; 108  :                        vec3(5.5f,2.0f,0.0f),
; 109  :                        vec3(0.0f,1.0f,0.0f));		

	fldz
	fstp	DWORD PTR $T70717[ebp]
	fld1
	fstp	DWORD PTR $T70718[ebp]
	fldz
	fstp	DWORD PTR $T70719[ebp]
	fldz
	fstp	DWORD PTR $T70721[ebp]
	fld	DWORD PTR __real@40000000
	fstp	DWORD PTR $T70722[ebp]
	fld	DWORD PTR __real@40b00000
	fstp	DWORD PTR $T70723[ebp]
	lea	eax, DWORD PTR $T70717[ebp]
	push	eax
	lea	ecx, DWORD PTR $T70718[ebp]
	push	ecx
	lea	edx, DWORD PTR $T70719[ebp]
	push	edx
	lea	ecx, DWORD PTR $T70716[ebp]
	call	??0?$tvec3@M@detail@glm@@QAE@ABM00@Z	; glm::detail::tvec3<float>::tvec3<float>
	push	eax
	lea	eax, DWORD PTR $T70721[ebp]
	push	eax
	lea	ecx, DWORD PTR $T70722[ebp]
	push	ecx
	lea	edx, DWORD PTR $T70723[ebp]
	push	edx
	lea	ecx, DWORD PTR $T70720[ebp]
	call	??0?$tvec3@M@detail@glm@@QAE@ABM00@Z	; glm::detail::tvec3<float>::tvec3<float>
	push	eax
	lea	eax, DWORD PTR _cameraPos$[ebp]
	push	eax
	lea	ecx, DWORD PTR $T62825[ebp]
	push	ecx
	call	??$lookAt@M@glm@@YA?AU?$tmat4x4@M@detail@0@ABU?$tvec3@M@20@00@Z ; glm::lookAt<float>
	add	esp, 16					; 00000010H
	push	eax
	mov	ecx, DWORD PTR _this$[ebp]
	add	ecx, 112				; 00000070H
	call	??4?$tmat4x4@M@detail@glm@@QAEAAU012@ABU012@@Z ; glm::detail::tmat4x4<float>::operator=

; 110  : 
; 111  :     m_Model = glm::rotate(mat4(1.0f), m_Angle*360, vec3(0.0f, 1.0f, 0.0f));

	fldz
	fstp	DWORD PTR $T70725[ebp]
	fld1
	fstp	DWORD PTR $T70726[ebp]
	fldz
	fstp	DWORD PTR $T70727[ebp]
	mov	eax, DWORD PTR _this$[ebp]
	fld	DWORD PTR [eax+324]
	fmul	QWORD PTR __real@4076800000000000
	fstp	DWORD PTR $T70728[ebp]
	fld1
	fstp	DWORD PTR $T70729[ebp]
	lea	ecx, DWORD PTR $T70725[ebp]
	push	ecx
	lea	edx, DWORD PTR $T70726[ebp]
	push	edx
	lea	eax, DWORD PTR $T70727[ebp]
	push	eax
	lea	ecx, DWORD PTR $T70724[ebp]
	call	??0?$tvec3@M@detail@glm@@QAE@ABM00@Z	; glm::detail::tvec3<float>::tvec3<float>
	push	eax
	lea	ecx, DWORD PTR $T70728[ebp]
	push	ecx
	lea	edx, DWORD PTR $T70729[ebp]
	push	edx
	lea	ecx, DWORD PTR $T62861[ebp]
	call	??0?$tmat4x4@M@detail@glm@@QAE@ABM@Z	; glm::detail::tmat4x4<float>::tmat4x4<float>
	push	eax
	lea	eax, DWORD PTR $T62868[ebp]
	push	eax
	call	??$rotate@M@glm@@YA?AU?$tmat4x4@M@detail@0@ABU120@ABMABU?$tvec3@M@20@@Z ; glm::rotate<float>
	add	esp, 16					; 00000010H
	push	eax
	mov	ecx, DWORD PTR _this$[ebp]
	add	ecx, 176				; 000000b0H
	call	??4?$tmat4x4@M@detail@glm@@QAEAAU012@ABU012@@Z ; glm::detail::tmat4x4<float>::operator=

; 112  : 	m_Model = glm::rotate(m_Model, -90.0f, vec3(1.0f, 0.0f, 0.0f));

	fldz
	fstp	DWORD PTR $T70731[ebp]
	fldz
	fstp	DWORD PTR $T70732[ebp]
	fld1
	fstp	DWORD PTR $T70733[ebp]
	fld	DWORD PTR __real@c2b40000
	fstp	DWORD PTR $T70734[ebp]
	lea	eax, DWORD PTR $T70731[ebp]
	push	eax
	lea	ecx, DWORD PTR $T70732[ebp]
	push	ecx
	lea	edx, DWORD PTR $T70733[ebp]
	push	edx
	lea	ecx, DWORD PTR $T70730[ebp]
	call	??0?$tvec3@M@detail@glm@@QAE@ABM00@Z	; glm::detail::tvec3<float>::tvec3<float>
	push	eax
	lea	eax, DWORD PTR $T70734[ebp]
	push	eax
	mov	ecx, DWORD PTR _this$[ebp]
	add	ecx, 176				; 000000b0H
	push	ecx
	lea	edx, DWORD PTR $T62874[ebp]
	push	edx
	call	??$rotate@M@glm@@YA?AU?$tmat4x4@M@detail@0@ABU120@ABMABU?$tvec3@M@20@@Z ; glm::rotate<float>
	add	esp, 16					; 00000010H
	push	eax
	mov	ecx, DWORD PTR _this$[ebp]
	add	ecx, 176				; 000000b0H
	call	??4?$tmat4x4@M@detail@glm@@QAEAAU012@ABU012@@Z ; glm::detail::tmat4x4<float>::operator=

; 113  :     
; 114  : 	mat4 modelView = m_View * m_Model;

	mov	eax, DWORD PTR _this$[ebp]
	add	eax, 176				; 000000b0H
	push	eax
	mov	ecx, DWORD PTR _this$[ebp]
	add	ecx, 112				; 00000070H
	push	ecx
	lea	edx, DWORD PTR _modelView$[ebp]
	push	edx
	call	??$?DM@detail@glm@@YA?AU?$tmat4x4@M@01@ABU201@0@Z ; glm::detail::operator*<float>
	add	esp, 12					; 0000000cH

; 115  : 	mat4 modelViewProjection = m_Projection * modelView;

	lea	eax, DWORD PTR _modelView$[ebp]
	push	eax
	mov	ecx, DWORD PTR _this$[ebp]
	add	ecx, 48					; 00000030H
	push	ecx
	lea	edx, DWORD PTR _modelViewProjection$[ebp]
	push	edx
	call	??$?DM@detail@glm@@YA?AU?$tmat4x4@M@01@ABU201@0@Z ; glm::detail::operator*<float>
	add	esp, 12					; 0000000cH

; 116  : 	mat3 normalMatrix = 
; 117  : 		mat3(vec3(modelView[0]),
; 118  : 			 vec3(modelView[1]),
; 119  : 			 vec3(modelView[2]));

	push	2
	lea	ecx, DWORD PTR _modelView$[ebp]
	call	??A?$tmat4x4@M@detail@glm@@QAEAAU?$tvec4@M@12@I@Z ; glm::detail::tmat4x4<float>::operator[]
	push	eax
	lea	ecx, DWORD PTR $T70735[ebp]
	call	??$?0M@?$tvec3@M@detail@glm@@QAE@ABU?$tvec4@M@12@@Z ; glm::detail::tvec3<float>::tvec3<float><float>
	push	eax
	push	1
	lea	ecx, DWORD PTR _modelView$[ebp]
	call	??A?$tmat4x4@M@detail@glm@@QAEAAU?$tvec4@M@12@I@Z ; glm::detail::tmat4x4<float>::operator[]
	push	eax
	lea	ecx, DWORD PTR $T70736[ebp]
	call	??$?0M@?$tvec3@M@detail@glm@@QAE@ABU?$tvec4@M@12@@Z ; glm::detail::tvec3<float>::tvec3<float><float>
	push	eax
	push	0
	lea	ecx, DWORD PTR _modelView$[ebp]
	call	??A?$tmat4x4@M@detail@glm@@QAEAAU?$tvec4@M@12@I@Z ; glm::detail::tmat4x4<float>::operator[]
	push	eax
	lea	ecx, DWORD PTR $T70737[ebp]
	call	??$?0M@?$tvec3@M@detail@glm@@QAE@ABU?$tvec4@M@12@@Z ; glm::detail::tvec3<float>::tvec3<float><float>
	push	eax
	lea	ecx, DWORD PTR _normalMatrix$[ebp]
	call	??0?$tmat3x3@M@detail@glm@@QAE@ABU?$tvec3@M@12@00@Z ; glm::detail::tmat3x3<float>::tmat3x3<float>

; 120  : 
; 121  : 	m_Program.SetUniform("NormalMatrix", normalMatrix);

	lea	eax, DWORD PTR _normalMatrix$[ebp]
	push	eax
	push	OFFSET ??_C@_0N@CINNHGPB@NormalMatrix?$AA@
	mov	ecx, DWORD PTR _this$[ebp]
	add	ecx, 4
	call	?SetUniform@GLSLProgram@@QAEXPBDABU?$tmat3x3@M@detail@glm@@@Z ; GLSLProgram::SetUniform

; 122  : 	m_Program.SetUniform("ModelView", modelView);

	lea	eax, DWORD PTR _modelView$[ebp]
	push	eax
	push	OFFSET ??_C@_09NJONDDNG@ModelView?$AA@
	mov	ecx, DWORD PTR _this$[ebp]
	add	ecx, 4
	call	?SetUniform@GLSLProgram@@QAEXPBDABU?$tmat4x4@M@detail@glm@@@Z ; GLSLProgram::SetUniform

; 123  : 	m_Program.SetUniform("MVP", modelViewProjection);

	lea	eax, DWORD PTR _modelViewProjection$[ebp]
	push	eax
	push	OFFSET ??_C@_03GFEPKPFF@MVP?$AA@
	mov	ecx, DWORD PTR _this$[ebp]
	add	ecx, 4
	call	?SetUniform@GLSLProgram@@QAEXPBDABU?$tmat4x4@M@detail@glm@@@Z ; GLSLProgram::SetUniform

; 124  :     m_Program.SetUniform("Viewport", m_Viewport);

	mov	eax, DWORD PTR _this$[ebp]
	add	eax, 240				; 000000f0H
	push	eax
	push	OFFSET ??_C@_08JOACDBFA@Viewport?$AA@
	mov	ecx, DWORD PTR _this$[ebp]
	add	ecx, 4
	call	?SetUniform@GLSLProgram@@QAEXPBDABU?$tmat4x4@M@detail@glm@@@Z ; GLSLProgram::SetUniform

; 125  : 	
; 126  : 	m_Teapot->render();

	mov	eax, DWORD PTR _this$[ebp]
	mov	ecx, DWORD PTR [eax+44]
	mov	edx, DWORD PTR _this$[ebp]
	mov	eax, DWORD PTR [edx+44]
	mov	edx, DWORD PTR [ecx]
	mov	esi, esp
	mov	ecx, eax
	mov	eax, DWORD PTR [edx]
	call	eax
	cmp	esi, esp
	call	__RTC_CheckEsp

; 127  : 
; 128  : 	m_Model = glm::translate(m_Model, vec3(2, 8, 0));

	mov	DWORD PTR $T70739[ebp], 0
	mov	DWORD PTR $T70740[ebp], 8
	mov	DWORD PTR $T70741[ebp], 2
	lea	eax, DWORD PTR $T70739[ebp]
	push	eax
	lea	ecx, DWORD PTR $T70740[ebp]
	push	ecx
	lea	edx, DWORD PTR $T70741[ebp]
	push	edx
	lea	ecx, DWORD PTR $T70738[ebp]
	call	??$?0HHH@?$tvec3@M@detail@glm@@QAE@ABH00@Z ; glm::detail::tvec3<float>::tvec3<float><int,int,int>
	push	eax
	mov	eax, DWORD PTR _this$[ebp]
	add	eax, 176				; 000000b0H
	push	eax
	lea	ecx, DWORD PTR $T62958[ebp]
	push	ecx
	call	??$translate@M@glm@@YA?AU?$tmat4x4@M@detail@0@ABU120@ABU?$tvec3@M@20@@Z ; glm::translate<float>
	add	esp, 12					; 0000000cH
	push	eax
	mov	ecx, DWORD PTR _this$[ebp]
	add	ecx, 176				; 000000b0H
	call	??4?$tmat4x4@M@detail@glm@@QAEAAU012@ABU012@@Z ; glm::detail::tmat4x4<float>::operator=

; 129  : 
; 130  : 	modelView = m_View * m_Model;

	mov	eax, DWORD PTR _this$[ebp]
	add	eax, 176				; 000000b0H
	push	eax
	mov	ecx, DWORD PTR _this$[ebp]
	add	ecx, 112				; 00000070H
	push	ecx
	lea	edx, DWORD PTR $T62959[ebp]
	push	edx
	call	??$?DM@detail@glm@@YA?AU?$tmat4x4@M@01@ABU201@0@Z ; glm::detail::operator*<float>
	add	esp, 12					; 0000000cH
	push	eax
	lea	ecx, DWORD PTR _modelView$[ebp]
	call	??4?$tmat4x4@M@detail@glm@@QAEAAU012@ABU012@@Z ; glm::detail::tmat4x4<float>::operator=

; 131  : 	modelViewProjection = m_Projection * modelView;

	lea	eax, DWORD PTR _modelView$[ebp]
	push	eax
	mov	ecx, DWORD PTR _this$[ebp]
	add	ecx, 48					; 00000030H
	push	ecx
	lea	edx, DWORD PTR $T62960[ebp]
	push	edx
	call	??$?DM@detail@glm@@YA?AU?$tmat4x4@M@01@ABU201@0@Z ; glm::detail::operator*<float>
	add	esp, 12					; 0000000cH
	push	eax
	lea	ecx, DWORD PTR _modelViewProjection$[ebp]
	call	??4?$tmat4x4@M@detail@glm@@QAEAAU012@ABU012@@Z ; glm::detail::tmat4x4<float>::operator=

; 132  : 	normalMatrix = 
; 133  : 		mat3(vec3(modelView[0]),
; 134  : 			 vec3(modelView[1]),
; 135  : 			 vec3(modelView[2]));

	push	2
	lea	ecx, DWORD PTR _modelView$[ebp]
	call	??A?$tmat4x4@M@detail@glm@@QAEAAU?$tvec4@M@12@I@Z ; glm::detail::tmat4x4<float>::operator[]
	push	eax
	lea	ecx, DWORD PTR $T70742[ebp]
	call	??$?0M@?$tvec3@M@detail@glm@@QAE@ABU?$tvec4@M@12@@Z ; glm::detail::tvec3<float>::tvec3<float><float>
	push	eax
	push	1
	lea	ecx, DWORD PTR _modelView$[ebp]
	call	??A?$tmat4x4@M@detail@glm@@QAEAAU?$tvec4@M@12@I@Z ; glm::detail::tmat4x4<float>::operator[]
	push	eax
	lea	ecx, DWORD PTR $T70743[ebp]
	call	??$?0M@?$tvec3@M@detail@glm@@QAE@ABU?$tvec4@M@12@@Z ; glm::detail::tvec3<float>::tvec3<float><float>
	push	eax
	push	0
	lea	ecx, DWORD PTR _modelView$[ebp]
	call	??A?$tmat4x4@M@detail@glm@@QAEAAU?$tvec4@M@12@I@Z ; glm::detail::tmat4x4<float>::operator[]
	push	eax
	lea	ecx, DWORD PTR $T70744[ebp]
	call	??$?0M@?$tvec3@M@detail@glm@@QAE@ABU?$tvec4@M@12@@Z ; glm::detail::tvec3<float>::tvec3<float><float>
	push	eax
	lea	ecx, DWORD PTR $T62964[ebp]
	call	??0?$tmat3x3@M@detail@glm@@QAE@ABU?$tvec3@M@12@00@Z ; glm::detail::tmat3x3<float>::tmat3x3<float>
	push	eax
	lea	ecx, DWORD PTR _normalMatrix$[ebp]
	call	??4?$tmat3x3@M@detail@glm@@QAEAAU012@ABU012@@Z ; glm::detail::tmat3x3<float>::operator=

; 136  : 
; 137  : 	m_Program.SetUniform("NormalMatrix", normalMatrix);

	lea	eax, DWORD PTR _normalMatrix$[ebp]
	push	eax
	push	OFFSET ??_C@_0N@CINNHGPB@NormalMatrix?$AA@
	mov	ecx, DWORD PTR _this$[ebp]
	add	ecx, 4
	call	?SetUniform@GLSLProgram@@QAEXPBDABU?$tmat3x3@M@detail@glm@@@Z ; GLSLProgram::SetUniform

; 138  : 	m_Program.SetUniform("ModelView", modelView);

	lea	eax, DWORD PTR _modelView$[ebp]
	push	eax
	push	OFFSET ??_C@_09NJONDDNG@ModelView?$AA@
	mov	ecx, DWORD PTR _this$[ebp]
	add	ecx, 4
	call	?SetUniform@GLSLProgram@@QAEXPBDABU?$tmat4x4@M@detail@glm@@@Z ; GLSLProgram::SetUniform

; 139  : 	m_Program.SetUniform("MVP", modelViewProjection);

	lea	eax, DWORD PTR _modelViewProjection$[ebp]
	push	eax
	push	OFFSET ??_C@_03GFEPKPFF@MVP?$AA@
	mov	ecx, DWORD PTR _this$[ebp]
	add	ecx, 4
	call	?SetUniform@GLSLProgram@@QAEXPBDABU?$tmat4x4@M@detail@glm@@@Z ; GLSLProgram::SetUniform

; 140  : 
; 141  : 	m_Teapot->render();

	mov	eax, DWORD PTR _this$[ebp]
	mov	ecx, DWORD PTR [eax+44]
	mov	edx, DWORD PTR _this$[ebp]
	mov	eax, DWORD PTR [edx+44]
	mov	edx, DWORD PTR [ecx]
	mov	esi, esp
	mov	ecx, eax
	mov	eax, DWORD PTR [edx]
	call	eax
	cmp	esi, esp
	call	__RTC_CheckEsp

; 142  : 
; 143  : 	m_Model = glm::translate(m_Model, vec3(3, 16, 0));

	mov	DWORD PTR $T70746[ebp], 0
	mov	DWORD PTR $T70747[ebp], 16		; 00000010H
	mov	DWORD PTR $T70748[ebp], 3
	lea	eax, DWORD PTR $T70746[ebp]
	push	eax
	lea	ecx, DWORD PTR $T70747[ebp]
	push	ecx
	lea	edx, DWORD PTR $T70748[ebp]
	push	edx
	lea	ecx, DWORD PTR $T70745[ebp]
	call	??$?0HHH@?$tvec3@M@detail@glm@@QAE@ABH00@Z ; glm::detail::tvec3<float>::tvec3<float><int,int,int>
	push	eax
	mov	eax, DWORD PTR _this$[ebp]
	add	eax, 176				; 000000b0H
	push	eax
	lea	ecx, DWORD PTR $T62976[ebp]
	push	ecx
	call	??$translate@M@glm@@YA?AU?$tmat4x4@M@detail@0@ABU120@ABU?$tvec3@M@20@@Z ; glm::translate<float>
	add	esp, 12					; 0000000cH
	push	eax
	mov	ecx, DWORD PTR _this$[ebp]
	add	ecx, 176				; 000000b0H
	call	??4?$tmat4x4@M@detail@glm@@QAEAAU012@ABU012@@Z ; glm::detail::tmat4x4<float>::operator=

; 144  : 
; 145  : 	modelView = m_View * m_Model;

	mov	eax, DWORD PTR _this$[ebp]
	add	eax, 176				; 000000b0H
	push	eax
	mov	ecx, DWORD PTR _this$[ebp]
	add	ecx, 112				; 00000070H
	push	ecx
	lea	edx, DWORD PTR $T62977[ebp]
	push	edx
	call	??$?DM@detail@glm@@YA?AU?$tmat4x4@M@01@ABU201@0@Z ; glm::detail::operator*<float>
	add	esp, 12					; 0000000cH
	push	eax
	lea	ecx, DWORD PTR _modelView$[ebp]
	call	??4?$tmat4x4@M@detail@glm@@QAEAAU012@ABU012@@Z ; glm::detail::tmat4x4<float>::operator=

; 146  : 	modelViewProjection = m_Projection * modelView;

	lea	eax, DWORD PTR _modelView$[ebp]
	push	eax
	mov	ecx, DWORD PTR _this$[ebp]
	add	ecx, 48					; 00000030H
	push	ecx
	lea	edx, DWORD PTR $T62978[ebp]
	push	edx
	call	??$?DM@detail@glm@@YA?AU?$tmat4x4@M@01@ABU201@0@Z ; glm::detail::operator*<float>
	add	esp, 12					; 0000000cH
	push	eax
	lea	ecx, DWORD PTR _modelViewProjection$[ebp]
	call	??4?$tmat4x4@M@detail@glm@@QAEAAU012@ABU012@@Z ; glm::detail::tmat4x4<float>::operator=

; 147  : 	normalMatrix = 
; 148  : 		mat3(vec3(modelView[0]),
; 149  : 			 vec3(modelView[1]),
; 150  : 			 vec3(modelView[2]));

	push	2
	lea	ecx, DWORD PTR _modelView$[ebp]
	call	??A?$tmat4x4@M@detail@glm@@QAEAAU?$tvec4@M@12@I@Z ; glm::detail::tmat4x4<float>::operator[]
	push	eax
	lea	ecx, DWORD PTR $T70749[ebp]
	call	??$?0M@?$tvec3@M@detail@glm@@QAE@ABU?$tvec4@M@12@@Z ; glm::detail::tvec3<float>::tvec3<float><float>
	push	eax
	push	1
	lea	ecx, DWORD PTR _modelView$[ebp]
	call	??A?$tmat4x4@M@detail@glm@@QAEAAU?$tvec4@M@12@I@Z ; glm::detail::tmat4x4<float>::operator[]
	push	eax
	lea	ecx, DWORD PTR $T70750[ebp]
	call	??$?0M@?$tvec3@M@detail@glm@@QAE@ABU?$tvec4@M@12@@Z ; glm::detail::tvec3<float>::tvec3<float><float>
	push	eax
	push	0
	lea	ecx, DWORD PTR _modelView$[ebp]
	call	??A?$tmat4x4@M@detail@glm@@QAEAAU?$tvec4@M@12@I@Z ; glm::detail::tmat4x4<float>::operator[]
	push	eax
	lea	ecx, DWORD PTR $T70751[ebp]
	call	??$?0M@?$tvec3@M@detail@glm@@QAE@ABU?$tvec4@M@12@@Z ; glm::detail::tvec3<float>::tvec3<float><float>
	push	eax
	lea	ecx, DWORD PTR $T62982[ebp]
	call	??0?$tmat3x3@M@detail@glm@@QAE@ABU?$tvec3@M@12@00@Z ; glm::detail::tmat3x3<float>::tmat3x3<float>
	push	eax
	lea	ecx, DWORD PTR _normalMatrix$[ebp]
	call	??4?$tmat3x3@M@detail@glm@@QAEAAU012@ABU012@@Z ; glm::detail::tmat3x3<float>::operator=

; 151  : 
; 152  : 	m_Program.SetUniform("NormalMatrix", normalMatrix);

	lea	eax, DWORD PTR _normalMatrix$[ebp]
	push	eax
	push	OFFSET ??_C@_0N@CINNHGPB@NormalMatrix?$AA@
	mov	ecx, DWORD PTR _this$[ebp]
	add	ecx, 4
	call	?SetUniform@GLSLProgram@@QAEXPBDABU?$tmat3x3@M@detail@glm@@@Z ; GLSLProgram::SetUniform

; 153  : 	m_Program.SetUniform("ModelView", modelView);

	lea	eax, DWORD PTR _modelView$[ebp]
	push	eax
	push	OFFSET ??_C@_09NJONDDNG@ModelView?$AA@
	mov	ecx, DWORD PTR _this$[ebp]
	add	ecx, 4
	call	?SetUniform@GLSLProgram@@QAEXPBDABU?$tmat4x4@M@detail@glm@@@Z ; GLSLProgram::SetUniform

; 154  : 	m_Program.SetUniform("MVP", modelViewProjection);

	lea	eax, DWORD PTR _modelViewProjection$[ebp]
	push	eax
	push	OFFSET ??_C@_03GFEPKPFF@MVP?$AA@
	mov	ecx, DWORD PTR _this$[ebp]
	add	ecx, 4
	call	?SetUniform@GLSLProgram@@QAEXPBDABU?$tmat4x4@M@detail@glm@@@Z ; GLSLProgram::SetUniform

; 155  : 
; 156  : 	m_Teapot->render();

	mov	eax, DWORD PTR _this$[ebp]
	mov	ecx, DWORD PTR [eax+44]
	mov	edx, DWORD PTR _this$[ebp]
	mov	eax, DWORD PTR [edx+44]
	mov	edx, DWORD PTR [ecx]
	mov	esi, esp
	mov	ecx, eax
	mov	eax, DWORD PTR [edx]
	call	eax
	cmp	esi, esp
	call	__RTC_CheckEsp

; 157  : 
; 158  :     glFinish();

	mov	esi, esp
	call	DWORD PTR __imp__glFinish@0
	cmp	esi, esp
	call	__RTC_CheckEsp

; 159  : }

	push	edx
	mov	ecx, ebp
	push	eax
	lea	edx, DWORD PTR $LN8@Render
	call	@_RTC_CheckStackVars@8
	pop	eax
	pop	edx
	pop	edi
	pop	esi
	pop	ebx
	mov	ecx, DWORD PTR __$ArrayPad$[ebp]
	xor	ecx, ebp
	call	@__security_check_cookie@4
	add	esp, 1824				; 00000720H
	cmp	ebp, esp
	call	__RTC_CheckEsp
	mov	esp, ebp
	pop	ebp
	ret	0
$LN8@Render:
	DD	4
	DD	$LN7@Render
$LN7@Render:
	DD	-44					; ffffffd4H
	DD	12					; 0000000cH
	DD	$LN3@Render
	DD	-116					; ffffff8cH
	DD	64					; 00000040H
	DD	$LN4@Render
	DD	-188					; ffffff44H
	DD	64					; 00000040H
	DD	$LN5@Render
	DD	-232					; ffffff18H
	DD	36					; 00000024H
	DD	$LN6@Render
$LN6@Render:
	DB	110					; 0000006eH
	DB	111					; 0000006fH
	DB	114					; 00000072H
	DB	109					; 0000006dH
	DB	97					; 00000061H
	DB	108					; 0000006cH
	DB	77					; 0000004dH
	DB	97					; 00000061H
	DB	116					; 00000074H
	DB	114					; 00000072H
	DB	105					; 00000069H
	DB	120					; 00000078H
	DB	0
$LN5@Render:
	DB	109					; 0000006dH
	DB	111					; 0000006fH
	DB	100					; 00000064H
	DB	101					; 00000065H
	DB	108					; 0000006cH
	DB	86					; 00000056H
	DB	105					; 00000069H
	DB	101					; 00000065H
	DB	119					; 00000077H
	DB	80					; 00000050H
	DB	114					; 00000072H
	DB	111					; 0000006fH
	DB	106					; 0000006aH
	DB	101					; 00000065H
	DB	99					; 00000063H
	DB	116					; 00000074H
	DB	105					; 00000069H
	DB	111					; 0000006fH
	DB	110					; 0000006eH
	DB	0
$LN4@Render:
	DB	109					; 0000006dH
	DB	111					; 0000006fH
	DB	100					; 00000064H
	DB	101					; 00000065H
	DB	108					; 0000006cH
	DB	86					; 00000056H
	DB	105					; 00000069H
	DB	101					; 00000065H
	DB	119					; 00000077H
	DB	0
$LN3@Render:
	DB	99					; 00000063H
	DB	97					; 00000061H
	DB	109					; 0000006dH
	DB	101					; 00000065H
	DB	114					; 00000072H
	DB	97					; 00000061H
	DB	80					; 00000050H
	DB	111					; 0000006fH
	DB	115					; 00000073H
	DB	0
?Render@Tessellation@@UAEXXZ ENDP			; Tessellation::Render
_TEXT	ENDS
PUBLIC	??1?$_String_val@DV?$allocator@D@std@@@std@@QAE@XZ ; std::_String_val<char,std::allocator<char> >::~_String_val<char,std::allocator<char> >
PUBLIC	?_Tidy@?$basic_string@DU?$char_traits@D@std@@V?$allocator@D@2@@std@@QAEX_NI@Z ; std::basic_string<char,std::char_traits<char>,std::allocator<char> >::_Tidy
;	COMDAT xdata$x
; File c:\program files (x86)\microsoft visual studio 10.0\vc\include\xstring
xdata$x	SEGMENT
__unwindtable$??1?$basic_string@DU?$char_traits@D@std@@V?$allocator@D@2@@std@@QAE@XZ DD 0ffffffffH
	DD	FLAT:__unwindfunclet$??1?$basic_string@DU?$char_traits@D@std@@V?$allocator@D@2@@std@@QAE@XZ$0
__ehfuncinfo$??1?$basic_string@DU?$char_traits@D@std@@V?$allocator@D@2@@std@@QAE@XZ DD 019930522H
	DD	01H
	DD	FLAT:__unwindtable$??1?$basic_string@DU?$char_traits@D@std@@V?$allocator@D@2@@std@@QAE@XZ
	DD	2 DUP(00H)
	DD	2 DUP(00H)
	DD	00H
	DD	01H
; Function compile flags: /Odtp /RTCsu /ZI
xdata$x	ENDS
;	COMDAT ??1?$basic_string@DU?$char_traits@D@std@@V?$allocator@D@2@@std@@QAE@XZ
_TEXT	SEGMENT
_this$ = -20						; size = 4
__$EHRec$ = -12						; size = 12
??1?$basic_string@DU?$char_traits@D@std@@V?$allocator@D@2@@std@@QAE@XZ PROC ; std::basic_string<char,std::char_traits<char>,std::allocator<char> >::~basic_string<char,std::char_traits<char>,std::allocator<char> >, COMDAT
; _this$ = ecx

; 752  : 		{	// destroy the string

	push	ebp
	mov	ebp, esp
	push	-1
	push	__ehhandler$??1?$basic_string@DU?$char_traits@D@std@@V?$allocator@D@2@@std@@QAE@XZ
	mov	eax, DWORD PTR fs:0
	push	eax
	sub	esp, 204				; 000000ccH
	push	ebx
	push	esi
	push	edi
	push	ecx
	lea	edi, DWORD PTR [ebp-216]
	mov	ecx, 51					; 00000033H
	mov	eax, -858993460				; ccccccccH
	rep stosd
	pop	ecx
	mov	eax, DWORD PTR ___security_cookie
	xor	eax, ebp
	push	eax
	lea	eax, DWORD PTR __$EHRec$[ebp]
	mov	DWORD PTR fs:0, eax
	mov	DWORD PTR _this$[ebp], ecx
	mov	DWORD PTR __$EHRec$[ebp+8], 0

; 753  : 		_Tidy(true);

	push	0
	push	1
	mov	ecx, DWORD PTR _this$[ebp]
	call	?_Tidy@?$basic_string@DU?$char_traits@D@std@@V?$allocator@D@2@@std@@QAEX_NI@Z ; std::basic_string<char,std::char_traits<char>,std::allocator<char> >::_Tidy

; 754  : 		}

	mov	DWORD PTR __$EHRec$[ebp+8], -1
	mov	ecx, DWORD PTR _this$[ebp]
	call	??1?$_String_val@DV?$allocator@D@std@@@std@@QAE@XZ ; std::_String_val<char,std::allocator<char> >::~_String_val<char,std::allocator<char> >
	mov	ecx, DWORD PTR __$EHRec$[ebp]
	mov	DWORD PTR fs:0, ecx
	pop	ecx
	pop	edi
	pop	esi
	pop	ebx
	add	esp, 216				; 000000d8H
	cmp	ebp, esp
	call	__RTC_CheckEsp
	mov	esp, ebp
	pop	ebp
	ret	0
_TEXT	ENDS
;	COMDAT text$x
text$x	SEGMENT
__unwindfunclet$??1?$basic_string@DU?$char_traits@D@std@@V?$allocator@D@2@@std@@QAE@XZ$0:
	mov	ecx, DWORD PTR _this$[ebp]
	jmp	??1?$_String_val@DV?$allocator@D@std@@@std@@QAE@XZ ; std::_String_val<char,std::allocator<char> >::~_String_val<char,std::allocator<char> >
__ehhandler$??1?$basic_string@DU?$char_traits@D@std@@V?$allocator@D@2@@std@@QAE@XZ:
	mov	edx, DWORD PTR [esp+8]
	lea	eax, DWORD PTR [edx+12]
	mov	ecx, DWORD PTR [edx-220]
	xor	ecx, eax
	call	@__security_check_cookie@4
	mov	eax, OFFSET __ehfuncinfo$??1?$basic_string@DU?$char_traits@D@std@@V?$allocator@D@2@@std@@QAE@XZ
	jmp	___CxxFrameHandler3
text$x	ENDS
??1?$basic_string@DU?$char_traits@D@std@@V?$allocator@D@2@@std@@QAE@XZ ENDP ; std::basic_string<char,std::char_traits<char>,std::allocator<char> >::~basic_string<char,std::char_traits<char>,std::allocator<char> >
PUBLIC	?_Eos@?$basic_string@DU?$char_traits@D@std@@V?$allocator@D@2@@std@@QAEXI@Z ; std::basic_string<char,std::char_traits<char>,std::allocator<char> >::_Eos
PUBLIC	?deallocate@?$allocator@D@std@@QAEXPADI@Z	; std::allocator<char>::deallocate
PUBLIC	?copy@?$char_traits@D@std@@SAPADPADPBDI@Z	; std::char_traits<char>::copy
; Function compile flags: /Odtp /RTCsu /ZI
;	COMDAT ?_Tidy@?$basic_string@DU?$char_traits@D@std@@V?$allocator@D@2@@std@@QAEX_NI@Z
_TEXT	SEGMENT
__Ptr$64855 = -20					; size = 4
_this$ = -8						; size = 4
__Built$ = 8						; size = 1
__Newsize$ = 12						; size = 4
?_Tidy@?$basic_string@DU?$char_traits@D@std@@V?$allocator@D@2@@std@@QAEX_NI@Z PROC ; std::basic_string<char,std::char_traits<char>,std::allocator<char> >::_Tidy, COMDAT
; _this$ = ecx

; 1987 : 		{	// initialize buffer, deallocating any storage

	push	ebp
	mov	ebp, esp
	sub	esp, 216				; 000000d8H
	push	ebx
	push	esi
	push	edi
	push	ecx
	lea	edi, DWORD PTR [ebp-216]
	mov	ecx, 54					; 00000036H
	mov	eax, -858993460				; ccccccccH
	rep stosd
	pop	ecx
	mov	DWORD PTR _this$[ebp], ecx

; 1988 : 		if (!_Built)

	movzx	eax, BYTE PTR __Built$[ebp]
	test	eax, eax
	jne	SHORT $LN4@Tidy
	jmp	SHORT $LN3@Tidy
$LN4@Tidy:

; 1989 : 			;
; 1990 : 		else if (this->_BUF_SIZE <= this->_Myres)

	mov	eax, DWORD PTR _this$[ebp]
	cmp	DWORD PTR [eax+24], 16			; 00000010H
	jb	SHORT $LN3@Tidy

; 1991 : 			{	// copy any leftovers to small buffer and deallocate
; 1992 : 			_Elem *_Ptr = this->_Bx._Ptr;

	mov	eax, DWORD PTR _this$[ebp]
	mov	ecx, DWORD PTR [eax+4]
	mov	DWORD PTR __Ptr$64855[ebp], ecx

; 1993 : 			if (0 < _Newsize)

	cmp	DWORD PTR __Newsize$[ebp], 0
	jbe	SHORT $LN1@Tidy

; 1994 : 				_Traits::copy(this->_Bx._Buf, _Ptr, _Newsize);

	mov	eax, DWORD PTR __Newsize$[ebp]
	push	eax
	mov	ecx, DWORD PTR __Ptr$64855[ebp]
	push	ecx
	mov	edx, DWORD PTR _this$[ebp]
	add	edx, 4
	push	edx
	call	?copy@?$char_traits@D@std@@SAPADPADPBDI@Z ; std::char_traits<char>::copy
	add	esp, 12					; 0000000cH
$LN1@Tidy:

; 1995 : 			this->_Alval.deallocate(_Ptr, this->_Myres + 1);

	mov	eax, DWORD PTR _this$[ebp]
	mov	ecx, DWORD PTR [eax+24]
	add	ecx, 1
	push	ecx
	mov	edx, DWORD PTR __Ptr$64855[ebp]
	push	edx
	mov	ecx, DWORD PTR _this$[ebp]
	add	ecx, 28					; 0000001cH
	call	?deallocate@?$allocator@D@std@@QAEXPADI@Z ; std::allocator<char>::deallocate
$LN3@Tidy:

; 1996 : 			}
; 1997 : 		this->_Myres = this->_BUF_SIZE - 1;

	mov	eax, DWORD PTR _this$[ebp]
	mov	DWORD PTR [eax+24], 15			; 0000000fH

; 1998 : 		_Eos(_Newsize);

	mov	eax, DWORD PTR __Newsize$[ebp]
	push	eax
	mov	ecx, DWORD PTR _this$[ebp]
	call	?_Eos@?$basic_string@DU?$char_traits@D@std@@V?$allocator@D@2@@std@@QAEXI@Z ; std::basic_string<char,std::char_traits<char>,std::allocator<char> >::_Eos

; 1999 : 		}

	pop	edi
	pop	esi
	pop	ebx
	add	esp, 216				; 000000d8H
	cmp	ebp, esp
	call	__RTC_CheckEsp
	mov	esp, ebp
	pop	ebp
	ret	8
?_Tidy@?$basic_string@DU?$char_traits@D@std@@V?$allocator@D@2@@std@@QAEX_NI@Z ENDP ; std::basic_string<char,std::char_traits<char>,std::allocator<char> >::_Tidy
_TEXT	ENDS
EXTRN	_memcpy:PROC
; Function compile flags: /Odtp /RTCsu /ZI
; File c:\program files (x86)\microsoft visual studio 10.0\vc\include\iosfwd
;	COMDAT ?copy@?$char_traits@D@std@@SAPADPADPBDI@Z
_TEXT	SEGMENT
__First1$ = 8						; size = 4
__First2$ = 12						; size = 4
__Count$ = 16						; size = 4
?copy@?$char_traits@D@std@@SAPADPADPBDI@Z PROC		; std::char_traits<char>::copy, COMDAT

; 496  : 		{	// copy [_First1, _First1 + _Count) to [_First2, ...)

	push	ebp
	mov	ebp, esp
	sub	esp, 192				; 000000c0H
	push	ebx
	push	esi
	push	edi
	lea	edi, DWORD PTR [ebp-192]
	mov	ecx, 48					; 00000030H
	mov	eax, -858993460				; ccccccccH
	rep stosd

; 497  : 		return ((_Elem *)_CSTD memcpy(_First1, _First2, _Count));

	mov	eax, DWORD PTR __Count$[ebp]
	push	eax
	mov	ecx, DWORD PTR __First2$[ebp]
	push	ecx
	mov	edx, DWORD PTR __First1$[ebp]
	push	edx
	call	_memcpy
	add	esp, 12					; 0000000cH

; 498  : 		}

	pop	edi
	pop	esi
	pop	ebx
	add	esp, 192				; 000000c0H
	cmp	ebp, esp
	call	__RTC_CheckEsp
	mov	esp, ebp
	pop	ebp
	ret	0
?copy@?$char_traits@D@std@@SAPADPADPBDI@Z ENDP		; std::char_traits<char>::copy
_TEXT	ENDS
PUBLIC	?deallocate@?$allocator@U_Container_proxy@std@@@std@@QAEXPAU_Container_proxy@2@I@Z ; std::allocator<std::_Container_proxy>::deallocate
PUBLIC	??$_Dest_val@V?$allocator@U_Container_proxy@std@@@std@@U_Container_proxy@2@@std@@YAXAAV?$allocator@U_Container_proxy@std@@@0@PAU_Container_proxy@0@@Z ; std::_Dest_val<std::allocator<std::_Container_proxy>,std::_Container_proxy>
PUBLIC	??$?0D@?$allocator@U_Container_proxy@std@@@std@@QAE@ABV?$allocator@D@1@@Z ; std::allocator<std::_Container_proxy>::allocator<std::_Container_proxy><char>
EXTRN	__imp_??1_Container_base12@std@@QAE@XZ:PROC
EXTRN	__imp_?_Orphan_all@_Container_base12@std@@QAEXXZ:PROC
;	COMDAT xdata$x
; File c:\program files (x86)\microsoft visual studio 10.0\vc\include\xstring
xdata$x	SEGMENT
__unwindtable$??1?$_String_val@DV?$allocator@D@std@@@std@@QAE@XZ DD 0ffffffffH
	DD	FLAT:__unwindfunclet$??1?$_String_val@DV?$allocator@D@std@@@std@@QAE@XZ$0
__ehfuncinfo$??1?$_String_val@DV?$allocator@D@std@@@std@@QAE@XZ DD 019930522H
	DD	01H
	DD	FLAT:__unwindtable$??1?$_String_val@DV?$allocator@D@std@@@std@@QAE@XZ
	DD	2 DUP(00H)
	DD	2 DUP(00H)
	DD	00H
	DD	01H
; Function compile flags: /Odtp /RTCsu /ZI
xdata$x	ENDS
;	COMDAT ??1?$_String_val@DV?$allocator@D@std@@@std@@QAE@XZ
_TEXT	SEGMENT
__Alproxy$ = -29					; size = 1
_this$ = -20						; size = 4
__$EHRec$ = -12						; size = 12
??1?$_String_val@DV?$allocator@D@std@@@std@@QAE@XZ PROC	; std::_String_val<char,std::allocator<char> >::~_String_val<char,std::allocator<char> >, COMDAT
; _this$ = ecx

; 475  : 		{	// destroy the object

	push	ebp
	mov	ebp, esp
	push	-1
	push	__ehhandler$??1?$_String_val@DV?$allocator@D@std@@@std@@QAE@XZ
	mov	eax, DWORD PTR fs:0
	push	eax
	sub	esp, 216				; 000000d8H
	push	ebx
	push	esi
	push	edi
	push	ecx
	lea	edi, DWORD PTR [ebp-228]
	mov	ecx, 54					; 00000036H
	mov	eax, -858993460				; ccccccccH
	rep stosd
	pop	ecx
	mov	eax, DWORD PTR ___security_cookie
	xor	eax, ebp
	push	eax
	lea	eax, DWORD PTR __$EHRec$[ebp]
	mov	DWORD PTR fs:0, eax
	mov	DWORD PTR _this$[ebp], ecx
	mov	DWORD PTR __$EHRec$[ebp+8], 0

; 476  : 		typename _Alloc::template rebind<_Container_proxy>::other
; 477  : 			_Alproxy(_Alval);

	mov	eax, DWORD PTR _this$[ebp]
	add	eax, 28					; 0000001cH
	push	eax
	lea	ecx, DWORD PTR __Alproxy$[ebp]
	call	??$?0D@?$allocator@U_Container_proxy@std@@@std@@QAE@ABV?$allocator@D@1@@Z ; std::allocator<std::_Container_proxy>::allocator<std::_Container_proxy><char>

; 478  : 		this->_Orphan_all();

	mov	esi, esp
	mov	ecx, DWORD PTR _this$[ebp]
	call	DWORD PTR __imp_?_Orphan_all@_Container_base12@std@@QAEXXZ
	cmp	esi, esp
	call	__RTC_CheckEsp

; 479  : 		_Dest_val(_Alproxy, this->_Myproxy);

	mov	eax, DWORD PTR _this$[ebp]
	mov	ecx, DWORD PTR [eax]
	push	ecx
	lea	edx, DWORD PTR __Alproxy$[ebp]
	push	edx
	call	??$_Dest_val@V?$allocator@U_Container_proxy@std@@@std@@U_Container_proxy@2@@std@@YAXAAV?$allocator@U_Container_proxy@std@@@0@PAU_Container_proxy@0@@Z ; std::_Dest_val<std::allocator<std::_Container_proxy>,std::_Container_proxy>
	add	esp, 8

; 480  : 		_Alproxy.deallocate(this->_Myproxy, 1);

	push	1
	mov	eax, DWORD PTR _this$[ebp]
	mov	ecx, DWORD PTR [eax]
	push	ecx
	lea	ecx, DWORD PTR __Alproxy$[ebp]
	call	?deallocate@?$allocator@U_Container_proxy@std@@@std@@QAEXPAU_Container_proxy@2@I@Z ; std::allocator<std::_Container_proxy>::deallocate

; 481  : 		this->_Myproxy = 0;

	mov	eax, DWORD PTR _this$[ebp]
	mov	DWORD PTR [eax], 0

; 482  : 		}

	mov	DWORD PTR __$EHRec$[ebp+8], -1
	mov	esi, esp
	mov	ecx, DWORD PTR _this$[ebp]
	call	DWORD PTR __imp_??1_Container_base12@std@@QAE@XZ
	cmp	esi, esp
	call	__RTC_CheckEsp
	push	edx
	mov	ecx, ebp
	push	eax
	lea	edx, DWORD PTR $LN7@String_val
	call	@_RTC_CheckStackVars@8
	pop	eax
	pop	edx
	mov	ecx, DWORD PTR __$EHRec$[ebp]
	mov	DWORD PTR fs:0, ecx
	pop	ecx
	pop	edi
	pop	esi
	pop	ebx
	add	esp, 228				; 000000e4H
	cmp	ebp, esp
	call	__RTC_CheckEsp
	mov	esp, ebp
	pop	ebp
	ret	0
	npad	2
$LN7@String_val:
	DD	1
	DD	$LN6@String_val
$LN6@String_val:
	DD	-29					; ffffffe3H
	DD	1
	DD	$LN4@String_val
$LN4@String_val:
	DB	95					; 0000005fH
	DB	65					; 00000041H
	DB	108					; 0000006cH
	DB	112					; 00000070H
	DB	114					; 00000072H
	DB	111					; 0000006fH
	DB	120					; 00000078H
	DB	121					; 00000079H
	DB	0
_TEXT	ENDS
;	COMDAT text$x
text$x	SEGMENT
__unwindfunclet$??1?$_String_val@DV?$allocator@D@std@@@std@@QAE@XZ$0:
	mov	esi, esp
	mov	ecx, DWORD PTR _this$[ebp]
	call	DWORD PTR __imp_??1_Container_base12@std@@QAE@XZ
	cmp	esi, esp
	jmp	__RTC_CheckEsp
__ehhandler$??1?$_String_val@DV?$allocator@D@std@@@std@@QAE@XZ:
	mov	edx, DWORD PTR [esp+8]
	lea	eax, DWORD PTR [edx+12]
	mov	ecx, DWORD PTR [edx-232]
	xor	ecx, eax
	call	@__security_check_cookie@4
	mov	eax, OFFSET __ehfuncinfo$??1?$_String_val@DV?$allocator@D@std@@@std@@QAE@XZ
	jmp	___CxxFrameHandler3
text$x	ENDS
??1?$_String_val@DV?$allocator@D@std@@@std@@QAE@XZ ENDP	; std::_String_val<char,std::allocator<char> >::~_String_val<char,std::allocator<char> >
PUBLIC	?assign@?$char_traits@D@std@@SAXAADABD@Z	; std::char_traits<char>::assign
PUBLIC	?_Myptr@?$basic_string@DU?$char_traits@D@std@@V?$allocator@D@2@@std@@QAEPADXZ ; std::basic_string<char,std::char_traits<char>,std::allocator<char> >::_Myptr
; Function compile flags: /Odtp /RTCsu /ZI
;	COMDAT ?_Eos@?$basic_string@DU?$char_traits@D@std@@V?$allocator@D@2@@std@@QAEXI@Z
_TEXT	SEGMENT
$T70795 = -209						; size = 1
_this$ = -8						; size = 4
__Newsize$ = 8						; size = 4
?_Eos@?$basic_string@DU?$char_traits@D@std@@V?$allocator@D@2@@std@@QAEXI@Z PROC ; std::basic_string<char,std::char_traits<char>,std::allocator<char> >::_Eos, COMDAT
; _this$ = ecx

; 1952 : 		{	// set new length and null terminator

	push	ebp
	mov	ebp, esp
	sub	esp, 216				; 000000d8H
	push	ebx
	push	esi
	push	edi
	push	ecx
	lea	edi, DWORD PTR [ebp-216]
	mov	ecx, 54					; 00000036H
	mov	eax, -858993460				; ccccccccH
	rep stosd
	pop	ecx
	mov	DWORD PTR _this$[ebp], ecx

; 1953 : 		_Traits::assign(_Myptr()[this->_Mysize = _Newsize], _Elem());

	mov	BYTE PTR $T70795[ebp], 0
	mov	eax, DWORD PTR _this$[ebp]
	mov	ecx, DWORD PTR __Newsize$[ebp]
	mov	DWORD PTR [eax+20], ecx
	lea	edx, DWORD PTR $T70795[ebp]
	push	edx
	mov	ecx, DWORD PTR _this$[ebp]
	call	?_Myptr@?$basic_string@DU?$char_traits@D@std@@V?$allocator@D@2@@std@@QAEPADXZ ; std::basic_string<char,std::char_traits<char>,std::allocator<char> >::_Myptr
	add	eax, DWORD PTR __Newsize$[ebp]
	push	eax
	call	?assign@?$char_traits@D@std@@SAXAADABD@Z ; std::char_traits<char>::assign
	add	esp, 8

; 1954 : 		}

	pop	edi
	pop	esi
	pop	ebx
	add	esp, 216				; 000000d8H
	cmp	ebp, esp
	call	__RTC_CheckEsp
	mov	esp, ebp
	pop	ebp
	ret	4
?_Eos@?$basic_string@DU?$char_traits@D@std@@V?$allocator@D@2@@std@@QAEXI@Z ENDP ; std::basic_string<char,std::char_traits<char>,std::allocator<char> >::_Eos
; Function compile flags: /Odtp /RTCsu /ZI
; File c:\program files (x86)\microsoft visual studio 10.0\vc\include\iosfwd
_TEXT	ENDS
;	COMDAT ?assign@?$char_traits@D@std@@SAXAADABD@Z
_TEXT	SEGMENT
__Left$ = 8						; size = 4
__Right$ = 12						; size = 4
?assign@?$char_traits@D@std@@SAXAADABD@Z PROC		; std::char_traits<char>::assign, COMDAT

; 526  : 		{	// assign an element

	push	ebp
	mov	ebp, esp
	sub	esp, 192				; 000000c0H
	push	ebx
	push	esi
	push	edi
	lea	edi, DWORD PTR [ebp-192]
	mov	ecx, 48					; 00000030H
	mov	eax, -858993460				; ccccccccH
	rep stosd

; 527  : 		_Left = _Right;

	mov	eax, DWORD PTR __Left$[ebp]
	mov	ecx, DWORD PTR __Right$[ebp]
	mov	dl, BYTE PTR [ecx]
	mov	BYTE PTR [eax], dl

; 528  : 		}

	pop	edi
	pop	esi
	pop	ebx
	mov	esp, ebp
	pop	ebp
	ret	0
?assign@?$char_traits@D@std@@SAXAADABD@Z ENDP		; std::char_traits<char>::assign
; Function compile flags: /Odtp /RTCsu /ZI
; File c:\program files (x86)\microsoft visual studio 10.0\vc\include\xstring
_TEXT	ENDS
;	COMDAT ?_Myptr@?$basic_string@DU?$char_traits@D@std@@V?$allocator@D@2@@std@@QAEPADXZ
_TEXT	SEGMENT
tv82 = -208						; size = 4
_this$ = -8						; size = 4
?_Myptr@?$basic_string@DU?$char_traits@D@std@@V?$allocator@D@2@@std@@QAEPADXZ PROC ; std::basic_string<char,std::char_traits<char>,std::allocator<char> >::_Myptr, COMDAT
; _this$ = ecx

; 2002 : 		{	// determine current pointer to buffer for mutable string

	push	ebp
	mov	ebp, esp
	sub	esp, 208				; 000000d0H
	push	ebx
	push	esi
	push	edi
	push	ecx
	lea	edi, DWORD PTR [ebp-208]
	mov	ecx, 52					; 00000034H
	mov	eax, -858993460				; ccccccccH
	rep stosd
	pop	ecx
	mov	DWORD PTR _this$[ebp], ecx

; 2003 : 		return (this->_BUF_SIZE <= this->_Myres ? this->_Bx._Ptr
; 2004 : 			: this->_Bx._Buf);

	mov	eax, DWORD PTR _this$[ebp]
	cmp	DWORD PTR [eax+24], 16			; 00000010H
	jb	SHORT $LN3@Myptr
	mov	ecx, DWORD PTR _this$[ebp]
	mov	edx, DWORD PTR [ecx+4]
	mov	DWORD PTR tv82[ebp], edx
	jmp	SHORT $LN4@Myptr
$LN3@Myptr:
	mov	eax, DWORD PTR _this$[ebp]
	add	eax, 4
	mov	DWORD PTR tv82[ebp], eax
$LN4@Myptr:
	mov	eax, DWORD PTR tv82[ebp]

; 2005 : 		}

	pop	edi
	pop	esi
	pop	ebx
	mov	esp, ebp
	pop	ebp
	ret	0
?_Myptr@?$basic_string@DU?$char_traits@D@std@@V?$allocator@D@2@@std@@QAEPADXZ ENDP ; std::basic_string<char,std::char_traits<char>,std::allocator<char> >::_Myptr
; Function compile flags: /Odtp /RTCsu /ZI
; File c:\program files (x86)\microsoft visual studio 10.0\vc\include\xmemory
_TEXT	ENDS
;	COMDAT ?deallocate@?$allocator@D@std@@QAEXPADI@Z
_TEXT	SEGMENT
_this$ = -8						; size = 4
__Ptr$ = 8						; size = 4
___formal$ = 12						; size = 4
?deallocate@?$allocator@D@std@@QAEXPADI@Z PROC		; std::allocator<char>::deallocate, COMDAT
; _this$ = ecx

; 181  : 		{	// deallocate object at _Ptr, ignore size

	push	ebp
	mov	ebp, esp
	sub	esp, 204				; 000000ccH
	push	ebx
	push	esi
	push	edi
	push	ecx
	lea	edi, DWORD PTR [ebp-204]
	mov	ecx, 51					; 00000033H
	mov	eax, -858993460				; ccccccccH
	rep stosd
	pop	ecx
	mov	DWORD PTR _this$[ebp], ecx

; 182  : 		::operator delete(_Ptr);

	mov	eax, DWORD PTR __Ptr$[ebp]
	push	eax
	call	??3@YAXPAX@Z				; operator delete
	add	esp, 4

; 183  : 		}

	pop	edi
	pop	esi
	pop	ebx
	add	esp, 204				; 000000ccH
	cmp	ebp, esp
	call	__RTC_CheckEsp
	mov	esp, ebp
	pop	ebp
	ret	8
?deallocate@?$allocator@D@std@@QAEXPADI@Z ENDP		; std::allocator<char>::deallocate
; Function compile flags: /Odtp /RTCsu /ZI
_TEXT	ENDS
;	COMDAT ?deallocate@?$allocator@U_Container_proxy@std@@@std@@QAEXPAU_Container_proxy@2@I@Z
_TEXT	SEGMENT
_this$ = -8						; size = 4
__Ptr$ = 8						; size = 4
___formal$ = 12						; size = 4
?deallocate@?$allocator@U_Container_proxy@std@@@std@@QAEXPAU_Container_proxy@2@I@Z PROC ; std::allocator<std::_Container_proxy>::deallocate, COMDAT
; _this$ = ecx

; 181  : 		{	// deallocate object at _Ptr, ignore size

	push	ebp
	mov	ebp, esp
	sub	esp, 204				; 000000ccH
	push	ebx
	push	esi
	push	edi
	push	ecx
	lea	edi, DWORD PTR [ebp-204]
	mov	ecx, 51					; 00000033H
	mov	eax, -858993460				; ccccccccH
	rep stosd
	pop	ecx
	mov	DWORD PTR _this$[ebp], ecx

; 182  : 		::operator delete(_Ptr);

	mov	eax, DWORD PTR __Ptr$[ebp]
	push	eax
	call	??3@YAXPAX@Z				; operator delete
	add	esp, 4

; 183  : 		}

	pop	edi
	pop	esi
	pop	ebx
	add	esp, 204				; 000000ccH
	cmp	ebp, esp
	call	__RTC_CheckEsp
	mov	esp, ebp
	pop	ebp
	ret	8
?deallocate@?$allocator@U_Container_proxy@std@@@std@@QAEXPAU_Container_proxy@2@I@Z ENDP ; std::allocator<std::_Container_proxy>::deallocate
; Function compile flags: /Odtp /RTCsu /ZI
; File c:\opengl\glm-0.9.3.1\glm\core\type_vec2.inl
_TEXT	ENDS
;	COMDAT ??0?$tvec2@M@detail@glm@@QAE@XZ
_TEXT	SEGMENT
_this$ = -8						; size = 4
??0?$tvec2@M@detail@glm@@QAE@XZ PROC			; glm::detail::tvec2<float>::tvec2<float>, COMDAT
; _this$ = ecx

; 70   : 	{}

	push	ebp
	mov	ebp, esp
	sub	esp, 204				; 000000ccH
	push	ebx
	push	esi
	push	edi
	push	ecx
	lea	edi, DWORD PTR [ebp-204]
	mov	ecx, 51					; 00000033H
	mov	eax, -858993460				; ccccccccH
	rep stosd
	pop	ecx
	mov	DWORD PTR _this$[ebp], ecx
	mov	eax, DWORD PTR _this$[ebp]
	fldz
	fstp	DWORD PTR [eax]
	mov	eax, DWORD PTR _this$[ebp]
	fldz
	fstp	DWORD PTR [eax+4]
	mov	eax, DWORD PTR _this$[ebp]
	pop	edi
	pop	esi
	pop	ebx
	mov	esp, ebp
	pop	ebp
	ret	0
??0?$tvec2@M@detail@glm@@QAE@XZ ENDP			; glm::detail::tvec2<float>::tvec2<float>
; Function compile flags: /Odtp /RTCsu /ZI
_TEXT	ENDS
;	COMDAT ??4?$tvec2@M@detail@glm@@QAEAAU012@ABU012@@Z
_TEXT	SEGMENT
_this$ = -8						; size = 4
_v$ = 8							; size = 4
??4?$tvec2@M@detail@glm@@QAEAAU012@ABU012@@Z PROC	; glm::detail::tvec2<float>::operator=, COMDAT
; _this$ = ecx

; 187  : 	{

	push	ebp
	mov	ebp, esp
	sub	esp, 204				; 000000ccH
	push	ebx
	push	esi
	push	edi
	push	ecx
	lea	edi, DWORD PTR [ebp-204]
	mov	ecx, 51					; 00000033H
	mov	eax, -858993460				; ccccccccH
	rep stosd
	pop	ecx
	mov	DWORD PTR _this$[ebp], ecx

; 188  : 		this->x = v.x;

	mov	eax, DWORD PTR _this$[ebp]
	mov	ecx, DWORD PTR _v$[ebp]
	fld	DWORD PTR [ecx]
	fstp	DWORD PTR [eax]

; 189  : 		this->y = v.y;

	mov	eax, DWORD PTR _this$[ebp]
	mov	ecx, DWORD PTR _v$[ebp]
	fld	DWORD PTR [ecx+4]
	fstp	DWORD PTR [eax+4]

; 190  : 		return *this;

	mov	eax, DWORD PTR _this$[ebp]

; 191  : 	}

	pop	edi
	pop	esi
	pop	ebx
	mov	esp, ebp
	pop	ebp
	ret	4
??4?$tvec2@M@detail@glm@@QAEAAU012@ABU012@@Z ENDP	; glm::detail::tvec2<float>::operator=
; Function compile flags: /Odtp /RTCsu /ZI
; File c:\opengl\glm-0.9.3.1\glm\core\type_vec3.inl
_TEXT	ENDS
;	COMDAT ??0?$tvec3@M@detail@glm@@QAE@ABM00@Z
_TEXT	SEGMENT
_this$ = -8						; size = 4
_s0$ = 8						; size = 4
_s1$ = 12						; size = 4
_s2$ = 16						; size = 4
??0?$tvec3@M@detail@glm@@QAE@ABM00@Z PROC		; glm::detail::tvec3<float>::tvec3<float>, COMDAT
; _this$ = ecx

; 113  : 	{}

	push	ebp
	mov	ebp, esp
	sub	esp, 204				; 000000ccH
	push	ebx
	push	esi
	push	edi
	push	ecx
	lea	edi, DWORD PTR [ebp-204]
	mov	ecx, 51					; 00000033H
	mov	eax, -858993460				; ccccccccH
	rep stosd
	pop	ecx
	mov	DWORD PTR _this$[ebp], ecx
	mov	eax, DWORD PTR _this$[ebp]
	mov	ecx, DWORD PTR _s0$[ebp]
	fld	DWORD PTR [ecx]
	fstp	DWORD PTR [eax]
	mov	eax, DWORD PTR _this$[ebp]
	mov	ecx, DWORD PTR _s1$[ebp]
	fld	DWORD PTR [ecx]
	fstp	DWORD PTR [eax+4]
	mov	eax, DWORD PTR _this$[ebp]
	mov	ecx, DWORD PTR _s2$[ebp]
	fld	DWORD PTR [ecx]
	fstp	DWORD PTR [eax+8]
	mov	eax, DWORD PTR _this$[ebp]
	pop	edi
	pop	esi
	pop	ebx
	mov	esp, ebp
	pop	ebp
	ret	12					; 0000000cH
??0?$tvec3@M@detail@glm@@QAE@ABM00@Z ENDP		; glm::detail::tvec3<float>::tvec3<float>
; Function compile flags: /Odtp /RTCsu /ZI
; File c:\opengl\glm-0.9.3.1\glm\core\type_vec4.inl
_TEXT	ENDS
;	COMDAT ??0?$tvec4@M@detail@glm@@QAE@ABM000@Z
_TEXT	SEGMENT
_this$ = -8						; size = 4
_s1$ = 8						; size = 4
_s2$ = 12						; size = 4
_s3$ = 16						; size = 4
_s4$ = 20						; size = 4
??0?$tvec4@M@detail@glm@@QAE@ABM000@Z PROC		; glm::detail::tvec4<float>::tvec4<float>, COMDAT
; _this$ = ecx

; 118  : 	{}

	push	ebp
	mov	ebp, esp
	sub	esp, 204				; 000000ccH
	push	ebx
	push	esi
	push	edi
	push	ecx
	lea	edi, DWORD PTR [ebp-204]
	mov	ecx, 51					; 00000033H
	mov	eax, -858993460				; ccccccccH
	rep stosd
	pop	ecx
	mov	DWORD PTR _this$[ebp], ecx
	mov	eax, DWORD PTR _this$[ebp]
	mov	ecx, DWORD PTR _s1$[ebp]
	fld	DWORD PTR [ecx]
	fstp	DWORD PTR [eax]
	mov	eax, DWORD PTR _this$[ebp]
	mov	ecx, DWORD PTR _s2$[ebp]
	fld	DWORD PTR [ecx]
	fstp	DWORD PTR [eax+4]
	mov	eax, DWORD PTR _this$[ebp]
	mov	ecx, DWORD PTR _s3$[ebp]
	fld	DWORD PTR [ecx]
	fstp	DWORD PTR [eax+8]
	mov	eax, DWORD PTR _this$[ebp]
	mov	ecx, DWORD PTR _s4$[ebp]
	fld	DWORD PTR [ecx]
	fstp	DWORD PTR [eax+12]
	mov	eax, DWORD PTR _this$[ebp]
	pop	edi
	pop	esi
	pop	ebx
	mov	esp, ebp
	pop	ebp
	ret	16					; 00000010H
??0?$tvec4@M@detail@glm@@QAE@ABM000@Z ENDP		; glm::detail::tvec4<float>::tvec4<float>
_TEXT	ENDS
PUBLIC	??4?$tvec4@M@detail@glm@@QAEAAU012@ABU012@@Z	; glm::detail::tvec4<float>::operator=
PUBLIC	??_H@YGXPAXIHP6EPAX0@Z@Z			; `vector constructor iterator'
PUBLIC	??0?$tvec4@M@detail@glm@@QAE@XZ			; glm::detail::tvec4<float>::tvec4<float>
; Function compile flags: /Odtp /RTCsu /ZI
; File c:\opengl\glm-0.9.3.1\glm\core\type_mat4x4.inl
;	COMDAT ??0?$tmat4x4@M@detail@glm@@QAE@ABU?$tvec4@M@12@000@Z
_TEXT	SEGMENT
_this$ = -8						; size = 4
_v0$ = 8						; size = 4
_v1$ = 12						; size = 4
_v2$ = 16						; size = 4
_v3$ = 20						; size = 4
??0?$tmat4x4@M@detail@glm@@QAE@ABU?$tvec4@M@12@000@Z PROC ; glm::detail::tmat4x4<float>::tmat4x4<float>, COMDAT
; _this$ = ecx

; 144  :     {

	push	ebp
	mov	ebp, esp
	sub	esp, 204				; 000000ccH
	push	ebx
	push	esi
	push	edi
	push	ecx
	lea	edi, DWORD PTR [ebp-204]
	mov	ecx, 51					; 00000033H
	mov	eax, -858993460				; ccccccccH
	rep stosd
	pop	ecx
	mov	DWORD PTR _this$[ebp], ecx
	push	OFFSET ??0?$tvec4@M@detail@glm@@QAE@XZ	; glm::detail::tvec4<float>::tvec4<float>
	push	4
	push	16					; 00000010H
	mov	eax, DWORD PTR _this$[ebp]
	push	eax
	call	??_H@YGXPAXIHP6EPAX0@Z@Z

; 145  :         this->value[0] = v0;

	mov	eax, DWORD PTR _v0$[ebp]
	push	eax
	mov	ecx, DWORD PTR _this$[ebp]
	call	??4?$tvec4@M@detail@glm@@QAEAAU012@ABU012@@Z ; glm::detail::tvec4<float>::operator=

; 146  :         this->value[1] = v1;

	mov	eax, DWORD PTR _v1$[ebp]
	push	eax
	mov	ecx, DWORD PTR _this$[ebp]
	add	ecx, 16					; 00000010H
	call	??4?$tvec4@M@detail@glm@@QAEAAU012@ABU012@@Z ; glm::detail::tvec4<float>::operator=

; 147  :         this->value[2] = v2;

	mov	eax, DWORD PTR _v2$[ebp]
	push	eax
	mov	ecx, DWORD PTR _this$[ebp]
	add	ecx, 32					; 00000020H
	call	??4?$tvec4@M@detail@glm@@QAEAAU012@ABU012@@Z ; glm::detail::tvec4<float>::operator=

; 148  :         this->value[3] = v3;

	mov	eax, DWORD PTR _v3$[ebp]
	push	eax
	mov	ecx, DWORD PTR _this$[ebp]
	add	ecx, 48					; 00000030H
	call	??4?$tvec4@M@detail@glm@@QAEAAU012@ABU012@@Z ; glm::detail::tvec4<float>::operator=

; 149  :     }

	mov	eax, DWORD PTR _this$[ebp]
	pop	edi
	pop	esi
	pop	ebx
	add	esp, 204				; 000000ccH
	cmp	ebp, esp
	call	__RTC_CheckEsp
	mov	esp, ebp
	pop	ebp
	ret	16					; 00000010H
??0?$tmat4x4@M@detail@glm@@QAE@ABU?$tvec4@M@12@000@Z ENDP ; glm::detail::tmat4x4<float>::tmat4x4<float>
; Function compile flags: /Odtp /RTCsu /ZI
_TEXT	ENDS
;	COMDAT ??0?$tmat4x4@M@detail@glm@@QAE@ABM@Z
_TEXT	SEGMENT
$T70818 = -308						; size = 16
$T70819 = -284						; size = 16
$T70820 = -260						; size = 16
$T70821 = -236						; size = 16
_Zero$ = -20						; size = 4
_this$ = -8						; size = 4
_s$ = 8							; size = 4
??0?$tmat4x4@M@detail@glm@@QAE@ABM@Z PROC		; glm::detail::tmat4x4<float>::tmat4x4<float>, COMDAT
; _this$ = ecx

; 113  :     {

	push	ebp
	mov	ebp, esp
	sub	esp, 312				; 00000138H
	push	ebx
	push	esi
	push	edi
	push	ecx
	lea	edi, DWORD PTR [ebp-312]
	mov	ecx, 78					; 0000004eH
	mov	eax, -858993460				; ccccccccH
	rep stosd
	pop	ecx
	mov	DWORD PTR _this$[ebp], ecx
	push	OFFSET ??0?$tvec4@M@detail@glm@@QAE@XZ	; glm::detail::tvec4<float>::tvec4<float>
	push	4
	push	16					; 00000010H
	mov	eax, DWORD PTR _this$[ebp]
	push	eax
	call	??_H@YGXPAXIHP6EPAX0@Z@Z

; 114  : 		value_type const Zero(0);

	fldz
	fstp	DWORD PTR _Zero$[ebp]

; 115  :         this->value[0] = col_type(s, Zero, Zero, Zero);

	lea	eax, DWORD PTR _Zero$[ebp]
	push	eax
	lea	ecx, DWORD PTR _Zero$[ebp]
	push	ecx
	lea	edx, DWORD PTR _Zero$[ebp]
	push	edx
	mov	eax, DWORD PTR _s$[ebp]
	push	eax
	lea	ecx, DWORD PTR $T70818[ebp]
	call	??0?$tvec4@M@detail@glm@@QAE@ABM000@Z	; glm::detail::tvec4<float>::tvec4<float>
	push	eax
	mov	ecx, DWORD PTR _this$[ebp]
	call	??4?$tvec4@M@detail@glm@@QAEAAU012@ABU012@@Z ; glm::detail::tvec4<float>::operator=

; 116  :         this->value[1] = col_type(Zero, s, Zero, Zero);

	lea	eax, DWORD PTR _Zero$[ebp]
	push	eax
	lea	ecx, DWORD PTR _Zero$[ebp]
	push	ecx
	mov	edx, DWORD PTR _s$[ebp]
	push	edx
	lea	eax, DWORD PTR _Zero$[ebp]
	push	eax
	lea	ecx, DWORD PTR $T70819[ebp]
	call	??0?$tvec4@M@detail@glm@@QAE@ABM000@Z	; glm::detail::tvec4<float>::tvec4<float>
	push	eax
	mov	ecx, DWORD PTR _this$[ebp]
	add	ecx, 16					; 00000010H
	call	??4?$tvec4@M@detail@glm@@QAEAAU012@ABU012@@Z ; glm::detail::tvec4<float>::operator=

; 117  :         this->value[2] = col_type(Zero, Zero, s, Zero);

	lea	eax, DWORD PTR _Zero$[ebp]
	push	eax
	mov	ecx, DWORD PTR _s$[ebp]
	push	ecx
	lea	edx, DWORD PTR _Zero$[ebp]
	push	edx
	lea	eax, DWORD PTR _Zero$[ebp]
	push	eax
	lea	ecx, DWORD PTR $T70820[ebp]
	call	??0?$tvec4@M@detail@glm@@QAE@ABM000@Z	; glm::detail::tvec4<float>::tvec4<float>
	push	eax
	mov	ecx, DWORD PTR _this$[ebp]
	add	ecx, 32					; 00000020H
	call	??4?$tvec4@M@detail@glm@@QAEAAU012@ABU012@@Z ; glm::detail::tvec4<float>::operator=

; 118  :         this->value[3] = col_type(Zero, Zero, Zero, s);

	mov	eax, DWORD PTR _s$[ebp]
	push	eax
	lea	ecx, DWORD PTR _Zero$[ebp]
	push	ecx
	lea	edx, DWORD PTR _Zero$[ebp]
	push	edx
	lea	eax, DWORD PTR _Zero$[ebp]
	push	eax
	lea	ecx, DWORD PTR $T70821[ebp]
	call	??0?$tvec4@M@detail@glm@@QAE@ABM000@Z	; glm::detail::tvec4<float>::tvec4<float>
	push	eax
	mov	ecx, DWORD PTR _this$[ebp]
	add	ecx, 48					; 00000030H
	call	??4?$tvec4@M@detail@glm@@QAEAAU012@ABU012@@Z ; glm::detail::tvec4<float>::operator=

; 119  :     }

	mov	eax, DWORD PTR _this$[ebp]
	push	edx
	mov	ecx, ebp
	push	eax
	lea	edx, DWORD PTR $LN5@tmat4x4
	call	@_RTC_CheckStackVars@8
	pop	eax
	pop	edx
	pop	edi
	pop	esi
	pop	ebx
	add	esp, 312				; 00000138H
	cmp	ebp, esp
	call	__RTC_CheckEsp
	mov	esp, ebp
	pop	ebp
	ret	4
	npad	3
$LN5@tmat4x4:
	DD	1
	DD	$LN4@tmat4x4
$LN4@tmat4x4:
	DD	-20					; ffffffecH
	DD	4
	DD	$LN3@tmat4x4
$LN3@tmat4x4:
	DB	90					; 0000005aH
	DB	101					; 00000065H
	DB	114					; 00000072H
	DB	111					; 0000006fH
	DB	0
??0?$tmat4x4@M@detail@glm@@QAE@ABM@Z ENDP		; glm::detail::tmat4x4<float>::tmat4x4<float>
; Function compile flags: /Odtp /RTCsu /ZI
_TEXT	ENDS
;	COMDAT ??0?$tmat4x4@M@detail@glm@@QAE@XZ
_TEXT	SEGMENT
$T70827 = -320						; size = 16
$T70828 = -296						; size = 16
$T70829 = -272						; size = 16
$T70830 = -248						; size = 16
_One$ = -32						; size = 4
_Zero$ = -20						; size = 4
_this$ = -8						; size = 4
??0?$tmat4x4@M@detail@glm@@QAE@XZ PROC			; glm::detail::tmat4x4<float>::tmat4x4<float>, COMDAT
; _this$ = ecx

; 80   :     {

	push	ebp
	mov	ebp, esp
	sub	esp, 324				; 00000144H
	push	ebx
	push	esi
	push	edi
	push	ecx
	lea	edi, DWORD PTR [ebp-324]
	mov	ecx, 81					; 00000051H
	mov	eax, -858993460				; ccccccccH
	rep stosd
	pop	ecx
	mov	DWORD PTR _this$[ebp], ecx
	push	OFFSET ??0?$tvec4@M@detail@glm@@QAE@XZ	; glm::detail::tvec4<float>::tvec4<float>
	push	4
	push	16					; 00000010H
	mov	eax, DWORD PTR _this$[ebp]
	push	eax
	call	??_H@YGXPAXIHP6EPAX0@Z@Z

; 81   : 		value_type Zero(0);

	fldz
	fstp	DWORD PTR _Zero$[ebp]

; 82   : 		value_type One(1);

	fld1
	fstp	DWORD PTR _One$[ebp]

; 83   :         this->value[0] = col_type(One, Zero, Zero, Zero);

	lea	eax, DWORD PTR _Zero$[ebp]
	push	eax
	lea	ecx, DWORD PTR _Zero$[ebp]
	push	ecx
	lea	edx, DWORD PTR _Zero$[ebp]
	push	edx
	lea	eax, DWORD PTR _One$[ebp]
	push	eax
	lea	ecx, DWORD PTR $T70827[ebp]
	call	??0?$tvec4@M@detail@glm@@QAE@ABM000@Z	; glm::detail::tvec4<float>::tvec4<float>
	push	eax
	mov	ecx, DWORD PTR _this$[ebp]
	call	??4?$tvec4@M@detail@glm@@QAEAAU012@ABU012@@Z ; glm::detail::tvec4<float>::operator=

; 84   :         this->value[1] = col_type(Zero, One, Zero, Zero);

	lea	eax, DWORD PTR _Zero$[ebp]
	push	eax
	lea	ecx, DWORD PTR _Zero$[ebp]
	push	ecx
	lea	edx, DWORD PTR _One$[ebp]
	push	edx
	lea	eax, DWORD PTR _Zero$[ebp]
	push	eax
	lea	ecx, DWORD PTR $T70828[ebp]
	call	??0?$tvec4@M@detail@glm@@QAE@ABM000@Z	; glm::detail::tvec4<float>::tvec4<float>
	push	eax
	mov	ecx, DWORD PTR _this$[ebp]
	add	ecx, 16					; 00000010H
	call	??4?$tvec4@M@detail@glm@@QAEAAU012@ABU012@@Z ; glm::detail::tvec4<float>::operator=

; 85   :         this->value[2] = col_type(Zero, Zero, One, Zero);

	lea	eax, DWORD PTR _Zero$[ebp]
	push	eax
	lea	ecx, DWORD PTR _One$[ebp]
	push	ecx
	lea	edx, DWORD PTR _Zero$[ebp]
	push	edx
	lea	eax, DWORD PTR _Zero$[ebp]
	push	eax
	lea	ecx, DWORD PTR $T70829[ebp]
	call	??0?$tvec4@M@detail@glm@@QAE@ABM000@Z	; glm::detail::tvec4<float>::tvec4<float>
	push	eax
	mov	ecx, DWORD PTR _this$[ebp]
	add	ecx, 32					; 00000020H
	call	??4?$tvec4@M@detail@glm@@QAEAAU012@ABU012@@Z ; glm::detail::tvec4<float>::operator=

; 86   :         this->value[3] = col_type(Zero, Zero, Zero, One);

	lea	eax, DWORD PTR _One$[ebp]
	push	eax
	lea	ecx, DWORD PTR _Zero$[ebp]
	push	ecx
	lea	edx, DWORD PTR _Zero$[ebp]
	push	edx
	lea	eax, DWORD PTR _Zero$[ebp]
	push	eax
	lea	ecx, DWORD PTR $T70830[ebp]
	call	??0?$tvec4@M@detail@glm@@QAE@ABM000@Z	; glm::detail::tvec4<float>::tvec4<float>
	push	eax
	mov	ecx, DWORD PTR _this$[ebp]
	add	ecx, 48					; 00000030H
	call	??4?$tvec4@M@detail@glm@@QAEAAU012@ABU012@@Z ; glm::detail::tvec4<float>::operator=

; 87   :     }

	mov	eax, DWORD PTR _this$[ebp]
	push	edx
	mov	ecx, ebp
	push	eax
	lea	edx, DWORD PTR $LN6@tmat4x4@2
	call	@_RTC_CheckStackVars@8
	pop	eax
	pop	edx
	pop	edi
	pop	esi
	pop	ebx
	add	esp, 324				; 00000144H
	cmp	ebp, esp
	call	__RTC_CheckEsp
	mov	esp, ebp
	pop	ebp
	ret	0
$LN6@tmat4x4@2:
	DD	2
	DD	$LN5@tmat4x4@2
$LN5@tmat4x4@2:
	DD	-20					; ffffffecH
	DD	4
	DD	$LN3@tmat4x4@2
	DD	-32					; ffffffe0H
	DD	4
	DD	$LN4@tmat4x4@2
$LN4@tmat4x4@2:
	DB	79					; 0000004fH
	DB	110					; 0000006eH
	DB	101					; 00000065H
	DB	0
$LN3@tmat4x4@2:
	DB	90					; 0000005aH
	DB	101					; 00000065H
	DB	114					; 00000072H
	DB	111					; 0000006fH
	DB	0
??0?$tmat4x4@M@detail@glm@@QAE@XZ ENDP			; glm::detail::tmat4x4<float>::tmat4x4<float>
_TEXT	ENDS
PUBLIC	??_C@_1CG@KOFHLCJL@?$AAi?$AA?5?$AA?$DM?$AA?5?$AAt?$AAh?$AAi?$AAs?$AA?9?$AA?$DO?$AAl?$AAe?$AAn?$AAg?$AAt?$AAh?$AA?$CI?$AA?$CJ?$AA?$AA@ ; `string'
PUBLIC	??_C@_1FO@LCBJDNCK@?$AAc?$AA?3?$AA?2?$AAo?$AAp?$AAe?$AAn?$AAg?$AAl?$AA?2?$AAg?$AAl?$AAm?$AA?9?$AA0?$AA?4?$AA9?$AA?4?$AA3?$AA?4?$AA1?$AA?2?$AAg?$AAl?$AAm?$AA?2?$AAc?$AAo?$AAr?$AAe?$AA?2?$AAt@ ; `string'
PUBLIC	?length@?$tmat4x4@M@detail@glm@@QBEIXZ		; glm::detail::tmat4x4<float>::length
EXTRN	__imp___wassert:PROC
;	COMDAT ??_C@_1CG@KOFHLCJL@?$AAi?$AA?5?$AA?$DM?$AA?5?$AAt?$AAh?$AAi?$AAs?$AA?9?$AA?$DO?$AAl?$AAe?$AAn?$AAg?$AAt?$AAh?$AA?$CI?$AA?$CJ?$AA?$AA@
CONST	SEGMENT
??_C@_1CG@KOFHLCJL@?$AAi?$AA?5?$AA?$DM?$AA?5?$AAt?$AAh?$AAi?$AAs?$AA?9?$AA?$DO?$AAl?$AAe?$AAn?$AAg?$AAt?$AAh?$AA?$CI?$AA?$CJ?$AA?$AA@ DB 'i'
	DB	00H, ' ', 00H, '<', 00H, ' ', 00H, 't', 00H, 'h', 00H, 'i', 00H
	DB	's', 00H, '-', 00H, '>', 00H, 'l', 00H, 'e', 00H, 'n', 00H, 'g'
	DB	00H, 't', 00H, 'h', 00H, '(', 00H, ')', 00H, 00H, 00H ; `string'
CONST	ENDS
;	COMDAT ??_C@_1FO@LCBJDNCK@?$AAc?$AA?3?$AA?2?$AAo?$AAp?$AAe?$AAn?$AAg?$AAl?$AA?2?$AAg?$AAl?$AAm?$AA?9?$AA0?$AA?4?$AA9?$AA?4?$AA3?$AA?4?$AA1?$AA?2?$AAg?$AAl?$AAm?$AA?2?$AAc?$AAo?$AAr?$AAe?$AA?2?$AAt@
CONST	SEGMENT
??_C@_1FO@LCBJDNCK@?$AAc?$AA?3?$AA?2?$AAo?$AAp?$AAe?$AAn?$AAg?$AAl?$AA?2?$AAg?$AAl?$AAm?$AA?9?$AA0?$AA?4?$AA9?$AA?4?$AA3?$AA?4?$AA1?$AA?2?$AAg?$AAl?$AAm?$AA?2?$AAc?$AAo?$AAr?$AAe?$AA?2?$AAt@ DB 'c'
	DB	00H, ':', 00H, '\', 00H, 'o', 00H, 'p', 00H, 'e', 00H, 'n', 00H
	DB	'g', 00H, 'l', 00H, '\', 00H, 'g', 00H, 'l', 00H, 'm', 00H, '-'
	DB	00H, '0', 00H, '.', 00H, '9', 00H, '.', 00H, '3', 00H, '.', 00H
	DB	'1', 00H, '\', 00H, 'g', 00H, 'l', 00H, 'm', 00H, '\', 00H, 'c'
	DB	00H, 'o', 00H, 'r', 00H, 'e', 00H, '\', 00H, 't', 00H, 'y', 00H
	DB	'p', 00H, 'e', 00H, '_', 00H, 'm', 00H, 'a', 00H, 't', 00H, '4'
	DB	00H, 'x', 00H, '4', 00H, '.', 00H, 'i', 00H, 'n', 00H, 'l', 00H
	DB	00H, 00H					; `string'
; Function compile flags: /Odtp /RTCsu /ZI
CONST	ENDS
;	COMDAT ??A?$tmat4x4@M@detail@glm@@QAEAAU?$tvec4@M@12@I@Z
_TEXT	SEGMENT
_this$ = -8						; size = 4
_i$ = 8							; size = 4
??A?$tmat4x4@M@detail@glm@@QAEAAU?$tvec4@M@12@I@Z PROC	; glm::detail::tmat4x4<float>::operator[], COMDAT
; _this$ = ecx

; 59   : 	{

	push	ebp
	mov	ebp, esp
	sub	esp, 204				; 000000ccH
	push	ebx
	push	esi
	push	edi
	push	ecx
	lea	edi, DWORD PTR [ebp-204]
	mov	ecx, 51					; 00000033H
	mov	eax, -858993460				; ccccccccH
	rep stosd
	pop	ecx
	mov	DWORD PTR _this$[ebp], ecx

; 60   : 		assert(i < this->length());

	mov	ecx, DWORD PTR _this$[ebp]
	call	?length@?$tmat4x4@M@detail@glm@@QBEIXZ	; glm::detail::tmat4x4<float>::length
	cmp	DWORD PTR _i$[ebp], eax
	jb	SHORT $LN3@operator
	mov	esi, esp
	push	60					; 0000003cH
	push	OFFSET ??_C@_1FO@LCBJDNCK@?$AAc?$AA?3?$AA?2?$AAo?$AAp?$AAe?$AAn?$AAg?$AAl?$AA?2?$AAg?$AAl?$AAm?$AA?9?$AA0?$AA?4?$AA9?$AA?4?$AA3?$AA?4?$AA1?$AA?2?$AAg?$AAl?$AAm?$AA?2?$AAc?$AAo?$AAr?$AAe?$AA?2?$AAt@
	push	OFFSET ??_C@_1CG@KOFHLCJL@?$AAi?$AA?5?$AA?$DM?$AA?5?$AAt?$AAh?$AAi?$AAs?$AA?9?$AA?$DO?$AAl?$AAe?$AAn?$AAg?$AAt?$AAh?$AA?$CI?$AA?$CJ?$AA?$AA@
	call	DWORD PTR __imp___wassert
	add	esp, 12					; 0000000cH
	cmp	esi, esp
	call	__RTC_CheckEsp
$LN3@operator:

; 61   : 		return this->value[i];

	mov	eax, DWORD PTR _i$[ebp]
	shl	eax, 4
	add	eax, DWORD PTR _this$[ebp]

; 62   : 	}

	pop	edi
	pop	esi
	pop	ebx
	add	esp, 204				; 000000ccH
	cmp	ebp, esp
	call	__RTC_CheckEsp
	mov	esp, ebp
	pop	ebp
	ret	4
??A?$tmat4x4@M@detail@glm@@QAEAAU?$tvec4@M@12@I@Z ENDP	; glm::detail::tmat4x4<float>::operator[]
_TEXT	ENDS
PUBLIC	??A?$tmat4x4@M@detail@glm@@QBEABU?$tvec4@M@12@I@Z ; glm::detail::tmat4x4<float>::operator[]
; Function compile flags: /Odtp /RTCsu /ZI
;	COMDAT ??4?$tmat4x4@M@detail@glm@@QAEAAU012@ABU012@@Z
_TEXT	SEGMENT
_this$ = -8						; size = 4
_m$ = 8							; size = 4
??4?$tmat4x4@M@detail@glm@@QAEAAU012@ABU012@@Z PROC	; glm::detail::tmat4x4<float>::operator=, COMDAT
; _this$ = ecx

; 349  :     {

	push	ebp
	mov	ebp, esp
	sub	esp, 204				; 000000ccH
	push	ebx
	push	esi
	push	edi
	push	ecx
	lea	edi, DWORD PTR [ebp-204]
	mov	ecx, 51					; 00000033H
	mov	eax, -858993460				; ccccccccH
	rep stosd
	pop	ecx
	mov	DWORD PTR _this$[ebp], ecx

; 350  :         //memcpy could be faster
; 351  :         //memcpy(&this->value, &m.value, 16 * sizeof(valType));
; 352  :         this->value[0] = m[0];

	push	0
	mov	ecx, DWORD PTR _m$[ebp]
	call	??A?$tmat4x4@M@detail@glm@@QBEABU?$tvec4@M@12@I@Z ; glm::detail::tmat4x4<float>::operator[]
	push	eax
	mov	ecx, DWORD PTR _this$[ebp]
	call	??4?$tvec4@M@detail@glm@@QAEAAU012@ABU012@@Z ; glm::detail::tvec4<float>::operator=

; 353  :         this->value[1] = m[1];

	push	1
	mov	ecx, DWORD PTR _m$[ebp]
	call	??A?$tmat4x4@M@detail@glm@@QBEABU?$tvec4@M@12@I@Z ; glm::detail::tmat4x4<float>::operator[]
	push	eax
	mov	ecx, DWORD PTR _this$[ebp]
	add	ecx, 16					; 00000010H
	call	??4?$tvec4@M@detail@glm@@QAEAAU012@ABU012@@Z ; glm::detail::tvec4<float>::operator=

; 354  :         this->value[2] = m[2];

	push	2
	mov	ecx, DWORD PTR _m$[ebp]
	call	??A?$tmat4x4@M@detail@glm@@QBEABU?$tvec4@M@12@I@Z ; glm::detail::tmat4x4<float>::operator[]
	push	eax
	mov	ecx, DWORD PTR _this$[ebp]
	add	ecx, 32					; 00000020H
	call	??4?$tvec4@M@detail@glm@@QAEAAU012@ABU012@@Z ; glm::detail::tvec4<float>::operator=

; 355  :         this->value[3] = m[3];

	push	3
	mov	ecx, DWORD PTR _m$[ebp]
	call	??A?$tmat4x4@M@detail@glm@@QBEABU?$tvec4@M@12@I@Z ; glm::detail::tmat4x4<float>::operator[]
	push	eax
	mov	ecx, DWORD PTR _this$[ebp]
	add	ecx, 48					; 00000030H
	call	??4?$tvec4@M@detail@glm@@QAEAAU012@ABU012@@Z ; glm::detail::tvec4<float>::operator=

; 356  :         return *this;

	mov	eax, DWORD PTR _this$[ebp]

; 357  :     }

	pop	edi
	pop	esi
	pop	ebx
	add	esp, 204				; 000000ccH
	cmp	ebp, esp
	call	__RTC_CheckEsp
	mov	esp, ebp
	pop	ebp
	ret	4
??4?$tmat4x4@M@detail@glm@@QAEAAU012@ABU012@@Z ENDP	; glm::detail::tmat4x4<float>::operator=
_TEXT	ENDS
PUBLIC	??4?$tvec3@M@detail@glm@@QAEAAU012@ABU012@@Z	; glm::detail::tvec3<float>::operator=
PUBLIC	??0?$tvec3@M@detail@glm@@QAE@XZ			; glm::detail::tvec3<float>::tvec3<float>
; Function compile flags: /Odtp /RTCsu /ZI
; File c:\opengl\glm-0.9.3.1\glm\core\type_mat3x3.inl
;	COMDAT ??0?$tmat3x3@M@detail@glm@@QAE@ABU?$tvec3@M@12@00@Z
_TEXT	SEGMENT
_this$ = -8						; size = 4
_v0$ = 8						; size = 4
_v1$ = 12						; size = 4
_v2$ = 16						; size = 4
??0?$tmat3x3@M@detail@glm@@QAE@ABU?$tvec3@M@12@00@Z PROC ; glm::detail::tmat3x3<float>::tmat3x3<float>, COMDAT
; _this$ = ecx

; 138  :     {

	push	ebp
	mov	ebp, esp
	sub	esp, 204				; 000000ccH
	push	ebx
	push	esi
	push	edi
	push	ecx
	lea	edi, DWORD PTR [ebp-204]
	mov	ecx, 51					; 00000033H
	mov	eax, -858993460				; ccccccccH
	rep stosd
	pop	ecx
	mov	DWORD PTR _this$[ebp], ecx
	push	OFFSET ??0?$tvec3@M@detail@glm@@QAE@XZ	; glm::detail::tvec3<float>::tvec3<float>
	push	3
	push	12					; 0000000cH
	mov	eax, DWORD PTR _this$[ebp]
	push	eax
	call	??_H@YGXPAXIHP6EPAX0@Z@Z

; 139  :         this->value[0] = v0;

	mov	eax, DWORD PTR _v0$[ebp]
	push	eax
	mov	ecx, DWORD PTR _this$[ebp]
	call	??4?$tvec3@M@detail@glm@@QAEAAU012@ABU012@@Z ; glm::detail::tvec3<float>::operator=

; 140  :         this->value[1] = v1;

	mov	eax, DWORD PTR _v1$[ebp]
	push	eax
	mov	ecx, DWORD PTR _this$[ebp]
	add	ecx, 12					; 0000000cH
	call	??4?$tvec3@M@detail@glm@@QAEAAU012@ABU012@@Z ; glm::detail::tvec3<float>::operator=

; 141  :         this->value[2] = v2;

	mov	eax, DWORD PTR _v2$[ebp]
	push	eax
	mov	ecx, DWORD PTR _this$[ebp]
	add	ecx, 24					; 00000018H
	call	??4?$tvec3@M@detail@glm@@QAEAAU012@ABU012@@Z ; glm::detail::tvec3<float>::operator=

; 142  :     }

	mov	eax, DWORD PTR _this$[ebp]
	pop	edi
	pop	esi
	pop	ebx
	add	esp, 204				; 000000ccH
	cmp	ebp, esp
	call	__RTC_CheckEsp
	mov	esp, ebp
	pop	ebp
	ret	12					; 0000000cH
??0?$tmat3x3@M@detail@glm@@QAE@ABU?$tvec3@M@12@00@Z ENDP ; glm::detail::tmat3x3<float>::tmat3x3<float>
; Function compile flags: /Odtp /RTCsu /ZI
; File c:\opengl\glm-0.9.3.1\glm\core\type_vec3.inl
_TEXT	ENDS
;	COMDAT ??4?$tvec3@M@detail@glm@@QAEAAU012@ABU012@@Z
_TEXT	SEGMENT
_this$ = -8						; size = 4
_v$ = 8							; size = 4
??4?$tvec3@M@detail@glm@@QAEAAU012@ABU012@@Z PROC	; glm::detail::tvec3<float>::operator=, COMDAT
; _this$ = ecx

; 236  : 	{

	push	ebp
	mov	ebp, esp
	sub	esp, 204				; 000000ccH
	push	ebx
	push	esi
	push	edi
	push	ecx
	lea	edi, DWORD PTR [ebp-204]
	mov	ecx, 51					; 00000033H
	mov	eax, -858993460				; ccccccccH
	rep stosd
	pop	ecx
	mov	DWORD PTR _this$[ebp], ecx

; 237  : 		this->x = v.x;

	mov	eax, DWORD PTR _this$[ebp]
	mov	ecx, DWORD PTR _v$[ebp]
	fld	DWORD PTR [ecx]
	fstp	DWORD PTR [eax]

; 238  : 		this->y = v.y;

	mov	eax, DWORD PTR _this$[ebp]
	mov	ecx, DWORD PTR _v$[ebp]
	fld	DWORD PTR [ecx+4]
	fstp	DWORD PTR [eax+4]

; 239  : 		this->z = v.z;

	mov	eax, DWORD PTR _this$[ebp]
	mov	ecx, DWORD PTR _v$[ebp]
	fld	DWORD PTR [ecx+8]
	fstp	DWORD PTR [eax+8]

; 240  : 		return *this;

	mov	eax, DWORD PTR _this$[ebp]

; 241  : 	}

	pop	edi
	pop	esi
	pop	ebx
	mov	esp, ebp
	pop	ebp
	ret	4
??4?$tvec3@M@detail@glm@@QAEAAU012@ABU012@@Z ENDP	; glm::detail::tvec3<float>::operator=
_TEXT	ENDS
PUBLIC	??A?$tmat3x3@M@detail@glm@@QBEABU?$tvec3@M@12@I@Z ; glm::detail::tmat3x3<float>::operator[]
; Function compile flags: /Odtp /RTCsu /ZI
; File c:\opengl\glm-0.9.3.1\glm\core\type_mat3x3.inl
;	COMDAT ??4?$tmat3x3@M@detail@glm@@QAEAAU012@ABU012@@Z
_TEXT	SEGMENT
_this$ = -8						; size = 4
_m$ = 8							; size = 4
??4?$tmat3x3@M@detail@glm@@QAEAAU012@ABU012@@Z PROC	; glm::detail::tmat3x3<float>::operator=, COMDAT
; _this$ = ecx

; 301  :     {

	push	ebp
	mov	ebp, esp
	sub	esp, 204				; 000000ccH
	push	ebx
	push	esi
	push	edi
	push	ecx
	lea	edi, DWORD PTR [ebp-204]
	mov	ecx, 51					; 00000033H
	mov	eax, -858993460				; ccccccccH
	rep stosd
	pop	ecx
	mov	DWORD PTR _this$[ebp], ecx

; 302  : 	    this->value[0] = m[0];

	push	0
	mov	ecx, DWORD PTR _m$[ebp]
	call	??A?$tmat3x3@M@detail@glm@@QBEABU?$tvec3@M@12@I@Z ; glm::detail::tmat3x3<float>::operator[]
	push	eax
	mov	ecx, DWORD PTR _this$[ebp]
	call	??4?$tvec3@M@detail@glm@@QAEAAU012@ABU012@@Z ; glm::detail::tvec3<float>::operator=

; 303  : 	    this->value[1] = m[1];

	push	1
	mov	ecx, DWORD PTR _m$[ebp]
	call	??A?$tmat3x3@M@detail@glm@@QBEABU?$tvec3@M@12@I@Z ; glm::detail::tmat3x3<float>::operator[]
	push	eax
	mov	ecx, DWORD PTR _this$[ebp]
	add	ecx, 12					; 0000000cH
	call	??4?$tvec3@M@detail@glm@@QAEAAU012@ABU012@@Z ; glm::detail::tvec3<float>::operator=

; 304  :         this->value[2] = m[2];

	push	2
	mov	ecx, DWORD PTR _m$[ebp]
	call	??A?$tmat3x3@M@detail@glm@@QBEABU?$tvec3@M@12@I@Z ; glm::detail::tmat3x3<float>::operator[]
	push	eax
	mov	ecx, DWORD PTR _this$[ebp]
	add	ecx, 24					; 00000018H
	call	??4?$tvec3@M@detail@glm@@QAEAAU012@ABU012@@Z ; glm::detail::tvec3<float>::operator=

; 305  : 	    return *this;

	mov	eax, DWORD PTR _this$[ebp]

; 306  :     }

	pop	edi
	pop	esi
	pop	ebx
	add	esp, 204				; 000000ccH
	cmp	ebp, esp
	call	__RTC_CheckEsp
	mov	esp, ebp
	pop	ebp
	ret	4
??4?$tmat3x3@M@detail@glm@@QAEAAU012@ABU012@@Z ENDP	; glm::detail::tmat3x3<float>::operator=
_TEXT	ENDS
PUBLIC	??0?$tmat4x4@M@detail@glm@@QAE@ABU012@@Z	; glm::detail::tmat4x4<float>::tmat4x4<float>
PUBLIC	??$?HM@detail@glm@@YA?AU?$tvec4@M@01@ABU201@0@Z	; glm::detail::operator+<float>
PUBLIC	??$?DM@detail@glm@@YA?AU?$tvec4@M@01@ABU201@ABM@Z ; glm::detail::operator*<float>
PUBLIC	??A?$tvec4@M@detail@glm@@QAEAAMI@Z		; glm::detail::tvec4<float>::operator[]
PUBLIC	??A?$tvec3@M@detail@glm@@QAEAAMI@Z		; glm::detail::tvec3<float>::operator[]
PUBLIC	??0?$tmat4x4@M@detail@glm@@QAE@W4ctor@012@@Z	; glm::detail::tmat4x4<float>::tmat4x4<float>
PUBLIC	??$?DM@detail@glm@@YA?AU?$tvec3@M@01@ABMABU201@@Z ; glm::detail::operator*<float>
PUBLIC	__real@3ff0000000000000
PUBLIC	??$normalize@M@glm@@YA?AU?$tvec3@M@detail@0@ABU120@@Z ; glm::normalize<float>
PUBLIC	??$sin@M@glm@@YAMABM@Z				; glm::sin<float>
PUBLIC	??$cos@M@glm@@YAMABM@Z				; glm::cos<float>
PUBLIC	??$radians@M@glm@@YAMABM@Z			; glm::radians<float>
PUBLIC	__$ArrayPad$
;	COMDAT __real@3ff0000000000000
; File c:\opengl\glm-0.9.3.1\glm\gtc\matrix_transform.inl
CONST	SEGMENT
__real@3ff0000000000000 DQ 03ff0000000000000r	; 1
; Function compile flags: /Odtp /RTCsu /ZI
CONST	ENDS
;	COMDAT ??$rotate@M@glm@@YA?AU?$tmat4x4@M@detail@0@ABU120@ABMABU?$tvec3@M@20@@Z
_TEXT	SEGMENT
tv650 = -804						; size = 8
tv645 = -804						; size = 8
tv640 = -804						; size = 8
tv632 = -804						; size = 8
tv627 = -804						; size = 8
tv622 = -804						; size = 8
tv653 = -796						; size = 8
tv648 = -796						; size = 8
tv643 = -796						; size = 8
tv638 = -796						; size = 8
tv635 = -796						; size = 8
tv630 = -796						; size = 8
tv625 = -796						; size = 8
tv620 = -796						; size = 8
tv617 = -796						; size = 8
$T70849 = -784						; size = 4
$T70850 = -772						; size = 16
$T70851 = -748						; size = 16
$T70852 = -724						; size = 16
$T70853 = -700						; size = 16
$T70854 = -676						; size = 16
$T70855 = -652						; size = 16
$T70856 = -628						; size = 16
$T70857 = -604						; size = 16
$T70858 = -580						; size = 16
$T70859 = -556						; size = 16
$T70860 = -532						; size = 16
$T70861 = -508						; size = 16
$T70862 = -484						; size = 16
$T70863 = -460						; size = 16
$T70864 = -436						; size = 16
_Result$ = -220						; size = 64
_Rotate$ = -148						; size = 64
_temp$ = -76						; size = 12
_axis$ = -56						; size = 12
_s$ = -36						; size = 4
_c$ = -24						; size = 4
_a$ = -12						; size = 4
__$ArrayPad$ = -4					; size = 4
___$ReturnUdt$ = 8					; size = 4
_m$ = 12						; size = 4
_angle$ = 16						; size = 4
_v$ = 20						; size = 4
??$rotate@M@glm@@YA?AU?$tmat4x4@M@detail@0@ABU120@ABMABU?$tvec3@M@20@@Z PROC ; glm::rotate<float>, COMDAT

; 50   : 	{

	push	ebp
	mov	ebp, esp
	sub	esp, 804				; 00000324H
	push	ebx
	push	esi
	push	edi
	lea	edi, DWORD PTR [ebp-804]
	mov	ecx, 201				; 000000c9H
	mov	eax, -858993460				; ccccccccH
	rep stosd
	mov	eax, DWORD PTR ___security_cookie
	xor	eax, ebp
	mov	DWORD PTR __$ArrayPad$[ebp], eax

; 51   : 		T a = radians(angle);

	mov	eax, DWORD PTR _angle$[ebp]
	push	eax
	call	??$radians@M@glm@@YAMABM@Z		; glm::radians<float>
	add	esp, 4
	fstp	DWORD PTR _a$[ebp]

; 52   : 		T c = cos(a);

	lea	eax, DWORD PTR _a$[ebp]
	push	eax
	call	??$cos@M@glm@@YAMABM@Z			; glm::cos<float>
	add	esp, 4
	fstp	DWORD PTR _c$[ebp]

; 53   : 		T s = sin(a);

	lea	eax, DWORD PTR _a$[ebp]
	push	eax
	call	??$sin@M@glm@@YAMABM@Z			; glm::sin<float>
	add	esp, 4
	fstp	DWORD PTR _s$[ebp]

; 54   : 
; 55   : 		detail::tvec3<T> axis = normalize(v);

	mov	eax, DWORD PTR _v$[ebp]
	push	eax
	lea	ecx, DWORD PTR _axis$[ebp]
	push	ecx
	call	??$normalize@M@glm@@YA?AU?$tvec3@M@detail@0@ABU120@@Z ; glm::normalize<float>
	add	esp, 8

; 56   : 
; 57   : 		detail::tvec3<T> temp = (T(1) - c) * axis;

	fld	DWORD PTR _c$[ebp]
	fld1
	fsubrp	ST(1), ST(0)
	fstp	DWORD PTR $T70849[ebp]
	lea	eax, DWORD PTR _axis$[ebp]
	push	eax
	lea	ecx, DWORD PTR $T70849[ebp]
	push	ecx
	lea	edx, DWORD PTR _temp$[ebp]
	push	edx
	call	??$?DM@detail@glm@@YA?AU?$tvec3@M@01@ABMABU201@@Z ; glm::detail::operator*<float>
	add	esp, 12					; 0000000cH

; 58   : 
; 59   : 		detail::tmat4x4<T> Rotate(detail::tmat4x4<T>::null);

	push	0
	lea	ecx, DWORD PTR _Rotate$[ebp]
	call	??0?$tmat4x4@M@detail@glm@@QAE@W4ctor@012@@Z ; glm::detail::tmat4x4<float>::tmat4x4<float>

; 60   : 		Rotate[0][0] = c + temp[0] * axis[0];

	push	0
	lea	ecx, DWORD PTR _temp$[ebp]
	call	??A?$tvec3@M@detail@glm@@QAEAAMI@Z	; glm::detail::tvec3<float>::operator[]
	mov	esi, eax
	push	0
	lea	ecx, DWORD PTR _axis$[ebp]
	call	??A?$tvec3@M@detail@glm@@QAEAAMI@Z	; glm::detail::tvec3<float>::operator[]
	fld	DWORD PTR [esi]
	fmul	DWORD PTR [eax]
	fadd	DWORD PTR _c$[ebp]
	push	0
	push	0
	lea	ecx, DWORD PTR _Rotate$[ebp]
	fstp	QWORD PTR tv617[ebp]
	call	??A?$tmat4x4@M@detail@glm@@QAEAAU?$tvec4@M@12@I@Z ; glm::detail::tmat4x4<float>::operator[]
	mov	ecx, eax
	call	??A?$tvec4@M@detail@glm@@QAEAAMI@Z	; glm::detail::tvec4<float>::operator[]
	fld	QWORD PTR tv617[ebp]
	fstp	DWORD PTR [eax]

; 61   : 		Rotate[0][1] = 0 + temp[0] * axis[1] + s * axis[2];

	push	0
	lea	ecx, DWORD PTR _temp$[ebp]
	call	??A?$tvec3@M@detail@glm@@QAEAAMI@Z	; glm::detail::tvec3<float>::operator[]
	mov	esi, eax
	push	1
	lea	ecx, DWORD PTR _axis$[ebp]
	call	??A?$tvec3@M@detail@glm@@QAEAAMI@Z	; glm::detail::tvec3<float>::operator[]
	fld	DWORD PTR [esi]
	fmul	DWORD PTR [eax]
	fldz
	faddp	ST(1), ST(0)
	push	2
	lea	ecx, DWORD PTR _axis$[ebp]
	fstp	QWORD PTR tv620[ebp]
	call	??A?$tvec3@M@detail@glm@@QAEAAMI@Z	; glm::detail::tvec3<float>::operator[]
	fld	DWORD PTR _s$[ebp]
	fmul	DWORD PTR [eax]
	fadd	QWORD PTR tv620[ebp]
	push	1
	push	0
	lea	ecx, DWORD PTR _Rotate$[ebp]
	fstp	QWORD PTR tv622[ebp]
	call	??A?$tmat4x4@M@detail@glm@@QAEAAU?$tvec4@M@12@I@Z ; glm::detail::tmat4x4<float>::operator[]
	mov	ecx, eax
	call	??A?$tvec4@M@detail@glm@@QAEAAMI@Z	; glm::detail::tvec4<float>::operator[]
	fld	QWORD PTR tv622[ebp]
	fstp	DWORD PTR [eax]

; 62   : 		Rotate[0][2] = 0 + temp[0] * axis[2] - s * axis[1];

	push	0
	lea	ecx, DWORD PTR _temp$[ebp]
	call	??A?$tvec3@M@detail@glm@@QAEAAMI@Z	; glm::detail::tvec3<float>::operator[]
	mov	esi, eax
	push	2
	lea	ecx, DWORD PTR _axis$[ebp]
	call	??A?$tvec3@M@detail@glm@@QAEAAMI@Z	; glm::detail::tvec3<float>::operator[]
	fld	DWORD PTR [esi]
	fmul	DWORD PTR [eax]
	fldz
	faddp	ST(1), ST(0)
	push	1
	lea	ecx, DWORD PTR _axis$[ebp]
	fstp	QWORD PTR tv625[ebp]
	call	??A?$tvec3@M@detail@glm@@QAEAAMI@Z	; glm::detail::tvec3<float>::operator[]
	fld	DWORD PTR _s$[ebp]
	fmul	DWORD PTR [eax]
	fsubr	QWORD PTR tv625[ebp]
	push	2
	push	0
	lea	ecx, DWORD PTR _Rotate$[ebp]
	fstp	QWORD PTR tv627[ebp]
	call	??A?$tmat4x4@M@detail@glm@@QAEAAU?$tvec4@M@12@I@Z ; glm::detail::tmat4x4<float>::operator[]
	mov	ecx, eax
	call	??A?$tvec4@M@detail@glm@@QAEAAMI@Z	; glm::detail::tvec4<float>::operator[]
	fld	QWORD PTR tv627[ebp]
	fstp	DWORD PTR [eax]

; 63   : 
; 64   : 		Rotate[1][0] = 0 + temp[1] * axis[0] - s * axis[2];

	push	1
	lea	ecx, DWORD PTR _temp$[ebp]
	call	??A?$tvec3@M@detail@glm@@QAEAAMI@Z	; glm::detail::tvec3<float>::operator[]
	mov	esi, eax
	push	0
	lea	ecx, DWORD PTR _axis$[ebp]
	call	??A?$tvec3@M@detail@glm@@QAEAAMI@Z	; glm::detail::tvec3<float>::operator[]
	fld	DWORD PTR [esi]
	fmul	DWORD PTR [eax]
	fldz
	faddp	ST(1), ST(0)
	push	2
	lea	ecx, DWORD PTR _axis$[ebp]
	fstp	QWORD PTR tv630[ebp]
	call	??A?$tvec3@M@detail@glm@@QAEAAMI@Z	; glm::detail::tvec3<float>::operator[]
	fld	DWORD PTR _s$[ebp]
	fmul	DWORD PTR [eax]
	fsubr	QWORD PTR tv630[ebp]
	push	0
	push	1
	lea	ecx, DWORD PTR _Rotate$[ebp]
	fstp	QWORD PTR tv632[ebp]
	call	??A?$tmat4x4@M@detail@glm@@QAEAAU?$tvec4@M@12@I@Z ; glm::detail::tmat4x4<float>::operator[]
	mov	ecx, eax
	call	??A?$tvec4@M@detail@glm@@QAEAAMI@Z	; glm::detail::tvec4<float>::operator[]
	fld	QWORD PTR tv632[ebp]
	fstp	DWORD PTR [eax]

; 65   : 		Rotate[1][1] = c + temp[1] * axis[1];

	push	1
	lea	ecx, DWORD PTR _temp$[ebp]
	call	??A?$tvec3@M@detail@glm@@QAEAAMI@Z	; glm::detail::tvec3<float>::operator[]
	mov	esi, eax
	push	1
	lea	ecx, DWORD PTR _axis$[ebp]
	call	??A?$tvec3@M@detail@glm@@QAEAAMI@Z	; glm::detail::tvec3<float>::operator[]
	fld	DWORD PTR [esi]
	fmul	DWORD PTR [eax]
	fadd	DWORD PTR _c$[ebp]
	push	1
	push	1
	lea	ecx, DWORD PTR _Rotate$[ebp]
	fstp	QWORD PTR tv635[ebp]
	call	??A?$tmat4x4@M@detail@glm@@QAEAAU?$tvec4@M@12@I@Z ; glm::detail::tmat4x4<float>::operator[]
	mov	ecx, eax
	call	??A?$tvec4@M@detail@glm@@QAEAAMI@Z	; glm::detail::tvec4<float>::operator[]
	fld	QWORD PTR tv635[ebp]
	fstp	DWORD PTR [eax]

; 66   : 		Rotate[1][2] = 0 + temp[1] * axis[2] + s * axis[0];

	push	1
	lea	ecx, DWORD PTR _temp$[ebp]
	call	??A?$tvec3@M@detail@glm@@QAEAAMI@Z	; glm::detail::tvec3<float>::operator[]
	mov	esi, eax
	push	2
	lea	ecx, DWORD PTR _axis$[ebp]
	call	??A?$tvec3@M@detail@glm@@QAEAAMI@Z	; glm::detail::tvec3<float>::operator[]
	fld	DWORD PTR [esi]
	fmul	DWORD PTR [eax]
	fldz
	faddp	ST(1), ST(0)
	push	0
	lea	ecx, DWORD PTR _axis$[ebp]
	fstp	QWORD PTR tv638[ebp]
	call	??A?$tvec3@M@detail@glm@@QAEAAMI@Z	; glm::detail::tvec3<float>::operator[]
	fld	DWORD PTR _s$[ebp]
	fmul	DWORD PTR [eax]
	fadd	QWORD PTR tv638[ebp]
	push	2
	push	1
	lea	ecx, DWORD PTR _Rotate$[ebp]
	fstp	QWORD PTR tv640[ebp]
	call	??A?$tmat4x4@M@detail@glm@@QAEAAU?$tvec4@M@12@I@Z ; glm::detail::tmat4x4<float>::operator[]
	mov	ecx, eax
	call	??A?$tvec4@M@detail@glm@@QAEAAMI@Z	; glm::detail::tvec4<float>::operator[]
	fld	QWORD PTR tv640[ebp]
	fstp	DWORD PTR [eax]

; 67   : 
; 68   : 		Rotate[2][0] = 0 + temp[2] * axis[0] + s * axis[1];

	push	2
	lea	ecx, DWORD PTR _temp$[ebp]
	call	??A?$tvec3@M@detail@glm@@QAEAAMI@Z	; glm::detail::tvec3<float>::operator[]
	mov	esi, eax
	push	0
	lea	ecx, DWORD PTR _axis$[ebp]
	call	??A?$tvec3@M@detail@glm@@QAEAAMI@Z	; glm::detail::tvec3<float>::operator[]
	fld	DWORD PTR [esi]
	fmul	DWORD PTR [eax]
	fldz
	faddp	ST(1), ST(0)
	push	1
	lea	ecx, DWORD PTR _axis$[ebp]
	fstp	QWORD PTR tv643[ebp]
	call	??A?$tvec3@M@detail@glm@@QAEAAMI@Z	; glm::detail::tvec3<float>::operator[]
	fld	DWORD PTR _s$[ebp]
	fmul	DWORD PTR [eax]
	fadd	QWORD PTR tv643[ebp]
	push	0
	push	2
	lea	ecx, DWORD PTR _Rotate$[ebp]
	fstp	QWORD PTR tv645[ebp]
	call	??A?$tmat4x4@M@detail@glm@@QAEAAU?$tvec4@M@12@I@Z ; glm::detail::tmat4x4<float>::operator[]
	mov	ecx, eax
	call	??A?$tvec4@M@detail@glm@@QAEAAMI@Z	; glm::detail::tvec4<float>::operator[]
	fld	QWORD PTR tv645[ebp]
	fstp	DWORD PTR [eax]

; 69   : 		Rotate[2][1] = 0 + temp[2] * axis[1] - s * axis[0];

	push	2
	lea	ecx, DWORD PTR _temp$[ebp]
	call	??A?$tvec3@M@detail@glm@@QAEAAMI@Z	; glm::detail::tvec3<float>::operator[]
	mov	esi, eax
	push	1
	lea	ecx, DWORD PTR _axis$[ebp]
	call	??A?$tvec3@M@detail@glm@@QAEAAMI@Z	; glm::detail::tvec3<float>::operator[]
	fld	DWORD PTR [esi]
	fmul	DWORD PTR [eax]
	fldz
	faddp	ST(1), ST(0)
	push	0
	lea	ecx, DWORD PTR _axis$[ebp]
	fstp	QWORD PTR tv648[ebp]
	call	??A?$tvec3@M@detail@glm@@QAEAAMI@Z	; glm::detail::tvec3<float>::operator[]
	fld	DWORD PTR _s$[ebp]
	fmul	DWORD PTR [eax]
	fsubr	QWORD PTR tv648[ebp]
	push	1
	push	2
	lea	ecx, DWORD PTR _Rotate$[ebp]
	fstp	QWORD PTR tv650[ebp]
	call	??A?$tmat4x4@M@detail@glm@@QAEAAU?$tvec4@M@12@I@Z ; glm::detail::tmat4x4<float>::operator[]
	mov	ecx, eax
	call	??A?$tvec4@M@detail@glm@@QAEAAMI@Z	; glm::detail::tvec4<float>::operator[]
	fld	QWORD PTR tv650[ebp]
	fstp	DWORD PTR [eax]

; 70   : 		Rotate[2][2] = c + temp[2] * axis[2];

	push	2
	lea	ecx, DWORD PTR _temp$[ebp]
	call	??A?$tvec3@M@detail@glm@@QAEAAMI@Z	; glm::detail::tvec3<float>::operator[]
	mov	esi, eax
	push	2
	lea	ecx, DWORD PTR _axis$[ebp]
	call	??A?$tvec3@M@detail@glm@@QAEAAMI@Z	; glm::detail::tvec3<float>::operator[]
	fld	DWORD PTR [esi]
	fmul	DWORD PTR [eax]
	fadd	DWORD PTR _c$[ebp]
	push	2
	push	2
	lea	ecx, DWORD PTR _Rotate$[ebp]
	fstp	QWORD PTR tv653[ebp]
	call	??A?$tmat4x4@M@detail@glm@@QAEAAU?$tvec4@M@12@I@Z ; glm::detail::tmat4x4<float>::operator[]
	mov	ecx, eax
	call	??A?$tvec4@M@detail@glm@@QAEAAMI@Z	; glm::detail::tvec4<float>::operator[]
	fld	QWORD PTR tv653[ebp]
	fstp	DWORD PTR [eax]

; 71   : 
; 72   : 		detail::tmat4x4<T> Result(detail::tmat4x4<T>::null);

	push	0
	lea	ecx, DWORD PTR _Result$[ebp]
	call	??0?$tmat4x4@M@detail@glm@@QAE@W4ctor@012@@Z ; glm::detail::tmat4x4<float>::tmat4x4<float>

; 73   : 		Result[0] = m[0] * Rotate[0][0] + m[1] * Rotate[0][1] + m[2] * Rotate[0][2];

	push	2
	push	0
	lea	ecx, DWORD PTR _Rotate$[ebp]
	call	??A?$tmat4x4@M@detail@glm@@QAEAAU?$tvec4@M@12@I@Z ; glm::detail::tmat4x4<float>::operator[]
	mov	ecx, eax
	call	??A?$tvec4@M@detail@glm@@QAEAAMI@Z	; glm::detail::tvec4<float>::operator[]
	push	eax
	push	2
	mov	ecx, DWORD PTR _m$[ebp]
	call	??A?$tmat4x4@M@detail@glm@@QBEABU?$tvec4@M@12@I@Z ; glm::detail::tmat4x4<float>::operator[]
	push	eax
	lea	eax, DWORD PTR $T70850[ebp]
	push	eax
	call	??$?DM@detail@glm@@YA?AU?$tvec4@M@01@ABU201@ABM@Z ; glm::detail::operator*<float>
	add	esp, 12					; 0000000cH
	push	eax
	push	1
	push	0
	lea	ecx, DWORD PTR _Rotate$[ebp]
	call	??A?$tmat4x4@M@detail@glm@@QAEAAU?$tvec4@M@12@I@Z ; glm::detail::tmat4x4<float>::operator[]
	mov	ecx, eax
	call	??A?$tvec4@M@detail@glm@@QAEAAMI@Z	; glm::detail::tvec4<float>::operator[]
	push	eax
	push	1
	mov	ecx, DWORD PTR _m$[ebp]
	call	??A?$tmat4x4@M@detail@glm@@QBEABU?$tvec4@M@12@I@Z ; glm::detail::tmat4x4<float>::operator[]
	push	eax
	lea	ecx, DWORD PTR $T70851[ebp]
	push	ecx
	call	??$?DM@detail@glm@@YA?AU?$tvec4@M@01@ABU201@ABM@Z ; glm::detail::operator*<float>
	add	esp, 12					; 0000000cH
	push	eax
	push	0
	push	0
	lea	ecx, DWORD PTR _Rotate$[ebp]
	call	??A?$tmat4x4@M@detail@glm@@QAEAAU?$tvec4@M@12@I@Z ; glm::detail::tmat4x4<float>::operator[]
	mov	ecx, eax
	call	??A?$tvec4@M@detail@glm@@QAEAAMI@Z	; glm::detail::tvec4<float>::operator[]
	push	eax
	push	0
	mov	ecx, DWORD PTR _m$[ebp]
	call	??A?$tmat4x4@M@detail@glm@@QBEABU?$tvec4@M@12@I@Z ; glm::detail::tmat4x4<float>::operator[]
	push	eax
	lea	edx, DWORD PTR $T70852[ebp]
	push	edx
	call	??$?DM@detail@glm@@YA?AU?$tvec4@M@01@ABU201@ABM@Z ; glm::detail::operator*<float>
	add	esp, 12					; 0000000cH
	push	eax
	lea	eax, DWORD PTR $T70853[ebp]
	push	eax
	call	??$?HM@detail@glm@@YA?AU?$tvec4@M@01@ABU201@0@Z ; glm::detail::operator+<float>
	add	esp, 12					; 0000000cH
	push	eax
	lea	ecx, DWORD PTR $T70854[ebp]
	push	ecx
	call	??$?HM@detail@glm@@YA?AU?$tvec4@M@01@ABU201@0@Z ; glm::detail::operator+<float>
	add	esp, 12					; 0000000cH
	push	eax
	push	0
	lea	ecx, DWORD PTR _Result$[ebp]
	call	??A?$tmat4x4@M@detail@glm@@QAEAAU?$tvec4@M@12@I@Z ; glm::detail::tmat4x4<float>::operator[]
	mov	ecx, eax
	call	??4?$tvec4@M@detail@glm@@QAEAAU012@ABU012@@Z ; glm::detail::tvec4<float>::operator=

; 74   : 		Result[1] = m[0] * Rotate[1][0] + m[1] * Rotate[1][1] + m[2] * Rotate[1][2];

	push	2
	push	1
	lea	ecx, DWORD PTR _Rotate$[ebp]
	call	??A?$tmat4x4@M@detail@glm@@QAEAAU?$tvec4@M@12@I@Z ; glm::detail::tmat4x4<float>::operator[]
	mov	ecx, eax
	call	??A?$tvec4@M@detail@glm@@QAEAAMI@Z	; glm::detail::tvec4<float>::operator[]
	push	eax
	push	2
	mov	ecx, DWORD PTR _m$[ebp]
	call	??A?$tmat4x4@M@detail@glm@@QBEABU?$tvec4@M@12@I@Z ; glm::detail::tmat4x4<float>::operator[]
	push	eax
	lea	eax, DWORD PTR $T70855[ebp]
	push	eax
	call	??$?DM@detail@glm@@YA?AU?$tvec4@M@01@ABU201@ABM@Z ; glm::detail::operator*<float>
	add	esp, 12					; 0000000cH
	push	eax
	push	1
	push	1
	lea	ecx, DWORD PTR _Rotate$[ebp]
	call	??A?$tmat4x4@M@detail@glm@@QAEAAU?$tvec4@M@12@I@Z ; glm::detail::tmat4x4<float>::operator[]
	mov	ecx, eax
	call	??A?$tvec4@M@detail@glm@@QAEAAMI@Z	; glm::detail::tvec4<float>::operator[]
	push	eax
	push	1
	mov	ecx, DWORD PTR _m$[ebp]
	call	??A?$tmat4x4@M@detail@glm@@QBEABU?$tvec4@M@12@I@Z ; glm::detail::tmat4x4<float>::operator[]
	push	eax
	lea	ecx, DWORD PTR $T70856[ebp]
	push	ecx
	call	??$?DM@detail@glm@@YA?AU?$tvec4@M@01@ABU201@ABM@Z ; glm::detail::operator*<float>
	add	esp, 12					; 0000000cH
	push	eax
	push	0
	push	1
	lea	ecx, DWORD PTR _Rotate$[ebp]
	call	??A?$tmat4x4@M@detail@glm@@QAEAAU?$tvec4@M@12@I@Z ; glm::detail::tmat4x4<float>::operator[]
	mov	ecx, eax
	call	??A?$tvec4@M@detail@glm@@QAEAAMI@Z	; glm::detail::tvec4<float>::operator[]
	push	eax
	push	0
	mov	ecx, DWORD PTR _m$[ebp]
	call	??A?$tmat4x4@M@detail@glm@@QBEABU?$tvec4@M@12@I@Z ; glm::detail::tmat4x4<float>::operator[]
	push	eax
	lea	edx, DWORD PTR $T70857[ebp]
	push	edx
	call	??$?DM@detail@glm@@YA?AU?$tvec4@M@01@ABU201@ABM@Z ; glm::detail::operator*<float>
	add	esp, 12					; 0000000cH
	push	eax
	lea	eax, DWORD PTR $T70858[ebp]
	push	eax
	call	??$?HM@detail@glm@@YA?AU?$tvec4@M@01@ABU201@0@Z ; glm::detail::operator+<float>
	add	esp, 12					; 0000000cH
	push	eax
	lea	ecx, DWORD PTR $T70859[ebp]
	push	ecx
	call	??$?HM@detail@glm@@YA?AU?$tvec4@M@01@ABU201@0@Z ; glm::detail::operator+<float>
	add	esp, 12					; 0000000cH
	push	eax
	push	1
	lea	ecx, DWORD PTR _Result$[ebp]
	call	??A?$tmat4x4@M@detail@glm@@QAEAAU?$tvec4@M@12@I@Z ; glm::detail::tmat4x4<float>::operator[]
	mov	ecx, eax
	call	??4?$tvec4@M@detail@glm@@QAEAAU012@ABU012@@Z ; glm::detail::tvec4<float>::operator=

; 75   : 		Result[2] = m[0] * Rotate[2][0] + m[1] * Rotate[2][1] + m[2] * Rotate[2][2];

	push	2
	push	2
	lea	ecx, DWORD PTR _Rotate$[ebp]
	call	??A?$tmat4x4@M@detail@glm@@QAEAAU?$tvec4@M@12@I@Z ; glm::detail::tmat4x4<float>::operator[]
	mov	ecx, eax
	call	??A?$tvec4@M@detail@glm@@QAEAAMI@Z	; glm::detail::tvec4<float>::operator[]
	push	eax
	push	2
	mov	ecx, DWORD PTR _m$[ebp]
	call	??A?$tmat4x4@M@detail@glm@@QBEABU?$tvec4@M@12@I@Z ; glm::detail::tmat4x4<float>::operator[]
	push	eax
	lea	eax, DWORD PTR $T70860[ebp]
	push	eax
	call	??$?DM@detail@glm@@YA?AU?$tvec4@M@01@ABU201@ABM@Z ; glm::detail::operator*<float>
	add	esp, 12					; 0000000cH
	push	eax
	push	1
	push	2
	lea	ecx, DWORD PTR _Rotate$[ebp]
	call	??A?$tmat4x4@M@detail@glm@@QAEAAU?$tvec4@M@12@I@Z ; glm::detail::tmat4x4<float>::operator[]
	mov	ecx, eax
	call	??A?$tvec4@M@detail@glm@@QAEAAMI@Z	; glm::detail::tvec4<float>::operator[]
	push	eax
	push	1
	mov	ecx, DWORD PTR _m$[ebp]
	call	??A?$tmat4x4@M@detail@glm@@QBEABU?$tvec4@M@12@I@Z ; glm::detail::tmat4x4<float>::operator[]
	push	eax
	lea	ecx, DWORD PTR $T70861[ebp]
	push	ecx
	call	??$?DM@detail@glm@@YA?AU?$tvec4@M@01@ABU201@ABM@Z ; glm::detail::operator*<float>
	add	esp, 12					; 0000000cH
	push	eax
	push	0
	push	2
	lea	ecx, DWORD PTR _Rotate$[ebp]
	call	??A?$tmat4x4@M@detail@glm@@QAEAAU?$tvec4@M@12@I@Z ; glm::detail::tmat4x4<float>::operator[]
	mov	ecx, eax
	call	??A?$tvec4@M@detail@glm@@QAEAAMI@Z	; glm::detail::tvec4<float>::operator[]
	push	eax
	push	0
	mov	ecx, DWORD PTR _m$[ebp]
	call	??A?$tmat4x4@M@detail@glm@@QBEABU?$tvec4@M@12@I@Z ; glm::detail::tmat4x4<float>::operator[]
	push	eax
	lea	edx, DWORD PTR $T70862[ebp]
	push	edx
	call	??$?DM@detail@glm@@YA?AU?$tvec4@M@01@ABU201@ABM@Z ; glm::detail::operator*<float>
	add	esp, 12					; 0000000cH
	push	eax
	lea	eax, DWORD PTR $T70863[ebp]
	push	eax
	call	??$?HM@detail@glm@@YA?AU?$tvec4@M@01@ABU201@0@Z ; glm::detail::operator+<float>
	add	esp, 12					; 0000000cH
	push	eax
	lea	ecx, DWORD PTR $T70864[ebp]
	push	ecx
	call	??$?HM@detail@glm@@YA?AU?$tvec4@M@01@ABU201@0@Z ; glm::detail::operator+<float>
	add	esp, 12					; 0000000cH
	push	eax
	push	2
	lea	ecx, DWORD PTR _Result$[ebp]
	call	??A?$tmat4x4@M@detail@glm@@QAEAAU?$tvec4@M@12@I@Z ; glm::detail::tmat4x4<float>::operator[]
	mov	ecx, eax
	call	??4?$tvec4@M@detail@glm@@QAEAAU012@ABU012@@Z ; glm::detail::tvec4<float>::operator=

; 76   : 		Result[3] = m[3];

	push	3
	mov	ecx, DWORD PTR _m$[ebp]
	call	??A?$tmat4x4@M@detail@glm@@QBEABU?$tvec4@M@12@I@Z ; glm::detail::tmat4x4<float>::operator[]
	push	eax
	push	3
	lea	ecx, DWORD PTR _Result$[ebp]
	call	??A?$tmat4x4@M@detail@glm@@QAEAAU?$tvec4@M@12@I@Z ; glm::detail::tmat4x4<float>::operator[]
	mov	ecx, eax
	call	??4?$tvec4@M@detail@glm@@QAEAAU012@ABU012@@Z ; glm::detail::tvec4<float>::operator=

; 77   : 		return Result;

	lea	eax, DWORD PTR _Result$[ebp]
	push	eax
	mov	ecx, DWORD PTR ___$ReturnUdt$[ebp]
	call	??0?$tmat4x4@M@detail@glm@@QAE@ABU012@@Z ; glm::detail::tmat4x4<float>::tmat4x4<float>
	mov	eax, DWORD PTR ___$ReturnUdt$[ebp]

; 78   : 	}

	push	edx
	mov	ecx, ebp
	push	eax
	lea	edx, DWORD PTR $LN9@rotate
	call	@_RTC_CheckStackVars@8
	pop	eax
	pop	edx
	pop	edi
	pop	esi
	pop	ebx
	mov	ecx, DWORD PTR __$ArrayPad$[ebp]
	xor	ecx, ebp
	call	@__security_check_cookie@4
	add	esp, 804				; 00000324H
	cmp	ebp, esp
	call	__RTC_CheckEsp
	mov	esp, ebp
	pop	ebp
	ret	0
	npad	2
$LN9@rotate:
	DD	5
	DD	$LN8@rotate
$LN8@rotate:
	DD	-12					; fffffff4H
	DD	4
	DD	$LN3@rotate
	DD	-56					; ffffffc8H
	DD	12					; 0000000cH
	DD	$LN4@rotate
	DD	-76					; ffffffb4H
	DD	12					; 0000000cH
	DD	$LN5@rotate
	DD	-148					; ffffff6cH
	DD	64					; 00000040H
	DD	$LN6@rotate
	DD	-220					; ffffff24H
	DD	64					; 00000040H
	DD	$LN7@rotate
$LN7@rotate:
	DB	82					; 00000052H
	DB	101					; 00000065H
	DB	115					; 00000073H
	DB	117					; 00000075H
	DB	108					; 0000006cH
	DB	116					; 00000074H
	DB	0
$LN6@rotate:
	DB	82					; 00000052H
	DB	111					; 0000006fH
	DB	116					; 00000074H
	DB	97					; 00000061H
	DB	116					; 00000074H
	DB	101					; 00000065H
	DB	0
$LN5@rotate:
	DB	116					; 00000074H
	DB	101					; 00000065H
	DB	109					; 0000006dH
	DB	112					; 00000070H
	DB	0
$LN4@rotate:
	DB	97					; 00000061H
	DB	120					; 00000078H
	DB	105					; 00000069H
	DB	115					; 00000073H
	DB	0
$LN3@rotate:
	DB	97					; 00000061H
	DB	0
??$rotate@M@glm@@YA?AU?$tmat4x4@M@detail@0@ABU120@ABMABU?$tvec3@M@20@@Z ENDP ; glm::rotate<float>
; Function compile flags: /Odtp /RTCsu /ZI
; File c:\opengl\glm-0.9.3.1\glm\core\type_vec4.inl
_TEXT	ENDS
;	COMDAT ??$?DM@detail@glm@@YA?AU?$tvec4@M@01@ABU201@ABM@Z
_TEXT	SEGMENT
$T70876 = -236						; size = 4
$T70877 = -224						; size = 4
$T70878 = -212						; size = 4
$T70879 = -200						; size = 4
___$ReturnUdt$ = 8					; size = 4
_v$ = 12						; size = 4
_s$ = 16						; size = 4
??$?DM@detail@glm@@YA?AU?$tvec4@M@01@ABU201@ABM@Z PROC	; glm::detail::operator*<float>, COMDAT

; 892  : 	{

	push	ebp
	mov	ebp, esp
	sub	esp, 240				; 000000f0H
	push	ebx
	push	esi
	push	edi
	lea	edi, DWORD PTR [ebp-240]
	mov	ecx, 60					; 0000003cH
	mov	eax, -858993460				; ccccccccH
	rep stosd

; 893  : 		return tvec4<T>(
; 894  : 			v.x * s,
; 895  : 			v.y * s,
; 896  : 			v.z * s,
; 897  : 			v.w * s);

	mov	eax, DWORD PTR _v$[ebp]
	fld	DWORD PTR [eax+12]
	mov	ecx, DWORD PTR _s$[ebp]
	fmul	DWORD PTR [ecx]
	fstp	DWORD PTR $T70876[ebp]
	mov	edx, DWORD PTR _v$[ebp]
	fld	DWORD PTR [edx+8]
	mov	eax, DWORD PTR _s$[ebp]
	fmul	DWORD PTR [eax]
	fstp	DWORD PTR $T70877[ebp]
	mov	ecx, DWORD PTR _v$[ebp]
	fld	DWORD PTR [ecx+4]
	mov	edx, DWORD PTR _s$[ebp]
	fmul	DWORD PTR [edx]
	fstp	DWORD PTR $T70878[ebp]
	mov	eax, DWORD PTR _v$[ebp]
	fld	DWORD PTR [eax]
	mov	ecx, DWORD PTR _s$[ebp]
	fmul	DWORD PTR [ecx]
	fstp	DWORD PTR $T70879[ebp]
	lea	edx, DWORD PTR $T70876[ebp]
	push	edx
	lea	eax, DWORD PTR $T70877[ebp]
	push	eax
	lea	ecx, DWORD PTR $T70878[ebp]
	push	ecx
	lea	edx, DWORD PTR $T70879[ebp]
	push	edx
	mov	ecx, DWORD PTR ___$ReturnUdt$[ebp]
	call	??0?$tvec4@M@detail@glm@@QAE@ABM000@Z	; glm::detail::tvec4<float>::tvec4<float>
	mov	eax, DWORD PTR ___$ReturnUdt$[ebp]

; 898  : 	}

	pop	edi
	pop	esi
	pop	ebx
	add	esp, 240				; 000000f0H
	cmp	ebp, esp
	call	__RTC_CheckEsp
	mov	esp, ebp
	pop	ebp
	ret	0
??$?DM@detail@glm@@YA?AU?$tvec4@M@01@ABU201@ABM@Z ENDP	; glm::detail::operator*<float>
; Function compile flags: /Odtp /RTCsu /ZI
; File c:\opengl\glm-0.9.3.1\glm\core\type_mat4x4.inl
_TEXT	ENDS
;	COMDAT ??0?$tmat4x4@M@detail@glm@@QAE@ABU012@@Z
_TEXT	SEGMENT
_this$ = -8						; size = 4
_m$ = 8							; size = 4
??0?$tmat4x4@M@detail@glm@@QAE@ABU012@@Z PROC		; glm::detail::tmat4x4<float>::tmat4x4<float>, COMDAT
; _this$ = ecx

; 94   :     {

	push	ebp
	mov	ebp, esp
	sub	esp, 204				; 000000ccH
	push	ebx
	push	esi
	push	edi
	push	ecx
	lea	edi, DWORD PTR [ebp-204]
	mov	ecx, 51					; 00000033H
	mov	eax, -858993460				; ccccccccH
	rep stosd
	pop	ecx
	mov	DWORD PTR _this$[ebp], ecx
	push	OFFSET ??0?$tvec4@M@detail@glm@@QAE@XZ	; glm::detail::tvec4<float>::tvec4<float>
	push	4
	push	16					; 00000010H
	mov	eax, DWORD PTR _this$[ebp]
	push	eax
	call	??_H@YGXPAXIHP6EPAX0@Z@Z

; 95   :         this->value[0] = m.value[0];

	mov	eax, DWORD PTR _m$[ebp]
	push	eax
	mov	ecx, DWORD PTR _this$[ebp]
	call	??4?$tvec4@M@detail@glm@@QAEAAU012@ABU012@@Z ; glm::detail::tvec4<float>::operator=

; 96   :         this->value[1] = m.value[1];

	mov	eax, DWORD PTR _m$[ebp]
	add	eax, 16					; 00000010H
	push	eax
	mov	ecx, DWORD PTR _this$[ebp]
	add	ecx, 16					; 00000010H
	call	??4?$tvec4@M@detail@glm@@QAEAAU012@ABU012@@Z ; glm::detail::tvec4<float>::operator=

; 97   :         this->value[2] = m.value[2];

	mov	eax, DWORD PTR _m$[ebp]
	add	eax, 32					; 00000020H
	push	eax
	mov	ecx, DWORD PTR _this$[ebp]
	add	ecx, 32					; 00000020H
	call	??4?$tvec4@M@detail@glm@@QAEAAU012@ABU012@@Z ; glm::detail::tvec4<float>::operator=

; 98   :         this->value[3] = m.value[3];

	mov	eax, DWORD PTR _m$[ebp]
	add	eax, 48					; 00000030H
	push	eax
	mov	ecx, DWORD PTR _this$[ebp]
	add	ecx, 48					; 00000030H
	call	??4?$tvec4@M@detail@glm@@QAEAAU012@ABU012@@Z ; glm::detail::tvec4<float>::operator=

; 99   :     }

	mov	eax, DWORD PTR _this$[ebp]
	pop	edi
	pop	esi
	pop	ebx
	add	esp, 204				; 000000ccH
	cmp	ebp, esp
	call	__RTC_CheckEsp
	mov	esp, ebp
	pop	ebp
	ret	4
??0?$tmat4x4@M@detail@glm@@QAE@ABU012@@Z ENDP		; glm::detail::tmat4x4<float>::tmat4x4<float>
_TEXT	ENDS
PUBLIC	??$?DM@detail@glm@@YA?AU?$tvec3@M@01@ABU201@ABM@Z ; glm::detail::operator*<float>
PUBLIC	??$inversesqrt@M@glm@@YAMABM@Z			; glm::inversesqrt<float>
; Function compile flags: /Odtp /RTCsu /ZI
; File c:\opengl\glm-0.9.3.1\glm\core\func_geometric.inl
;	COMDAT ??$normalize@M@glm@@YA?AU?$tvec3@M@detail@0@ABU120@@Z
_TEXT	SEGMENT
$T70884 = -212						; size = 4
_sqr$ = -8						; size = 4
___$ReturnUdt$ = 8					; size = 4
_x$ = 12						; size = 4
??$normalize@M@glm@@YA?AU?$tvec3@M@detail@0@ABU120@@Z PROC ; glm::normalize<float>, COMDAT

; 243  :     {

	push	ebp
	mov	ebp, esp
	sub	esp, 216				; 000000d8H
	push	ebx
	push	esi
	push	edi
	lea	edi, DWORD PTR [ebp-216]
	mov	ecx, 54					; 00000036H
	mov	eax, -858993460				; ccccccccH
	rep stosd

; 244  :         GLM_STATIC_ASSERT(detail::type<T>::is_float, "'normalize' only accept floating-point inputs");
; 245  : 
; 246  : 		typename detail::tvec3<T>::value_type sqr = x.x * x.x + x.y * x.y + x.z * x.z;

	mov	eax, DWORD PTR _x$[ebp]
	fld	DWORD PTR [eax]
	mov	ecx, DWORD PTR _x$[ebp]
	fmul	DWORD PTR [ecx]
	mov	edx, DWORD PTR _x$[ebp]
	fld	DWORD PTR [edx+4]
	mov	eax, DWORD PTR _x$[ebp]
	fmul	DWORD PTR [eax+4]
	faddp	ST(1), ST(0)
	mov	ecx, DWORD PTR _x$[ebp]
	fld	DWORD PTR [ecx+8]
	mov	edx, DWORD PTR _x$[ebp]
	fmul	DWORD PTR [edx+8]
	faddp	ST(1), ST(0)
	fstp	DWORD PTR _sqr$[ebp]

; 247  : 	    return x * inversesqrt(sqr);

	lea	eax, DWORD PTR _sqr$[ebp]
	push	eax
	call	??$inversesqrt@M@glm@@YAMABM@Z		; glm::inversesqrt<float>
	add	esp, 4
	fstp	DWORD PTR $T70884[ebp]
	lea	ecx, DWORD PTR $T70884[ebp]
	push	ecx
	mov	edx, DWORD PTR _x$[ebp]
	push	edx
	mov	eax, DWORD PTR ___$ReturnUdt$[ebp]
	push	eax
	call	??$?DM@detail@glm@@YA?AU?$tvec3@M@01@ABU201@ABM@Z ; glm::detail::operator*<float>
	add	esp, 12					; 0000000cH
	mov	eax, DWORD PTR ___$ReturnUdt$[ebp]

; 248  :     }

	push	edx
	mov	ecx, ebp
	push	eax
	lea	edx, DWORD PTR $LN5@normalize
	call	@_RTC_CheckStackVars@8
	pop	eax
	pop	edx
	pop	edi
	pop	esi
	pop	ebx
	add	esp, 216				; 000000d8H
	cmp	ebp, esp
	call	__RTC_CheckEsp
	mov	esp, ebp
	pop	ebp
	ret	0
$LN5@normalize:
	DD	1
	DD	$LN4@normalize
$LN4@normalize:
	DD	-8					; fffffff8H
	DD	4
	DD	$LN3@normalize
$LN3@normalize:
	DB	115					; 00000073H
	DB	113					; 00000071H
	DB	114					; 00000072H
	DB	0
??$normalize@M@glm@@YA?AU?$tvec3@M@detail@0@ABU120@@Z ENDP ; glm::normalize<float>
; Function compile flags: /Odtp /RTCsu /ZI
; File c:\opengl\glm-0.9.3.1\glm\core\type_vec3.inl
_TEXT	ENDS
;	COMDAT ??$?DM@detail@glm@@YA?AU?$tvec3@M@01@ABU201@ABM@Z
_TEXT	SEGMENT
$T70890 = -224						; size = 4
$T70891 = -212						; size = 4
$T70892 = -200						; size = 4
___$ReturnUdt$ = 8					; size = 4
_v$ = 12						; size = 4
_s$ = 16						; size = 4
??$?DM@detail@glm@@YA?AU?$tvec3@M@01@ABU201@ABM@Z PROC	; glm::detail::operator*<float>, COMDAT

; 730  : 	{

	push	ebp
	mov	ebp, esp
	sub	esp, 228				; 000000e4H
	push	ebx
	push	esi
	push	edi
	lea	edi, DWORD PTR [ebp-228]
	mov	ecx, 57					; 00000039H
	mov	eax, -858993460				; ccccccccH
	rep stosd

; 731  : 		return tvec3<T>(
; 732  : 			v.x * T(s),
; 733  : 			v.y * T(s),
; 734  : 			v.z * T(s));

	mov	eax, DWORD PTR _v$[ebp]
	fld	DWORD PTR [eax+8]
	mov	ecx, DWORD PTR _s$[ebp]
	fmul	DWORD PTR [ecx]
	fstp	DWORD PTR $T70890[ebp]
	mov	edx, DWORD PTR _v$[ebp]
	fld	DWORD PTR [edx+4]
	mov	eax, DWORD PTR _s$[ebp]
	fmul	DWORD PTR [eax]
	fstp	DWORD PTR $T70891[ebp]
	mov	ecx, DWORD PTR _v$[ebp]
	fld	DWORD PTR [ecx]
	mov	edx, DWORD PTR _s$[ebp]
	fmul	DWORD PTR [edx]
	fstp	DWORD PTR $T70892[ebp]
	lea	eax, DWORD PTR $T70890[ebp]
	push	eax
	lea	ecx, DWORD PTR $T70891[ebp]
	push	ecx
	lea	edx, DWORD PTR $T70892[ebp]
	push	edx
	mov	ecx, DWORD PTR ___$ReturnUdt$[ebp]
	call	??0?$tvec3@M@detail@glm@@QAE@ABM00@Z	; glm::detail::tvec3<float>::tvec3<float>
	mov	eax, DWORD PTR ___$ReturnUdt$[ebp]

; 735  : 	}

	pop	edi
	pop	esi
	pop	ebx
	add	esp, 228				; 000000e4H
	cmp	ebp, esp
	call	__RTC_CheckEsp
	mov	esp, ebp
	pop	ebp
	ret	0
??$?DM@detail@glm@@YA?AU?$tvec3@M@01@ABU201@ABM@Z ENDP	; glm::detail::operator*<float>
_TEXT	ENDS
PUBLIC	??$?GM@detail@glm@@YA?AU?$tvec3@M@01@ABU201@@Z	; glm::detail::operator-<float>
PUBLIC	??$?0H@?$tmat4x4@M@detail@glm@@QAE@ABH@Z	; glm::detail::tmat4x4<float>::tmat4x4<float><int>
PUBLIC	??$cross@M@glm@@YA?AU?$tvec3@M@detail@0@ABU120@0@Z ; glm::cross<float>
PUBLIC	??$?GM@detail@glm@@YA?AU?$tvec3@M@01@ABU201@0@Z	; glm::detail::operator-<float>
PUBLIC	__$ArrayPad$
; Function compile flags: /Odtp /RTCsu /ZI
; File c:\opengl\glm-0.9.3.1\glm\gtc\matrix_transform.inl
;	COMDAT ??$lookAt@M@glm@@YA?AU?$tmat4x4@M@detail@0@ABU?$tvec3@M@20@00@Z
_TEXT	SEGMENT
tv235 = -424						; size = 4
tv233 = -424						; size = 4
tv231 = -424						; size = 4
$T70896 = -416						; size = 12
$T70897 = -396						; size = 12
$T70898 = -376						; size = 12
$T70899 = -356						; size = 4
$T70900 = -344						; size = 12
_Result$ = -132						; size = 64
_s$ = -60						; size = 12
_u$ = -40						; size = 12
_f$ = -20						; size = 12
__$ArrayPad$ = -4					; size = 4
___$ReturnUdt$ = 8					; size = 4
_eye$ = 12						; size = 4
_center$ = 16						; size = 4
_up$ = 20						; size = 4
??$lookAt@M@glm@@YA?AU?$tmat4x4@M@detail@0@ABU?$tvec3@M@20@00@Z PROC ; glm::lookAt<float>, COMDAT

; 389  : 	{

	push	ebp
	mov	ebp, esp
	sub	esp, 424				; 000001a8H
	push	ebx
	push	esi
	push	edi
	lea	edi, DWORD PTR [ebp-424]
	mov	ecx, 106				; 0000006aH
	mov	eax, -858993460				; ccccccccH
	rep stosd
	mov	eax, DWORD PTR ___security_cookie
	xor	eax, ebp
	mov	DWORD PTR __$ArrayPad$[ebp], eax

; 390  : 		detail::tvec3<T> f = normalize(center - eye);

	mov	eax, DWORD PTR _eye$[ebp]
	push	eax
	mov	ecx, DWORD PTR _center$[ebp]
	push	ecx
	lea	edx, DWORD PTR $T70896[ebp]
	push	edx
	call	??$?GM@detail@glm@@YA?AU?$tvec3@M@01@ABU201@0@Z ; glm::detail::operator-<float>
	add	esp, 12					; 0000000cH
	push	eax
	lea	eax, DWORD PTR _f$[ebp]
	push	eax
	call	??$normalize@M@glm@@YA?AU?$tvec3@M@detail@0@ABU120@@Z ; glm::normalize<float>
	add	esp, 8

; 391  : 		detail::tvec3<T> u = normalize(up);

	mov	eax, DWORD PTR _up$[ebp]
	push	eax
	lea	ecx, DWORD PTR _u$[ebp]
	push	ecx
	call	??$normalize@M@glm@@YA?AU?$tvec3@M@detail@0@ABU120@@Z ; glm::normalize<float>
	add	esp, 8

; 392  : 		detail::tvec3<T> s = normalize(cross(f, u));

	lea	eax, DWORD PTR _u$[ebp]
	push	eax
	lea	ecx, DWORD PTR _f$[ebp]
	push	ecx
	lea	edx, DWORD PTR $T70897[ebp]
	push	edx
	call	??$cross@M@glm@@YA?AU?$tvec3@M@detail@0@ABU120@0@Z ; glm::cross<float>
	add	esp, 12					; 0000000cH
	push	eax
	lea	eax, DWORD PTR _s$[ebp]
	push	eax
	call	??$normalize@M@glm@@YA?AU?$tvec3@M@detail@0@ABU120@@Z ; glm::normalize<float>
	add	esp, 8

; 393  : 		u = cross(s, f);

	lea	eax, DWORD PTR _f$[ebp]
	push	eax
	lea	ecx, DWORD PTR _s$[ebp]
	push	ecx
	lea	edx, DWORD PTR $T70898[ebp]
	push	edx
	call	??$cross@M@glm@@YA?AU?$tvec3@M@detail@0@ABU120@0@Z ; glm::cross<float>
	add	esp, 12					; 0000000cH
	push	eax
	lea	ecx, DWORD PTR _u$[ebp]
	call	??4?$tvec3@M@detail@glm@@QAEAAU012@ABU012@@Z ; glm::detail::tvec3<float>::operator=

; 394  : 
; 395  : 		detail::tmat4x4<T> Result(1);

	mov	DWORD PTR $T70899[ebp], 1
	lea	eax, DWORD PTR $T70899[ebp]
	push	eax
	lea	ecx, DWORD PTR _Result$[ebp]
	call	??$?0H@?$tmat4x4@M@detail@glm@@QAE@ABH@Z ; glm::detail::tmat4x4<float>::tmat4x4<float><int>

; 396  : 		Result[0][0] = s.x;

	push	0
	push	0
	lea	ecx, DWORD PTR _Result$[ebp]
	call	??A?$tmat4x4@M@detail@glm@@QAEAAU?$tvec4@M@12@I@Z ; glm::detail::tmat4x4<float>::operator[]
	mov	ecx, eax
	call	??A?$tvec4@M@detail@glm@@QAEAAMI@Z	; glm::detail::tvec4<float>::operator[]
	fld	DWORD PTR _s$[ebp]
	fstp	DWORD PTR [eax]

; 397  : 		Result[1][0] = s.y;

	push	0
	push	1
	lea	ecx, DWORD PTR _Result$[ebp]
	call	??A?$tmat4x4@M@detail@glm@@QAEAAU?$tvec4@M@12@I@Z ; glm::detail::tmat4x4<float>::operator[]
	mov	ecx, eax
	call	??A?$tvec4@M@detail@glm@@QAEAAMI@Z	; glm::detail::tvec4<float>::operator[]
	fld	DWORD PTR _s$[ebp+4]
	fstp	DWORD PTR [eax]

; 398  : 		Result[2][0] = s.z;

	push	0
	push	2
	lea	ecx, DWORD PTR _Result$[ebp]
	call	??A?$tmat4x4@M@detail@glm@@QAEAAU?$tvec4@M@12@I@Z ; glm::detail::tmat4x4<float>::operator[]
	mov	ecx, eax
	call	??A?$tvec4@M@detail@glm@@QAEAAMI@Z	; glm::detail::tvec4<float>::operator[]
	fld	DWORD PTR _s$[ebp+8]
	fstp	DWORD PTR [eax]

; 399  : 		Result[0][1] = u.x;

	push	1
	push	0
	lea	ecx, DWORD PTR _Result$[ebp]
	call	??A?$tmat4x4@M@detail@glm@@QAEAAU?$tvec4@M@12@I@Z ; glm::detail::tmat4x4<float>::operator[]
	mov	ecx, eax
	call	??A?$tvec4@M@detail@glm@@QAEAAMI@Z	; glm::detail::tvec4<float>::operator[]
	fld	DWORD PTR _u$[ebp]
	fstp	DWORD PTR [eax]

; 400  : 		Result[1][1] = u.y;

	push	1
	push	1
	lea	ecx, DWORD PTR _Result$[ebp]
	call	??A?$tmat4x4@M@detail@glm@@QAEAAU?$tvec4@M@12@I@Z ; glm::detail::tmat4x4<float>::operator[]
	mov	ecx, eax
	call	??A?$tvec4@M@detail@glm@@QAEAAMI@Z	; glm::detail::tvec4<float>::operator[]
	fld	DWORD PTR _u$[ebp+4]
	fstp	DWORD PTR [eax]

; 401  : 		Result[2][1] = u.z;

	push	1
	push	2
	lea	ecx, DWORD PTR _Result$[ebp]
	call	??A?$tmat4x4@M@detail@glm@@QAEAAU?$tvec4@M@12@I@Z ; glm::detail::tmat4x4<float>::operator[]
	mov	ecx, eax
	call	??A?$tvec4@M@detail@glm@@QAEAAMI@Z	; glm::detail::tvec4<float>::operator[]
	fld	DWORD PTR _u$[ebp+8]
	fstp	DWORD PTR [eax]

; 402  : 		Result[0][2] =-f.x;

	fld	DWORD PTR _f$[ebp]
	fchs
	push	2
	push	0
	lea	ecx, DWORD PTR _Result$[ebp]
	fstp	DWORD PTR tv231[ebp]
	call	??A?$tmat4x4@M@detail@glm@@QAEAAU?$tvec4@M@12@I@Z ; glm::detail::tmat4x4<float>::operator[]
	mov	ecx, eax
	call	??A?$tvec4@M@detail@glm@@QAEAAMI@Z	; glm::detail::tvec4<float>::operator[]
	fld	DWORD PTR tv231[ebp]
	fstp	DWORD PTR [eax]

; 403  : 		Result[1][2] =-f.y;

	fld	DWORD PTR _f$[ebp+4]
	fchs
	push	2
	push	1
	lea	ecx, DWORD PTR _Result$[ebp]
	fstp	DWORD PTR tv233[ebp]
	call	??A?$tmat4x4@M@detail@glm@@QAEAAU?$tvec4@M@12@I@Z ; glm::detail::tmat4x4<float>::operator[]
	mov	ecx, eax
	call	??A?$tvec4@M@detail@glm@@QAEAAMI@Z	; glm::detail::tvec4<float>::operator[]
	fld	DWORD PTR tv233[ebp]
	fstp	DWORD PTR [eax]

; 404  : 		Result[2][2] =-f.z;

	fld	DWORD PTR _f$[ebp+8]
	fchs
	push	2
	push	2
	lea	ecx, DWORD PTR _Result$[ebp]
	fstp	DWORD PTR tv235[ebp]
	call	??A?$tmat4x4@M@detail@glm@@QAEAAU?$tvec4@M@12@I@Z ; glm::detail::tmat4x4<float>::operator[]
	mov	ecx, eax
	call	??A?$tvec4@M@detail@glm@@QAEAAMI@Z	; glm::detail::tvec4<float>::operator[]
	fld	DWORD PTR tv235[ebp]
	fstp	DWORD PTR [eax]

; 405  : 	/*  Test this instead of translate3D
; 406  : 		Result[3][0] =-dot(s, eye);
; 407  : 		Result[3][1] =-dot(y, eye);
; 408  : 		Result[3][2] = dot(f, eye);
; 409  : 	*/  
; 410  : 		return translate(Result, -eye);

	mov	eax, DWORD PTR _eye$[ebp]
	push	eax
	lea	ecx, DWORD PTR $T70900[ebp]
	push	ecx
	call	??$?GM@detail@glm@@YA?AU?$tvec3@M@01@ABU201@@Z ; glm::detail::operator-<float>
	add	esp, 8
	push	eax
	lea	edx, DWORD PTR _Result$[ebp]
	push	edx
	mov	eax, DWORD PTR ___$ReturnUdt$[ebp]
	push	eax
	call	??$translate@M@glm@@YA?AU?$tmat4x4@M@detail@0@ABU120@ABU?$tvec3@M@20@@Z ; glm::translate<float>
	add	esp, 12					; 0000000cH
	mov	eax, DWORD PTR ___$ReturnUdt$[ebp]

; 411  : 	}

	push	edx
	mov	ecx, ebp
	push	eax
	lea	edx, DWORD PTR $LN8@lookAt
	call	@_RTC_CheckStackVars@8
	pop	eax
	pop	edx
	pop	edi
	pop	esi
	pop	ebx
	mov	ecx, DWORD PTR __$ArrayPad$[ebp]
	xor	ecx, ebp
	call	@__security_check_cookie@4
	add	esp, 424				; 000001a8H
	cmp	ebp, esp
	call	__RTC_CheckEsp
	mov	esp, ebp
	pop	ebp
	ret	0
	npad	2
$LN8@lookAt:
	DD	4
	DD	$LN7@lookAt
$LN7@lookAt:
	DD	-20					; ffffffecH
	DD	12					; 0000000cH
	DD	$LN3@lookAt
	DD	-40					; ffffffd8H
	DD	12					; 0000000cH
	DD	$LN4@lookAt
	DD	-60					; ffffffc4H
	DD	12					; 0000000cH
	DD	$LN5@lookAt
	DD	-132					; ffffff7cH
	DD	64					; 00000040H
	DD	$LN6@lookAt
$LN6@lookAt:
	DB	82					; 00000052H
	DB	101					; 00000065H
	DB	115					; 00000073H
	DB	117					; 00000075H
	DB	108					; 0000006cH
	DB	116					; 00000074H
	DB	0
$LN5@lookAt:
	DB	115					; 00000073H
	DB	0
$LN4@lookAt:
	DB	117					; 00000075H
	DB	0
$LN3@lookAt:
	DB	102					; 00000066H
	DB	0
??$lookAt@M@glm@@YA?AU?$tmat4x4@M@detail@0@ABU?$tvec3@M@20@00@Z ENDP ; glm::lookAt<float>
; Function compile flags: /Odtp /RTCsu /ZI
; File c:\opengl\glm-0.9.3.1\glm\core\type_vec3.inl
_TEXT	ENDS
;	COMDAT ??$?GM@detail@glm@@YA?AU?$tvec3@M@01@ABU201@0@Z
_TEXT	SEGMENT
$T70909 = -224						; size = 4
$T70910 = -212						; size = 4
$T70911 = -200						; size = 4
___$ReturnUdt$ = 8					; size = 4
_v1$ = 12						; size = 4
_v2$ = 16						; size = 4
??$?GM@detail@glm@@YA?AU?$tvec3@M@01@ABU201@0@Z PROC	; glm::detail::operator-<float>, COMDAT

; 716  : 	{

	push	ebp
	mov	ebp, esp
	sub	esp, 228				; 000000e4H
	push	ebx
	push	esi
	push	edi
	lea	edi, DWORD PTR [ebp-228]
	mov	ecx, 57					; 00000039H
	mov	eax, -858993460				; ccccccccH
	rep stosd

; 717  : 		return tvec3<T>(
; 718  : 			v1.x - T(v2.x),
; 719  : 			v1.y - T(v2.y),
; 720  : 			v1.z - T(v2.z));

	mov	eax, DWORD PTR _v1$[ebp]
	fld	DWORD PTR [eax+8]
	mov	ecx, DWORD PTR _v2$[ebp]
	fsub	DWORD PTR [ecx+8]
	fstp	DWORD PTR $T70909[ebp]
	mov	edx, DWORD PTR _v1$[ebp]
	fld	DWORD PTR [edx+4]
	mov	eax, DWORD PTR _v2$[ebp]
	fsub	DWORD PTR [eax+4]
	fstp	DWORD PTR $T70910[ebp]
	mov	ecx, DWORD PTR _v1$[ebp]
	fld	DWORD PTR [ecx]
	mov	edx, DWORD PTR _v2$[ebp]
	fsub	DWORD PTR [edx]
	fstp	DWORD PTR $T70911[ebp]
	lea	eax, DWORD PTR $T70909[ebp]
	push	eax
	lea	ecx, DWORD PTR $T70910[ebp]
	push	ecx
	lea	edx, DWORD PTR $T70911[ebp]
	push	edx
	mov	ecx, DWORD PTR ___$ReturnUdt$[ebp]
	call	??0?$tvec3@M@detail@glm@@QAE@ABM00@Z	; glm::detail::tvec3<float>::tvec3<float>
	mov	eax, DWORD PTR ___$ReturnUdt$[ebp]

; 721  : 	}

	pop	edi
	pop	esi
	pop	ebx
	add	esp, 228				; 000000e4H
	cmp	ebp, esp
	call	__RTC_CheckEsp
	mov	esp, ebp
	pop	ebp
	ret	0
??$?GM@detail@glm@@YA?AU?$tvec3@M@01@ABU201@0@Z ENDP	; glm::detail::operator-<float>
_TEXT	ENDS
PUBLIC	??A?$tvec4@M@detail@glm@@QBEABMI@Z		; glm::detail::tvec4<float>::operator[]
PUBLIC	??0?$tvec4@M@detail@glm@@QAE@ABU012@@Z		; glm::detail::tvec4<float>::tvec4<float>
PUBLIC	__$ArrayPad$
; Function compile flags: /Odtp /RTCsu /ZI
; File c:\opengl\glm-0.9.3.1\glm\core\type_mat4x4.inl
;	COMDAT ??$?DM@detail@glm@@YA?AU?$tmat4x4@M@01@ABU201@0@Z
_TEXT	SEGMENT
$T70915 = -1128						; size = 16
$T70916 = -1104						; size = 16
$T70917 = -1080						; size = 16
$T70918 = -1056						; size = 16
$T70919 = -1032						; size = 16
$T70920 = -1008						; size = 16
$T70921 = -984						; size = 16
$T70922 = -960						; size = 16
$T70923 = -936						; size = 16
$T70924 = -912						; size = 16
$T70925 = -888						; size = 16
$T70926 = -864						; size = 16
$T70927 = -840						; size = 16
$T70928 = -816						; size = 16
$T70929 = -792						; size = 16
$T70930 = -768						; size = 16
$T70931 = -744						; size = 16
$T70932 = -720						; size = 16
$T70933 = -696						; size = 16
$T70934 = -672						; size = 16
$T70935 = -648						; size = 16
$T70936 = -624						; size = 16
$T70937 = -600						; size = 16
$T70938 = -576						; size = 16
$T70939 = -552						; size = 16
$T70940 = -528						; size = 16
$T70941 = -504						; size = 16
$T70942 = -480						; size = 16
_Result$ = -264						; size = 64
_SrcB3$ = -192						; size = 16
_SrcB2$ = -168						; size = 16
_SrcB1$ = -144						; size = 16
_SrcB0$ = -120						; size = 16
_SrcA3$ = -96						; size = 16
_SrcA2$ = -72						; size = 16
_SrcA1$ = -48						; size = 16
_SrcA0$ = -24						; size = 16
__$ArrayPad$ = -4					; size = 4
___$ReturnUdt$ = 8					; size = 4
_m1$ = 12						; size = 4
_m2$ = 16						; size = 4
??$?DM@detail@glm@@YA?AU?$tmat4x4@M@01@ABU201@0@Z PROC	; glm::detail::operator*<float>, COMDAT

; 762  :     {

	push	ebp
	mov	ebp, esp
	sub	esp, 1132				; 0000046cH
	push	ebx
	push	esi
	push	edi
	lea	edi, DWORD PTR [ebp-1132]
	mov	ecx, 283				; 0000011bH
	mov	eax, -858993460				; ccccccccH
	rep stosd
	mov	eax, DWORD PTR ___security_cookie
	xor	eax, ebp
	mov	DWORD PTR __$ArrayPad$[ebp], eax

; 763  : 		typename tmat4x4<T>::col_type const SrcA0 = m1[0];

	push	0
	mov	ecx, DWORD PTR _m1$[ebp]
	call	??A?$tmat4x4@M@detail@glm@@QBEABU?$tvec4@M@12@I@Z ; glm::detail::tmat4x4<float>::operator[]
	push	eax
	lea	ecx, DWORD PTR _SrcA0$[ebp]
	call	??0?$tvec4@M@detail@glm@@QAE@ABU012@@Z	; glm::detail::tvec4<float>::tvec4<float>

; 764  : 		typename tmat4x4<T>::col_type const SrcA1 = m1[1];

	push	1
	mov	ecx, DWORD PTR _m1$[ebp]
	call	??A?$tmat4x4@M@detail@glm@@QBEABU?$tvec4@M@12@I@Z ; glm::detail::tmat4x4<float>::operator[]
	push	eax
	lea	ecx, DWORD PTR _SrcA1$[ebp]
	call	??0?$tvec4@M@detail@glm@@QAE@ABU012@@Z	; glm::detail::tvec4<float>::tvec4<float>

; 765  : 		typename tmat4x4<T>::col_type const SrcA2 = m1[2];

	push	2
	mov	ecx, DWORD PTR _m1$[ebp]
	call	??A?$tmat4x4@M@detail@glm@@QBEABU?$tvec4@M@12@I@Z ; glm::detail::tmat4x4<float>::operator[]
	push	eax
	lea	ecx, DWORD PTR _SrcA2$[ebp]
	call	??0?$tvec4@M@detail@glm@@QAE@ABU012@@Z	; glm::detail::tvec4<float>::tvec4<float>

; 766  : 		typename tmat4x4<T>::col_type const SrcA3 = m1[3];

	push	3
	mov	ecx, DWORD PTR _m1$[ebp]
	call	??A?$tmat4x4@M@detail@glm@@QBEABU?$tvec4@M@12@I@Z ; glm::detail::tmat4x4<float>::operator[]
	push	eax
	lea	ecx, DWORD PTR _SrcA3$[ebp]
	call	??0?$tvec4@M@detail@glm@@QAE@ABU012@@Z	; glm::detail::tvec4<float>::tvec4<float>

; 767  : 
; 768  : 		typename tmat4x4<T>::col_type const SrcB0 = m2[0];

	push	0
	mov	ecx, DWORD PTR _m2$[ebp]
	call	??A?$tmat4x4@M@detail@glm@@QBEABU?$tvec4@M@12@I@Z ; glm::detail::tmat4x4<float>::operator[]
	push	eax
	lea	ecx, DWORD PTR _SrcB0$[ebp]
	call	??0?$tvec4@M@detail@glm@@QAE@ABU012@@Z	; glm::detail::tvec4<float>::tvec4<float>

; 769  : 		typename tmat4x4<T>::col_type const SrcB1 = m2[1];

	push	1
	mov	ecx, DWORD PTR _m2$[ebp]
	call	??A?$tmat4x4@M@detail@glm@@QBEABU?$tvec4@M@12@I@Z ; glm::detail::tmat4x4<float>::operator[]
	push	eax
	lea	ecx, DWORD PTR _SrcB1$[ebp]
	call	??0?$tvec4@M@detail@glm@@QAE@ABU012@@Z	; glm::detail::tvec4<float>::tvec4<float>

; 770  : 		typename tmat4x4<T>::col_type const SrcB2 = m2[2];

	push	2
	mov	ecx, DWORD PTR _m2$[ebp]
	call	??A?$tmat4x4@M@detail@glm@@QBEABU?$tvec4@M@12@I@Z ; glm::detail::tmat4x4<float>::operator[]
	push	eax
	lea	ecx, DWORD PTR _SrcB2$[ebp]
	call	??0?$tvec4@M@detail@glm@@QAE@ABU012@@Z	; glm::detail::tvec4<float>::tvec4<float>

; 771  : 		typename tmat4x4<T>::col_type const SrcB3 = m2[3];

	push	3
	mov	ecx, DWORD PTR _m2$[ebp]
	call	??A?$tmat4x4@M@detail@glm@@QBEABU?$tvec4@M@12@I@Z ; glm::detail::tmat4x4<float>::operator[]
	push	eax
	lea	ecx, DWORD PTR _SrcB3$[ebp]
	call	??0?$tvec4@M@detail@glm@@QAE@ABU012@@Z	; glm::detail::tvec4<float>::tvec4<float>

; 772  : 
; 773  :         tmat4x4<T> Result(tmat4x4<T>::null);

	push	0
	lea	ecx, DWORD PTR _Result$[ebp]
	call	??0?$tmat4x4@M@detail@glm@@QAE@W4ctor@012@@Z ; glm::detail::tmat4x4<float>::tmat4x4<float>

; 774  : 		Result[0] = SrcA0 * SrcB0[0] + SrcA1 * SrcB0[1] + SrcA2 * SrcB0[2] + SrcA3 * SrcB0[3];

	push	3
	lea	ecx, DWORD PTR _SrcB0$[ebp]
	call	??A?$tvec4@M@detail@glm@@QBEABMI@Z	; glm::detail::tvec4<float>::operator[]
	push	eax
	lea	eax, DWORD PTR _SrcA3$[ebp]
	push	eax
	lea	ecx, DWORD PTR $T70915[ebp]
	push	ecx
	call	??$?DM@detail@glm@@YA?AU?$tvec4@M@01@ABU201@ABM@Z ; glm::detail::operator*<float>
	add	esp, 12					; 0000000cH
	push	eax
	push	2
	lea	ecx, DWORD PTR _SrcB0$[ebp]
	call	??A?$tvec4@M@detail@glm@@QBEABMI@Z	; glm::detail::tvec4<float>::operator[]
	push	eax
	lea	edx, DWORD PTR _SrcA2$[ebp]
	push	edx
	lea	eax, DWORD PTR $T70916[ebp]
	push	eax
	call	??$?DM@detail@glm@@YA?AU?$tvec4@M@01@ABU201@ABM@Z ; glm::detail::operator*<float>
	add	esp, 12					; 0000000cH
	push	eax
	push	1
	lea	ecx, DWORD PTR _SrcB0$[ebp]
	call	??A?$tvec4@M@detail@glm@@QBEABMI@Z	; glm::detail::tvec4<float>::operator[]
	push	eax
	lea	ecx, DWORD PTR _SrcA1$[ebp]
	push	ecx
	lea	edx, DWORD PTR $T70917[ebp]
	push	edx
	call	??$?DM@detail@glm@@YA?AU?$tvec4@M@01@ABU201@ABM@Z ; glm::detail::operator*<float>
	add	esp, 12					; 0000000cH
	push	eax
	push	0
	lea	ecx, DWORD PTR _SrcB0$[ebp]
	call	??A?$tvec4@M@detail@glm@@QBEABMI@Z	; glm::detail::tvec4<float>::operator[]
	push	eax
	lea	eax, DWORD PTR _SrcA0$[ebp]
	push	eax
	lea	ecx, DWORD PTR $T70918[ebp]
	push	ecx
	call	??$?DM@detail@glm@@YA?AU?$tvec4@M@01@ABU201@ABM@Z ; glm::detail::operator*<float>
	add	esp, 12					; 0000000cH
	push	eax
	lea	edx, DWORD PTR $T70919[ebp]
	push	edx
	call	??$?HM@detail@glm@@YA?AU?$tvec4@M@01@ABU201@0@Z ; glm::detail::operator+<float>
	add	esp, 12					; 0000000cH
	push	eax
	lea	eax, DWORD PTR $T70920[ebp]
	push	eax
	call	??$?HM@detail@glm@@YA?AU?$tvec4@M@01@ABU201@0@Z ; glm::detail::operator+<float>
	add	esp, 12					; 0000000cH
	push	eax
	lea	ecx, DWORD PTR $T70921[ebp]
	push	ecx
	call	??$?HM@detail@glm@@YA?AU?$tvec4@M@01@ABU201@0@Z ; glm::detail::operator+<float>
	add	esp, 12					; 0000000cH
	push	eax
	push	0
	lea	ecx, DWORD PTR _Result$[ebp]
	call	??A?$tmat4x4@M@detail@glm@@QAEAAU?$tvec4@M@12@I@Z ; glm::detail::tmat4x4<float>::operator[]
	mov	ecx, eax
	call	??4?$tvec4@M@detail@glm@@QAEAAU012@ABU012@@Z ; glm::detail::tvec4<float>::operator=

; 775  : 		Result[1] = SrcA0 * SrcB1[0] + SrcA1 * SrcB1[1] + SrcA2 * SrcB1[2] + SrcA3 * SrcB1[3];

	push	3
	lea	ecx, DWORD PTR _SrcB1$[ebp]
	call	??A?$tvec4@M@detail@glm@@QBEABMI@Z	; glm::detail::tvec4<float>::operator[]
	push	eax
	lea	eax, DWORD PTR _SrcA3$[ebp]
	push	eax
	lea	ecx, DWORD PTR $T70922[ebp]
	push	ecx
	call	??$?DM@detail@glm@@YA?AU?$tvec4@M@01@ABU201@ABM@Z ; glm::detail::operator*<float>
	add	esp, 12					; 0000000cH
	push	eax
	push	2
	lea	ecx, DWORD PTR _SrcB1$[ebp]
	call	??A?$tvec4@M@detail@glm@@QBEABMI@Z	; glm::detail::tvec4<float>::operator[]
	push	eax
	lea	edx, DWORD PTR _SrcA2$[ebp]
	push	edx
	lea	eax, DWORD PTR $T70923[ebp]
	push	eax
	call	??$?DM@detail@glm@@YA?AU?$tvec4@M@01@ABU201@ABM@Z ; glm::detail::operator*<float>
	add	esp, 12					; 0000000cH
	push	eax
	push	1
	lea	ecx, DWORD PTR _SrcB1$[ebp]
	call	??A?$tvec4@M@detail@glm@@QBEABMI@Z	; glm::detail::tvec4<float>::operator[]
	push	eax
	lea	ecx, DWORD PTR _SrcA1$[ebp]
	push	ecx
	lea	edx, DWORD PTR $T70924[ebp]
	push	edx
	call	??$?DM@detail@glm@@YA?AU?$tvec4@M@01@ABU201@ABM@Z ; glm::detail::operator*<float>
	add	esp, 12					; 0000000cH
	push	eax
	push	0
	lea	ecx, DWORD PTR _SrcB1$[ebp]
	call	??A?$tvec4@M@detail@glm@@QBEABMI@Z	; glm::detail::tvec4<float>::operator[]
	push	eax
	lea	eax, DWORD PTR _SrcA0$[ebp]
	push	eax
	lea	ecx, DWORD PTR $T70925[ebp]
	push	ecx
	call	??$?DM@detail@glm@@YA?AU?$tvec4@M@01@ABU201@ABM@Z ; glm::detail::operator*<float>
	add	esp, 12					; 0000000cH
	push	eax
	lea	edx, DWORD PTR $T70926[ebp]
	push	edx
	call	??$?HM@detail@glm@@YA?AU?$tvec4@M@01@ABU201@0@Z ; glm::detail::operator+<float>
	add	esp, 12					; 0000000cH
	push	eax
	lea	eax, DWORD PTR $T70927[ebp]
	push	eax
	call	??$?HM@detail@glm@@YA?AU?$tvec4@M@01@ABU201@0@Z ; glm::detail::operator+<float>
	add	esp, 12					; 0000000cH
	push	eax
	lea	ecx, DWORD PTR $T70928[ebp]
	push	ecx
	call	??$?HM@detail@glm@@YA?AU?$tvec4@M@01@ABU201@0@Z ; glm::detail::operator+<float>
	add	esp, 12					; 0000000cH
	push	eax
	push	1
	lea	ecx, DWORD PTR _Result$[ebp]
	call	??A?$tmat4x4@M@detail@glm@@QAEAAU?$tvec4@M@12@I@Z ; glm::detail::tmat4x4<float>::operator[]
	mov	ecx, eax
	call	??4?$tvec4@M@detail@glm@@QAEAAU012@ABU012@@Z ; glm::detail::tvec4<float>::operator=

; 776  : 		Result[2] = SrcA0 * SrcB2[0] + SrcA1 * SrcB2[1] + SrcA2 * SrcB2[2] + SrcA3 * SrcB2[3];

	push	3
	lea	ecx, DWORD PTR _SrcB2$[ebp]
	call	??A?$tvec4@M@detail@glm@@QBEABMI@Z	; glm::detail::tvec4<float>::operator[]
	push	eax
	lea	eax, DWORD PTR _SrcA3$[ebp]
	push	eax
	lea	ecx, DWORD PTR $T70929[ebp]
	push	ecx
	call	??$?DM@detail@glm@@YA?AU?$tvec4@M@01@ABU201@ABM@Z ; glm::detail::operator*<float>
	add	esp, 12					; 0000000cH
	push	eax
	push	2
	lea	ecx, DWORD PTR _SrcB2$[ebp]
	call	??A?$tvec4@M@detail@glm@@QBEABMI@Z	; glm::detail::tvec4<float>::operator[]
	push	eax
	lea	edx, DWORD PTR _SrcA2$[ebp]
	push	edx
	lea	eax, DWORD PTR $T70930[ebp]
	push	eax
	call	??$?DM@detail@glm@@YA?AU?$tvec4@M@01@ABU201@ABM@Z ; glm::detail::operator*<float>
	add	esp, 12					; 0000000cH
	push	eax
	push	1
	lea	ecx, DWORD PTR _SrcB2$[ebp]
	call	??A?$tvec4@M@detail@glm@@QBEABMI@Z	; glm::detail::tvec4<float>::operator[]
	push	eax
	lea	ecx, DWORD PTR _SrcA1$[ebp]
	push	ecx
	lea	edx, DWORD PTR $T70931[ebp]
	push	edx
	call	??$?DM@detail@glm@@YA?AU?$tvec4@M@01@ABU201@ABM@Z ; glm::detail::operator*<float>
	add	esp, 12					; 0000000cH
	push	eax
	push	0
	lea	ecx, DWORD PTR _SrcB2$[ebp]
	call	??A?$tvec4@M@detail@glm@@QBEABMI@Z	; glm::detail::tvec4<float>::operator[]
	push	eax
	lea	eax, DWORD PTR _SrcA0$[ebp]
	push	eax
	lea	ecx, DWORD PTR $T70932[ebp]
	push	ecx
	call	??$?DM@detail@glm@@YA?AU?$tvec4@M@01@ABU201@ABM@Z ; glm::detail::operator*<float>
	add	esp, 12					; 0000000cH
	push	eax
	lea	edx, DWORD PTR $T70933[ebp]
	push	edx
	call	??$?HM@detail@glm@@YA?AU?$tvec4@M@01@ABU201@0@Z ; glm::detail::operator+<float>
	add	esp, 12					; 0000000cH
	push	eax
	lea	eax, DWORD PTR $T70934[ebp]
	push	eax
	call	??$?HM@detail@glm@@YA?AU?$tvec4@M@01@ABU201@0@Z ; glm::detail::operator+<float>
	add	esp, 12					; 0000000cH
	push	eax
	lea	ecx, DWORD PTR $T70935[ebp]
	push	ecx
	call	??$?HM@detail@glm@@YA?AU?$tvec4@M@01@ABU201@0@Z ; glm::detail::operator+<float>
	add	esp, 12					; 0000000cH
	push	eax
	push	2
	lea	ecx, DWORD PTR _Result$[ebp]
	call	??A?$tmat4x4@M@detail@glm@@QAEAAU?$tvec4@M@12@I@Z ; glm::detail::tmat4x4<float>::operator[]
	mov	ecx, eax
	call	??4?$tvec4@M@detail@glm@@QAEAAU012@ABU012@@Z ; glm::detail::tvec4<float>::operator=

; 777  : 		Result[3] = SrcA0 * SrcB3[0] + SrcA1 * SrcB3[1] + SrcA2 * SrcB3[2] + SrcA3 * SrcB3[3];

	push	3
	lea	ecx, DWORD PTR _SrcB3$[ebp]
	call	??A?$tvec4@M@detail@glm@@QBEABMI@Z	; glm::detail::tvec4<float>::operator[]
	push	eax
	lea	eax, DWORD PTR _SrcA3$[ebp]
	push	eax
	lea	ecx, DWORD PTR $T70936[ebp]
	push	ecx
	call	??$?DM@detail@glm@@YA?AU?$tvec4@M@01@ABU201@ABM@Z ; glm::detail::operator*<float>
	add	esp, 12					; 0000000cH
	push	eax
	push	2
	lea	ecx, DWORD PTR _SrcB3$[ebp]
	call	??A?$tvec4@M@detail@glm@@QBEABMI@Z	; glm::detail::tvec4<float>::operator[]
	push	eax
	lea	edx, DWORD PTR _SrcA2$[ebp]
	push	edx
	lea	eax, DWORD PTR $T70937[ebp]
	push	eax
	call	??$?DM@detail@glm@@YA?AU?$tvec4@M@01@ABU201@ABM@Z ; glm::detail::operator*<float>
	add	esp, 12					; 0000000cH
	push	eax
	push	1
	lea	ecx, DWORD PTR _SrcB3$[ebp]
	call	??A?$tvec4@M@detail@glm@@QBEABMI@Z	; glm::detail::tvec4<float>::operator[]
	push	eax
	lea	ecx, DWORD PTR _SrcA1$[ebp]
	push	ecx
	lea	edx, DWORD PTR $T70938[ebp]
	push	edx
	call	??$?DM@detail@glm@@YA?AU?$tvec4@M@01@ABU201@ABM@Z ; glm::detail::operator*<float>
	add	esp, 12					; 0000000cH
	push	eax
	push	0
	lea	ecx, DWORD PTR _SrcB3$[ebp]
	call	??A?$tvec4@M@detail@glm@@QBEABMI@Z	; glm::detail::tvec4<float>::operator[]
	push	eax
	lea	eax, DWORD PTR _SrcA0$[ebp]
	push	eax
	lea	ecx, DWORD PTR $T70939[ebp]
	push	ecx
	call	??$?DM@detail@glm@@YA?AU?$tvec4@M@01@ABU201@ABM@Z ; glm::detail::operator*<float>
	add	esp, 12					; 0000000cH
	push	eax
	lea	edx, DWORD PTR $T70940[ebp]
	push	edx
	call	??$?HM@detail@glm@@YA?AU?$tvec4@M@01@ABU201@0@Z ; glm::detail::operator+<float>
	add	esp, 12					; 0000000cH
	push	eax
	lea	eax, DWORD PTR $T70941[ebp]
	push	eax
	call	??$?HM@detail@glm@@YA?AU?$tvec4@M@01@ABU201@0@Z ; glm::detail::operator+<float>
	add	esp, 12					; 0000000cH
	push	eax
	lea	ecx, DWORD PTR $T70942[ebp]
	push	ecx
	call	??$?HM@detail@glm@@YA?AU?$tvec4@M@01@ABU201@0@Z ; glm::detail::operator+<float>
	add	esp, 12					; 0000000cH
	push	eax
	push	3
	lea	ecx, DWORD PTR _Result$[ebp]
	call	??A?$tmat4x4@M@detail@glm@@QAEAAU?$tvec4@M@12@I@Z ; glm::detail::tmat4x4<float>::operator[]
	mov	ecx, eax
	call	??4?$tvec4@M@detail@glm@@QAEAAU012@ABU012@@Z ; glm::detail::tvec4<float>::operator=

; 778  :         return Result;

	lea	eax, DWORD PTR _Result$[ebp]
	push	eax
	mov	ecx, DWORD PTR ___$ReturnUdt$[ebp]
	call	??0?$tmat4x4@M@detail@glm@@QAE@ABU012@@Z ; glm::detail::tmat4x4<float>::tmat4x4<float>
	mov	eax, DWORD PTR ___$ReturnUdt$[ebp]

; 779  :     }

	push	edx
	mov	ecx, ebp
	push	eax
	lea	edx, DWORD PTR $LN13@operator@2
	call	@_RTC_CheckStackVars@8
	pop	eax
	pop	edx
	pop	edi
	pop	esi
	pop	ebx
	mov	ecx, DWORD PTR __$ArrayPad$[ebp]
	xor	ecx, ebp
	call	@__security_check_cookie@4
	add	esp, 1132				; 0000046cH
	cmp	ebp, esp
	call	__RTC_CheckEsp
	mov	esp, ebp
	pop	ebp
	ret	0
	npad	1
$LN13@operator@2:
	DD	9
	DD	$LN12@operator@2
$LN12@operator@2:
	DD	-24					; ffffffe8H
	DD	16					; 00000010H
	DD	$LN3@operator@2
	DD	-48					; ffffffd0H
	DD	16					; 00000010H
	DD	$LN4@operator@2
	DD	-72					; ffffffb8H
	DD	16					; 00000010H
	DD	$LN5@operator@2
	DD	-96					; ffffffa0H
	DD	16					; 00000010H
	DD	$LN6@operator@2
	DD	-120					; ffffff88H
	DD	16					; 00000010H
	DD	$LN7@operator@2
	DD	-144					; ffffff70H
	DD	16					; 00000010H
	DD	$LN8@operator@2
	DD	-168					; ffffff58H
	DD	16					; 00000010H
	DD	$LN9@operator@2
	DD	-192					; ffffff40H
	DD	16					; 00000010H
	DD	$LN10@operator@2
	DD	-264					; fffffef8H
	DD	64					; 00000040H
	DD	$LN11@operator@2
$LN11@operator@2:
	DB	82					; 00000052H
	DB	101					; 00000065H
	DB	115					; 00000073H
	DB	117					; 00000075H
	DB	108					; 0000006cH
	DB	116					; 00000074H
	DB	0
$LN10@operator@2:
	DB	83					; 00000053H
	DB	114					; 00000072H
	DB	99					; 00000063H
	DB	66					; 00000042H
	DB	51					; 00000033H
	DB	0
$LN9@operator@2:
	DB	83					; 00000053H
	DB	114					; 00000072H
	DB	99					; 00000063H
	DB	66					; 00000042H
	DB	50					; 00000032H
	DB	0
$LN8@operator@2:
	DB	83					; 00000053H
	DB	114					; 00000072H
	DB	99					; 00000063H
	DB	66					; 00000042H
	DB	49					; 00000031H
	DB	0
$LN7@operator@2:
	DB	83					; 00000053H
	DB	114					; 00000072H
	DB	99					; 00000063H
	DB	66					; 00000042H
	DB	48					; 00000030H
	DB	0
$LN6@operator@2:
	DB	83					; 00000053H
	DB	114					; 00000072H
	DB	99					; 00000063H
	DB	65					; 00000041H
	DB	51					; 00000033H
	DB	0
$LN5@operator@2:
	DB	83					; 00000053H
	DB	114					; 00000072H
	DB	99					; 00000063H
	DB	65					; 00000041H
	DB	50					; 00000032H
	DB	0
$LN4@operator@2:
	DB	83					; 00000053H
	DB	114					; 00000072H
	DB	99					; 00000063H
	DB	65					; 00000041H
	DB	49					; 00000031H
	DB	0
$LN3@operator@2:
	DB	83					; 00000053H
	DB	114					; 00000072H
	DB	99					; 00000063H
	DB	65					; 00000041H
	DB	48					; 00000030H
	DB	0
??$?DM@detail@glm@@YA?AU?$tmat4x4@M@01@ABU201@0@Z ENDP	; glm::detail::operator*<float>
_TEXT	ENDS
PUBLIC	__real@bf800000
PUBLIC	??$tan@M@glm@@YAMABM@Z				; glm::tan<float>
PUBLIC	__$ArrayPad$
;	COMDAT __real@bf800000
; File c:\opengl\glm-0.9.3.1\glm\gtc\matrix_transform.inl
CONST	SEGMENT
__real@bf800000 DD 0bf800000r			; -1
; Function compile flags: /Odtp /RTCsu /ZI
CONST	ENDS
;	COMDAT ??$perspective@M@glm@@YA?AU?$tmat4x4@M@detail@0@ABM000@Z
_TEXT	SEGMENT
tv259 = -372						; size = 8
tv257 = -372						; size = 4
tv254 = -372						; size = 8
tv251 = -372						; size = 8
tv233 = -368						; size = 4
$T70957 = -360						; size = 4
$T70958 = -348						; size = 4
$T70959 = -336						; size = 4
_Result$ = -132						; size = 64
_top$ = -60						; size = 4
_bottom$ = -48						; size = 4
_right$ = -36						; size = 4
_left$ = -24						; size = 4
_range$ = -12						; size = 4
__$ArrayPad$ = -4					; size = 4
___$ReturnUdt$ = 8					; size = 4
_fovy$ = 12						; size = 4
_aspect$ = 16						; size = 4
_zNear$ = 20						; size = 4
_zFar$ = 24						; size = 4
??$perspective@M@glm@@YA?AU?$tmat4x4@M@detail@0@ABM000@Z PROC ; glm::perspective<float>, COMDAT

; 230  : 	{

	push	ebp
	mov	ebp, esp
	sub	esp, 372				; 00000174H
	push	ebx
	push	esi
	push	edi
	lea	edi, DWORD PTR [ebp-372]
	mov	ecx, 93					; 0000005dH
	mov	eax, -858993460				; ccccccccH
	rep stosd
	mov	eax, DWORD PTR ___security_cookie
	xor	eax, ebp
	mov	DWORD PTR __$ArrayPad$[ebp], eax

; 231  : 		valType range = tan(radians(fovy / valType(2))) * zNear;	

	mov	eax, DWORD PTR _fovy$[ebp]
	fld	DWORD PTR [eax]
	fdiv	QWORD PTR __real@4000000000000000
	fstp	DWORD PTR $T70958[ebp]
	lea	ecx, DWORD PTR $T70958[ebp]
	push	ecx
	call	??$radians@M@glm@@YAMABM@Z		; glm::radians<float>
	add	esp, 4
	fstp	DWORD PTR $T70957[ebp]
	lea	edx, DWORD PTR $T70957[ebp]
	push	edx
	call	??$tan@M@glm@@YAMABM@Z			; glm::tan<float>
	add	esp, 4
	mov	eax, DWORD PTR _zNear$[ebp]
	fmul	DWORD PTR [eax]
	fstp	DWORD PTR _range$[ebp]

; 232  : 		valType left = -range * aspect;

	fld	DWORD PTR _range$[ebp]
	fchs
	mov	eax, DWORD PTR _aspect$[ebp]
	fmul	DWORD PTR [eax]
	fstp	DWORD PTR _left$[ebp]

; 233  : 		valType right = range * aspect;

	fld	DWORD PTR _range$[ebp]
	mov	eax, DWORD PTR _aspect$[ebp]
	fmul	DWORD PTR [eax]
	fstp	DWORD PTR _right$[ebp]

; 234  : 		valType bottom = -range;

	fld	DWORD PTR _range$[ebp]
	fchs
	fstp	DWORD PTR _bottom$[ebp]

; 235  : 		valType top = range;

	fld	DWORD PTR _range$[ebp]
	fstp	DWORD PTR _top$[ebp]

; 236  : 
; 237  : 		detail::tmat4x4<valType> Result(valType(0));

	fldz
	fstp	DWORD PTR $T70959[ebp]
	lea	eax, DWORD PTR $T70959[ebp]
	push	eax
	lea	ecx, DWORD PTR _Result$[ebp]
	call	??0?$tmat4x4@M@detail@glm@@QAE@ABM@Z	; glm::detail::tmat4x4<float>::tmat4x4<float>

; 238  : 		Result[0][0] = (valType(2) * zNear) / (right - left);

	mov	eax, DWORD PTR _zNear$[ebp]
	fld	DWORD PTR [eax]
	fmul	QWORD PTR __real@4000000000000000
	fld	DWORD PTR _right$[ebp]
	fsub	DWORD PTR _left$[ebp]
	fdivp	ST(1), ST(0)
	push	0
	push	0
	lea	ecx, DWORD PTR _Result$[ebp]
	fstp	QWORD PTR tv251[ebp]
	call	??A?$tmat4x4@M@detail@glm@@QAEAAU?$tvec4@M@12@I@Z ; glm::detail::tmat4x4<float>::operator[]
	mov	ecx, eax
	call	??A?$tvec4@M@detail@glm@@QAEAAMI@Z	; glm::detail::tvec4<float>::operator[]
	fld	QWORD PTR tv251[ebp]
	fstp	DWORD PTR [eax]

; 239  : 		Result[1][1] = (valType(2) * zNear) / (top - bottom);

	mov	eax, DWORD PTR _zNear$[ebp]
	fld	DWORD PTR [eax]
	fmul	QWORD PTR __real@4000000000000000
	fld	DWORD PTR _top$[ebp]
	fsub	DWORD PTR _bottom$[ebp]
	fdivp	ST(1), ST(0)
	push	1
	push	1
	lea	ecx, DWORD PTR _Result$[ebp]
	fstp	QWORD PTR tv254[ebp]
	call	??A?$tmat4x4@M@detail@glm@@QAEAAU?$tvec4@M@12@I@Z ; glm::detail::tmat4x4<float>::operator[]
	mov	ecx, eax
	call	??A?$tvec4@M@detail@glm@@QAEAAMI@Z	; glm::detail::tvec4<float>::operator[]
	fld	QWORD PTR tv254[ebp]
	fstp	DWORD PTR [eax]

; 240  : 		Result[2][2] = - (zFar + zNear) / (zFar - zNear);

	mov	eax, DWORD PTR _zFar$[ebp]
	fld	DWORD PTR [eax]
	mov	ecx, DWORD PTR _zNear$[ebp]
	fadd	DWORD PTR [ecx]
	fchs
	mov	edx, DWORD PTR _zFar$[ebp]
	fld	DWORD PTR [edx]
	mov	eax, DWORD PTR _zNear$[ebp]
	fsub	DWORD PTR [eax]
	fdivp	ST(1), ST(0)
	fstp	DWORD PTR tv233[ebp]
	fld	DWORD PTR tv233[ebp]
	push	2
	push	2
	lea	ecx, DWORD PTR _Result$[ebp]
	fstp	DWORD PTR tv257[ebp]
	call	??A?$tmat4x4@M@detail@glm@@QAEAAU?$tvec4@M@12@I@Z ; glm::detail::tmat4x4<float>::operator[]
	mov	ecx, eax
	call	??A?$tvec4@M@detail@glm@@QAEAAMI@Z	; glm::detail::tvec4<float>::operator[]
	fld	DWORD PTR tv257[ebp]
	fstp	DWORD PTR [eax]

; 241  : 		Result[2][3] = - valType(1);

	push	3
	push	2
	lea	ecx, DWORD PTR _Result$[ebp]
	call	??A?$tmat4x4@M@detail@glm@@QAEAAU?$tvec4@M@12@I@Z ; glm::detail::tmat4x4<float>::operator[]
	mov	ecx, eax
	call	??A?$tvec4@M@detail@glm@@QAEAAMI@Z	; glm::detail::tvec4<float>::operator[]
	fld	DWORD PTR __real@bf800000
	fstp	DWORD PTR [eax]

; 242  : 		Result[3][2] = - (valType(2) * zFar * zNear) / (zFar - zNear);

	mov	eax, DWORD PTR _zFar$[ebp]
	fld	DWORD PTR [eax]
	fmul	QWORD PTR __real@4000000000000000
	mov	ecx, DWORD PTR _zNear$[ebp]
	fmul	DWORD PTR [ecx]
	fchs
	mov	edx, DWORD PTR _zFar$[ebp]
	fld	DWORD PTR [edx]
	mov	eax, DWORD PTR _zNear$[ebp]
	fsub	DWORD PTR [eax]
	fdivp	ST(1), ST(0)
	push	2
	push	3
	lea	ecx, DWORD PTR _Result$[ebp]
	fstp	QWORD PTR tv259[ebp]
	call	??A?$tmat4x4@M@detail@glm@@QAEAAU?$tvec4@M@12@I@Z ; glm::detail::tmat4x4<float>::operator[]
	mov	ecx, eax
	call	??A?$tvec4@M@detail@glm@@QAEAAMI@Z	; glm::detail::tvec4<float>::operator[]
	fld	QWORD PTR tv259[ebp]
	fstp	DWORD PTR [eax]

; 243  : 		return Result;

	lea	eax, DWORD PTR _Result$[ebp]
	push	eax
	mov	ecx, DWORD PTR ___$ReturnUdt$[ebp]
	call	??0?$tmat4x4@M@detail@glm@@QAE@ABU012@@Z ; glm::detail::tmat4x4<float>::tmat4x4<float>
	mov	eax, DWORD PTR ___$ReturnUdt$[ebp]

; 244  : 	}

	push	edx
	mov	ecx, ebp
	push	eax
	lea	edx, DWORD PTR $LN5@perspectiv
	call	@_RTC_CheckStackVars@8
	pop	eax
	pop	edx
	pop	edi
	pop	esi
	pop	ebx
	mov	ecx, DWORD PTR __$ArrayPad$[ebp]
	xor	ecx, ebp
	call	@__security_check_cookie@4
	add	esp, 372				; 00000174H
	cmp	ebp, esp
	call	__RTC_CheckEsp
	mov	esp, ebp
	pop	ebp
	ret	0
$LN5@perspectiv:
	DD	1
	DD	$LN4@perspectiv
$LN4@perspectiv:
	DD	-132					; ffffff7cH
	DD	64					; 00000040H
	DD	$LN3@perspectiv
$LN3@perspectiv:
	DB	82					; 00000052H
	DB	101					; 00000065H
	DB	115					; 00000073H
	DB	117					; 00000075H
	DB	108					; 0000006cH
	DB	116					; 00000074H
	DB	0
??$perspective@M@glm@@YA?AU?$tmat4x4@M@detail@0@ABM000@Z ENDP ; glm::perspective<float>
; Function compile flags: /Odtp /RTCsu /ZI
; File c:\opengl\glm-0.9.3.1\glm\core\type_vec3.inl
_TEXT	ENDS
;	COMDAT ??$?0HMH@?$tvec3@M@detail@glm@@QAE@ABHABM0@Z
_TEXT	SEGMENT
_this$ = -8						; size = 4
_x$ = 8							; size = 4
_y$ = 12						; size = 4
_z$ = 16						; size = 4
??$?0HMH@?$tvec3@M@detail@glm@@QAE@ABHABM0@Z PROC	; glm::detail::tvec3<float>::tvec3<float><int,float,int>, COMDAT
; _this$ = ecx

; 177  : 	{}

	push	ebp
	mov	ebp, esp
	sub	esp, 204				; 000000ccH
	push	ebx
	push	esi
	push	edi
	push	ecx
	lea	edi, DWORD PTR [ebp-204]
	mov	ecx, 51					; 00000033H
	mov	eax, -858993460				; ccccccccH
	rep stosd
	pop	ecx
	mov	DWORD PTR _this$[ebp], ecx
	mov	eax, DWORD PTR _x$[ebp]
	fild	DWORD PTR [eax]
	mov	ecx, DWORD PTR _this$[ebp]
	fstp	DWORD PTR [ecx]
	mov	eax, DWORD PTR _this$[ebp]
	mov	ecx, DWORD PTR _y$[ebp]
	fld	DWORD PTR [ecx]
	fstp	DWORD PTR [eax+4]
	mov	eax, DWORD PTR _z$[ebp]
	fild	DWORD PTR [eax]
	mov	ecx, DWORD PTR _this$[ebp]
	fstp	DWORD PTR [ecx+8]
	mov	eax, DWORD PTR _this$[ebp]
	pop	edi
	pop	esi
	pop	ebx
	mov	esp, ebp
	pop	ebp
	ret	12					; 0000000cH
??$?0HMH@?$tvec3@M@detail@glm@@QAE@ABHABM0@Z ENDP	; glm::detail::tvec3<float>::tvec3<float><int,float,int>
; Function compile flags: /Odtp /RTCsu /ZI
_TEXT	ENDS
;	COMDAT ??$?0M@?$tvec3@M@detail@glm@@QAE@ABU?$tvec4@M@12@@Z
_TEXT	SEGMENT
_this$ = -8						; size = 4
_v$ = 8							; size = 4
??$?0M@?$tvec3@M@detail@glm@@QAE@ABU?$tvec4@M@12@@Z PROC ; glm::detail::tvec3<float>::tvec3<float><float>, COMDAT
; _this$ = ecx

; 226  : 	{}

	push	ebp
	mov	ebp, esp
	sub	esp, 204				; 000000ccH
	push	ebx
	push	esi
	push	edi
	push	ecx
	lea	edi, DWORD PTR [ebp-204]
	mov	ecx, 51					; 00000033H
	mov	eax, -858993460				; ccccccccH
	rep stosd
	pop	ecx
	mov	DWORD PTR _this$[ebp], ecx
	mov	eax, DWORD PTR _this$[ebp]
	mov	ecx, DWORD PTR _v$[ebp]
	fld	DWORD PTR [ecx]
	fstp	DWORD PTR [eax]
	mov	eax, DWORD PTR _this$[ebp]
	mov	ecx, DWORD PTR _v$[ebp]
	fld	DWORD PTR [ecx+4]
	fstp	DWORD PTR [eax+4]
	mov	eax, DWORD PTR _this$[ebp]
	mov	ecx, DWORD PTR _v$[ebp]
	fld	DWORD PTR [ecx+8]
	fstp	DWORD PTR [eax+8]
	mov	eax, DWORD PTR _this$[ebp]
	pop	edi
	pop	esi
	pop	ebx
	mov	esp, ebp
	pop	ebp
	ret	4
??$?0M@?$tvec3@M@detail@glm@@QAE@ABU?$tvec4@M@12@@Z ENDP ; glm::detail::tvec3<float>::tvec3<float><float>
; Function compile flags: /Odtp /RTCsu /ZI
_TEXT	ENDS
;	COMDAT ??$?0HHH@?$tvec3@M@detail@glm@@QAE@ABH00@Z
_TEXT	SEGMENT
_this$ = -8						; size = 4
_x$ = 8							; size = 4
_y$ = 12						; size = 4
_z$ = 16						; size = 4
??$?0HHH@?$tvec3@M@detail@glm@@QAE@ABH00@Z PROC		; glm::detail::tvec3<float>::tvec3<float><int,int,int>, COMDAT
; _this$ = ecx

; 177  : 	{}

	push	ebp
	mov	ebp, esp
	sub	esp, 204				; 000000ccH
	push	ebx
	push	esi
	push	edi
	push	ecx
	lea	edi, DWORD PTR [ebp-204]
	mov	ecx, 51					; 00000033H
	mov	eax, -858993460				; ccccccccH
	rep stosd
	pop	ecx
	mov	DWORD PTR _this$[ebp], ecx
	mov	eax, DWORD PTR _x$[ebp]
	fild	DWORD PTR [eax]
	mov	ecx, DWORD PTR _this$[ebp]
	fstp	DWORD PTR [ecx]
	mov	eax, DWORD PTR _y$[ebp]
	fild	DWORD PTR [eax]
	mov	ecx, DWORD PTR _this$[ebp]
	fstp	DWORD PTR [ecx+4]
	mov	eax, DWORD PTR _z$[ebp]
	fild	DWORD PTR [eax]
	mov	ecx, DWORD PTR _this$[ebp]
	fstp	DWORD PTR [ecx+8]
	mov	eax, DWORD PTR _this$[ebp]
	pop	edi
	pop	esi
	pop	ebx
	mov	esp, ebp
	pop	ebp
	ret	12					; 0000000cH
??$?0HHH@?$tvec3@M@detail@glm@@QAE@ABH00@Z ENDP		; glm::detail::tvec3<float>::tvec3<float><int,int,int>
_TEXT	ENDS
PUBLIC	??A?$tvec3@M@detail@glm@@QBEABMI@Z		; glm::detail::tvec3<float>::operator[]
PUBLIC	__$ArrayPad$
; Function compile flags: /Odtp /RTCsu /ZI
; File c:\opengl\glm-0.9.3.1\glm\gtc\matrix_transform.inl
;	COMDAT ??$translate@M@glm@@YA?AU?$tmat4x4@M@detail@0@ABU120@ABU?$tvec3@M@20@@Z
_TEXT	SEGMENT
$T70974 = -408						; size = 16
$T70975 = -384						; size = 16
$T70976 = -360						; size = 16
$T70977 = -336						; size = 16
$T70978 = -312						; size = 16
$T70979 = -288						; size = 16
_Result$ = -72						; size = 64
__$ArrayPad$ = -4					; size = 4
___$ReturnUdt$ = 8					; size = 4
_m$ = 12						; size = 4
_v$ = 16						; size = 4
??$translate@M@glm@@YA?AU?$tmat4x4@M@detail@0@ABU120@ABU?$tvec3@M@20@@Z PROC ; glm::translate<float>, COMDAT

; 37   : 	{

	push	ebp
	mov	ebp, esp
	sub	esp, 412				; 0000019cH
	push	ebx
	push	esi
	push	edi
	lea	edi, DWORD PTR [ebp-412]
	mov	ecx, 103				; 00000067H
	mov	eax, -858993460				; ccccccccH
	rep stosd
	mov	eax, DWORD PTR ___security_cookie
	xor	eax, ebp
	mov	DWORD PTR __$ArrayPad$[ebp], eax

; 38   : 		detail::tmat4x4<T> Result(m);

	mov	eax, DWORD PTR _m$[ebp]
	push	eax
	lea	ecx, DWORD PTR _Result$[ebp]
	call	??0?$tmat4x4@M@detail@glm@@QAE@ABU012@@Z ; glm::detail::tmat4x4<float>::tmat4x4<float>

; 39   : 		Result[3] = m[0] * v[0] + m[1] * v[1] + m[2] * v[2] + m[3];

	push	3
	mov	ecx, DWORD PTR _m$[ebp]
	call	??A?$tmat4x4@M@detail@glm@@QBEABU?$tvec4@M@12@I@Z ; glm::detail::tmat4x4<float>::operator[]
	push	eax
	push	2
	mov	ecx, DWORD PTR _v$[ebp]
	call	??A?$tvec3@M@detail@glm@@QBEABMI@Z	; glm::detail::tvec3<float>::operator[]
	push	eax
	push	2
	mov	ecx, DWORD PTR _m$[ebp]
	call	??A?$tmat4x4@M@detail@glm@@QBEABU?$tvec4@M@12@I@Z ; glm::detail::tmat4x4<float>::operator[]
	push	eax
	lea	eax, DWORD PTR $T70974[ebp]
	push	eax
	call	??$?DM@detail@glm@@YA?AU?$tvec4@M@01@ABU201@ABM@Z ; glm::detail::operator*<float>
	add	esp, 12					; 0000000cH
	push	eax
	push	1
	mov	ecx, DWORD PTR _v$[ebp]
	call	??A?$tvec3@M@detail@glm@@QBEABMI@Z	; glm::detail::tvec3<float>::operator[]
	push	eax
	push	1
	mov	ecx, DWORD PTR _m$[ebp]
	call	??A?$tmat4x4@M@detail@glm@@QBEABU?$tvec4@M@12@I@Z ; glm::detail::tmat4x4<float>::operator[]
	push	eax
	lea	ecx, DWORD PTR $T70975[ebp]
	push	ecx
	call	??$?DM@detail@glm@@YA?AU?$tvec4@M@01@ABU201@ABM@Z ; glm::detail::operator*<float>
	add	esp, 12					; 0000000cH
	push	eax
	push	0
	mov	ecx, DWORD PTR _v$[ebp]
	call	??A?$tvec3@M@detail@glm@@QBEABMI@Z	; glm::detail::tvec3<float>::operator[]
	push	eax
	push	0
	mov	ecx, DWORD PTR _m$[ebp]
	call	??A?$tmat4x4@M@detail@glm@@QBEABU?$tvec4@M@12@I@Z ; glm::detail::tmat4x4<float>::operator[]
	push	eax
	lea	edx, DWORD PTR $T70976[ebp]
	push	edx
	call	??$?DM@detail@glm@@YA?AU?$tvec4@M@01@ABU201@ABM@Z ; glm::detail::operator*<float>
	add	esp, 12					; 0000000cH
	push	eax
	lea	eax, DWORD PTR $T70977[ebp]
	push	eax
	call	??$?HM@detail@glm@@YA?AU?$tvec4@M@01@ABU201@0@Z ; glm::detail::operator+<float>
	add	esp, 12					; 0000000cH
	push	eax
	lea	ecx, DWORD PTR $T70978[ebp]
	push	ecx
	call	??$?HM@detail@glm@@YA?AU?$tvec4@M@01@ABU201@0@Z ; glm::detail::operator+<float>
	add	esp, 12					; 0000000cH
	push	eax
	lea	edx, DWORD PTR $T70979[ebp]
	push	edx
	call	??$?HM@detail@glm@@YA?AU?$tvec4@M@01@ABU201@0@Z ; glm::detail::operator+<float>
	add	esp, 12					; 0000000cH
	push	eax
	push	3
	lea	ecx, DWORD PTR _Result$[ebp]
	call	??A?$tmat4x4@M@detail@glm@@QAEAAU?$tvec4@M@12@I@Z ; glm::detail::tmat4x4<float>::operator[]
	mov	ecx, eax
	call	??4?$tvec4@M@detail@glm@@QAEAAU012@ABU012@@Z ; glm::detail::tvec4<float>::operator=

; 40   : 		return Result;

	lea	eax, DWORD PTR _Result$[ebp]
	push	eax
	mov	ecx, DWORD PTR ___$ReturnUdt$[ebp]
	call	??0?$tmat4x4@M@detail@glm@@QAE@ABU012@@Z ; glm::detail::tmat4x4<float>::tmat4x4<float>
	mov	eax, DWORD PTR ___$ReturnUdt$[ebp]

; 41   : 	}

	push	edx
	mov	ecx, ebp
	push	eax
	lea	edx, DWORD PTR $LN5@translate
	call	@_RTC_CheckStackVars@8
	pop	eax
	pop	edx
	pop	edi
	pop	esi
	pop	ebx
	mov	ecx, DWORD PTR __$ArrayPad$[ebp]
	xor	ecx, ebp
	call	@__security_check_cookie@4
	add	esp, 412				; 0000019cH
	cmp	ebp, esp
	call	__RTC_CheckEsp
	mov	esp, ebp
	pop	ebp
	ret	0
$LN5@translate:
	DD	1
	DD	$LN4@translate
$LN4@translate:
	DD	-72					; ffffffb8H
	DD	64					; 00000040H
	DD	$LN3@translate
$LN3@translate:
	DB	82					; 00000052H
	DB	101					; 00000065H
	DB	115					; 00000073H
	DB	117					; 00000075H
	DB	108					; 0000006cH
	DB	116					; 00000074H
	DB	0
??$translate@M@glm@@YA?AU?$tmat4x4@M@detail@0@ABU120@ABU?$tvec3@M@20@@Z ENDP ; glm::translate<float>
; Function compile flags: /Odtp /RTCsu /ZI
; File c:\program files (x86)\microsoft visual studio 10.0\vc\include\xmemory
_TEXT	ENDS
;	COMDAT ??$?0D@?$allocator@U_Container_proxy@std@@@std@@QAE@ABV?$allocator@D@1@@Z
_TEXT	SEGMENT
_this$ = -8						; size = 4
___formal$ = 8						; size = 4
??$?0D@?$allocator@U_Container_proxy@std@@@std@@QAE@ABV?$allocator@D@1@@Z PROC ; std::allocator<std::_Container_proxy>::allocator<std::_Container_proxy><char>, COMDAT
; _this$ = ecx

; 170  : 		_ALLOCATOR(const _ALLOCATOR<_Other>&) _THROW0()

	push	ebp
	mov	ebp, esp
	sub	esp, 204				; 000000ccH
	push	ebx
	push	esi
	push	edi
	push	ecx
	lea	edi, DWORD PTR [ebp-204]
	mov	ecx, 51					; 00000033H
	mov	eax, -858993460				; ccccccccH
	rep stosd
	pop	ecx
	mov	DWORD PTR _this$[ebp], ecx

; 171  : 		{	// construct from a related allocator (do nothing)
; 172  : 		}

	mov	eax, DWORD PTR _this$[ebp]
	pop	edi
	pop	esi
	pop	ebx
	mov	esp, ebp
	pop	ebp
	ret	4
??$?0D@?$allocator@U_Container_proxy@std@@@std@@QAE@ABV?$allocator@D@1@@Z ENDP ; std::allocator<std::_Container_proxy>::allocator<std::_Container_proxy><char>
_TEXT	ENDS
PUBLIC	?destroy@?$allocator@U_Container_proxy@std@@@std@@QAEXPAU_Container_proxy@2@@Z ; std::allocator<std::_Container_proxy>::destroy
; Function compile flags: /Odtp /RTCsu /ZI
;	COMDAT ??$_Dest_val@V?$allocator@U_Container_proxy@std@@@std@@U_Container_proxy@2@@std@@YAXAAV?$allocator@U_Container_proxy@std@@@0@PAU_Container_proxy@0@@Z
_TEXT	SEGMENT
__Alval$ = 8						; size = 4
__Pdest$ = 12						; size = 4
??$_Dest_val@V?$allocator@U_Container_proxy@std@@@std@@U_Container_proxy@2@@std@@YAXAAV?$allocator@U_Container_proxy@std@@@0@PAU_Container_proxy@0@@Z PROC ; std::_Dest_val<std::allocator<std::_Container_proxy>,std::_Container_proxy>, COMDAT

; 286  : 	{	// destroy using allocator

	push	ebp
	mov	ebp, esp
	sub	esp, 192				; 000000c0H
	push	ebx
	push	esi
	push	edi
	lea	edi, DWORD PTR [ebp-192]
	mov	ecx, 48					; 00000030H
	mov	eax, -858993460				; ccccccccH
	rep stosd

; 287  : 	_Alval.destroy(_Pdest);

	mov	eax, DWORD PTR __Pdest$[ebp]
	push	eax
	mov	ecx, DWORD PTR __Alval$[ebp]
	call	?destroy@?$allocator@U_Container_proxy@std@@@std@@QAEXPAU_Container_proxy@2@@Z ; std::allocator<std::_Container_proxy>::destroy

; 288  : 	}

	pop	edi
	pop	esi
	pop	ebx
	add	esp, 192				; 000000c0H
	cmp	ebp, esp
	call	__RTC_CheckEsp
	mov	esp, ebp
	pop	ebp
	ret	0
??$_Dest_val@V?$allocator@U_Container_proxy@std@@@std@@U_Container_proxy@2@@std@@YAXAAV?$allocator@U_Container_proxy@std@@@0@PAU_Container_proxy@0@@Z ENDP ; std::_Dest_val<std::allocator<std::_Container_proxy>,std::_Container_proxy>
; Function compile flags: /Odtp /RTCsu /ZI
_TEXT	ENDS
;	COMDAT ??_H@YGXPAXIHP6EPAX0@Z@Z
_TEXT	SEGMENT
___t$ = 8						; size = 4
___s$ = 12						; size = 4
___n$ = 16						; size = 4
___f$ = 20						; size = 4
??_H@YGXPAXIHP6EPAX0@Z@Z PROC				; `vector constructor iterator', COMDAT
	push	ebp
	mov	ebp, esp
	sub	esp, 192				; 000000c0H
	push	ebx
	push	esi
	push	edi
	lea	edi, DWORD PTR [ebp-192]
	mov	ecx, 48					; 00000030H
	mov	eax, -858993460				; ccccccccH
	rep stosd
$LN2@vector:
	mov	eax, DWORD PTR ___n$[ebp]
	sub	eax, 1
	mov	DWORD PTR ___n$[ebp], eax
	js	SHORT $LN3@vector
	mov	esi, esp
	mov	ecx, DWORD PTR ___t$[ebp]
	call	DWORD PTR ___f$[ebp]
	cmp	esi, esp
	call	__RTC_CheckEsp
	mov	eax, DWORD PTR ___t$[ebp]
	add	eax, DWORD PTR ___s$[ebp]
	mov	DWORD PTR ___t$[ebp], eax
	jmp	SHORT $LN2@vector
$LN3@vector:
	pop	edi
	pop	esi
	pop	ebx
	add	esp, 192				; 000000c0H
	cmp	ebp, esp
	call	__RTC_CheckEsp
	mov	esp, ebp
	pop	ebp
	ret	16					; 00000010H
??_H@YGXPAXIHP6EPAX0@Z@Z ENDP				; `vector constructor iterator'
_TEXT	ENDS
PUBLIC	??$_Destroy@U_Container_proxy@std@@@std@@YAXPAU_Container_proxy@0@@Z ; std::_Destroy<std::_Container_proxy>
; Function compile flags: /Odtp /RTCsu /ZI
;	COMDAT ?destroy@?$allocator@U_Container_proxy@std@@@std@@QAEXPAU_Container_proxy@2@@Z
_TEXT	SEGMENT
_this$ = -8						; size = 4
__Ptr$ = 8						; size = 4
?destroy@?$allocator@U_Container_proxy@std@@@std@@QAEXPAU_Container_proxy@2@@Z PROC ; std::allocator<std::_Container_proxy>::destroy, COMDAT
; _this$ = ecx

; 212  : 		{	// destroy object at _Ptr

	push	ebp
	mov	ebp, esp
	sub	esp, 204				; 000000ccH
	push	ebx
	push	esi
	push	edi
	push	ecx
	lea	edi, DWORD PTR [ebp-204]
	mov	ecx, 51					; 00000033H
	mov	eax, -858993460				; ccccccccH
	rep stosd
	pop	ecx
	mov	DWORD PTR _this$[ebp], ecx

; 213  : 		_Destroy(_Ptr);

	mov	eax, DWORD PTR __Ptr$[ebp]
	push	eax
	call	??$_Destroy@U_Container_proxy@std@@@std@@YAXPAU_Container_proxy@0@@Z ; std::_Destroy<std::_Container_proxy>
	add	esp, 4

; 214  : 		}

	pop	edi
	pop	esi
	pop	ebx
	add	esp, 204				; 000000ccH
	cmp	ebp, esp
	call	__RTC_CheckEsp
	mov	esp, ebp
	pop	ebp
	ret	4
?destroy@?$allocator@U_Container_proxy@std@@@std@@QAEXPAU_Container_proxy@2@@Z ENDP ; std::allocator<std::_Container_proxy>::destroy
_TEXT	ENDS
PUBLIC	??_C@_1FK@IBGOADNM@?$AAc?$AA?3?$AA?2?$AAo?$AAp?$AAe?$AAn?$AAg?$AAl?$AA?2?$AAg?$AAl?$AAm?$AA?9?$AA0?$AA?4?$AA9?$AA?4?$AA3?$AA?4?$AA1?$AA?2?$AAg?$AAl?$AAm?$AA?2?$AAc?$AAo?$AAr?$AAe?$AA?2?$AAt@ ; `string'
PUBLIC	?length@?$tvec3@M@detail@glm@@QBEIXZ		; glm::detail::tvec3<float>::length
;	COMDAT ??_C@_1FK@IBGOADNM@?$AAc?$AA?3?$AA?2?$AAo?$AAp?$AAe?$AAn?$AAg?$AAl?$AA?2?$AAg?$AAl?$AAm?$AA?9?$AA0?$AA?4?$AA9?$AA?4?$AA3?$AA?4?$AA1?$AA?2?$AAg?$AAl?$AAm?$AA?2?$AAc?$AAo?$AAr?$AAe?$AA?2?$AAt@
; File c:\opengl\glm-0.9.3.1\glm\core\type_vec3.inl
CONST	SEGMENT
??_C@_1FK@IBGOADNM@?$AAc?$AA?3?$AA?2?$AAo?$AAp?$AAe?$AAn?$AAg?$AAl?$AA?2?$AAg?$AAl?$AAm?$AA?9?$AA0?$AA?4?$AA9?$AA?4?$AA3?$AA?4?$AA1?$AA?2?$AAg?$AAl?$AAm?$AA?2?$AAc?$AAo?$AAr?$AAe?$AA?2?$AAt@ DB 'c'
	DB	00H, ':', 00H, '\', 00H, 'o', 00H, 'p', 00H, 'e', 00H, 'n', 00H
	DB	'g', 00H, 'l', 00H, '\', 00H, 'g', 00H, 'l', 00H, 'm', 00H, '-'
	DB	00H, '0', 00H, '.', 00H, '9', 00H, '.', 00H, '3', 00H, '.', 00H
	DB	'1', 00H, '\', 00H, 'g', 00H, 'l', 00H, 'm', 00H, '\', 00H, 'c'
	DB	00H, 'o', 00H, 'r', 00H, 'e', 00H, '\', 00H, 't', 00H, 'y', 00H
	DB	'p', 00H, 'e', 00H, '_', 00H, 'v', 00H, 'e', 00H, 'c', 00H, '3'
	DB	00H, '.', 00H, 'i', 00H, 'n', 00H, 'l', 00H, 00H, 00H ; `string'
; Function compile flags: /Odtp /RTCsu /ZI
CONST	ENDS
;	COMDAT ??A?$tvec3@M@detail@glm@@QBEABMI@Z
_TEXT	SEGMENT
_this$ = -8						; size = 4
_i$ = 8							; size = 4
??A?$tvec3@M@detail@glm@@QBEABMI@Z PROC			; glm::detail::tvec3<float>::operator[], COMDAT
; _this$ = ecx

; 58   : 	{

	push	ebp
	mov	ebp, esp
	sub	esp, 204				; 000000ccH
	push	ebx
	push	esi
	push	edi
	push	ecx
	lea	edi, DWORD PTR [ebp-204]
	mov	ecx, 51					; 00000033H
	mov	eax, -858993460				; ccccccccH
	rep stosd
	pop	ecx
	mov	DWORD PTR _this$[ebp], ecx

; 59   : 		assert(i < this->length());

	mov	ecx, DWORD PTR _this$[ebp]
	call	?length@?$tvec3@M@detail@glm@@QBEIXZ	; glm::detail::tvec3<float>::length
	cmp	DWORD PTR _i$[ebp], eax
	jb	SHORT $LN3@operator@3
	mov	esi, esp
	push	59					; 0000003bH
	push	OFFSET ??_C@_1FK@IBGOADNM@?$AAc?$AA?3?$AA?2?$AAo?$AAp?$AAe?$AAn?$AAg?$AAl?$AA?2?$AAg?$AAl?$AAm?$AA?9?$AA0?$AA?4?$AA9?$AA?4?$AA3?$AA?4?$AA1?$AA?2?$AAg?$AAl?$AAm?$AA?2?$AAc?$AAo?$AAr?$AAe?$AA?2?$AAt@
	push	OFFSET ??_C@_1CG@KOFHLCJL@?$AAi?$AA?5?$AA?$DM?$AA?5?$AAt?$AAh?$AAi?$AAs?$AA?9?$AA?$DO?$AAl?$AAe?$AAn?$AAg?$AAt?$AAh?$AA?$CI?$AA?$CJ?$AA?$AA@
	call	DWORD PTR __imp___wassert
	add	esp, 12					; 0000000cH
	cmp	esi, esp
	call	__RTC_CheckEsp
$LN3@operator@3:

; 60   : 		return (&x)[i];

	mov	eax, DWORD PTR _i$[ebp]
	mov	ecx, DWORD PTR _this$[ebp]
	lea	eax, DWORD PTR [ecx+eax*4]

; 61   : 	}

	pop	edi
	pop	esi
	pop	ebx
	add	esp, 204				; 000000ccH
	cmp	ebp, esp
	call	__RTC_CheckEsp
	mov	esp, ebp
	pop	ebp
	ret	4
??A?$tvec3@M@detail@glm@@QBEABMI@Z ENDP			; glm::detail::tvec3<float>::operator[]
; Function compile flags: /Odtp /RTCsu /ZI
_TEXT	ENDS
;	COMDAT ??A?$tvec3@M@detail@glm@@QAEAAMI@Z
_TEXT	SEGMENT
_this$ = -8						; size = 4
_i$ = 8							; size = 4
??A?$tvec3@M@detail@glm@@QAEAAMI@Z PROC			; glm::detail::tvec3<float>::operator[], COMDAT
; _this$ = ecx

; 47   : 	{

	push	ebp
	mov	ebp, esp
	sub	esp, 204				; 000000ccH
	push	ebx
	push	esi
	push	edi
	push	ecx
	lea	edi, DWORD PTR [ebp-204]
	mov	ecx, 51					; 00000033H
	mov	eax, -858993460				; ccccccccH
	rep stosd
	pop	ecx
	mov	DWORD PTR _this$[ebp], ecx

; 48   : 		assert(i < this->length());

	mov	ecx, DWORD PTR _this$[ebp]
	call	?length@?$tvec3@M@detail@glm@@QBEIXZ	; glm::detail::tvec3<float>::length
	cmp	DWORD PTR _i$[ebp], eax
	jb	SHORT $LN3@operator@4
	mov	esi, esp
	push	48					; 00000030H
	push	OFFSET ??_C@_1FK@IBGOADNM@?$AAc?$AA?3?$AA?2?$AAo?$AAp?$AAe?$AAn?$AAg?$AAl?$AA?2?$AAg?$AAl?$AAm?$AA?9?$AA0?$AA?4?$AA9?$AA?4?$AA3?$AA?4?$AA1?$AA?2?$AAg?$AAl?$AAm?$AA?2?$AAc?$AAo?$AAr?$AAe?$AA?2?$AAt@
	push	OFFSET ??_C@_1CG@KOFHLCJL@?$AAi?$AA?5?$AA?$DM?$AA?5?$AAt?$AAh?$AAi?$AAs?$AA?9?$AA?$DO?$AAl?$AAe?$AAn?$AAg?$AAt?$AAh?$AA?$CI?$AA?$CJ?$AA?$AA@
	call	DWORD PTR __imp___wassert
	add	esp, 12					; 0000000cH
	cmp	esi, esp
	call	__RTC_CheckEsp
$LN3@operator@4:

; 49   : 		return (&x)[i];

	mov	eax, DWORD PTR _i$[ebp]
	mov	ecx, DWORD PTR _this$[ebp]
	lea	eax, DWORD PTR [ecx+eax*4]

; 50   : 	}

	pop	edi
	pop	esi
	pop	ebx
	add	esp, 204				; 000000ccH
	cmp	ebp, esp
	call	__RTC_CheckEsp
	mov	esp, ebp
	pop	ebp
	ret	4
??A?$tvec3@M@detail@glm@@QAEAAMI@Z ENDP			; glm::detail::tvec3<float>::operator[]
; Function compile flags: /Odtp /RTCsu /ZI
_TEXT	ENDS
;	COMDAT ??0?$tvec3@M@detail@glm@@QAE@XZ
_TEXT	SEGMENT
_this$ = -8						; size = 4
??0?$tvec3@M@detail@glm@@QAE@XZ PROC			; glm::detail::tvec3<float>::tvec3<float>, COMDAT
; _this$ = ecx

; 71   : 	{}

	push	ebp
	mov	ebp, esp
	sub	esp, 204				; 000000ccH
	push	ebx
	push	esi
	push	edi
	push	ecx
	lea	edi, DWORD PTR [ebp-204]
	mov	ecx, 51					; 00000033H
	mov	eax, -858993460				; ccccccccH
	rep stosd
	pop	ecx
	mov	DWORD PTR _this$[ebp], ecx
	mov	eax, DWORD PTR _this$[ebp]
	fldz
	fstp	DWORD PTR [eax]
	mov	eax, DWORD PTR _this$[ebp]
	fldz
	fstp	DWORD PTR [eax+4]
	mov	eax, DWORD PTR _this$[ebp]
	fldz
	fstp	DWORD PTR [eax+8]
	mov	eax, DWORD PTR _this$[ebp]
	pop	edi
	pop	esi
	pop	ebx
	mov	esp, ebp
	pop	ebp
	ret	0
??0?$tvec3@M@detail@glm@@QAE@XZ ENDP			; glm::detail::tvec3<float>::tvec3<float>
_TEXT	ENDS
PUBLIC	??_C@_1FK@PFPGOKFD@?$AAc?$AA?3?$AA?2?$AAo?$AAp?$AAe?$AAn?$AAg?$AAl?$AA?2?$AAg?$AAl?$AAm?$AA?9?$AA0?$AA?4?$AA9?$AA?4?$AA3?$AA?4?$AA1?$AA?2?$AAg?$AAl?$AAm?$AA?2?$AAc?$AAo?$AAr?$AAe?$AA?2?$AAt@ ; `string'
PUBLIC	?length@?$tvec4@M@detail@glm@@QBEIXZ		; glm::detail::tvec4<float>::length
;	COMDAT ??_C@_1FK@PFPGOKFD@?$AAc?$AA?3?$AA?2?$AAo?$AAp?$AAe?$AAn?$AAg?$AAl?$AA?2?$AAg?$AAl?$AAm?$AA?9?$AA0?$AA?4?$AA9?$AA?4?$AA3?$AA?4?$AA1?$AA?2?$AAg?$AAl?$AAm?$AA?2?$AAc?$AAo?$AAr?$AAe?$AA?2?$AAt@
; File c:\opengl\glm-0.9.3.1\glm\core\type_vec4.inl
CONST	SEGMENT
??_C@_1FK@PFPGOKFD@?$AAc?$AA?3?$AA?2?$AAo?$AAp?$AAe?$AAn?$AAg?$AAl?$AA?2?$AAg?$AAl?$AAm?$AA?9?$AA0?$AA?4?$AA9?$AA?4?$AA3?$AA?4?$AA1?$AA?2?$AAg?$AAl?$AAm?$AA?2?$AAc?$AAo?$AAr?$AAe?$AA?2?$AAt@ DB 'c'
	DB	00H, ':', 00H, '\', 00H, 'o', 00H, 'p', 00H, 'e', 00H, 'n', 00H
	DB	'g', 00H, 'l', 00H, '\', 00H, 'g', 00H, 'l', 00H, 'm', 00H, '-'
	DB	00H, '0', 00H, '.', 00H, '9', 00H, '.', 00H, '3', 00H, '.', 00H
	DB	'1', 00H, '\', 00H, 'g', 00H, 'l', 00H, 'm', 00H, '\', 00H, 'c'
	DB	00H, 'o', 00H, 'r', 00H, 'e', 00H, '\', 00H, 't', 00H, 'y', 00H
	DB	'p', 00H, 'e', 00H, '_', 00H, 'v', 00H, 'e', 00H, 'c', 00H, '4'
	DB	00H, '.', 00H, 'i', 00H, 'n', 00H, 'l', 00H, 00H, 00H ; `string'
; Function compile flags: /Odtp /RTCsu /ZI
CONST	ENDS
;	COMDAT ??A?$tvec4@M@detail@glm@@QBEABMI@Z
_TEXT	SEGMENT
_this$ = -8						; size = 4
_i$ = 8							; size = 4
??A?$tvec4@M@detail@glm@@QBEABMI@Z PROC			; glm::detail::tvec4<float>::operator[], COMDAT
; _this$ = ecx

; 58   : 	{

	push	ebp
	mov	ebp, esp
	sub	esp, 204				; 000000ccH
	push	ebx
	push	esi
	push	edi
	push	ecx
	lea	edi, DWORD PTR [ebp-204]
	mov	ecx, 51					; 00000033H
	mov	eax, -858993460				; ccccccccH
	rep stosd
	pop	ecx
	mov	DWORD PTR _this$[ebp], ecx

; 59   : 		assert(i < this->length());

	mov	ecx, DWORD PTR _this$[ebp]
	call	?length@?$tvec4@M@detail@glm@@QBEIXZ	; glm::detail::tvec4<float>::length
	cmp	DWORD PTR _i$[ebp], eax
	jb	SHORT $LN3@operator@5
	mov	esi, esp
	push	59					; 0000003bH
	push	OFFSET ??_C@_1FK@PFPGOKFD@?$AAc?$AA?3?$AA?2?$AAo?$AAp?$AAe?$AAn?$AAg?$AAl?$AA?2?$AAg?$AAl?$AAm?$AA?9?$AA0?$AA?4?$AA9?$AA?4?$AA3?$AA?4?$AA1?$AA?2?$AAg?$AAl?$AAm?$AA?2?$AAc?$AAo?$AAr?$AAe?$AA?2?$AAt@
	push	OFFSET ??_C@_1CG@KOFHLCJL@?$AAi?$AA?5?$AA?$DM?$AA?5?$AAt?$AAh?$AAi?$AAs?$AA?9?$AA?$DO?$AAl?$AAe?$AAn?$AAg?$AAt?$AAh?$AA?$CI?$AA?$CJ?$AA?$AA@
	call	DWORD PTR __imp___wassert
	add	esp, 12					; 0000000cH
	cmp	esi, esp
	call	__RTC_CheckEsp
$LN3@operator@5:

; 60   : 		return (&x)[i];

	mov	eax, DWORD PTR _i$[ebp]
	mov	ecx, DWORD PTR _this$[ebp]
	lea	eax, DWORD PTR [ecx+eax*4]

; 61   : 	}

	pop	edi
	pop	esi
	pop	ebx
	add	esp, 204				; 000000ccH
	cmp	ebp, esp
	call	__RTC_CheckEsp
	mov	esp, ebp
	pop	ebp
	ret	4
??A?$tvec4@M@detail@glm@@QBEABMI@Z ENDP			; glm::detail::tvec4<float>::operator[]
; Function compile flags: /Odtp /RTCsu /ZI
_TEXT	ENDS
;	COMDAT ??A?$tvec4@M@detail@glm@@QAEAAMI@Z
_TEXT	SEGMENT
_this$ = -8						; size = 4
_i$ = 8							; size = 4
??A?$tvec4@M@detail@glm@@QAEAAMI@Z PROC			; glm::detail::tvec4<float>::operator[], COMDAT
; _this$ = ecx

; 47   : 	{

	push	ebp
	mov	ebp, esp
	sub	esp, 204				; 000000ccH
	push	ebx
	push	esi
	push	edi
	push	ecx
	lea	edi, DWORD PTR [ebp-204]
	mov	ecx, 51					; 00000033H
	mov	eax, -858993460				; ccccccccH
	rep stosd
	pop	ecx
	mov	DWORD PTR _this$[ebp], ecx

; 48   : 		assert(i < this->length());

	mov	ecx, DWORD PTR _this$[ebp]
	call	?length@?$tvec4@M@detail@glm@@QBEIXZ	; glm::detail::tvec4<float>::length
	cmp	DWORD PTR _i$[ebp], eax
	jb	SHORT $LN3@operator@6
	mov	esi, esp
	push	48					; 00000030H
	push	OFFSET ??_C@_1FK@PFPGOKFD@?$AAc?$AA?3?$AA?2?$AAo?$AAp?$AAe?$AAn?$AAg?$AAl?$AA?2?$AAg?$AAl?$AAm?$AA?9?$AA0?$AA?4?$AA9?$AA?4?$AA3?$AA?4?$AA1?$AA?2?$AAg?$AAl?$AAm?$AA?2?$AAc?$AAo?$AAr?$AAe?$AA?2?$AAt@
	push	OFFSET ??_C@_1CG@KOFHLCJL@?$AAi?$AA?5?$AA?$DM?$AA?5?$AAt?$AAh?$AAi?$AAs?$AA?9?$AA?$DO?$AAl?$AAe?$AAn?$AAg?$AAt?$AAh?$AA?$CI?$AA?$CJ?$AA?$AA@
	call	DWORD PTR __imp___wassert
	add	esp, 12					; 0000000cH
	cmp	esi, esp
	call	__RTC_CheckEsp
$LN3@operator@6:

; 49   : 		return (&x)[i];

	mov	eax, DWORD PTR _i$[ebp]
	mov	ecx, DWORD PTR _this$[ebp]
	lea	eax, DWORD PTR [ecx+eax*4]

; 50   : 	}

	pop	edi
	pop	esi
	pop	ebx
	add	esp, 204				; 000000ccH
	cmp	ebp, esp
	call	__RTC_CheckEsp
	mov	esp, ebp
	pop	ebp
	ret	4
??A?$tvec4@M@detail@glm@@QAEAAMI@Z ENDP			; glm::detail::tvec4<float>::operator[]
; Function compile flags: /Odtp /RTCsu /ZI
_TEXT	ENDS
;	COMDAT ??0?$tvec4@M@detail@glm@@QAE@ABU012@@Z
_TEXT	SEGMENT
_this$ = -8						; size = 4
_v$ = 8							; size = 4
??0?$tvec4@M@detail@glm@@QAE@ABU012@@Z PROC		; glm::detail::tvec4<float>::tvec4<float>, COMDAT
; _this$ = ecx

; 90   : 	{}

	push	ebp
	mov	ebp, esp
	sub	esp, 204				; 000000ccH
	push	ebx
	push	esi
	push	edi
	push	ecx
	lea	edi, DWORD PTR [ebp-204]
	mov	ecx, 51					; 00000033H
	mov	eax, -858993460				; ccccccccH
	rep stosd
	pop	ecx
	mov	DWORD PTR _this$[ebp], ecx
	mov	eax, DWORD PTR _this$[ebp]
	mov	ecx, DWORD PTR _v$[ebp]
	fld	DWORD PTR [ecx]
	fstp	DWORD PTR [eax]
	mov	eax, DWORD PTR _this$[ebp]
	mov	ecx, DWORD PTR _v$[ebp]
	fld	DWORD PTR [ecx+4]
	fstp	DWORD PTR [eax+4]
	mov	eax, DWORD PTR _this$[ebp]
	mov	ecx, DWORD PTR _v$[ebp]
	fld	DWORD PTR [ecx+8]
	fstp	DWORD PTR [eax+8]
	mov	eax, DWORD PTR _this$[ebp]
	mov	ecx, DWORD PTR _v$[ebp]
	fld	DWORD PTR [ecx+12]
	fstp	DWORD PTR [eax+12]
	mov	eax, DWORD PTR _this$[ebp]
	pop	edi
	pop	esi
	pop	ebx
	mov	esp, ebp
	pop	ebp
	ret	4
??0?$tvec4@M@detail@glm@@QAE@ABU012@@Z ENDP		; glm::detail::tvec4<float>::tvec4<float>
; Function compile flags: /Odtp /RTCsu /ZI
_TEXT	ENDS
;	COMDAT ??0?$tvec4@M@detail@glm@@QAE@XZ
_TEXT	SEGMENT
_this$ = -8						; size = 4
??0?$tvec4@M@detail@glm@@QAE@XZ PROC			; glm::detail::tvec4<float>::tvec4<float>, COMDAT
; _this$ = ecx

; 72   : 	{}

	push	ebp
	mov	ebp, esp
	sub	esp, 204				; 000000ccH
	push	ebx
	push	esi
	push	edi
	push	ecx
	lea	edi, DWORD PTR [ebp-204]
	mov	ecx, 51					; 00000033H
	mov	eax, -858993460				; ccccccccH
	rep stosd
	pop	ecx
	mov	DWORD PTR _this$[ebp], ecx
	mov	eax, DWORD PTR _this$[ebp]
	fldz
	fstp	DWORD PTR [eax]
	mov	eax, DWORD PTR _this$[ebp]
	fldz
	fstp	DWORD PTR [eax+4]
	mov	eax, DWORD PTR _this$[ebp]
	fldz
	fstp	DWORD PTR [eax+8]
	mov	eax, DWORD PTR _this$[ebp]
	fldz
	fstp	DWORD PTR [eax+12]
	mov	eax, DWORD PTR _this$[ebp]
	pop	edi
	pop	esi
	pop	ebx
	mov	esp, ebp
	pop	ebp
	ret	0
??0?$tvec4@M@detail@glm@@QAE@XZ ENDP			; glm::detail::tvec4<float>::tvec4<float>
; Function compile flags: /Odtp /RTCsu /ZI
_TEXT	ENDS
;	COMDAT ??4?$tvec4@M@detail@glm@@QAEAAU012@ABU012@@Z
_TEXT	SEGMENT
_this$ = -8						; size = 4
_v$ = 8							; size = 4
??4?$tvec4@M@detail@glm@@QAEAAU012@ABU012@@Z PROC	; glm::detail::tvec4<float>::operator=, COMDAT
; _this$ = ecx

; 375  : 	{

	push	ebp
	mov	ebp, esp
	sub	esp, 204				; 000000ccH
	push	ebx
	push	esi
	push	edi
	push	ecx
	lea	edi, DWORD PTR [ebp-204]
	mov	ecx, 51					; 00000033H
	mov	eax, -858993460				; ccccccccH
	rep stosd
	pop	ecx
	mov	DWORD PTR _this$[ebp], ecx

; 376  : 		this->x = v.x;

	mov	eax, DWORD PTR _this$[ebp]
	mov	ecx, DWORD PTR _v$[ebp]
	fld	DWORD PTR [ecx]
	fstp	DWORD PTR [eax]

; 377  : 		this->y = v.y;

	mov	eax, DWORD PTR _this$[ebp]
	mov	ecx, DWORD PTR _v$[ebp]
	fld	DWORD PTR [ecx+4]
	fstp	DWORD PTR [eax+4]

; 378  : 		this->z = v.z;

	mov	eax, DWORD PTR _this$[ebp]
	mov	ecx, DWORD PTR _v$[ebp]
	fld	DWORD PTR [ecx+8]
	fstp	DWORD PTR [eax+8]

; 379  : 		this->w = v.w;

	mov	eax, DWORD PTR _this$[ebp]
	mov	ecx, DWORD PTR _v$[ebp]
	fld	DWORD PTR [ecx+12]
	fstp	DWORD PTR [eax+12]

; 380  : 		return *this;

	mov	eax, DWORD PTR _this$[ebp]

; 381  : 	}

	pop	edi
	pop	esi
	pop	ebx
	mov	esp, ebp
	pop	ebp
	ret	4
??4?$tvec4@M@detail@glm@@QAEAAU012@ABU012@@Z ENDP	; glm::detail::tvec4<float>::operator=
; Function compile flags: /Odtp /RTCsu /ZI
; File c:\opengl\glm-0.9.3.1\glm\core\type_mat4x4.inl
_TEXT	ENDS
;	COMDAT ?length@?$tmat4x4@M@detail@glm@@QBEIXZ
_TEXT	SEGMENT
_this$ = -8						; size = 4
?length@?$tmat4x4@M@detail@glm@@QBEIXZ PROC		; glm::detail::tmat4x4<float>::length, COMDAT
; _this$ = ecx

; 34   :     {

	push	ebp
	mov	ebp, esp
	sub	esp, 204				; 000000ccH
	push	ebx
	push	esi
	push	edi
	push	ecx
	lea	edi, DWORD PTR [ebp-204]
	mov	ecx, 51					; 00000033H
	mov	eax, -858993460				; ccccccccH
	rep stosd
	pop	ecx
	mov	DWORD PTR _this$[ebp], ecx

; 35   :         return 4;

	mov	eax, 4

; 36   :     }

	pop	edi
	pop	esi
	pop	ebx
	mov	esp, ebp
	pop	ebp
	ret	0
?length@?$tmat4x4@M@detail@glm@@QBEIXZ ENDP		; glm::detail::tmat4x4<float>::length
; Function compile flags: /Odtp /RTCsu /ZI
_TEXT	ENDS
;	COMDAT ??0?$tmat4x4@M@detail@glm@@QAE@W4ctor@012@@Z
_TEXT	SEGMENT
_this$ = -8						; size = 4
___formal$ = 8						; size = 4
??0?$tmat4x4@M@detail@glm@@QAE@W4ctor@012@@Z PROC	; glm::detail::tmat4x4<float>::tmat4x4<float>, COMDAT
; _this$ = ecx

; 106  :     {}

	push	ebp
	mov	ebp, esp
	sub	esp, 204				; 000000ccH
	push	ebx
	push	esi
	push	edi
	push	ecx
	lea	edi, DWORD PTR [ebp-204]
	mov	ecx, 51					; 00000033H
	mov	eax, -858993460				; ccccccccH
	rep stosd
	pop	ecx
	mov	DWORD PTR _this$[ebp], ecx
	push	OFFSET ??0?$tvec4@M@detail@glm@@QAE@XZ	; glm::detail::tvec4<float>::tvec4<float>
	push	4
	push	16					; 00000010H
	mov	eax, DWORD PTR _this$[ebp]
	push	eax
	call	??_H@YGXPAXIHP6EPAX0@Z@Z
	mov	eax, DWORD PTR _this$[ebp]
	pop	edi
	pop	esi
	pop	ebx
	add	esp, 204				; 000000ccH
	cmp	ebp, esp
	call	__RTC_CheckEsp
	mov	esp, ebp
	pop	ebp
	ret	4
??0?$tmat4x4@M@detail@glm@@QAE@W4ctor@012@@Z ENDP	; glm::detail::tmat4x4<float>::tmat4x4<float>
; Function compile flags: /Odtp /RTCsu /ZI
_TEXT	ENDS
;	COMDAT ??A?$tmat4x4@M@detail@glm@@QBEABU?$tvec4@M@12@I@Z
_TEXT	SEGMENT
_this$ = -8						; size = 4
_i$ = 8							; size = 4
??A?$tmat4x4@M@detail@glm@@QBEABU?$tvec4@M@12@I@Z PROC	; glm::detail::tmat4x4<float>::operator[], COMDAT
; _this$ = ecx

; 70   : 	{

	push	ebp
	mov	ebp, esp
	sub	esp, 204				; 000000ccH
	push	ebx
	push	esi
	push	edi
	push	ecx
	lea	edi, DWORD PTR [ebp-204]
	mov	ecx, 51					; 00000033H
	mov	eax, -858993460				; ccccccccH
	rep stosd
	pop	ecx
	mov	DWORD PTR _this$[ebp], ecx

; 71   : 		assert(i < this->length());

	mov	ecx, DWORD PTR _this$[ebp]
	call	?length@?$tmat4x4@M@detail@glm@@QBEIXZ	; glm::detail::tmat4x4<float>::length
	cmp	DWORD PTR _i$[ebp], eax
	jb	SHORT $LN3@operator@7
	mov	esi, esp
	push	71					; 00000047H
	push	OFFSET ??_C@_1FO@LCBJDNCK@?$AAc?$AA?3?$AA?2?$AAo?$AAp?$AAe?$AAn?$AAg?$AAl?$AA?2?$AAg?$AAl?$AAm?$AA?9?$AA0?$AA?4?$AA9?$AA?4?$AA3?$AA?4?$AA1?$AA?2?$AAg?$AAl?$AAm?$AA?2?$AAc?$AAo?$AAr?$AAe?$AA?2?$AAt@
	push	OFFSET ??_C@_1CG@KOFHLCJL@?$AAi?$AA?5?$AA?$DM?$AA?5?$AAt?$AAh?$AAi?$AAs?$AA?9?$AA?$DO?$AAl?$AAe?$AAn?$AAg?$AAt?$AAh?$AA?$CI?$AA?$CJ?$AA?$AA@
	call	DWORD PTR __imp___wassert
	add	esp, 12					; 0000000cH
	cmp	esi, esp
	call	__RTC_CheckEsp
$LN3@operator@7:

; 72   : 		return this->value[i];

	mov	eax, DWORD PTR _i$[ebp]
	shl	eax, 4
	add	eax, DWORD PTR _this$[ebp]

; 73   : 	}

	pop	edi
	pop	esi
	pop	ebx
	add	esp, 204				; 000000ccH
	cmp	ebp, esp
	call	__RTC_CheckEsp
	mov	esp, ebp
	pop	ebp
	ret	4
??A?$tmat4x4@M@detail@glm@@QBEABU?$tvec4@M@12@I@Z ENDP	; glm::detail::tmat4x4<float>::operator[]
_TEXT	ENDS
PUBLIC	??_C@_1FO@DLHICMNA@?$AAc?$AA?3?$AA?2?$AAo?$AAp?$AAe?$AAn?$AAg?$AAl?$AA?2?$AAg?$AAl?$AAm?$AA?9?$AA0?$AA?4?$AA9?$AA?4?$AA3?$AA?4?$AA1?$AA?2?$AAg?$AAl?$AAm?$AA?2?$AAc?$AAo?$AAr?$AAe?$AA?2?$AAt@ ; `string'
PUBLIC	?length@?$tmat3x3@M@detail@glm@@QBEIXZ		; glm::detail::tmat3x3<float>::length
;	COMDAT ??_C@_1FO@DLHICMNA@?$AAc?$AA?3?$AA?2?$AAo?$AAp?$AAe?$AAn?$AAg?$AAl?$AA?2?$AAg?$AAl?$AAm?$AA?9?$AA0?$AA?4?$AA9?$AA?4?$AA3?$AA?4?$AA1?$AA?2?$AAg?$AAl?$AAm?$AA?2?$AAc?$AAo?$AAr?$AAe?$AA?2?$AAt@
; File c:\opengl\glm-0.9.3.1\glm\core\type_mat3x3.inl
CONST	SEGMENT
??_C@_1FO@DLHICMNA@?$AAc?$AA?3?$AA?2?$AAo?$AAp?$AAe?$AAn?$AAg?$AAl?$AA?2?$AAg?$AAl?$AAm?$AA?9?$AA0?$AA?4?$AA9?$AA?4?$AA3?$AA?4?$AA1?$AA?2?$AAg?$AAl?$AAm?$AA?2?$AAc?$AAo?$AAr?$AAe?$AA?2?$AAt@ DB 'c'
	DB	00H, ':', 00H, '\', 00H, 'o', 00H, 'p', 00H, 'e', 00H, 'n', 00H
	DB	'g', 00H, 'l', 00H, '\', 00H, 'g', 00H, 'l', 00H, 'm', 00H, '-'
	DB	00H, '0', 00H, '.', 00H, '9', 00H, '.', 00H, '3', 00H, '.', 00H
	DB	'1', 00H, '\', 00H, 'g', 00H, 'l', 00H, 'm', 00H, '\', 00H, 'c'
	DB	00H, 'o', 00H, 'r', 00H, 'e', 00H, '\', 00H, 't', 00H, 'y', 00H
	DB	'p', 00H, 'e', 00H, '_', 00H, 'm', 00H, 'a', 00H, 't', 00H, '3'
	DB	00H, 'x', 00H, '3', 00H, '.', 00H, 'i', 00H, 'n', 00H, 'l', 00H
	DB	00H, 00H					; `string'
; Function compile flags: /Odtp /RTCsu /ZI
CONST	ENDS
;	COMDAT ??A?$tmat3x3@M@detail@glm@@QBEABU?$tvec3@M@12@I@Z
_TEXT	SEGMENT
_this$ = -8						; size = 4
_i$ = 8							; size = 4
??A?$tmat3x3@M@detail@glm@@QBEABU?$tvec3@M@12@I@Z PROC	; glm::detail::tmat3x3<float>::operator[], COMDAT
; _this$ = ecx

; 70   : 	{

	push	ebp
	mov	ebp, esp
	sub	esp, 204				; 000000ccH
	push	ebx
	push	esi
	push	edi
	push	ecx
	lea	edi, DWORD PTR [ebp-204]
	mov	ecx, 51					; 00000033H
	mov	eax, -858993460				; ccccccccH
	rep stosd
	pop	ecx
	mov	DWORD PTR _this$[ebp], ecx

; 71   : 		assert(i < this->length());

	mov	ecx, DWORD PTR _this$[ebp]
	call	?length@?$tmat3x3@M@detail@glm@@QBEIXZ	; glm::detail::tmat3x3<float>::length
	cmp	DWORD PTR _i$[ebp], eax
	jb	SHORT $LN3@operator@8
	mov	esi, esp
	push	71					; 00000047H
	push	OFFSET ??_C@_1FO@DLHICMNA@?$AAc?$AA?3?$AA?2?$AAo?$AAp?$AAe?$AAn?$AAg?$AAl?$AA?2?$AAg?$AAl?$AAm?$AA?9?$AA0?$AA?4?$AA9?$AA?4?$AA3?$AA?4?$AA1?$AA?2?$AAg?$AAl?$AAm?$AA?2?$AAc?$AAo?$AAr?$AAe?$AA?2?$AAt@
	push	OFFSET ??_C@_1CG@KOFHLCJL@?$AAi?$AA?5?$AA?$DM?$AA?5?$AAt?$AAh?$AAi?$AAs?$AA?9?$AA?$DO?$AAl?$AAe?$AAn?$AAg?$AAt?$AAh?$AA?$CI?$AA?$CJ?$AA?$AA@
	call	DWORD PTR __imp___wassert
	add	esp, 12					; 0000000cH
	cmp	esi, esp
	call	__RTC_CheckEsp
$LN3@operator@8:

; 72   : 		return this->value[i];

	mov	eax, DWORD PTR _i$[ebp]
	imul	eax, 12					; 0000000cH
	add	eax, DWORD PTR _this$[ebp]

; 73   : 	}

	pop	edi
	pop	esi
	pop	ebx
	add	esp, 204				; 000000ccH
	cmp	ebp, esp
	call	__RTC_CheckEsp
	mov	esp, ebp
	pop	ebp
	ret	4
??A?$tmat3x3@M@detail@glm@@QBEABU?$tvec3@M@12@I@Z ENDP	; glm::detail::tmat3x3<float>::operator[]
_TEXT	ENDS
PUBLIC	__real@4066800000000000
PUBLIC	__real@40490fdb
;	COMDAT __real@4066800000000000
; File c:\opengl\glm-0.9.3.1\glm\core\func_trigonometric.inl
CONST	SEGMENT
__real@4066800000000000 DQ 04066800000000000r	; 180
CONST	ENDS
;	COMDAT __real@40490fdb
CONST	SEGMENT
__real@40490fdb DD 040490fdbr			; 3.14159
; Function compile flags: /Odtp /RTCsu /ZI
CONST	ENDS
;	COMDAT ??$radians@M@glm@@YAMABM@Z
_TEXT	SEGMENT
tv73 = -208						; size = 4
_pi$ = -8						; size = 4
_degrees$ = 8						; size = 4
??$radians@M@glm@@YAMABM@Z PROC				; glm::radians<float>, COMDAT

; 39   : 	{

	push	ebp
	mov	ebp, esp
	sub	esp, 208				; 000000d0H
	push	ebx
	push	esi
	push	edi
	lea	edi, DWORD PTR [ebp-208]
	mov	ecx, 52					; 00000034H
	mov	eax, -858993460				; ccccccccH
	rep stosd

; 40   : 		GLM_STATIC_ASSERT(detail::type<genType>::is_float, "'radians' only accept floating-point input");
; 41   : 
; 42   : 		genType const pi = genType(3.1415926535897932384626433832795);

	fld	DWORD PTR __real@40490fdb
	fstp	DWORD PTR _pi$[ebp]

; 43   : 		return degrees * (pi / genType(180));

	fld	DWORD PTR _pi$[ebp]
	fdiv	QWORD PTR __real@4066800000000000
	mov	eax, DWORD PTR _degrees$[ebp]
	fmul	DWORD PTR [eax]
	fstp	DWORD PTR tv73[ebp]
	fld	DWORD PTR tv73[ebp]

; 44   : 	}

	pop	edi
	pop	esi
	pop	ebx
	mov	esp, ebp
	pop	ebp
	ret	0
??$radians@M@glm@@YAMABM@Z ENDP				; glm::radians<float>
_TEXT	ENDS
PUBLIC	?cos@@YAMM@Z					; cos
; Function compile flags: /Odtp /RTCsu /ZI
;	COMDAT ??$cos@M@glm@@YAMABM@Z
_TEXT	SEGMENT
_angle$ = 8						; size = 4
??$cos@M@glm@@YAMABM@Z PROC				; glm::cos<float>, COMDAT

; 80   : 	{

	push	ebp
	mov	ebp, esp
	sub	esp, 192				; 000000c0H
	push	ebx
	push	esi
	push	edi
	lea	edi, DWORD PTR [ebp-192]
	mov	ecx, 48					; 00000030H
	mov	eax, -858993460				; ccccccccH
	rep stosd

; 81   : 		GLM_STATIC_ASSERT(detail::type<genType>::is_float, "'cos' only accept floating-point input");
; 82   : 
; 83   : 		return ::std::cos(angle);

	mov	eax, DWORD PTR _angle$[ebp]
	push	ecx
	fld	DWORD PTR [eax]
	fstp	DWORD PTR [esp]
	call	?cos@@YAMM@Z				; cos
	add	esp, 4

; 84   : 	}

	pop	edi
	pop	esi
	pop	ebx
	add	esp, 192				; 000000c0H
	cmp	ebp, esp
	call	__RTC_CheckEsp
	mov	esp, ebp
	pop	ebp
	ret	0
??$cos@M@glm@@YAMABM@Z ENDP				; glm::cos<float>
_TEXT	ENDS
PUBLIC	_cosf
; Function compile flags: /Odtp /RTCsu /ZI
; File c:\program files (x86)\microsoft visual studio 10.0\vc\include\math.h
;	COMDAT ?cos@@YAMM@Z
_TEXT	SEGMENT
__X$ = 8						; size = 4
?cos@@YAMM@Z PROC					; cos, COMDAT

; 512  :         {return (cosf(_X)); }

	push	ebp
	mov	ebp, esp
	sub	esp, 192				; 000000c0H
	push	ebx
	push	esi
	push	edi
	lea	edi, DWORD PTR [ebp-192]
	mov	ecx, 48					; 00000030H
	mov	eax, -858993460				; ccccccccH
	rep stosd
	push	ecx
	fld	DWORD PTR __X$[ebp]
	fstp	DWORD PTR [esp]
	call	_cosf
	add	esp, 4
	pop	edi
	pop	esi
	pop	ebx
	add	esp, 192				; 000000c0H
	cmp	ebp, esp
	call	__RTC_CheckEsp
	mov	esp, ebp
	pop	ebp
	ret	0
?cos@@YAMM@Z ENDP					; cos
_TEXT	ENDS
EXTRN	_cos:PROC
; Function compile flags: /Odtp /RTCsu /ZI
;	COMDAT _cosf
_TEXT	SEGMENT
tv73 = -196						; size = 4
__X$ = 8						; size = 4
_cosf	PROC						; COMDAT

; 410  :         {return ((float)cos((double)_X)); }

	push	ebp
	mov	ebp, esp
	sub	esp, 196				; 000000c4H
	push	ebx
	push	esi
	push	edi
	lea	edi, DWORD PTR [ebp-196]
	mov	ecx, 49					; 00000031H
	mov	eax, -858993460				; ccccccccH
	rep stosd
	fld	DWORD PTR __X$[ebp]
	sub	esp, 8
	fstp	QWORD PTR [esp]
	call	_cos
	add	esp, 8
	fstp	DWORD PTR tv73[ebp]
	fld	DWORD PTR tv73[ebp]
	pop	edi
	pop	esi
	pop	ebx
	add	esp, 196				; 000000c4H
	cmp	ebp, esp
	call	__RTC_CheckEsp
	mov	esp, ebp
	pop	ebp
	ret	0
_cosf	ENDP
_TEXT	ENDS
PUBLIC	?sin@@YAMM@Z					; sin
; Function compile flags: /Odtp /RTCsu /ZI
; File c:\opengl\glm-0.9.3.1\glm\core\func_trigonometric.inl
;	COMDAT ??$sin@M@glm@@YAMABM@Z
_TEXT	SEGMENT
_angle$ = 8						; size = 4
??$sin@M@glm@@YAMABM@Z PROC				; glm::sin<float>, COMDAT

; 69   : 	{

	push	ebp
	mov	ebp, esp
	sub	esp, 192				; 000000c0H
	push	ebx
	push	esi
	push	edi
	lea	edi, DWORD PTR [ebp-192]
	mov	ecx, 48					; 00000030H
	mov	eax, -858993460				; ccccccccH
	rep stosd

; 70   : 		GLM_STATIC_ASSERT(detail::type<genType>::is_float, "'sin' only accept floating-point input");
; 71   : 
; 72   : 		return ::std::sin(angle);

	mov	eax, DWORD PTR _angle$[ebp]
	push	ecx
	fld	DWORD PTR [eax]
	fstp	DWORD PTR [esp]
	call	?sin@@YAMM@Z				; sin
	add	esp, 4

; 73   : 	}

	pop	edi
	pop	esi
	pop	ebx
	add	esp, 192				; 000000c0H
	cmp	ebp, esp
	call	__RTC_CheckEsp
	mov	esp, ebp
	pop	ebp
	ret	0
??$sin@M@glm@@YAMABM@Z ENDP				; glm::sin<float>
_TEXT	ENDS
PUBLIC	_sinf
; Function compile flags: /Odtp /RTCsu /ZI
; File c:\program files (x86)\microsoft visual studio 10.0\vc\include\math.h
;	COMDAT ?sin@@YAMM@Z
_TEXT	SEGMENT
__X$ = 8						; size = 4
?sin@@YAMM@Z PROC					; sin, COMDAT

; 538  :         {return (sinf(_X)); }

	push	ebp
	mov	ebp, esp
	sub	esp, 192				; 000000c0H
	push	ebx
	push	esi
	push	edi
	lea	edi, DWORD PTR [ebp-192]
	mov	ecx, 48					; 00000030H
	mov	eax, -858993460				; ccccccccH
	rep stosd
	push	ecx
	fld	DWORD PTR __X$[ebp]
	fstp	DWORD PTR [esp]
	call	_sinf
	add	esp, 4
	pop	edi
	pop	esi
	pop	ebx
	add	esp, 192				; 000000c0H
	cmp	ebp, esp
	call	__RTC_CheckEsp
	mov	esp, ebp
	pop	ebp
	ret	0
?sin@@YAMM@Z ENDP					; sin
_TEXT	ENDS
EXTRN	_sin:PROC
; Function compile flags: /Odtp /RTCsu /ZI
;	COMDAT _sinf
_TEXT	SEGMENT
tv73 = -196						; size = 4
__X$ = 8						; size = 4
_sinf	PROC						; COMDAT

; 430  :         {return ((float)sin((double)_X)); }

	push	ebp
	mov	ebp, esp
	sub	esp, 196				; 000000c4H
	push	ebx
	push	esi
	push	edi
	lea	edi, DWORD PTR [ebp-196]
	mov	ecx, 49					; 00000031H
	mov	eax, -858993460				; ccccccccH
	rep stosd
	fld	DWORD PTR __X$[ebp]
	sub	esp, 8
	fstp	QWORD PTR [esp]
	call	_sin
	add	esp, 8
	fstp	DWORD PTR tv73[ebp]
	fld	DWORD PTR tv73[ebp]
	pop	edi
	pop	esi
	pop	ebx
	add	esp, 196				; 000000c4H
	cmp	ebp, esp
	call	__RTC_CheckEsp
	mov	esp, ebp
	pop	ebp
	ret	0
_sinf	ENDP
; Function compile flags: /Odtp /RTCsu /ZI
; File c:\opengl\glm-0.9.3.1\glm\core\type_vec3.inl
_TEXT	ENDS
;	COMDAT ??$?DM@detail@glm@@YA?AU?$tvec3@M@01@ABMABU201@@Z
_TEXT	SEGMENT
$T71041 = -224						; size = 4
$T71042 = -212						; size = 4
$T71043 = -200						; size = 4
___$ReturnUdt$ = 8					; size = 4
_s$ = 12						; size = 4
_v$ = 16						; size = 4
??$?DM@detail@glm@@YA?AU?$tvec3@M@01@ABMABU201@@Z PROC	; glm::detail::operator*<float>, COMDAT

; 743  : 	{

	push	ebp
	mov	ebp, esp
	sub	esp, 228				; 000000e4H
	push	ebx
	push	esi
	push	edi
	lea	edi, DWORD PTR [ebp-228]
	mov	ecx, 57					; 00000039H
	mov	eax, -858993460				; ccccccccH
	rep stosd

; 744  : 		return tvec3<T>(
; 745  : 			T(s) * v.x,
; 746  : 			T(s) * v.y,
; 747  : 			T(s) * v.z);

	mov	eax, DWORD PTR _s$[ebp]
	fld	DWORD PTR [eax]
	mov	ecx, DWORD PTR _v$[ebp]
	fmul	DWORD PTR [ecx+8]
	fstp	DWORD PTR $T71041[ebp]
	mov	edx, DWORD PTR _s$[ebp]
	fld	DWORD PTR [edx]
	mov	eax, DWORD PTR _v$[ebp]
	fmul	DWORD PTR [eax+4]
	fstp	DWORD PTR $T71042[ebp]
	mov	ecx, DWORD PTR _s$[ebp]
	fld	DWORD PTR [ecx]
	mov	edx, DWORD PTR _v$[ebp]
	fmul	DWORD PTR [edx]
	fstp	DWORD PTR $T71043[ebp]
	lea	eax, DWORD PTR $T71041[ebp]
	push	eax
	lea	ecx, DWORD PTR $T71042[ebp]
	push	ecx
	lea	edx, DWORD PTR $T71043[ebp]
	push	edx
	mov	ecx, DWORD PTR ___$ReturnUdt$[ebp]
	call	??0?$tvec3@M@detail@glm@@QAE@ABM00@Z	; glm::detail::tvec3<float>::tvec3<float>
	mov	eax, DWORD PTR ___$ReturnUdt$[ebp]

; 748  : 	}

	pop	edi
	pop	esi
	pop	ebx
	add	esp, 228				; 000000e4H
	cmp	ebp, esp
	call	__RTC_CheckEsp
	mov	esp, ebp
	pop	ebp
	ret	0
??$?DM@detail@glm@@YA?AU?$tvec3@M@01@ABMABU201@@Z ENDP	; glm::detail::operator*<float>
; Function compile flags: /Odtp /RTCsu /ZI
; File c:\opengl\glm-0.9.3.1\glm\core\type_vec4.inl
_TEXT	ENDS
;	COMDAT ??$?HM@detail@glm@@YA?AU?$tvec4@M@01@ABU201@0@Z
_TEXT	SEGMENT
$T71046 = -236						; size = 4
$T71047 = -224						; size = 4
$T71048 = -212						; size = 4
$T71049 = -200						; size = 4
___$ReturnUdt$ = 8					; size = 4
_v1$ = 12						; size = 4
_v2$ = 16						; size = 4
??$?HM@detail@glm@@YA?AU?$tvec4@M@01@ABU201@0@Z PROC	; glm::detail::operator+<float>, COMDAT

; 834  : 	{

	push	ebp
	mov	ebp, esp
	sub	esp, 240				; 000000f0H
	push	ebx
	push	esi
	push	edi
	lea	edi, DWORD PTR [ebp-240]
	mov	ecx, 60					; 0000003cH
	mov	eax, -858993460				; ccccccccH
	rep stosd

; 835  : 		return tvec4<T>(
; 836  : 			v1.x + v2.x,
; 837  : 			v1.y + v2.y,
; 838  : 			v1.z + v2.z,
; 839  : 			v1.w + v2.w);

	mov	eax, DWORD PTR _v1$[ebp]
	fld	DWORD PTR [eax+12]
	mov	ecx, DWORD PTR _v2$[ebp]
	fadd	DWORD PTR [ecx+12]
	fstp	DWORD PTR $T71046[ebp]
	mov	edx, DWORD PTR _v1$[ebp]
	fld	DWORD PTR [edx+8]
	mov	eax, DWORD PTR _v2$[ebp]
	fadd	DWORD PTR [eax+8]
	fstp	DWORD PTR $T71047[ebp]
	mov	ecx, DWORD PTR _v1$[ebp]
	fld	DWORD PTR [ecx+4]
	mov	edx, DWORD PTR _v2$[ebp]
	fadd	DWORD PTR [edx+4]
	fstp	DWORD PTR $T71048[ebp]
	mov	eax, DWORD PTR _v1$[ebp]
	fld	DWORD PTR [eax]
	mov	ecx, DWORD PTR _v2$[ebp]
	fadd	DWORD PTR [ecx]
	fstp	DWORD PTR $T71049[ebp]
	lea	edx, DWORD PTR $T71046[ebp]
	push	edx
	lea	eax, DWORD PTR $T71047[ebp]
	push	eax
	lea	ecx, DWORD PTR $T71048[ebp]
	push	ecx
	lea	edx, DWORD PTR $T71049[ebp]
	push	edx
	mov	ecx, DWORD PTR ___$ReturnUdt$[ebp]
	call	??0?$tvec4@M@detail@glm@@QAE@ABM000@Z	; glm::detail::tvec4<float>::tvec4<float>
	mov	eax, DWORD PTR ___$ReturnUdt$[ebp]

; 840  : 	}

	pop	edi
	pop	esi
	pop	ebx
	add	esp, 240				; 000000f0H
	cmp	ebp, esp
	call	__RTC_CheckEsp
	mov	esp, ebp
	pop	ebp
	ret	0
??$?HM@detail@glm@@YA?AU?$tvec4@M@01@ABU201@0@Z ENDP	; glm::detail::operator+<float>
_TEXT	ENDS
PUBLIC	?sqrt@@YAMM@Z					; sqrt
; Function compile flags: /Odtp /RTCsu /ZI
; File c:\opengl\glm-0.9.3.1\glm\core\func_exponential.inl
;	COMDAT ??$inversesqrt@M@glm@@YAMABM@Z
_TEXT	SEGMENT
tv76 = -196						; size = 4
_x$ = 8							; size = 4
??$inversesqrt@M@glm@@YAMABM@Z PROC			; glm::inversesqrt<float>, COMDAT

; 149  :     {

	push	ebp
	mov	ebp, esp
	sub	esp, 196				; 000000c4H
	push	ebx
	push	esi
	push	edi
	lea	edi, DWORD PTR [ebp-196]
	mov	ecx, 49					; 00000031H
	mov	eax, -858993460				; ccccccccH
	rep stosd

; 150  : 		GLM_STATIC_ASSERT(detail::type<genType>::is_float, "'inversesqrt' only accept floating-point input");
; 151  : 
; 152  :         return genType(1) / ::std::sqrt(x);

	mov	eax, DWORD PTR _x$[ebp]
	push	ecx
	fld	DWORD PTR [eax]
	fstp	DWORD PTR [esp]
	call	?sqrt@@YAMM@Z				; sqrt
	add	esp, 4
	fld1
	fdivrp	ST(1), ST(0)
	fstp	DWORD PTR tv76[ebp]
	fld	DWORD PTR tv76[ebp]

; 153  :     }

	pop	edi
	pop	esi
	pop	ebx
	add	esp, 196				; 000000c4H
	cmp	ebp, esp
	call	__RTC_CheckEsp
	mov	esp, ebp
	pop	ebp
	ret	0
??$inversesqrt@M@glm@@YAMABM@Z ENDP			; glm::inversesqrt<float>
_TEXT	ENDS
PUBLIC	_sqrtf
; Function compile flags: /Odtp /RTCsu /ZI
; File c:\program files (x86)\microsoft visual studio 10.0\vc\include\math.h
;	COMDAT ?sqrt@@YAMM@Z
_TEXT	SEGMENT
__X$ = 8						; size = 4
?sqrt@@YAMM@Z PROC					; sqrt, COMDAT

; 542  :         {return (sqrtf(_X)); }

	push	ebp
	mov	ebp, esp
	sub	esp, 192				; 000000c0H
	push	ebx
	push	esi
	push	edi
	lea	edi, DWORD PTR [ebp-192]
	mov	ecx, 48					; 00000030H
	mov	eax, -858993460				; ccccccccH
	rep stosd
	push	ecx
	fld	DWORD PTR __X$[ebp]
	fstp	DWORD PTR [esp]
	call	_sqrtf
	add	esp, 4
	pop	edi
	pop	esi
	pop	ebx
	add	esp, 192				; 000000c0H
	cmp	ebp, esp
	call	__RTC_CheckEsp
	mov	esp, ebp
	pop	ebp
	ret	0
?sqrt@@YAMM@Z ENDP					; sqrt
_TEXT	ENDS
EXTRN	_sqrt:PROC
; Function compile flags: /Odtp /RTCsu /ZI
;	COMDAT _sqrtf
_TEXT	SEGMENT
tv73 = -196						; size = 4
__X$ = 8						; size = 4
_sqrtf	PROC						; COMDAT

; 434  :         {return ((float)sqrt((double)_X)); }

	push	ebp
	mov	ebp, esp
	sub	esp, 196				; 000000c4H
	push	ebx
	push	esi
	push	edi
	lea	edi, DWORD PTR [ebp-196]
	mov	ecx, 49					; 00000031H
	mov	eax, -858993460				; ccccccccH
	rep stosd
	fld	DWORD PTR __X$[ebp]
	sub	esp, 8
	fstp	QWORD PTR [esp]
	call	_sqrt
	add	esp, 8
	fstp	DWORD PTR tv73[ebp]
	fld	DWORD PTR tv73[ebp]
	pop	edi
	pop	esi
	pop	ebx
	add	esp, 196				; 000000c4H
	cmp	ebp, esp
	call	__RTC_CheckEsp
	mov	esp, ebp
	pop	ebp
	ret	0
_sqrtf	ENDP
; Function compile flags: /Odtp /RTCsu /ZI
; File c:\opengl\glm-0.9.3.1\glm\core\func_geometric.inl
_TEXT	ENDS
;	COMDAT ??$cross@M@glm@@YA?AU?$tvec3@M@detail@0@ABU120@0@Z
_TEXT	SEGMENT
$T71058 = -224						; size = 4
$T71059 = -212						; size = 4
$T71060 = -200						; size = 4
___$ReturnUdt$ = 8					; size = 4
_x$ = 12						; size = 4
_y$ = 16						; size = 4
??$cross@M@glm@@YA?AU?$tvec3@M@detail@0@ABU120@0@Z PROC	; glm::cross<float>, COMDAT

; 204  :     {

	push	ebp
	mov	ebp, esp
	sub	esp, 228				; 000000e4H
	push	ebx
	push	esi
	push	edi
	lea	edi, DWORD PTR [ebp-228]
	mov	ecx, 57					; 00000039H
	mov	eax, -858993460				; ccccccccH
	rep stosd

; 205  : 		GLM_STATIC_ASSERT(detail::type<T>::is_float, "'cross' only accept floating-point inputs");
; 206  : 
; 207  :         return detail::tvec3<T>(
; 208  :             x.y * y.z - y.y * x.z,
; 209  :             x.z * y.x - y.z * x.x,
; 210  :             x.x * y.y - y.x * x.y);

	mov	eax, DWORD PTR _x$[ebp]
	fld	DWORD PTR [eax]
	mov	ecx, DWORD PTR _y$[ebp]
	fmul	DWORD PTR [ecx+4]
	mov	edx, DWORD PTR _y$[ebp]
	fld	DWORD PTR [edx]
	mov	eax, DWORD PTR _x$[ebp]
	fmul	DWORD PTR [eax+4]
	fsubp	ST(1), ST(0)
	fstp	DWORD PTR $T71058[ebp]
	mov	ecx, DWORD PTR _x$[ebp]
	fld	DWORD PTR [ecx+8]
	mov	edx, DWORD PTR _y$[ebp]
	fmul	DWORD PTR [edx]
	mov	eax, DWORD PTR _y$[ebp]
	fld	DWORD PTR [eax+8]
	mov	ecx, DWORD PTR _x$[ebp]
	fmul	DWORD PTR [ecx]
	fsubp	ST(1), ST(0)
	fstp	DWORD PTR $T71059[ebp]
	mov	edx, DWORD PTR _x$[ebp]
	fld	DWORD PTR [edx+4]
	mov	eax, DWORD PTR _y$[ebp]
	fmul	DWORD PTR [eax+8]
	mov	ecx, DWORD PTR _y$[ebp]
	fld	DWORD PTR [ecx+4]
	mov	edx, DWORD PTR _x$[ebp]
	fmul	DWORD PTR [edx+8]
	fsubp	ST(1), ST(0)
	fstp	DWORD PTR $T71060[ebp]
	lea	eax, DWORD PTR $T71058[ebp]
	push	eax
	lea	ecx, DWORD PTR $T71059[ebp]
	push	ecx
	lea	edx, DWORD PTR $T71060[ebp]
	push	edx
	mov	ecx, DWORD PTR ___$ReturnUdt$[ebp]
	call	??0?$tvec3@M@detail@glm@@QAE@ABM00@Z	; glm::detail::tvec3<float>::tvec3<float>
	mov	eax, DWORD PTR ___$ReturnUdt$[ebp]

; 211  :     }

	pop	edi
	pop	esi
	pop	ebx
	add	esp, 228				; 000000e4H
	cmp	ebp, esp
	call	__RTC_CheckEsp
	mov	esp, ebp
	pop	ebp
	ret	0
??$cross@M@glm@@YA?AU?$tvec3@M@detail@0@ABU120@0@Z ENDP	; glm::cross<float>
; Function compile flags: /Odtp /RTCsu /ZI
; File c:\opengl\glm-0.9.3.1\glm\core\type_mat4x4.inl
_TEXT	ENDS
;	COMDAT ??$?0H@?$tmat4x4@M@detail@glm@@QAE@ABH@Z
_TEXT	SEGMENT
$T71063 = -356						; size = 16
$T71064 = -332						; size = 4
$T71065 = -320						; size = 16
$T71066 = -296						; size = 4
$T71067 = -284						; size = 16
$T71068 = -260						; size = 4
$T71069 = -248						; size = 16
$T71070 = -224						; size = 4
_Zero$ = -20						; size = 4
_this$ = -8						; size = 4
_s$ = 8							; size = 4
??$?0H@?$tmat4x4@M@detail@glm@@QAE@ABH@Z PROC		; glm::detail::tmat4x4<float>::tmat4x4<float><int>, COMDAT
; _this$ = ecx

; 172  : 	{

	push	ebp
	mov	ebp, esp
	sub	esp, 360				; 00000168H
	push	ebx
	push	esi
	push	edi
	push	ecx
	lea	edi, DWORD PTR [ebp-360]
	mov	ecx, 90					; 0000005aH
	mov	eax, -858993460				; ccccccccH
	rep stosd
	pop	ecx
	mov	DWORD PTR _this$[ebp], ecx
	push	OFFSET ??0?$tvec4@M@detail@glm@@QAE@XZ	; glm::detail::tvec4<float>::tvec4<float>
	push	4
	push	16					; 00000010H
	mov	eax, DWORD PTR _this$[ebp]
	push	eax
	call	??_H@YGXPAXIHP6EPAX0@Z@Z

; 173  : 		GLM_STATIC_ASSERT(detail::type<U>::is_float || std::numeric_limits<U>::is_integer, "*mat4x4 constructor only takes float and integer types");
; 174  : 
; 175  : 		value_type const Zero(0);

	fldz
	fstp	DWORD PTR _Zero$[ebp]

; 176  :         this->value[0] = tvec4<T>(value_type(s), Zero, Zero, Zero);

	mov	eax, DWORD PTR _s$[ebp]
	fild	DWORD PTR [eax]
	fstp	DWORD PTR $T71064[ebp]
	lea	ecx, DWORD PTR _Zero$[ebp]
	push	ecx
	lea	edx, DWORD PTR _Zero$[ebp]
	push	edx
	lea	eax, DWORD PTR _Zero$[ebp]
	push	eax
	lea	ecx, DWORD PTR $T71064[ebp]
	push	ecx
	lea	ecx, DWORD PTR $T71063[ebp]
	call	??0?$tvec4@M@detail@glm@@QAE@ABM000@Z	; glm::detail::tvec4<float>::tvec4<float>
	push	eax
	mov	ecx, DWORD PTR _this$[ebp]
	call	??4?$tvec4@M@detail@glm@@QAEAAU012@ABU012@@Z ; glm::detail::tvec4<float>::operator=

; 177  :         this->value[1] = tvec4<T>(Zero, value_type(s), Zero, Zero);

	mov	eax, DWORD PTR _s$[ebp]
	fild	DWORD PTR [eax]
	fstp	DWORD PTR $T71066[ebp]
	lea	ecx, DWORD PTR _Zero$[ebp]
	push	ecx
	lea	edx, DWORD PTR _Zero$[ebp]
	push	edx
	lea	eax, DWORD PTR $T71066[ebp]
	push	eax
	lea	ecx, DWORD PTR _Zero$[ebp]
	push	ecx
	lea	ecx, DWORD PTR $T71065[ebp]
	call	??0?$tvec4@M@detail@glm@@QAE@ABM000@Z	; glm::detail::tvec4<float>::tvec4<float>
	push	eax
	mov	ecx, DWORD PTR _this$[ebp]
	add	ecx, 16					; 00000010H
	call	??4?$tvec4@M@detail@glm@@QAEAAU012@ABU012@@Z ; glm::detail::tvec4<float>::operator=

; 178  :         this->value[2] = tvec4<T>(Zero, Zero, value_type(s), Zero);

	mov	eax, DWORD PTR _s$[ebp]
	fild	DWORD PTR [eax]
	fstp	DWORD PTR $T71068[ebp]
	lea	ecx, DWORD PTR _Zero$[ebp]
	push	ecx
	lea	edx, DWORD PTR $T71068[ebp]
	push	edx
	lea	eax, DWORD PTR _Zero$[ebp]
	push	eax
	lea	ecx, DWORD PTR _Zero$[ebp]
	push	ecx
	lea	ecx, DWORD PTR $T71067[ebp]
	call	??0?$tvec4@M@detail@glm@@QAE@ABM000@Z	; glm::detail::tvec4<float>::tvec4<float>
	push	eax
	mov	ecx, DWORD PTR _this$[ebp]
	add	ecx, 32					; 00000020H
	call	??4?$tvec4@M@detail@glm@@QAEAAU012@ABU012@@Z ; glm::detail::tvec4<float>::operator=

; 179  :         this->value[3] = tvec4<T>(Zero, Zero, Zero, value_type(s));

	mov	eax, DWORD PTR _s$[ebp]
	fild	DWORD PTR [eax]
	fstp	DWORD PTR $T71070[ebp]
	lea	ecx, DWORD PTR $T71070[ebp]
	push	ecx
	lea	edx, DWORD PTR _Zero$[ebp]
	push	edx
	lea	eax, DWORD PTR _Zero$[ebp]
	push	eax
	lea	ecx, DWORD PTR _Zero$[ebp]
	push	ecx
	lea	ecx, DWORD PTR $T71069[ebp]
	call	??0?$tvec4@M@detail@glm@@QAE@ABM000@Z	; glm::detail::tvec4<float>::tvec4<float>
	push	eax
	mov	ecx, DWORD PTR _this$[ebp]
	add	ecx, 48					; 00000030H
	call	??4?$tvec4@M@detail@glm@@QAEAAU012@ABU012@@Z ; glm::detail::tvec4<float>::operator=

; 180  : 	}

	mov	eax, DWORD PTR _this$[ebp]
	push	edx
	mov	ecx, ebp
	push	eax
	lea	edx, DWORD PTR $LN5@tmat4x4@3
	call	@_RTC_CheckStackVars@8
	pop	eax
	pop	edx
	pop	edi
	pop	esi
	pop	ebx
	add	esp, 360				; 00000168H
	cmp	ebp, esp
	call	__RTC_CheckEsp
	mov	esp, ebp
	pop	ebp
	ret	4
	npad	3
$LN5@tmat4x4@3:
	DD	1
	DD	$LN4@tmat4x4@3
$LN4@tmat4x4@3:
	DD	-20					; ffffffecH
	DD	4
	DD	$LN3@tmat4x4@3
$LN3@tmat4x4@3:
	DB	90					; 0000005aH
	DB	101					; 00000065H
	DB	114					; 00000072H
	DB	111					; 0000006fH
	DB	0
??$?0H@?$tmat4x4@M@detail@glm@@QAE@ABH@Z ENDP		; glm::detail::tmat4x4<float>::tmat4x4<float><int>
; Function compile flags: /Odtp /RTCsu /ZI
; File c:\opengl\glm-0.9.3.1\glm\core\type_vec3.inl
_TEXT	ENDS
;	COMDAT ??$?GM@detail@glm@@YA?AU?$tvec3@M@01@ABU201@@Z
_TEXT	SEGMENT
$T71076 = -224						; size = 4
$T71077 = -212						; size = 4
$T71078 = -200						; size = 4
___$ReturnUdt$ = 8					; size = 4
_v$ = 12						; size = 4
??$?GM@detail@glm@@YA?AU?$tvec3@M@01@ABU201@@Z PROC	; glm::detail::operator-<float>, COMDAT

; 809  : 	{

	push	ebp
	mov	ebp, esp
	sub	esp, 228				; 000000e4H
	push	ebx
	push	esi
	push	edi
	lea	edi, DWORD PTR [ebp-228]
	mov	ecx, 57					; 00000039H
	mov	eax, -858993460				; ccccccccH
	rep stosd

; 810  : 		return tvec3<T>(
; 811  : 			-v.x, 
; 812  : 			-v.y, 
; 813  : 			-v.z);

	mov	eax, DWORD PTR _v$[ebp]
	fld	DWORD PTR [eax+8]
	fchs
	fstp	DWORD PTR $T71076[ebp]
	mov	ecx, DWORD PTR _v$[ebp]
	fld	DWORD PTR [ecx+4]
	fchs
	fstp	DWORD PTR $T71077[ebp]
	mov	edx, DWORD PTR _v$[ebp]
	fld	DWORD PTR [edx]
	fchs
	fstp	DWORD PTR $T71078[ebp]
	lea	eax, DWORD PTR $T71076[ebp]
	push	eax
	lea	ecx, DWORD PTR $T71077[ebp]
	push	ecx
	lea	edx, DWORD PTR $T71078[ebp]
	push	edx
	mov	ecx, DWORD PTR ___$ReturnUdt$[ebp]
	call	??0?$tvec3@M@detail@glm@@QAE@ABM00@Z	; glm::detail::tvec3<float>::tvec3<float>
	mov	eax, DWORD PTR ___$ReturnUdt$[ebp]

; 814  : 	}

	pop	edi
	pop	esi
	pop	ebx
	add	esp, 228				; 000000e4H
	cmp	ebp, esp
	call	__RTC_CheckEsp
	mov	esp, ebp
	pop	ebp
	ret	0
??$?GM@detail@glm@@YA?AU?$tvec3@M@01@ABU201@@Z ENDP	; glm::detail::operator-<float>
_TEXT	ENDS
PUBLIC	?tan@@YAMM@Z					; tan
