; Listing generated by Microsoft (R) Optimizing Compiler Version 16.00.40219.01 

	TITLE	C:\Users\kmadsen\Google Drive\OpenGL_Projects\Starter\Starter\vboteapotpatch.cpp
	.686P
	.XMM
	include listing.inc
	.model	flat

INCLUDELIB MSVCRTD
INCLUDELIB OLDNAMES

_DATA	SEGMENT
_patchdata DD	066H
	DD	067H
	DD	068H
	DD	069H
	DD	04H
	DD	05H
	DD	06H
	DD	07H
	DD	08H
	DD	09H
	DD	0aH
	DD	0bH
	DD	0cH
	DD	0dH
	DD	0eH
	DD	0fH
	DD	0cH
	DD	0dH
	DD	0eH
	DD	0fH
	DD	010H
	DD	011H
	DD	012H
	DD	013H
	DD	014H
	DD	015H
	DD	016H
	DD	017H
	DD	018H
	DD	019H
	DD	01aH
	DD	01bH
	DD	018H
	DD	019H
	DD	01aH
	DD	01bH
	DD	01dH
	DD	01eH
	DD	01fH
	DD	020H
	DD	021H
	DD	022H
	DD	023H
	DD	024H
	DD	025H
	DD	026H
	DD	027H
	DD	028H
	DD	060H
	DD	060H
	DD	060H
	DD	060H
	DD	061H
	DD	062H
	DD	063H
	DD	064H
	DD	065H
	DD	065H
	DD	065H
	DD	065H
	DD	00H
	DD	01H
	DD	02H
	DD	03H
	DD	00H
	DD	01H
	DD	02H
	DD	03H
	DD	06aH
	DD	06bH
	DD	06cH
	DD	06dH
	DD	06eH
	DD	06fH
	DD	070H
	DD	071H
	DD	072H
	DD	073H
	DD	074H
	DD	075H
	DD	076H
	DD	076H
	DD	076H
	DD	076H
	DD	07cH
	DD	07aH
	DD	077H
	DD	079H
	DD	07bH
	DD	07eH
	DD	07dH
	DD	078H
	DD	028H
	DD	027H
	DD	026H
	DD	025H
	DD	029H
	DD	02aH
	DD	02bH
	DD	02cH
	DD	02dH
	DD	02eH
	DD	02fH
	DD	030H
	DD	031H
	DD	032H
	DD	033H
	DD	034H
	DD	035H
	DD	036H
	DD	037H
	DD	038H
	DD	035H
	DD	036H
	DD	037H
	DD	038H
	DD	039H
	DD	03aH
	DD	03bH
	DD	03cH
	DD	03dH
	DD	03eH
	DD	03fH
	DD	040H
	DD	01cH
	DD	041H
	DD	042H
	DD	043H
	DD	044H
	DD	045H
	DD	046H
	DD	047H
	DD	048H
	DD	049H
	DD	04aH
	DD	04bH
	DD	04cH
	DD	04dH
	DD	04eH
	DD	04fH
	DD	050H
	DD	051H
	DD	052H
	DD	053H
	DD	050H
	DD	051H
	DD	052H
	DD	053H
	DD	054H
	DD	055H
	DD	056H
	DD	057H
	DD	058H
	DD	059H
	DD	05aH
	DD	05bH
	DD	05cH
	DD	05dH
	DD	05eH
	DD	05fH
_cpdata	DD	03e4ccccdr			; 0.2
	DD	000000000r			; 0
	DD	0402ccccdr			; 2.7
	DD	03e4ccccdr			; 0.2
	DD	0bde56042r			; -0.112
	DD	0402ccccdr			; 2.7
	DD	03de56042r			; 0.112
	DD	0be4ccccdr			; -0.2
	DD	0402ccccdr			; 2.7
	DD	000000000r			; 0
	DD	0be4ccccdr			; -0.2
	DD	0402ccccdr			; 2.7
	DD	03fab3333r			; 1.3375
	DD	000000000r			; 0
	DD	040220000r			; 2.53125
	DD	03fab3333r			; 1.3375
	DD	0bf3fbe77r			; -0.749
	DD	040220000r			; 2.53125
	DD	03f3fbe77r			; 0.749
	DD	0bfab3333r			; -1.3375
	DD	040220000r			; 2.53125
	DD	000000000r			; 0
	DD	0bfab3333r			; -1.3375
	DD	040220000r			; 2.53125
	DD	03fb80000r			; 1.4375
	DD	000000000r			; 0
	DD	040220000r			; 2.53125
	DD	03fb80000r			; 1.4375
	DD	0bf4e147br			; -0.805
	DD	040220000r			; 2.53125
	DD	03f4e147br			; 0.805
	DD	0bfb80000r			; -1.4375
	DD	040220000r			; 2.53125
	DD	000000000r			; 0
	DD	0bfb80000r			; -1.4375
	DD	040220000r			; 2.53125
	DD	03fc00000r			; 1.5
	DD	000000000r			; 0
	DD	04019999ar			; 2.4
	DD	03fc00000r			; 1.5
	DD	0bf570a3dr			; -0.84
	DD	04019999ar			; 2.4
	DD	03f570a3dr			; 0.84
	DD	0bfc00000r			; -1.5
	DD	04019999ar			; 2.4
	DD	000000000r			; 0
	DD	0bfc00000r			; -1.5
	DD	04019999ar			; 2.4
	DD	03fe00000r			; 1.75
	DD	000000000r			; 0
	DD	03ff00000r			; 1.875
	DD	03fe00000r			; 1.75
	DD	0bf7ae148r			; -0.98
	DD	03ff00000r			; 1.875
	DD	03f7ae148r			; 0.98
	DD	0bfe00000r			; -1.75
	DD	03ff00000r			; 1.875
	DD	000000000r			; 0
	DD	0bfe00000r			; -1.75
	DD	03ff00000r			; 1.875
	DD	040000000r			; 2
	DD	000000000r			; 0
	DD	03faccccdr			; 1.35
	DD	040000000r			; 2
	DD	0bf8f5c29r			; -1.12
	DD	03faccccdr			; 1.35
	DD	03f8f5c29r			; 1.12
	DD	0c0000000r			; -2
	DD	03faccccdr			; 1.35
	DD	000000000r			; 0
	DD	0c0000000r			; -2
	DD	03faccccdr			; 1.35
	DD	040000000r			; 2
	DD	000000000r			; 0
	DD	03f666666r			; 0.9
	DD	040000000r			; 2
	DD	0bf8f5c29r			; -1.12
	DD	03f666666r			; 0.9
	DD	03f8f5c29r			; 1.12
	DD	0c0000000r			; -2
	DD	03f666666r			; 0.9
	DD	000000000r			; 0
	DD	0c0000000r			; -2
	DD	03f666666r			; 0.9
	DD	0c0000000r			; -2
	DD	000000000r			; 0
	DD	03f666666r			; 0.9
	DD	040000000r			; 2
	DD	000000000r			; 0
	DD	03ee66666r			; 0.45
	DD	040000000r			; 2
	DD	0bf8f5c29r			; -1.12
	DD	03ee66666r			; 0.45
	DD	03f8f5c29r			; 1.12
	DD	0c0000000r			; -2
	DD	03ee66666r			; 0.45
	DD	000000000r			; 0
	DD	0c0000000r			; -2
	DD	03ee66666r			; 0.45
	DD	03fc00000r			; 1.5
	DD	000000000r			; 0
	DD	03e666666r			; 0.225
	DD	03fc00000r			; 1.5
	DD	0bf570a3dr			; -0.84
	DD	03e666666r			; 0.225
	DD	03f570a3dr			; 0.84
	DD	0bfc00000r			; -1.5
	DD	03e666666r			; 0.225
	DD	000000000r			; 0
	DD	0bfc00000r			; -1.5
	DD	03e666666r			; 0.225
	DD	03fc00000r			; 1.5
	DD	000000000r			; 0
	DD	03e19999ar			; 0.15
	DD	03fc00000r			; 1.5
	DD	0bf570a3dr			; -0.84
	DD	03e19999ar			; 0.15
	DD	03f570a3dr			; 0.84
	DD	0bfc00000r			; -1.5
	DD	03e19999ar			; 0.15
	DD	000000000r			; 0
	DD	0bfc00000r			; -1.5
	DD	03e19999ar			; 0.15
	DD	0bfcccccdr			; -1.6
	DD	000000000r			; 0
	DD	04001999ar			; 2.025
	DD	0bfcccccdr			; -1.6
	DD	0be99999ar			; -0.3
	DD	04001999ar			; 2.025
	DD	0bfc00000r			; -1.5
	DD	0be99999ar			; -0.3
	DD	040100000r			; 2.25
	DD	0bfc00000r			; -1.5
	DD	000000000r			; 0
	DD	040100000r			; 2.25
	DD	0c0133333r			; -2.3
	DD	000000000r			; 0
	DD	04001999ar			; 2.025
	DD	0c0133333r			; -2.3
	DD	0be99999ar			; -0.3
	DD	04001999ar			; 2.025
	DD	0c0200000r			; -2.5
	DD	0be99999ar			; -0.3
	DD	040100000r			; 2.25
	DD	0c0200000r			; -2.5
	DD	000000000r			; 0
	DD	040100000r			; 2.25
	DD	0c02ccccdr			; -2.7
	DD	000000000r			; 0
	DD	04001999ar			; 2.025
	DD	0c02ccccdr			; -2.7
	DD	0be99999ar			; -0.3
	DD	04001999ar			; 2.025
	DD	0c0400000r			; -3
	DD	0be99999ar			; -0.3
	DD	040100000r			; 2.25
	DD	0c0400000r			; -3
	DD	000000000r			; 0
	DD	040100000r			; 2.25
	DD	0c02ccccdr			; -2.7
	DD	000000000r			; 0
	DD	03fe66666r			; 1.8
	DD	0c02ccccdr			; -2.7
	DD	0be99999ar			; -0.3
	DD	03fe66666r			; 1.8
	DD	0c0400000r			; -3
	DD	0be99999ar			; -0.3
	DD	03fe66666r			; 1.8
	DD	0c0400000r			; -3
	DD	000000000r			; 0
	DD	03fe66666r			; 1.8
	DD	0c02ccccdr			; -2.7
	DD	000000000r			; 0
	DD	03fc9999ar			; 1.575
	DD	0c02ccccdr			; -2.7
	DD	0be99999ar			; -0.3
	DD	03fc9999ar			; 1.575
	DD	0c0400000r			; -3
	DD	0be99999ar			; -0.3
	DD	03faccccdr			; 1.35
	DD	0c0400000r			; -3
	DD	000000000r			; 0
	DD	03faccccdr			; 1.35
	DD	0c0200000r			; -2.5
	DD	000000000r			; 0
	DD	03f900000r			; 1.125
	DD	0c0200000r			; -2.5
	DD	0be99999ar			; -0.3
	DD	03f900000r			; 1.125
	DD	0c029999ar			; -2.65
	DD	0be99999ar			; -0.3
	DD	03f700000r			; 0.9375
	DD	0c029999ar			; -2.65
	DD	000000000r			; 0
	DD	03f700000r			; 0.9375
	DD	0c0000000r			; -2
	DD	0be99999ar			; -0.3
	DD	03f666666r			; 0.9
	DD	0bff33333r			; -1.9
	DD	0be99999ar			; -0.3
	DD	03f19999ar			; 0.6
	DD	0bff33333r			; -1.9
	DD	000000000r			; 0
	DD	03f19999ar			; 0.6
	DD	03fd9999ar			; 1.7
	DD	000000000r			; 0
	DD	03fb66666r			; 1.425
	DD	03fd9999ar			; 1.7
	DD	0bf28f5c3r			; -0.66
	DD	03fb66666r			; 1.425
	DD	03fd9999ar			; 1.7
	DD	0bf28f5c3r			; -0.66
	DD	03f19999ar			; 0.6
	DD	03fd9999ar			; 1.7
	DD	000000000r			; 0
	DD	03f19999ar			; 0.6
	DD	040266666r			; 2.6
	DD	000000000r			; 0
	DD	03fb66666r			; 1.425
	DD	040266666r			; 2.6
	DD	0bf28f5c3r			; -0.66
	DD	03fb66666r			; 1.425
	DD	040466666r			; 3.1
	DD	0bf28f5c3r			; -0.66
	DD	03f533333r			; 0.825
	DD	040466666r			; 3.1
	DD	000000000r			; 0
	DD	03f533333r			; 0.825
	DD	040133333r			; 2.3
	DD	000000000r			; 0
	DD	040066666r			; 2.1
	DD	040133333r			; 2.3
	DD	0be800000r			; -0.25
	DD	040066666r			; 2.1
	DD	04019999ar			; 2.4
	DD	0be800000r			; -0.25
	DD	04001999ar			; 2.025
	DD	04019999ar			; 2.4
	DD	000000000r			; 0
	DD	04001999ar			; 2.025
	DD	0402ccccdr			; 2.7
	DD	000000000r			; 0
	DD	04019999ar			; 2.4
	DD	0402ccccdr			; 2.7
	DD	0be800000r			; -0.25
	DD	04019999ar			; 2.4
	DD	040533333r			; 3.3
	DD	0be800000r			; -0.25
	DD	04019999ar			; 2.4
	DD	040533333r			; 3.3
	DD	000000000r			; 0
	DD	04019999ar			; 2.4
	DD	040333333r			; 2.8
	DD	000000000r			; 0
	DD	0401e6666r			; 2.475
	DD	040333333r			; 2.8
	DD	0be800000r			; -0.25
	DD	0401e6666r			; 2.475
	DD	04061999ar			; 3.525
	DD	0be800000r			; -0.25
	DD	0401f999ar			; 2.49375
	DD	04061999ar			; 3.525
	DD	000000000r			; 0
	DD	0401f999ar			; 2.49375
	DD	04039999ar			; 2.9
	DD	000000000r			; 0
	DD	0401e6666r			; 2.475
	DD	04039999ar			; 2.9
	DD	0be19999ar			; -0.15
	DD	0401e6666r			; 2.475
	DD	0405ccccdr			; 3.45
	DD	0be19999ar			; -0.15
	DD	04020cccdr			; 2.5125
	DD	0405ccccdr			; 3.45
	DD	000000000r			; 0
	DD	04020cccdr			; 2.5125
	DD	040333333r			; 2.8
	DD	000000000r			; 0
	DD	04019999ar			; 2.4
	DD	040333333r			; 2.8
	DD	0be19999ar			; -0.15
	DD	04019999ar			; 2.4
	DD	0404ccccdr			; 3.2
	DD	0be19999ar			; -0.15
	DD	04019999ar			; 2.4
	DD	0404ccccdr			; 3.2
	DD	000000000r			; 0
	DD	04019999ar			; 2.4
	DD	000000000r			; 0
	DD	000000000r			; 0
	DD	04049999ar			; 3.15
	DD	03f4ccccdr			; 0.8
	DD	000000000r			; 0
	DD	04049999ar			; 3.15
	DD	03f4ccccdr			; 0.8
	DD	0bee66666r			; -0.45
	DD	04049999ar			; 3.15
	DD	03ee66666r			; 0.45
	DD	0bf4ccccdr			; -0.8
	DD	04049999ar			; 3.15
	DD	000000000r			; 0
	DD	0bf4ccccdr			; -0.8
	DD	04049999ar			; 3.15
	DD	000000000r			; 0
	DD	000000000r			; 0
	DD	040366666r			; 2.85
	DD	03fb33333r			; 1.4
	DD	000000000r			; 0
	DD	04019999ar			; 2.4
	DD	03fb33333r			; 1.4
	DD	0bf48b439r			; -0.784
	DD	04019999ar			; 2.4
	DD	03f48b439r			; 0.784
	DD	0bfb33333r			; -1.4
	DD	04019999ar			; 2.4
	DD	000000000r			; 0
	DD	0bfb33333r			; -1.4
	DD	04019999ar			; 2.4
	DD	03ecccccdr			; 0.4
	DD	000000000r			; 0
	DD	040233333r			; 2.55
	DD	03ecccccdr			; 0.4
	DD	0be656042r			; -0.224
	DD	040233333r			; 2.55
	DD	03e656042r			; 0.224
	DD	0becccccdr			; -0.4
	DD	040233333r			; 2.55
	DD	000000000r			; 0
	DD	0becccccdr			; -0.4
	DD	040233333r			; 2.55
	DD	03fa66666r			; 1.3
	DD	000000000r			; 0
	DD	040233333r			; 2.55
	DD	03fa66666r			; 1.3
	DD	0bf3a5e35r			; -0.728
	DD	040233333r			; 2.55
	DD	03f3a5e35r			; 0.728
	DD	0bfa66666r			; -1.3
	DD	040233333r			; 2.55
	DD	000000000r			; 0
	DD	0bfa66666r			; -1.3
	DD	040233333r			; 2.55
	DD	03fa66666r			; 1.3
	DD	000000000r			; 0
	DD	04019999ar			; 2.4
	DD	03fa66666r			; 1.3
	DD	0bf3a5e35r			; -0.728
	DD	04019999ar			; 2.4
	DD	03f3a5e35r			; 0.728
	DD	0bfa66666r			; -1.3
	DD	04019999ar			; 2.4
	DD	000000000r			; 0
	DD	0bfa66666r			; -1.3
	DD	04019999ar			; 2.4
	DD	000000000r			; 0
	DD	000000000r			; 0
	DD	000000000r			; 0
	DD	03fb66666r			; 1.425
	DD	0bf4c49bar			; -0.798
	DD	000000000r			; 0
	DD	03fc00000r			; 1.5
	DD	000000000r			; 0
	DD	03d99999ar			; 0.075
	DD	03fb66666r			; 1.425
	DD	000000000r			; 0
	DD	000000000r			; 0
	DD	03f4c49bar			; 0.798
	DD	0bfb66666r			; -1.425
	DD	000000000r			; 0
	DD	000000000r			; 0
	DD	0bfc00000r			; -1.5
	DD	03d99999ar			; 0.075
	DD	000000000r			; 0
	DD	0bfb66666r			; -1.425
	DD	000000000r			; 0
	DD	03fc00000r			; 1.5
	DD	0bf570a3dr			; -0.84
	DD	03d99999ar			; 0.075
	DD	03f570a3dr			; 0.84
	DD	0bfc00000r			; -1.5
	DD	03d99999ar			; 0.075
_tex	DD	000000000r			; 0
	DD	000000000r			; 0
	DD	03f800000r			; 1
	DD	000000000r			; 0
	DD	000000000r			; 0
	DD	03f800000r			; 1
	DD	03f800000r			; 1
	DD	03f800000r			; 1
_DATA	ENDS
PUBLIC	?generatePatches@VBOTeapotPatch@@AAEXPAM@Z	; VBOTeapotPatch::generatePatches
PUBLIC	??_7VBOTeapotPatch@@6B@				; VBOTeapotPatch::`vftable'
PUBLIC	??0Drawable@@QAE@XZ				; Drawable::Drawable
PUBLIC	??0VBOTeapotPatch@@QAE@XZ			; VBOTeapotPatch::VBOTeapotPatch
PUBLIC	??_R4VBOTeapotPatch@@6B@			; VBOTeapotPatch::`RTTI Complete Object Locator'
PUBLIC	??_R0?AVVBOTeapotPatch@@@8			; VBOTeapotPatch `RTTI Type Descriptor'
PUBLIC	??_R3VBOTeapotPatch@@8				; VBOTeapotPatch::`RTTI Class Hierarchy Descriptor'
PUBLIC	??_R2VBOTeapotPatch@@8				; VBOTeapotPatch::`RTTI Base Class Array'
PUBLIC	??_R1A@?0A@EA@VBOTeapotPatch@@8			; VBOTeapotPatch::`RTTI Base Class Descriptor at (0,-1,0,64)'
PUBLIC	??_R1A@?0A@EA@Drawable@@8			; Drawable::`RTTI Base Class Descriptor at (0,-1,0,64)'
PUBLIC	??_R0?AVDrawable@@@8				; Drawable `RTTI Type Descriptor'
PUBLIC	??_R3Drawable@@8				; Drawable::`RTTI Class Hierarchy Descriptor'
PUBLIC	??_R2Drawable@@8				; Drawable::`RTTI Base Class Array'
PUBLIC	?render@VBOTeapotPatch@@UBEXXZ			; VBOTeapotPatch::render
EXTRN	??3@YAXPAX@Z:PROC				; operator delete
EXTRN	__imp____glewEnableVertexAttribArray:DWORD
EXTRN	__imp____glewVertexAttribPointer:DWORD
EXTRN	__imp____glewBufferData:DWORD
EXTRN	__imp____glewBindBuffer:DWORD
EXTRN	__imp____glewGenBuffers:DWORD
EXTRN	__imp____glewBindVertexArray:DWORD
EXTRN	__imp____glewGenVertexArrays:DWORD
EXTRN	??2@YAPAXI@Z:PROC				; operator new
EXTRN	@_RTC_CheckStackVars@8:PROC
EXTRN	__RTC_CheckEsp:PROC
EXTRN	__RTC_Shutdown:PROC
EXTRN	__RTC_InitBase:PROC
EXTRN	??_7type_info@@6B@:QWORD			; type_info::`vftable'
;	COMDAT ??_R2Drawable@@8
; File c:\users\kmadsen\google drive\opengl_projects\starter\starter\vboteapotpatch.cpp
rdata$r	SEGMENT
??_R2Drawable@@8 DD FLAT:??_R1A@?0A@EA@Drawable@@8	; Drawable::`RTTI Base Class Array'
rdata$r	ENDS
;	COMDAT ??_R3Drawable@@8
rdata$r	SEGMENT
??_R3Drawable@@8 DD 00H					; Drawable::`RTTI Class Hierarchy Descriptor'
	DD	00H
	DD	01H
	DD	FLAT:??_R2Drawable@@8
rdata$r	ENDS
;	COMDAT ??_R0?AVDrawable@@@8
_DATA	SEGMENT
??_R0?AVDrawable@@@8 DD FLAT:??_7type_info@@6B@		; Drawable `RTTI Type Descriptor'
	DD	00H
	DB	'.?AVDrawable@@', 00H
_DATA	ENDS
;	COMDAT ??_R1A@?0A@EA@Drawable@@8
rdata$r	SEGMENT
??_R1A@?0A@EA@Drawable@@8 DD FLAT:??_R0?AVDrawable@@@8	; Drawable::`RTTI Base Class Descriptor at (0,-1,0,64)'
	DD	00H
	DD	00H
	DD	0ffffffffH
	DD	00H
	DD	040H
	DD	FLAT:??_R3Drawable@@8
rdata$r	ENDS
;	COMDAT ??_R1A@?0A@EA@VBOTeapotPatch@@8
rdata$r	SEGMENT
??_R1A@?0A@EA@VBOTeapotPatch@@8 DD FLAT:??_R0?AVVBOTeapotPatch@@@8 ; VBOTeapotPatch::`RTTI Base Class Descriptor at (0,-1,0,64)'
	DD	01H
	DD	00H
	DD	0ffffffffH
	DD	00H
	DD	040H
	DD	FLAT:??_R3VBOTeapotPatch@@8
rdata$r	ENDS
;	COMDAT ??_R2VBOTeapotPatch@@8
rdata$r	SEGMENT
??_R2VBOTeapotPatch@@8 DD FLAT:??_R1A@?0A@EA@VBOTeapotPatch@@8 ; VBOTeapotPatch::`RTTI Base Class Array'
	DD	FLAT:??_R1A@?0A@EA@Drawable@@8
rdata$r	ENDS
;	COMDAT ??_R3VBOTeapotPatch@@8
rdata$r	SEGMENT
??_R3VBOTeapotPatch@@8 DD 00H				; VBOTeapotPatch::`RTTI Class Hierarchy Descriptor'
	DD	00H
	DD	02H
	DD	FLAT:??_R2VBOTeapotPatch@@8
rdata$r	ENDS
;	COMDAT ??_R0?AVVBOTeapotPatch@@@8
_DATA	SEGMENT
??_R0?AVVBOTeapotPatch@@@8 DD FLAT:??_7type_info@@6B@	; VBOTeapotPatch `RTTI Type Descriptor'
	DD	00H
	DB	'.?AVVBOTeapotPatch@@', 00H
_DATA	ENDS
;	COMDAT ??_R4VBOTeapotPatch@@6B@
rdata$r	SEGMENT
??_R4VBOTeapotPatch@@6B@ DD 00H				; VBOTeapotPatch::`RTTI Complete Object Locator'
	DD	00H
	DD	00H
	DD	FLAT:??_R0?AVVBOTeapotPatch@@@8
	DD	FLAT:??_R3VBOTeapotPatch@@8
rdata$r	ENDS
;	COMDAT ??_7VBOTeapotPatch@@6B@
CONST	SEGMENT
??_7VBOTeapotPatch@@6B@ DD FLAT:??_R4VBOTeapotPatch@@6B@ ; VBOTeapotPatch::`vftable'
	DD	FLAT:?render@VBOTeapotPatch@@UBEXXZ
CONST	ENDS
;	COMDAT rtc$TMZ
rtc$TMZ	SEGMENT
__RTC_Shutdown.rtc$TMZ DD FLAT:__RTC_Shutdown
rtc$TMZ	ENDS
;	COMDAT rtc$IMZ
rtc$IMZ	SEGMENT
__RTC_InitBase.rtc$IMZ DD FLAT:__RTC_InitBase
; Function compile flags: /Odtp /RTCsu /ZI
rtc$IMZ	ENDS
;	COMDAT ??0VBOTeapotPatch@@QAE@XZ
_TEXT	SEGMENT
$T41891 = -260						; size = 4
$T41892 = -248						; size = 4
_handle$ = -44						; size = 4
_v$ = -32						; size = 4
_verts$ = -20						; size = 4
_this$ = -8						; size = 4
??0VBOTeapotPatch@@QAE@XZ PROC				; VBOTeapotPatch::VBOTeapotPatch, COMDAT
; _this$ = ecx

; 19   : {

	push	ebp
	mov	ebp, esp
	sub	esp, 264				; 00000108H
	push	ebx
	push	esi
	push	edi
	push	ecx
	lea	edi, DWORD PTR [ebp-264]
	mov	ecx, 66					; 00000042H
	mov	eax, -858993460				; ccccccccH
	rep stosd
	pop	ecx
	mov	DWORD PTR _this$[ebp], ecx
	mov	ecx, DWORD PTR _this$[ebp]
	call	??0Drawable@@QAE@XZ
	mov	eax, DWORD PTR _this$[ebp]
	mov	DWORD PTR [eax], OFFSET ??_7VBOTeapotPatch@@6B@

; 20   :     int verts = 32 * 16;

	mov	DWORD PTR _verts$[ebp], 512		; 00000200H

; 21   :     float * v = new float[ verts * 3 ];

	mov	eax, DWORD PTR _verts$[ebp]
	imul	eax, 3
	xor	ecx, ecx
	mov	edx, 4
	mul	edx
	seto	cl
	neg	ecx
	or	ecx, eax
	push	ecx
	call	??2@YAPAXI@Z				; operator new
	add	esp, 4
	mov	DWORD PTR $T41891[ebp], eax
	mov	eax, DWORD PTR $T41891[ebp]
	mov	DWORD PTR _v$[ebp], eax

; 22   : 
; 23   :     glGenVertexArrays( 1, &vaoHandle );

	mov	eax, DWORD PTR _this$[ebp]
	add	eax, 4
	mov	esi, esp
	push	eax
	push	1
	mov	ecx, DWORD PTR __imp____glewGenVertexArrays
	mov	edx, DWORD PTR [ecx]
	call	edx
	cmp	esi, esp
	call	__RTC_CheckEsp

; 24   :     glBindVertexArray(vaoHandle);

	mov	esi, esp
	mov	eax, DWORD PTR _this$[ebp]
	mov	ecx, DWORD PTR [eax+4]
	push	ecx
	mov	edx, DWORD PTR __imp____glewBindVertexArray
	mov	eax, DWORD PTR [edx]
	call	eax
	cmp	esi, esp
	call	__RTC_CheckEsp

; 25   : 
; 26   :     unsigned int handle;
; 27   :     glGenBuffers(1, &handle);

	mov	esi, esp
	lea	eax, DWORD PTR _handle$[ebp]
	push	eax
	push	1
	mov	ecx, DWORD PTR __imp____glewGenBuffers
	mov	edx, DWORD PTR [ecx]
	call	edx
	cmp	esi, esp
	call	__RTC_CheckEsp

; 28   : 
; 29   :     generatePatches( v );

	mov	eax, DWORD PTR _v$[ebp]
	push	eax
	mov	ecx, DWORD PTR _this$[ebp]
	call	?generatePatches@VBOTeapotPatch@@AAEXPAM@Z ; VBOTeapotPatch::generatePatches

; 30   : 
; 31   :     glBindBuffer(GL_ARRAY_BUFFER, handle);

	mov	esi, esp
	mov	eax, DWORD PTR _handle$[ebp]
	push	eax
	push	34962					; 00008892H
	mov	ecx, DWORD PTR __imp____glewBindBuffer
	mov	edx, DWORD PTR [ecx]
	call	edx
	cmp	esi, esp
	call	__RTC_CheckEsp

; 32   :     glBufferData(GL_ARRAY_BUFFER, (3 * verts) * sizeof(float), v, GL_STATIC_DRAW);

	mov	esi, esp
	push	35044					; 000088e4H
	mov	eax, DWORD PTR _v$[ebp]
	push	eax
	mov	ecx, DWORD PTR _verts$[ebp]
	imul	ecx, 3
	shl	ecx, 2
	push	ecx
	push	34962					; 00008892H
	mov	edx, DWORD PTR __imp____glewBufferData
	mov	eax, DWORD PTR [edx]
	call	eax
	cmp	esi, esp
	call	__RTC_CheckEsp

; 33   :     glVertexAttribPointer( 0, 3, GL_FLOAT, GL_FALSE, 0, 0 );

	mov	esi, esp
	push	0
	push	0
	push	0
	push	5126					; 00001406H
	push	3
	push	0
	mov	eax, DWORD PTR __imp____glewVertexAttribPointer
	mov	ecx, DWORD PTR [eax]
	call	ecx
	cmp	esi, esp
	call	__RTC_CheckEsp

; 34   :     glEnableVertexAttribArray(0);  // Vertex position

	mov	esi, esp
	push	0
	mov	eax, DWORD PTR __imp____glewEnableVertexAttribArray
	mov	ecx, DWORD PTR [eax]
	call	ecx
	cmp	esi, esp
	call	__RTC_CheckEsp

; 35   : 
; 36   :     delete [] v;

	mov	eax, DWORD PTR _v$[ebp]
	mov	DWORD PTR $T41892[ebp], eax
	mov	ecx, DWORD PTR $T41892[ebp]
	push	ecx
	call	??3@YAXPAX@Z				; operator delete
	add	esp, 4

; 37   : 
; 38   :     glBindVertexArray(0);

	mov	esi, esp
	push	0
	mov	eax, DWORD PTR __imp____glewBindVertexArray
	mov	ecx, DWORD PTR [eax]
	call	ecx
	cmp	esi, esp
	call	__RTC_CheckEsp

; 39   : }

	mov	eax, DWORD PTR _this$[ebp]
	push	edx
	mov	ecx, ebp
	push	eax
	lea	edx, DWORD PTR $LN5@VBOTeapotP
	call	@_RTC_CheckStackVars@8
	pop	eax
	pop	edx
	pop	edi
	pop	esi
	pop	ebx
	add	esp, 264				; 00000108H
	cmp	ebp, esp
	call	__RTC_CheckEsp
	mov	esp, ebp
	pop	ebp
	ret	0
$LN5@VBOTeapotP:
	DD	1
	DD	$LN4@VBOTeapotP
$LN4@VBOTeapotP:
	DD	-44					; ffffffd4H
	DD	4
	DD	$LN3@VBOTeapotP
$LN3@VBOTeapotP:
	DB	104					; 00000068H
	DB	97					; 00000061H
	DB	110					; 0000006eH
	DB	100					; 00000064H
	DB	108					; 0000006cH
	DB	101					; 00000065H
	DB	0
??0VBOTeapotPatch@@QAE@XZ ENDP				; VBOTeapotPatch::VBOTeapotPatch
_TEXT	ENDS
PUBLIC	??_7Drawable@@6B@				; Drawable::`vftable'
PUBLIC	??_R4Drawable@@6B@				; Drawable::`RTTI Complete Object Locator'
EXTRN	__purecall:PROC
;	COMDAT ??_R4Drawable@@6B@
rdata$r	SEGMENT
??_R4Drawable@@6B@ DD 00H				; Drawable::`RTTI Complete Object Locator'
	DD	00H
	DD	00H
	DD	FLAT:??_R0?AVDrawable@@@8
	DD	FLAT:??_R3Drawable@@8
rdata$r	ENDS
;	COMDAT ??_7Drawable@@6B@
CONST	SEGMENT
??_7Drawable@@6B@ DD FLAT:??_R4Drawable@@6B@		; Drawable::`vftable'
	DD	FLAT:__purecall
; Function compile flags: /Odtp /RTCsu /ZI
CONST	ENDS
;	COMDAT ??0Drawable@@QAE@XZ
_TEXT	SEGMENT
_this$ = -8						; size = 4
??0Drawable@@QAE@XZ PROC				; Drawable::Drawable, COMDAT
; _this$ = ecx
	push	ebp
	mov	ebp, esp
	sub	esp, 204				; 000000ccH
	push	ebx
	push	esi
	push	edi
	push	ecx
	lea	edi, DWORD PTR [ebp-204]
	mov	ecx, 51					; 00000033H
	mov	eax, -858993460				; ccccccccH
	rep stosd
	pop	ecx
	mov	DWORD PTR _this$[ebp], ecx
	mov	eax, DWORD PTR _this$[ebp]
	mov	DWORD PTR [eax], OFFSET ??_7Drawable@@6B@
	mov	eax, DWORD PTR _this$[ebp]
	pop	edi
	pop	esi
	pop	ebx
	mov	esp, ebp
	pop	ebp
	ret	0
??0Drawable@@QAE@XZ ENDP				; Drawable::Drawable
_TEXT	ENDS
PUBLIC	?buildPatchReflect@VBOTeapotPatch@@AAEXHPAMAAH_N2@Z ; VBOTeapotPatch::buildPatchReflect
; Function compile flags: /Odtp /RTCsu /ZI
;	COMDAT ?generatePatches@VBOTeapotPatch@@AAEXPAM@Z
_TEXT	SEGMENT
_idx$ = -20						; size = 4
_this$ = -8						; size = 4
_v$ = 8							; size = 4
?generatePatches@VBOTeapotPatch@@AAEXPAM@Z PROC		; VBOTeapotPatch::generatePatches, COMDAT
; _this$ = ecx

; 41   : void VBOTeapotPatch::generatePatches(float * v) {

	push	ebp
	mov	ebp, esp
	sub	esp, 216				; 000000d8H
	push	ebx
	push	esi
	push	edi
	push	ecx
	lea	edi, DWORD PTR [ebp-216]
	mov	ecx, 54					; 00000036H
	mov	eax, -858993460				; ccccccccH
	rep stosd
	pop	ecx
	mov	DWORD PTR _this$[ebp], ecx

; 42   :     int idx = 0;

	mov	DWORD PTR _idx$[ebp], 0

; 43   : 
; 44   :     // Build each patch
; 45   :     // The rim
; 46   :     buildPatchReflect(0, v, idx, true, true);

	push	1
	push	1
	lea	eax, DWORD PTR _idx$[ebp]
	push	eax
	mov	ecx, DWORD PTR _v$[ebp]
	push	ecx
	push	0
	mov	ecx, DWORD PTR _this$[ebp]
	call	?buildPatchReflect@VBOTeapotPatch@@AAEXHPAMAAH_N2@Z ; VBOTeapotPatch::buildPatchReflect

; 47   :     // The body
; 48   :     buildPatchReflect(1, v, idx, true, true);

	push	1
	push	1
	lea	eax, DWORD PTR _idx$[ebp]
	push	eax
	mov	ecx, DWORD PTR _v$[ebp]
	push	ecx
	push	1
	mov	ecx, DWORD PTR _this$[ebp]
	call	?buildPatchReflect@VBOTeapotPatch@@AAEXHPAMAAH_N2@Z ; VBOTeapotPatch::buildPatchReflect

; 49   :     buildPatchReflect(2, v, idx, true, true);

	push	1
	push	1
	lea	eax, DWORD PTR _idx$[ebp]
	push	eax
	mov	ecx, DWORD PTR _v$[ebp]
	push	ecx
	push	2
	mov	ecx, DWORD PTR _this$[ebp]
	call	?buildPatchReflect@VBOTeapotPatch@@AAEXHPAMAAH_N2@Z ; VBOTeapotPatch::buildPatchReflect

; 50   :     // The lid
; 51   :     buildPatchReflect(3, v, idx, true, true);

	push	1
	push	1
	lea	eax, DWORD PTR _idx$[ebp]
	push	eax
	mov	ecx, DWORD PTR _v$[ebp]
	push	ecx
	push	3
	mov	ecx, DWORD PTR _this$[ebp]
	call	?buildPatchReflect@VBOTeapotPatch@@AAEXHPAMAAH_N2@Z ; VBOTeapotPatch::buildPatchReflect

; 52   :     buildPatchReflect(4, v, idx, true, true);

	push	1
	push	1
	lea	eax, DWORD PTR _idx$[ebp]
	push	eax
	mov	ecx, DWORD PTR _v$[ebp]
	push	ecx
	push	4
	mov	ecx, DWORD PTR _this$[ebp]
	call	?buildPatchReflect@VBOTeapotPatch@@AAEXHPAMAAH_N2@Z ; VBOTeapotPatch::buildPatchReflect

; 53   :     // The bottom
; 54   :     buildPatchReflect(5, v, idx, true, true);

	push	1
	push	1
	lea	eax, DWORD PTR _idx$[ebp]
	push	eax
	mov	ecx, DWORD PTR _v$[ebp]
	push	ecx
	push	5
	mov	ecx, DWORD PTR _this$[ebp]
	call	?buildPatchReflect@VBOTeapotPatch@@AAEXHPAMAAH_N2@Z ; VBOTeapotPatch::buildPatchReflect

; 55   :     // The handle
; 56   :     buildPatchReflect(6, v, idx, false, true);

	push	1
	push	0
	lea	eax, DWORD PTR _idx$[ebp]
	push	eax
	mov	ecx, DWORD PTR _v$[ebp]
	push	ecx
	push	6
	mov	ecx, DWORD PTR _this$[ebp]
	call	?buildPatchReflect@VBOTeapotPatch@@AAEXHPAMAAH_N2@Z ; VBOTeapotPatch::buildPatchReflect

; 57   :     buildPatchReflect(7, v, idx, false, true);

	push	1
	push	0
	lea	eax, DWORD PTR _idx$[ebp]
	push	eax
	mov	ecx, DWORD PTR _v$[ebp]
	push	ecx
	push	7
	mov	ecx, DWORD PTR _this$[ebp]
	call	?buildPatchReflect@VBOTeapotPatch@@AAEXHPAMAAH_N2@Z ; VBOTeapotPatch::buildPatchReflect

; 58   :     // The spout
; 59   :     buildPatchReflect(8, v, idx, false, true);

	push	1
	push	0
	lea	eax, DWORD PTR _idx$[ebp]
	push	eax
	mov	ecx, DWORD PTR _v$[ebp]
	push	ecx
	push	8
	mov	ecx, DWORD PTR _this$[ebp]
	call	?buildPatchReflect@VBOTeapotPatch@@AAEXHPAMAAH_N2@Z ; VBOTeapotPatch::buildPatchReflect

; 60   :     buildPatchReflect(9, v, idx, false, true);

	push	1
	push	0
	lea	eax, DWORD PTR _idx$[ebp]
	push	eax
	mov	ecx, DWORD PTR _v$[ebp]
	push	ecx
	push	9
	mov	ecx, DWORD PTR _this$[ebp]
	call	?buildPatchReflect@VBOTeapotPatch@@AAEXHPAMAAH_N2@Z ; VBOTeapotPatch::buildPatchReflect

; 61   : }

	push	edx
	mov	ecx, ebp
	push	eax
	lea	edx, DWORD PTR $LN5@generatePa
	call	@_RTC_CheckStackVars@8
	pop	eax
	pop	edx
	pop	edi
	pop	esi
	pop	ebx
	add	esp, 216				; 000000d8H
	cmp	ebp, esp
	call	__RTC_CheckEsp
	mov	esp, ebp
	pop	ebp
	ret	4
	npad	3
$LN5@generatePa:
	DD	1
	DD	$LN4@generatePa
$LN4@generatePa:
	DD	-20					; ffffffecH
	DD	4
	DD	$LN3@generatePa
$LN3@generatePa:
	DB	105					; 00000069H
	DB	100					; 00000064H
	DB	120					; 00000078H
	DB	0
?generatePatches@VBOTeapotPatch@@AAEXPAM@Z ENDP		; VBOTeapotPatch::generatePatches
_TEXT	ENDS
PUBLIC	??0?$tmat3x3@M@detail@glm@@QAE@ABU?$tvec3@M@12@00@Z ; glm::detail::tmat3x3<float>::tmat3x3<float>
PUBLIC	??0?$tvec3@M@detail@glm@@QAE@ABM00@Z		; glm::detail::tvec3<float>::tvec3<float>
PUBLIC	__real@bf800000
PUBLIC	__real@00000000
PUBLIC	?buildPatch@VBOTeapotPatch@@AAEXQAY03U?$tvec3@M@detail@glm@@PAMAAHU?$tmat3x3@M@34@@Z ; VBOTeapotPatch::buildPatch
PUBLIC	??0?$tmat3x3@M@detail@glm@@QAE@ABM@Z		; glm::detail::tmat3x3<float>::tmat3x3<float>
PUBLIC	__real@3f800000
PUBLIC	?getPatch@VBOTeapotPatch@@AAEXHQAY03U?$tvec3@M@detail@glm@@_N@Z ; VBOTeapotPatch::getPatch
PUBLIC	??_H@YGXPAXIHP6EPAX0@Z@Z			; `vector constructor iterator'
PUBLIC	??0?$tvec3@M@detail@glm@@QAE@XZ			; glm::detail::tvec3<float>::tvec3<float>
PUBLIC	__$ArrayPad$
EXTRN	___security_cookie:DWORD
EXTRN	__fltused:DWORD
EXTRN	@__security_check_cookie@4:PROC
;	COMDAT __real@bf800000
CONST	SEGMENT
__real@bf800000 DD 0bf800000r			; -1
CONST	ENDS
;	COMDAT __real@00000000
CONST	SEGMENT
__real@00000000 DD 000000000r			; 0
CONST	ENDS
;	COMDAT __real@3f800000
CONST	SEGMENT
__real@3f800000 DD 03f800000r			; 1
; Function compile flags: /Odtp /RTCsu /ZI
CONST	ENDS
;	COMDAT ?buildPatchReflect@VBOTeapotPatch@@AAEXHPAMAAH_N2@Z
_TEXT	SEGMENT
$T41917 = -1156						; size = 4
$T41919 = -1132						; size = 12
$T41920 = -1112						; size = 4
$T41921 = -1100						; size = 4
$T41922 = -1088						; size = 4
$T41923 = -1076						; size = 12
$T41924 = -1056						; size = 4
$T41925 = -1044						; size = 4
$T41926 = -1032						; size = 4
$T41927 = -1020						; size = 12
$T41928 = -1000						; size = 4
$T41929 = -988						; size = 4
$T41930 = -976						; size = 4
$T41932 = -952						; size = 12
$T41933 = -932						; size = 4
$T41934 = -920						; size = 4
$T41935 = -908						; size = 4
$T41936 = -896						; size = 12
$T41937 = -876						; size = 4
$T41938 = -864						; size = 4
$T41939 = -852						; size = 4
$T41940 = -840						; size = 12
$T41941 = -820						; size = 4
$T41942 = -808						; size = 4
$T41943 = -796						; size = 4
$T41945 = -772						; size = 12
$T41946 = -752						; size = 4
$T41947 = -740						; size = 4
$T41948 = -728						; size = 4
$T41949 = -716						; size = 12
$T41950 = -696						; size = 4
$T41951 = -684						; size = 4
$T41952 = -672						; size = 4
$T41953 = -660						; size = 12
$T41954 = -640						; size = 4
$T41955 = -628						; size = 4
$T41956 = -616						; size = 4
_patchRevV$ = -412					; size = 192
_patch$ = -212						; size = 192
_this$ = -12						; size = 4
__$ArrayPad$ = -4					; size = 4
_patchNum$ = 8						; size = 4
_v$ = 12						; size = 4
_index$ = 16						; size = 4
_reflectX$ = 20						; size = 1
_reflectY$ = 24						; size = 1
?buildPatchReflect@VBOTeapotPatch@@AAEXHPAMAAH_N2@Z PROC ; VBOTeapotPatch::buildPatchReflect, COMDAT
; _this$ = ecx

; 65   : {

	push	ebp
	mov	ebp, esp
	sub	esp, 1172				; 00000494H
	push	ebx
	push	esi
	push	edi
	push	ecx
	lea	edi, DWORD PTR [ebp-1172]
	mov	ecx, 293				; 00000125H
	mov	eax, -858993460				; ccccccccH
	rep stosd
	pop	ecx
	mov	eax, DWORD PTR ___security_cookie
	xor	eax, ebp
	mov	DWORD PTR __$ArrayPad$[ebp], eax
	mov	DWORD PTR _this$[ebp], ecx

; 66   :     vec3 patch[4][4];

	push	OFFSET ??0?$tvec3@M@detail@glm@@QAE@XZ	; glm::detail::tvec3<float>::tvec3<float>
	push	16					; 00000010H
	push	12					; 0000000cH
	lea	eax, DWORD PTR _patch$[ebp]
	push	eax
	call	??_H@YGXPAXIHP6EPAX0@Z@Z

; 67   :     vec3 patchRevV[4][4];

	push	OFFSET ??0?$tvec3@M@detail@glm@@QAE@XZ	; glm::detail::tvec3<float>::tvec3<float>
	push	16					; 00000010H
	push	12					; 0000000cH
	lea	eax, DWORD PTR _patchRevV$[ebp]
	push	eax
	call	??_H@YGXPAXIHP6EPAX0@Z@Z

; 68   :     getPatch(patchNum, patch, false);

	push	0
	lea	eax, DWORD PTR _patch$[ebp]
	push	eax
	mov	ecx, DWORD PTR _patchNum$[ebp]
	push	ecx
	mov	ecx, DWORD PTR _this$[ebp]
	call	?getPatch@VBOTeapotPatch@@AAEXHQAY03U?$tvec3@M@detail@glm@@_N@Z ; VBOTeapotPatch::getPatch

; 69   :     getPatch(patchNum, patchRevV, true);

	push	1
	lea	eax, DWORD PTR _patchRevV$[ebp]
	push	eax
	mov	ecx, DWORD PTR _patchNum$[ebp]
	push	ecx
	mov	ecx, DWORD PTR _this$[ebp]
	call	?getPatch@VBOTeapotPatch@@AAEXHQAY03U?$tvec3@M@detail@glm@@_N@Z ; VBOTeapotPatch::getPatch

; 70   : 
; 71   :     // Patch without modification
; 72   :     buildPatch(patchRevV, v, index, mat3(1.0f));

	fld1
	fstp	DWORD PTR $T41917[ebp]
	sub	esp, 36					; 00000024H
	mov	ecx, esp
	lea	eax, DWORD PTR $T41917[ebp]
	push	eax
	call	??0?$tmat3x3@M@detail@glm@@QAE@ABM@Z	; glm::detail::tmat3x3<float>::tmat3x3<float>
	mov	ecx, DWORD PTR _index$[ebp]
	push	ecx
	mov	edx, DWORD PTR _v$[ebp]
	push	edx
	lea	eax, DWORD PTR _patchRevV$[ebp]
	push	eax
	mov	ecx, DWORD PTR _this$[ebp]
	call	?buildPatch@VBOTeapotPatch@@AAEXQAY03U?$tvec3@M@detail@glm@@PAMAAHU?$tmat3x3@M@34@@Z ; VBOTeapotPatch::buildPatch

; 73   : 
; 74   :     // Patch reflected in x
; 75   :     if( reflectX ) {

	movzx	eax, BYTE PTR _reflectX$[ebp]
	test	eax, eax
	je	$LN3@buildPatch

; 76   :         buildPatch(patch, v,
; 77   :                    index, mat3(vec3(-1.0f, 0.0f, 0.0f),
; 78   :                                vec3(0.0f, 1.0f, 0.0f),
; 79   :                                vec3(0.0f, 0.0f, 1.0f) ) );

	fld1
	fstp	DWORD PTR $T41920[ebp]
	fldz
	fstp	DWORD PTR $T41921[ebp]
	fldz
	fstp	DWORD PTR $T41922[ebp]
	fldz
	fstp	DWORD PTR $T41924[ebp]
	fld1
	fstp	DWORD PTR $T41925[ebp]
	fldz
	fstp	DWORD PTR $T41926[ebp]
	fldz
	fstp	DWORD PTR $T41928[ebp]
	fldz
	fstp	DWORD PTR $T41929[ebp]
	fld	DWORD PTR __real@bf800000
	fstp	DWORD PTR $T41930[ebp]
	lea	eax, DWORD PTR $T41920[ebp]
	push	eax
	lea	ecx, DWORD PTR $T41921[ebp]
	push	ecx
	lea	edx, DWORD PTR $T41922[ebp]
	push	edx
	lea	ecx, DWORD PTR $T41919[ebp]
	call	??0?$tvec3@M@detail@glm@@QAE@ABM00@Z	; glm::detail::tvec3<float>::tvec3<float>
	sub	esp, 36					; 00000024H
	mov	esi, esp
	push	eax
	lea	eax, DWORD PTR $T41924[ebp]
	push	eax
	lea	ecx, DWORD PTR $T41925[ebp]
	push	ecx
	lea	edx, DWORD PTR $T41926[ebp]
	push	edx
	lea	ecx, DWORD PTR $T41923[ebp]
	call	??0?$tvec3@M@detail@glm@@QAE@ABM00@Z	; glm::detail::tvec3<float>::tvec3<float>
	push	eax
	lea	eax, DWORD PTR $T41928[ebp]
	push	eax
	lea	ecx, DWORD PTR $T41929[ebp]
	push	ecx
	lea	edx, DWORD PTR $T41930[ebp]
	push	edx
	lea	ecx, DWORD PTR $T41927[ebp]
	call	??0?$tvec3@M@detail@glm@@QAE@ABM00@Z	; glm::detail::tvec3<float>::tvec3<float>
	push	eax
	mov	ecx, esi
	call	??0?$tmat3x3@M@detail@glm@@QAE@ABU?$tvec3@M@12@00@Z ; glm::detail::tmat3x3<float>::tmat3x3<float>
	mov	eax, DWORD PTR _index$[ebp]
	push	eax
	mov	ecx, DWORD PTR _v$[ebp]
	push	ecx
	lea	edx, DWORD PTR _patch$[ebp]
	push	edx
	mov	ecx, DWORD PTR _this$[ebp]
	call	?buildPatch@VBOTeapotPatch@@AAEXQAY03U?$tvec3@M@detail@glm@@PAMAAHU?$tmat3x3@M@34@@Z ; VBOTeapotPatch::buildPatch
$LN3@buildPatch:

; 80   :     }
; 81   : 
; 82   :     // Patch reflected in y
; 83   :     if( reflectY ) {

	movzx	eax, BYTE PTR _reflectY$[ebp]
	test	eax, eax
	je	$LN2@buildPatch

; 84   :         buildPatch(patch, v,
; 85   :                    index, mat3(vec3(1.0f, 0.0f, 0.0f),
; 86   :                                vec3(0.0f, -1.0f, 0.0f),
; 87   :                                vec3(0.0f, 0.0f, 1.0f) ) );

	fld1
	fstp	DWORD PTR $T41933[ebp]
	fldz
	fstp	DWORD PTR $T41934[ebp]
	fldz
	fstp	DWORD PTR $T41935[ebp]
	fldz
	fstp	DWORD PTR $T41937[ebp]
	fld	DWORD PTR __real@bf800000
	fstp	DWORD PTR $T41938[ebp]
	fldz
	fstp	DWORD PTR $T41939[ebp]
	fldz
	fstp	DWORD PTR $T41941[ebp]
	fldz
	fstp	DWORD PTR $T41942[ebp]
	fld1
	fstp	DWORD PTR $T41943[ebp]
	lea	eax, DWORD PTR $T41933[ebp]
	push	eax
	lea	ecx, DWORD PTR $T41934[ebp]
	push	ecx
	lea	edx, DWORD PTR $T41935[ebp]
	push	edx
	lea	ecx, DWORD PTR $T41932[ebp]
	call	??0?$tvec3@M@detail@glm@@QAE@ABM00@Z	; glm::detail::tvec3<float>::tvec3<float>
	sub	esp, 36					; 00000024H
	mov	esi, esp
	push	eax
	lea	eax, DWORD PTR $T41937[ebp]
	push	eax
	lea	ecx, DWORD PTR $T41938[ebp]
	push	ecx
	lea	edx, DWORD PTR $T41939[ebp]
	push	edx
	lea	ecx, DWORD PTR $T41936[ebp]
	call	??0?$tvec3@M@detail@glm@@QAE@ABM00@Z	; glm::detail::tvec3<float>::tvec3<float>
	push	eax
	lea	eax, DWORD PTR $T41941[ebp]
	push	eax
	lea	ecx, DWORD PTR $T41942[ebp]
	push	ecx
	lea	edx, DWORD PTR $T41943[ebp]
	push	edx
	lea	ecx, DWORD PTR $T41940[ebp]
	call	??0?$tvec3@M@detail@glm@@QAE@ABM00@Z	; glm::detail::tvec3<float>::tvec3<float>
	push	eax
	mov	ecx, esi
	call	??0?$tmat3x3@M@detail@glm@@QAE@ABU?$tvec3@M@12@00@Z ; glm::detail::tmat3x3<float>::tmat3x3<float>
	mov	eax, DWORD PTR _index$[ebp]
	push	eax
	mov	ecx, DWORD PTR _v$[ebp]
	push	ecx
	lea	edx, DWORD PTR _patch$[ebp]
	push	edx
	mov	ecx, DWORD PTR _this$[ebp]
	call	?buildPatch@VBOTeapotPatch@@AAEXQAY03U?$tvec3@M@detail@glm@@PAMAAHU?$tmat3x3@M@34@@Z ; VBOTeapotPatch::buildPatch
$LN2@buildPatch:

; 88   :     }
; 89   : 
; 90   :     // Patch reflected in x and y
; 91   :     if( reflectX && reflectY ) {

	movzx	eax, BYTE PTR _reflectX$[ebp]
	test	eax, eax
	je	$LN1@buildPatch
	movzx	eax, BYTE PTR _reflectY$[ebp]
	test	eax, eax
	je	$LN1@buildPatch

; 92   :         buildPatch(patchRevV, v,
; 93   :                    index, mat3(vec3(-1.0f, 0.0f, 0.0f),
; 94   :                                vec3(0.0f, -1.0f, 0.0f),
; 95   :                                vec3(0.0f, 0.0f, 1.0f) ) );

	fld1
	fstp	DWORD PTR $T41946[ebp]
	fldz
	fstp	DWORD PTR $T41947[ebp]
	fldz
	fstp	DWORD PTR $T41948[ebp]
	fldz
	fstp	DWORD PTR $T41950[ebp]
	fld	DWORD PTR __real@bf800000
	fstp	DWORD PTR $T41951[ebp]
	fldz
	fstp	DWORD PTR $T41952[ebp]
	fldz
	fstp	DWORD PTR $T41954[ebp]
	fldz
	fstp	DWORD PTR $T41955[ebp]
	fld	DWORD PTR __real@bf800000
	fstp	DWORD PTR $T41956[ebp]
	lea	eax, DWORD PTR $T41946[ebp]
	push	eax
	lea	ecx, DWORD PTR $T41947[ebp]
	push	ecx
	lea	edx, DWORD PTR $T41948[ebp]
	push	edx
	lea	ecx, DWORD PTR $T41945[ebp]
	call	??0?$tvec3@M@detail@glm@@QAE@ABM00@Z	; glm::detail::tvec3<float>::tvec3<float>
	sub	esp, 36					; 00000024H
	mov	esi, esp
	push	eax
	lea	eax, DWORD PTR $T41950[ebp]
	push	eax
	lea	ecx, DWORD PTR $T41951[ebp]
	push	ecx
	lea	edx, DWORD PTR $T41952[ebp]
	push	edx
	lea	ecx, DWORD PTR $T41949[ebp]
	call	??0?$tvec3@M@detail@glm@@QAE@ABM00@Z	; glm::detail::tvec3<float>::tvec3<float>
	push	eax
	lea	eax, DWORD PTR $T41954[ebp]
	push	eax
	lea	ecx, DWORD PTR $T41955[ebp]
	push	ecx
	lea	edx, DWORD PTR $T41956[ebp]
	push	edx
	lea	ecx, DWORD PTR $T41953[ebp]
	call	??0?$tvec3@M@detail@glm@@QAE@ABM00@Z	; glm::detail::tvec3<float>::tvec3<float>
	push	eax
	mov	ecx, esi
	call	??0?$tmat3x3@M@detail@glm@@QAE@ABU?$tvec3@M@12@00@Z ; glm::detail::tmat3x3<float>::tmat3x3<float>
	mov	eax, DWORD PTR _index$[ebp]
	push	eax
	mov	ecx, DWORD PTR _v$[ebp]
	push	ecx
	lea	edx, DWORD PTR _patchRevV$[ebp]
	push	edx
	mov	ecx, DWORD PTR _this$[ebp]
	call	?buildPatch@VBOTeapotPatch@@AAEXQAY03U?$tvec3@M@detail@glm@@PAMAAHU?$tmat3x3@M@34@@Z ; VBOTeapotPatch::buildPatch
$LN1@buildPatch:

; 96   :     }
; 97   : }

	push	edx
	mov	ecx, ebp
	push	eax
	lea	edx, DWORD PTR $LN9@buildPatch
	call	@_RTC_CheckStackVars@8
	pop	eax
	pop	edx
	pop	edi
	pop	esi
	pop	ebx
	mov	ecx, DWORD PTR __$ArrayPad$[ebp]
	xor	ecx, ebp
	call	@__security_check_cookie@4
	add	esp, 1172				; 00000494H
	cmp	ebp, esp
	call	__RTC_CheckEsp
	mov	esp, ebp
	pop	ebp
	ret	20					; 00000014H
$LN9@buildPatch:
	DD	2
	DD	$LN8@buildPatch
$LN8@buildPatch:
	DD	-212					; ffffff2cH
	DD	192					; 000000c0H
	DD	$LN6@buildPatch
	DD	-412					; fffffe64H
	DD	192					; 000000c0H
	DD	$LN7@buildPatch
$LN7@buildPatch:
	DB	112					; 00000070H
	DB	97					; 00000061H
	DB	116					; 00000074H
	DB	99					; 00000063H
	DB	104					; 00000068H
	DB	82					; 00000052H
	DB	101					; 00000065H
	DB	118					; 00000076H
	DB	86					; 00000056H
	DB	0
$LN6@buildPatch:
	DB	112					; 00000070H
	DB	97					; 00000061H
	DB	116					; 00000074H
	DB	99					; 00000063H
	DB	104					; 00000068H
	DB	0
?buildPatchReflect@VBOTeapotPatch@@AAEXHPAMAAH_N2@Z ENDP ; VBOTeapotPatch::buildPatchReflect
; Function compile flags: /Odtp /RTCsu /ZI
_TEXT	ENDS
;	COMDAT ??_H@YGXPAXIHP6EPAX0@Z@Z
_TEXT	SEGMENT
___t$ = 8						; size = 4
___s$ = 12						; size = 4
___n$ = 16						; size = 4
___f$ = 20						; size = 4
??_H@YGXPAXIHP6EPAX0@Z@Z PROC				; `vector constructor iterator', COMDAT
	push	ebp
	mov	ebp, esp
	sub	esp, 192				; 000000c0H
	push	ebx
	push	esi
	push	edi
	lea	edi, DWORD PTR [ebp-192]
	mov	ecx, 48					; 00000030H
	mov	eax, -858993460				; ccccccccH
	rep stosd
$LN2@vector:
	mov	eax, DWORD PTR ___n$[ebp]
	sub	eax, 1
	mov	DWORD PTR ___n$[ebp], eax
	js	SHORT $LN3@vector
	mov	esi, esp
	mov	ecx, DWORD PTR ___t$[ebp]
	call	DWORD PTR ___f$[ebp]
	cmp	esi, esp
	call	__RTC_CheckEsp
	mov	eax, DWORD PTR ___t$[ebp]
	add	eax, DWORD PTR ___s$[ebp]
	mov	DWORD PTR ___t$[ebp], eax
	jmp	SHORT $LN2@vector
$LN3@vector:
	pop	edi
	pop	esi
	pop	ebx
	add	esp, 192				; 000000c0H
	cmp	ebp, esp
	call	__RTC_CheckEsp
	mov	esp, ebp
	pop	ebp
	ret	16					; 00000010H
??_H@YGXPAXIHP6EPAX0@Z@Z ENDP				; `vector constructor iterator'
_TEXT	ENDS
PUBLIC	??$?DM@detail@glm@@YA?AU?$tvec3@M@01@ABU?$tmat3x3@M@01@ABU201@@Z ; glm::detail::operator*<float>
; Function compile flags: /Odtp /RTCsu /ZI
;	COMDAT ?buildPatch@VBOTeapotPatch@@AAEXQAY03U?$tvec3@M@detail@glm@@PAMAAHU?$tmat3x3@M@34@@Z
_TEXT	SEGMENT
_pt$41191 = -52						; size = 12
_j$41187 = -32						; size = 4
_i$41183 = -20						; size = 4
_this$ = -8						; size = 4
_patch$ = 8						; size = 4
_v$ = 12						; size = 4
_index$ = 16						; size = 4
_reflect$ = 20						; size = 36
?buildPatch@VBOTeapotPatch@@AAEXQAY03U?$tvec3@M@detail@glm@@PAMAAHU?$tmat3x3@M@34@@Z PROC ; VBOTeapotPatch::buildPatch, COMDAT
; _this$ = ecx

; 101  : {

	push	ebp
	mov	ebp, esp
	sub	esp, 260				; 00000104H
	push	ebx
	push	esi
	push	edi
	push	ecx
	lea	edi, DWORD PTR [ebp-260]
	mov	ecx, 65					; 00000041H
	mov	eax, -858993460				; ccccccccH
	rep stosd
	pop	ecx
	mov	DWORD PTR _this$[ebp], ecx

; 102  :     for( int i = 0; i < 4; i++ )

	mov	DWORD PTR _i$41183[ebp], 0
	jmp	SHORT $LN6@buildPatch@2
$LN5@buildPatch@2:
	mov	eax, DWORD PTR _i$41183[ebp]
	add	eax, 1
	mov	DWORD PTR _i$41183[ebp], eax
$LN6@buildPatch@2:
	cmp	DWORD PTR _i$41183[ebp], 4
	jge	SHORT $LN4@buildPatch@2

; 103  :     {
; 104  :         for( int j = 0 ; j < 4; j++)

	mov	DWORD PTR _j$41187[ebp], 0
	jmp	SHORT $LN3@buildPatch@2
$LN2@buildPatch@2:
	mov	eax, DWORD PTR _j$41187[ebp]
	add	eax, 1
	mov	DWORD PTR _j$41187[ebp], eax
$LN3@buildPatch@2:
	cmp	DWORD PTR _j$41187[ebp], 4
	jge	SHORT $LN1@buildPatch@2

; 105  :         {
; 106  :             vec3 pt = reflect * patch[i][j];

	mov	eax, DWORD PTR _i$41183[ebp]
	imul	eax, 48					; 00000030H
	add	eax, DWORD PTR _patch$[ebp]
	mov	ecx, DWORD PTR _j$41187[ebp]
	imul	ecx, 12					; 0000000cH
	add	eax, ecx
	push	eax
	lea	edx, DWORD PTR _reflect$[ebp]
	push	edx
	lea	eax, DWORD PTR _pt$41191[ebp]
	push	eax
	call	??$?DM@detail@glm@@YA?AU?$tvec3@M@01@ABU?$tmat3x3@M@01@ABU201@@Z ; glm::detail::operator*<float>
	add	esp, 12					; 0000000cH

; 107  : 
; 108  :             v[index] = pt.x;

	mov	eax, DWORD PTR _index$[ebp]
	mov	ecx, DWORD PTR [eax]
	mov	edx, DWORD PTR _v$[ebp]
	fld	DWORD PTR _pt$41191[ebp]
	fstp	DWORD PTR [edx+ecx*4]

; 109  :             v[index+1] = pt.y;

	mov	eax, DWORD PTR _index$[ebp]
	mov	ecx, DWORD PTR [eax]
	mov	edx, DWORD PTR _v$[ebp]
	fld	DWORD PTR _pt$41191[ebp+4]
	fstp	DWORD PTR [edx+ecx*4+4]

; 110  :             v[index+2] = pt.z;

	mov	eax, DWORD PTR _index$[ebp]
	mov	ecx, DWORD PTR [eax]
	mov	edx, DWORD PTR _v$[ebp]
	fld	DWORD PTR _pt$41191[ebp+8]
	fstp	DWORD PTR [edx+ecx*4+8]

; 111  : 
; 112  :             index += 3;

	mov	eax, DWORD PTR _index$[ebp]
	mov	ecx, DWORD PTR [eax]
	add	ecx, 3
	mov	edx, DWORD PTR _index$[ebp]
	mov	DWORD PTR [edx], ecx

; 113  :         }

	jmp	SHORT $LN2@buildPatch@2
$LN1@buildPatch@2:

; 114  :     }

	jmp	$LN5@buildPatch@2
$LN4@buildPatch@2:

; 115  : }

	push	edx
	mov	ecx, ebp
	push	eax
	lea	edx, DWORD PTR $LN12@buildPatch@2
	call	@_RTC_CheckStackVars@8
	pop	eax
	pop	edx
	pop	edi
	pop	esi
	pop	ebx
	add	esp, 260				; 00000104H
	cmp	ebp, esp
	call	__RTC_CheckEsp
	mov	esp, ebp
	pop	ebp
	ret	48					; 00000030H
$LN12@buildPatch@2:
	DD	2
	DD	$LN11@buildPatch@2
$LN11@buildPatch@2:
	DD	-52					; ffffffccH
	DD	12					; 0000000cH
	DD	$LN9@buildPatch@2
	DD	-64					; ffffffc0H
	DD	4
	DD	$LN10@buildPatch@2
$LN10@buildPatch@2:
	DB	95					; 0000005fH
	DB	36					; 00000024H
	DB	65					; 00000041H
	DB	114					; 00000072H
	DB	114					; 00000072H
	DB	97					; 00000061H
	DB	121					; 00000079H
	DB	80					; 00000050H
	DB	97					; 00000061H
	DB	100					; 00000064H
	DB	0
$LN9@buildPatch@2:
	DB	112					; 00000070H
	DB	116					; 00000074H
	DB	0
?buildPatch@VBOTeapotPatch@@AAEXQAY03U?$tvec3@M@detail@glm@@PAMAAHU?$tmat3x3@M@34@@Z ENDP ; VBOTeapotPatch::buildPatch
_TEXT	ENDS
PUBLIC	??4?$tvec3@M@detail@glm@@QAEAAU012@ABU012@@Z	; glm::detail::tvec3<float>::operator=
; Function compile flags: /Odtp /RTCsu /ZI
;	COMDAT ?getPatch@VBOTeapotPatch@@AAEXHQAY03U?$tvec3@M@detail@glm@@_N@Z
_TEXT	SEGMENT
$T41981 = -264						; size = 12
$T41982 = -244						; size = 12
_v$41222 = -32						; size = 4
_u$41218 = -20						; size = 4
_this$ = -8						; size = 4
_patchNum$ = 8						; size = 4
_patch$ = 12						; size = 4
_reverseV$ = 16						; size = 1
?getPatch@VBOTeapotPatch@@AAEXHQAY03U?$tvec3@M@detail@glm@@_N@Z PROC ; VBOTeapotPatch::getPatch, COMDAT
; _this$ = ecx

; 118  : {

	push	ebp
	mov	ebp, esp
	sub	esp, 268				; 0000010cH
	push	ebx
	push	esi
	push	edi
	push	ecx
	lea	edi, DWORD PTR [ebp-268]
	mov	ecx, 67					; 00000043H
	mov	eax, -858993460				; ccccccccH
	rep stosd
	pop	ecx
	mov	DWORD PTR _this$[ebp], ecx

; 119  :     for( int u = 0; u < 4; u++) {          // Loop in u direction

	mov	DWORD PTR _u$41218[ebp], 0
	jmp	SHORT $LN8@getPatch
$LN7@getPatch:
	mov	eax, DWORD PTR _u$41218[ebp]
	add	eax, 1
	mov	DWORD PTR _u$41218[ebp], eax
$LN8@getPatch:
	cmp	DWORD PTR _u$41218[ebp], 4
	jge	$LN9@getPatch

; 120  :         for( int v = 0; v < 4; v++ ) {     // Loop in v direction

	mov	DWORD PTR _v$41222[ebp], 0
	jmp	SHORT $LN5@getPatch
$LN4@getPatch:
	mov	eax, DWORD PTR _v$41222[ebp]
	add	eax, 1
	mov	DWORD PTR _v$41222[ebp], eax
$LN5@getPatch:
	cmp	DWORD PTR _v$41222[ebp], 4
	jge	$LN3@getPatch

; 121  :             if( reverseV ) {

	movzx	eax, BYTE PTR _reverseV$[ebp]
	test	eax, eax
	je	$LN2@getPatch

; 122  :                 patch[u][v] = vec3(
; 123  :                         Teapot::cpdata[Teapot::patchdata[patchNum][u*4+(3-v)]][0],
; 124  :                         Teapot::cpdata[Teapot::patchdata[patchNum][u*4+(3-v)]][1],
; 125  :                         Teapot::cpdata[Teapot::patchdata[patchNum][u*4+(3-v)]][2]
; 126  :                         );

	mov	eax, DWORD PTR _patchNum$[ebp]
	shl	eax, 6
	mov	ecx, 3
	sub	ecx, DWORD PTR _v$41222[ebp]
	mov	edx, DWORD PTR _u$41218[ebp]
	lea	ecx, DWORD PTR [ecx+edx*4]
	mov	edx, DWORD PTR _patchdata[eax+ecx*4]
	imul	edx, 12					; 0000000cH
	add	edx, OFFSET _cpdata+8
	push	edx
	mov	eax, DWORD PTR _patchNum$[ebp]
	shl	eax, 6
	mov	ecx, 3
	sub	ecx, DWORD PTR _v$41222[ebp]
	mov	edx, DWORD PTR _u$41218[ebp]
	lea	ecx, DWORD PTR [ecx+edx*4]
	mov	edx, DWORD PTR _patchdata[eax+ecx*4]
	imul	edx, 12					; 0000000cH
	add	edx, OFFSET _cpdata+4
	push	edx
	mov	eax, DWORD PTR _patchNum$[ebp]
	shl	eax, 6
	mov	ecx, 3
	sub	ecx, DWORD PTR _v$41222[ebp]
	mov	edx, DWORD PTR _u$41218[ebp]
	lea	ecx, DWORD PTR [ecx+edx*4]
	mov	edx, DWORD PTR _patchdata[eax+ecx*4]
	imul	edx, 12					; 0000000cH
	add	edx, OFFSET _cpdata
	push	edx
	lea	ecx, DWORD PTR $T41981[ebp]
	call	??0?$tvec3@M@detail@glm@@QAE@ABM00@Z	; glm::detail::tvec3<float>::tvec3<float>
	push	eax
	mov	ecx, DWORD PTR _u$41218[ebp]
	imul	ecx, 48					; 00000030H
	add	ecx, DWORD PTR _patch$[ebp]
	mov	eax, DWORD PTR _v$41222[ebp]
	imul	eax, 12					; 0000000cH
	add	ecx, eax
	call	??4?$tvec3@M@detail@glm@@QAEAAU012@ABU012@@Z ; glm::detail::tvec3<float>::operator=

; 127  :             } else {

	jmp	$LN1@getPatch
$LN2@getPatch:

; 128  :                 patch[u][v] = vec3(
; 129  :                         Teapot::cpdata[Teapot::patchdata[patchNum][u*4+v]][0],
; 130  :                         Teapot::cpdata[Teapot::patchdata[patchNum][u*4+v]][1],
; 131  :                         Teapot::cpdata[Teapot::patchdata[patchNum][u*4+v]][2]
; 132  :                         );

	mov	eax, DWORD PTR _patchNum$[ebp]
	shl	eax, 6
	mov	ecx, DWORD PTR _u$41218[ebp]
	mov	edx, DWORD PTR _v$41222[ebp]
	lea	ecx, DWORD PTR [edx+ecx*4]
	mov	edx, DWORD PTR _patchdata[eax+ecx*4]
	imul	edx, 12					; 0000000cH
	add	edx, OFFSET _cpdata+8
	push	edx
	mov	eax, DWORD PTR _patchNum$[ebp]
	shl	eax, 6
	mov	ecx, DWORD PTR _u$41218[ebp]
	mov	edx, DWORD PTR _v$41222[ebp]
	lea	ecx, DWORD PTR [edx+ecx*4]
	mov	edx, DWORD PTR _patchdata[eax+ecx*4]
	imul	edx, 12					; 0000000cH
	add	edx, OFFSET _cpdata+4
	push	edx
	mov	eax, DWORD PTR _patchNum$[ebp]
	shl	eax, 6
	mov	ecx, DWORD PTR _u$41218[ebp]
	mov	edx, DWORD PTR _v$41222[ebp]
	lea	ecx, DWORD PTR [edx+ecx*4]
	mov	edx, DWORD PTR _patchdata[eax+ecx*4]
	imul	edx, 12					; 0000000cH
	add	edx, OFFSET _cpdata
	push	edx
	lea	ecx, DWORD PTR $T41982[ebp]
	call	??0?$tvec3@M@detail@glm@@QAE@ABM00@Z	; glm::detail::tvec3<float>::tvec3<float>
	push	eax
	mov	ecx, DWORD PTR _u$41218[ebp]
	imul	ecx, 48					; 00000030H
	add	ecx, DWORD PTR _patch$[ebp]
	mov	eax, DWORD PTR _v$41222[ebp]
	imul	eax, 12					; 0000000cH
	add	ecx, eax
	call	??4?$tvec3@M@detail@glm@@QAEAAU012@ABU012@@Z ; glm::detail::tvec3<float>::operator=
$LN1@getPatch:

; 133  :             }
; 134  :         }

	jmp	$LN4@getPatch
$LN3@getPatch:

; 135  :     }

	jmp	$LN7@getPatch
$LN9@getPatch:

; 136  : }

	pop	edi
	pop	esi
	pop	ebx
	add	esp, 268				; 0000010cH
	cmp	ebp, esp
	call	__RTC_CheckEsp
	mov	esp, ebp
	pop	ebp
	ret	12					; 0000000cH
?getPatch@VBOTeapotPatch@@AAEXHQAY03U?$tvec3@M@detail@glm@@_N@Z ENDP ; VBOTeapotPatch::getPatch
_TEXT	ENDS
EXTRN	__imp__glDrawArrays@12:PROC
EXTRN	__imp____glewPatchParameteri:DWORD
; Function compile flags: /Odtp /RTCsu /ZI
;	COMDAT ?render@VBOTeapotPatch@@UBEXXZ
_TEXT	SEGMENT
_this$ = -8						; size = 4
?render@VBOTeapotPatch@@UBEXXZ PROC			; VBOTeapotPatch::render, COMDAT
; _this$ = ecx

; 138  : void VBOTeapotPatch::render() const {

	push	ebp
	mov	ebp, esp
	sub	esp, 204				; 000000ccH
	push	ebx
	push	esi
	push	edi
	push	ecx
	lea	edi, DWORD PTR [ebp-204]
	mov	ecx, 51					; 00000033H
	mov	eax, -858993460				; ccccccccH
	rep stosd
	pop	ecx
	mov	DWORD PTR _this$[ebp], ecx

; 139  :     glPatchParameteri(GL_PATCH_VERTICES, 16);

	mov	esi, esp
	push	16					; 00000010H
	push	36466					; 00008e72H
	mov	eax, DWORD PTR __imp____glewPatchParameteri
	mov	ecx, DWORD PTR [eax]
	call	ecx
	cmp	esi, esp
	call	__RTC_CheckEsp

; 140  : 
; 141  :     glBindVertexArray(vaoHandle);

	mov	esi, esp
	mov	eax, DWORD PTR _this$[ebp]
	mov	ecx, DWORD PTR [eax+4]
	push	ecx
	mov	edx, DWORD PTR __imp____glewBindVertexArray
	mov	eax, DWORD PTR [edx]
	call	eax
	cmp	esi, esp
	call	__RTC_CheckEsp

; 142  :     glDrawArrays(GL_PATCHES, 0, 512);

	mov	esi, esp
	push	512					; 00000200H
	push	0
	push	14					; 0000000eH
	call	DWORD PTR __imp__glDrawArrays@12
	cmp	esi, esp
	call	__RTC_CheckEsp

; 143  : }

	pop	edi
	pop	esi
	pop	ebx
	add	esp, 204				; 000000ccH
	cmp	ebp, esp
	call	__RTC_CheckEsp
	mov	esp, ebp
	pop	ebp
	ret	0
?render@VBOTeapotPatch@@UBEXXZ ENDP			; VBOTeapotPatch::render
; Function compile flags: /Odtp /RTCsu /ZI
; File c:\opengl\glm-0.9.3.1\glm\core\type_vec3.inl
_TEXT	ENDS
;	COMDAT ??0?$tvec3@M@detail@glm@@QAE@ABM00@Z
_TEXT	SEGMENT
_this$ = -8						; size = 4
_s0$ = 8						; size = 4
_s1$ = 12						; size = 4
_s2$ = 16						; size = 4
??0?$tvec3@M@detail@glm@@QAE@ABM00@Z PROC		; glm::detail::tvec3<float>::tvec3<float>, COMDAT
; _this$ = ecx

; 113  : 	{}

	push	ebp
	mov	ebp, esp
	sub	esp, 204				; 000000ccH
	push	ebx
	push	esi
	push	edi
	push	ecx
	lea	edi, DWORD PTR [ebp-204]
	mov	ecx, 51					; 00000033H
	mov	eax, -858993460				; ccccccccH
	rep stosd
	pop	ecx
	mov	DWORD PTR _this$[ebp], ecx
	mov	eax, DWORD PTR _this$[ebp]
	mov	ecx, DWORD PTR _s0$[ebp]
	fld	DWORD PTR [ecx]
	fstp	DWORD PTR [eax]
	mov	eax, DWORD PTR _this$[ebp]
	mov	ecx, DWORD PTR _s1$[ebp]
	fld	DWORD PTR [ecx]
	fstp	DWORD PTR [eax+4]
	mov	eax, DWORD PTR _this$[ebp]
	mov	ecx, DWORD PTR _s2$[ebp]
	fld	DWORD PTR [ecx]
	fstp	DWORD PTR [eax+8]
	mov	eax, DWORD PTR _this$[ebp]
	pop	edi
	pop	esi
	pop	ebx
	mov	esp, ebp
	pop	ebp
	ret	12					; 0000000cH
??0?$tvec3@M@detail@glm@@QAE@ABM00@Z ENDP		; glm::detail::tvec3<float>::tvec3<float>
; Function compile flags: /Odtp /RTCsu /ZI
_TEXT	ENDS
;	COMDAT ??0?$tvec3@M@detail@glm@@QAE@XZ
_TEXT	SEGMENT
_this$ = -8						; size = 4
??0?$tvec3@M@detail@glm@@QAE@XZ PROC			; glm::detail::tvec3<float>::tvec3<float>, COMDAT
; _this$ = ecx

; 71   : 	{}

	push	ebp
	mov	ebp, esp
	sub	esp, 204				; 000000ccH
	push	ebx
	push	esi
	push	edi
	push	ecx
	lea	edi, DWORD PTR [ebp-204]
	mov	ecx, 51					; 00000033H
	mov	eax, -858993460				; ccccccccH
	rep stosd
	pop	ecx
	mov	DWORD PTR _this$[ebp], ecx
	mov	eax, DWORD PTR _this$[ebp]
	fldz
	fstp	DWORD PTR [eax]
	mov	eax, DWORD PTR _this$[ebp]
	fldz
	fstp	DWORD PTR [eax+4]
	mov	eax, DWORD PTR _this$[ebp]
	fldz
	fstp	DWORD PTR [eax+8]
	mov	eax, DWORD PTR _this$[ebp]
	pop	edi
	pop	esi
	pop	ebx
	mov	esp, ebp
	pop	ebp
	ret	0
??0?$tvec3@M@detail@glm@@QAE@XZ ENDP			; glm::detail::tvec3<float>::tvec3<float>
; Function compile flags: /Odtp /RTCsu /ZI
_TEXT	ENDS
;	COMDAT ??4?$tvec3@M@detail@glm@@QAEAAU012@ABU012@@Z
_TEXT	SEGMENT
_this$ = -8						; size = 4
_v$ = 8							; size = 4
??4?$tvec3@M@detail@glm@@QAEAAU012@ABU012@@Z PROC	; glm::detail::tvec3<float>::operator=, COMDAT
; _this$ = ecx

; 236  : 	{

	push	ebp
	mov	ebp, esp
	sub	esp, 204				; 000000ccH
	push	ebx
	push	esi
	push	edi
	push	ecx
	lea	edi, DWORD PTR [ebp-204]
	mov	ecx, 51					; 00000033H
	mov	eax, -858993460				; ccccccccH
	rep stosd
	pop	ecx
	mov	DWORD PTR _this$[ebp], ecx

; 237  : 		this->x = v.x;

	mov	eax, DWORD PTR _this$[ebp]
	mov	ecx, DWORD PTR _v$[ebp]
	fld	DWORD PTR [ecx]
	fstp	DWORD PTR [eax]

; 238  : 		this->y = v.y;

	mov	eax, DWORD PTR _this$[ebp]
	mov	ecx, DWORD PTR _v$[ebp]
	fld	DWORD PTR [ecx+4]
	fstp	DWORD PTR [eax+4]

; 239  : 		this->z = v.z;

	mov	eax, DWORD PTR _this$[ebp]
	mov	ecx, DWORD PTR _v$[ebp]
	fld	DWORD PTR [ecx+8]
	fstp	DWORD PTR [eax+8]

; 240  : 		return *this;

	mov	eax, DWORD PTR _this$[ebp]

; 241  : 	}

	pop	edi
	pop	esi
	pop	ebx
	mov	esp, ebp
	pop	ebp
	ret	4
??4?$tvec3@M@detail@glm@@QAEAAU012@ABU012@@Z ENDP	; glm::detail::tvec3<float>::operator=
; Function compile flags: /Odtp /RTCsu /ZI
; File c:\opengl\glm-0.9.3.1\glm\core\type_mat3x3.inl
_TEXT	ENDS
;	COMDAT ??0?$tmat3x3@M@detail@glm@@QAE@ABU?$tvec3@M@12@00@Z
_TEXT	SEGMENT
_this$ = -8						; size = 4
_v0$ = 8						; size = 4
_v1$ = 12						; size = 4
_v2$ = 16						; size = 4
??0?$tmat3x3@M@detail@glm@@QAE@ABU?$tvec3@M@12@00@Z PROC ; glm::detail::tmat3x3<float>::tmat3x3<float>, COMDAT
; _this$ = ecx

; 138  :     {

	push	ebp
	mov	ebp, esp
	sub	esp, 204				; 000000ccH
	push	ebx
	push	esi
	push	edi
	push	ecx
	lea	edi, DWORD PTR [ebp-204]
	mov	ecx, 51					; 00000033H
	mov	eax, -858993460				; ccccccccH
	rep stosd
	pop	ecx
	mov	DWORD PTR _this$[ebp], ecx
	push	OFFSET ??0?$tvec3@M@detail@glm@@QAE@XZ	; glm::detail::tvec3<float>::tvec3<float>
	push	3
	push	12					; 0000000cH
	mov	eax, DWORD PTR _this$[ebp]
	push	eax
	call	??_H@YGXPAXIHP6EPAX0@Z@Z

; 139  :         this->value[0] = v0;

	mov	eax, DWORD PTR _v0$[ebp]
	push	eax
	mov	ecx, DWORD PTR _this$[ebp]
	call	??4?$tvec3@M@detail@glm@@QAEAAU012@ABU012@@Z ; glm::detail::tvec3<float>::operator=

; 140  :         this->value[1] = v1;

	mov	eax, DWORD PTR _v1$[ebp]
	push	eax
	mov	ecx, DWORD PTR _this$[ebp]
	add	ecx, 12					; 0000000cH
	call	??4?$tvec3@M@detail@glm@@QAEAAU012@ABU012@@Z ; glm::detail::tvec3<float>::operator=

; 141  :         this->value[2] = v2;

	mov	eax, DWORD PTR _v2$[ebp]
	push	eax
	mov	ecx, DWORD PTR _this$[ebp]
	add	ecx, 24					; 00000018H
	call	??4?$tvec3@M@detail@glm@@QAEAAU012@ABU012@@Z ; glm::detail::tvec3<float>::operator=

; 142  :     }

	mov	eax, DWORD PTR _this$[ebp]
	pop	edi
	pop	esi
	pop	ebx
	add	esp, 204				; 000000ccH
	cmp	ebp, esp
	call	__RTC_CheckEsp
	mov	esp, ebp
	pop	ebp
	ret	12					; 0000000cH
??0?$tmat3x3@M@detail@glm@@QAE@ABU?$tvec3@M@12@00@Z ENDP ; glm::detail::tmat3x3<float>::tmat3x3<float>
; Function compile flags: /Odtp /RTCsu /ZI
_TEXT	ENDS
;	COMDAT ??0?$tmat3x3@M@detail@glm@@QAE@ABM@Z
_TEXT	SEGMENT
$T41995 = -272						; size = 12
$T41996 = -252						; size = 12
$T41997 = -232						; size = 12
_Zero$ = -20						; size = 4
_this$ = -8						; size = 4
_s$ = 8							; size = 4
??0?$tmat3x3@M@detail@glm@@QAE@ABM@Z PROC		; glm::detail::tmat3x3<float>::tmat3x3<float>, COMDAT
; _this$ = ecx

; 111  :     {

	push	ebp
	mov	ebp, esp
	sub	esp, 276				; 00000114H
	push	ebx
	push	esi
	push	edi
	push	ecx
	lea	edi, DWORD PTR [ebp-276]
	mov	ecx, 69					; 00000045H
	mov	eax, -858993460				; ccccccccH
	rep stosd
	pop	ecx
	mov	DWORD PTR _this$[ebp], ecx
	push	OFFSET ??0?$tvec3@M@detail@glm@@QAE@XZ	; glm::detail::tvec3<float>::tvec3<float>
	push	3
	push	12					; 0000000cH
	mov	eax, DWORD PTR _this$[ebp]
	push	eax
	call	??_H@YGXPAXIHP6EPAX0@Z@Z

; 112  : 		value_type const Zero(0);

	fldz
	fstp	DWORD PTR _Zero$[ebp]

; 113  :         this->value[0] = col_type(s, Zero, Zero);

	lea	eax, DWORD PTR _Zero$[ebp]
	push	eax
	lea	ecx, DWORD PTR _Zero$[ebp]
	push	ecx
	mov	edx, DWORD PTR _s$[ebp]
	push	edx
	lea	ecx, DWORD PTR $T41995[ebp]
	call	??0?$tvec3@M@detail@glm@@QAE@ABM00@Z	; glm::detail::tvec3<float>::tvec3<float>
	push	eax
	mov	ecx, DWORD PTR _this$[ebp]
	call	??4?$tvec3@M@detail@glm@@QAEAAU012@ABU012@@Z ; glm::detail::tvec3<float>::operator=

; 114  :         this->value[1] = col_type(Zero, s, Zero);

	lea	eax, DWORD PTR _Zero$[ebp]
	push	eax
	mov	ecx, DWORD PTR _s$[ebp]
	push	ecx
	lea	edx, DWORD PTR _Zero$[ebp]
	push	edx
	lea	ecx, DWORD PTR $T41996[ebp]
	call	??0?$tvec3@M@detail@glm@@QAE@ABM00@Z	; glm::detail::tvec3<float>::tvec3<float>
	push	eax
	mov	ecx, DWORD PTR _this$[ebp]
	add	ecx, 12					; 0000000cH
	call	??4?$tvec3@M@detail@glm@@QAEAAU012@ABU012@@Z ; glm::detail::tvec3<float>::operator=

; 115  :         this->value[2] = col_type(Zero, Zero, s);

	mov	eax, DWORD PTR _s$[ebp]
	push	eax
	lea	ecx, DWORD PTR _Zero$[ebp]
	push	ecx
	lea	edx, DWORD PTR _Zero$[ebp]
	push	edx
	lea	ecx, DWORD PTR $T41997[ebp]
	call	??0?$tvec3@M@detail@glm@@QAE@ABM00@Z	; glm::detail::tvec3<float>::tvec3<float>
	push	eax
	mov	ecx, DWORD PTR _this$[ebp]
	add	ecx, 24					; 00000018H
	call	??4?$tvec3@M@detail@glm@@QAEAAU012@ABU012@@Z ; glm::detail::tvec3<float>::operator=

; 116  :     }

	mov	eax, DWORD PTR _this$[ebp]
	push	edx
	mov	ecx, ebp
	push	eax
	lea	edx, DWORD PTR $LN5@tmat3x3
	call	@_RTC_CheckStackVars@8
	pop	eax
	pop	edx
	pop	edi
	pop	esi
	pop	ebx
	add	esp, 276				; 00000114H
	cmp	ebp, esp
	call	__RTC_CheckEsp
	mov	esp, ebp
	pop	ebp
	ret	4
	npad	2
$LN5@tmat3x3:
	DD	1
	DD	$LN4@tmat3x3
$LN4@tmat3x3:
	DD	-20					; ffffffecH
	DD	4
	DD	$LN3@tmat3x3
$LN3@tmat3x3:
	DB	90					; 0000005aH
	DB	101					; 00000065H
	DB	114					; 00000072H
	DB	111					; 0000006fH
	DB	0
??0?$tmat3x3@M@detail@glm@@QAE@ABM@Z ENDP		; glm::detail::tmat3x3<float>::tmat3x3<float>
_TEXT	ENDS
PUBLIC	??A?$tvec3@M@detail@glm@@QBEABMI@Z		; glm::detail::tvec3<float>::operator[]
PUBLIC	??A?$tmat3x3@M@detail@glm@@QBEABU?$tvec3@M@12@I@Z ; glm::detail::tmat3x3<float>::operator[]
; Function compile flags: /Odtp /RTCsu /ZI
;	COMDAT ??$?DM@detail@glm@@YA?AU?$tvec3@M@01@ABU?$tmat3x3@M@01@ABU201@@Z
_TEXT	SEGMENT
tv240 = -276						; size = 8
tv238 = -268						; size = 8
tv236 = -260						; size = 8
tv234 = -252						; size = 8
tv232 = -244						; size = 8
tv230 = -236						; size = 8
$T42003 = -224						; size = 4
$T42004 = -212						; size = 4
$T42005 = -200						; size = 4
___$ReturnUdt$ = 8					; size = 4
_m$ = 12						; size = 4
_v$ = 16						; size = 4
??$?DM@detail@glm@@YA?AU?$tvec3@M@01@ABU?$tmat3x3@M@01@ABU201@@Z PROC ; glm::detail::operator*<float>, COMDAT

; 595  :     {

	push	ebp
	mov	ebp, esp
	sub	esp, 276				; 00000114H
	push	ebx
	push	esi
	push	edi
	lea	edi, DWORD PTR [ebp-276]
	mov	ecx, 69					; 00000045H
	mov	eax, -858993460				; ccccccccH
	rep stosd

; 596  :         return typename tmat3x3<T>::col_type(
; 597  :             m[0][0] * v.x + m[1][0] * v.y + m[2][0] * v.z,
; 598  :             m[0][1] * v.x + m[1][1] * v.y + m[2][1] * v.z,
; 599  :             m[0][2] * v.x + m[1][2] * v.y + m[2][2] * v.z);

	push	2
	push	0
	mov	ecx, DWORD PTR _m$[ebp]
	call	??A?$tmat3x3@M@detail@glm@@QBEABU?$tvec3@M@12@I@Z ; glm::detail::tmat3x3<float>::operator[]
	mov	ecx, eax
	call	??A?$tvec3@M@detail@glm@@QBEABMI@Z	; glm::detail::tvec3<float>::operator[]
	fld	DWORD PTR [eax]
	mov	eax, DWORD PTR _v$[ebp]
	fmul	DWORD PTR [eax]
	push	2
	push	1
	mov	ecx, DWORD PTR _m$[ebp]
	fstp	QWORD PTR tv230[ebp]
	call	??A?$tmat3x3@M@detail@glm@@QBEABU?$tvec3@M@12@I@Z ; glm::detail::tmat3x3<float>::operator[]
	mov	ecx, eax
	call	??A?$tvec3@M@detail@glm@@QBEABMI@Z	; glm::detail::tvec3<float>::operator[]
	fld	DWORD PTR [eax]
	mov	ecx, DWORD PTR _v$[ebp]
	fmul	DWORD PTR [ecx+4]
	fadd	QWORD PTR tv230[ebp]
	push	2
	push	2
	mov	ecx, DWORD PTR _m$[ebp]
	fstp	QWORD PTR tv232[ebp]
	call	??A?$tmat3x3@M@detail@glm@@QBEABU?$tvec3@M@12@I@Z ; glm::detail::tmat3x3<float>::operator[]
	mov	ecx, eax
	call	??A?$tvec3@M@detail@glm@@QBEABMI@Z	; glm::detail::tvec3<float>::operator[]
	fld	DWORD PTR [eax]
	mov	edx, DWORD PTR _v$[ebp]
	fmul	DWORD PTR [edx+8]
	fadd	QWORD PTR tv232[ebp]
	fstp	DWORD PTR $T42003[ebp]
	push	1
	push	0
	mov	ecx, DWORD PTR _m$[ebp]
	call	??A?$tmat3x3@M@detail@glm@@QBEABU?$tvec3@M@12@I@Z ; glm::detail::tmat3x3<float>::operator[]
	mov	ecx, eax
	call	??A?$tvec3@M@detail@glm@@QBEABMI@Z	; glm::detail::tvec3<float>::operator[]
	fld	DWORD PTR [eax]
	mov	eax, DWORD PTR _v$[ebp]
	fmul	DWORD PTR [eax]
	push	1
	push	1
	mov	ecx, DWORD PTR _m$[ebp]
	fstp	QWORD PTR tv234[ebp]
	call	??A?$tmat3x3@M@detail@glm@@QBEABU?$tvec3@M@12@I@Z ; glm::detail::tmat3x3<float>::operator[]
	mov	ecx, eax
	call	??A?$tvec3@M@detail@glm@@QBEABMI@Z	; glm::detail::tvec3<float>::operator[]
	fld	DWORD PTR [eax]
	mov	ecx, DWORD PTR _v$[ebp]
	fmul	DWORD PTR [ecx+4]
	fadd	QWORD PTR tv234[ebp]
	push	1
	push	2
	mov	ecx, DWORD PTR _m$[ebp]
	fstp	QWORD PTR tv236[ebp]
	call	??A?$tmat3x3@M@detail@glm@@QBEABU?$tvec3@M@12@I@Z ; glm::detail::tmat3x3<float>::operator[]
	mov	ecx, eax
	call	??A?$tvec3@M@detail@glm@@QBEABMI@Z	; glm::detail::tvec3<float>::operator[]
	fld	DWORD PTR [eax]
	mov	edx, DWORD PTR _v$[ebp]
	fmul	DWORD PTR [edx+8]
	fadd	QWORD PTR tv236[ebp]
	fstp	DWORD PTR $T42004[ebp]
	push	0
	push	0
	mov	ecx, DWORD PTR _m$[ebp]
	call	??A?$tmat3x3@M@detail@glm@@QBEABU?$tvec3@M@12@I@Z ; glm::detail::tmat3x3<float>::operator[]
	mov	ecx, eax
	call	??A?$tvec3@M@detail@glm@@QBEABMI@Z	; glm::detail::tvec3<float>::operator[]
	fld	DWORD PTR [eax]
	mov	eax, DWORD PTR _v$[ebp]
	fmul	DWORD PTR [eax]
	push	0
	push	1
	mov	ecx, DWORD PTR _m$[ebp]
	fstp	QWORD PTR tv238[ebp]
	call	??A?$tmat3x3@M@detail@glm@@QBEABU?$tvec3@M@12@I@Z ; glm::detail::tmat3x3<float>::operator[]
	mov	ecx, eax
	call	??A?$tvec3@M@detail@glm@@QBEABMI@Z	; glm::detail::tvec3<float>::operator[]
	fld	DWORD PTR [eax]
	mov	ecx, DWORD PTR _v$[ebp]
	fmul	DWORD PTR [ecx+4]
	fadd	QWORD PTR tv238[ebp]
	push	0
	push	2
	mov	ecx, DWORD PTR _m$[ebp]
	fstp	QWORD PTR tv240[ebp]
	call	??A?$tmat3x3@M@detail@glm@@QBEABU?$tvec3@M@12@I@Z ; glm::detail::tmat3x3<float>::operator[]
	mov	ecx, eax
	call	??A?$tvec3@M@detail@glm@@QBEABMI@Z	; glm::detail::tvec3<float>::operator[]
	fld	DWORD PTR [eax]
	mov	edx, DWORD PTR _v$[ebp]
	fmul	DWORD PTR [edx+8]
	fadd	QWORD PTR tv240[ebp]
	fstp	DWORD PTR $T42005[ebp]
	lea	eax, DWORD PTR $T42003[ebp]
	push	eax
	lea	ecx, DWORD PTR $T42004[ebp]
	push	ecx
	lea	edx, DWORD PTR $T42005[ebp]
	push	edx
	mov	ecx, DWORD PTR ___$ReturnUdt$[ebp]
	call	??0?$tvec3@M@detail@glm@@QAE@ABM00@Z	; glm::detail::tvec3<float>::tvec3<float>
	mov	eax, DWORD PTR ___$ReturnUdt$[ebp]

; 600  :     }

	pop	edi
	pop	esi
	pop	ebx
	add	esp, 276				; 00000114H
	cmp	ebp, esp
	call	__RTC_CheckEsp
	mov	esp, ebp
	pop	ebp
	ret	0
??$?DM@detail@glm@@YA?AU?$tvec3@M@01@ABU?$tmat3x3@M@01@ABU201@@Z ENDP ; glm::detail::operator*<float>
_TEXT	ENDS
PUBLIC	??_C@_1CG@KOFHLCJL@?$AAi?$AA?5?$AA?$DM?$AA?5?$AAt?$AAh?$AAi?$AAs?$AA?9?$AA?$DO?$AAl?$AAe?$AAn?$AAg?$AAt?$AAh?$AA?$CI?$AA?$CJ?$AA?$AA@ ; `string'
PUBLIC	??_C@_1FK@IBGOADNM@?$AAc?$AA?3?$AA?2?$AAo?$AAp?$AAe?$AAn?$AAg?$AAl?$AA?2?$AAg?$AAl?$AAm?$AA?9?$AA0?$AA?4?$AA9?$AA?4?$AA3?$AA?4?$AA1?$AA?2?$AAg?$AAl?$AAm?$AA?2?$AAc?$AAo?$AAr?$AAe?$AA?2?$AAt@ ; `string'
PUBLIC	?length@?$tvec3@M@detail@glm@@QBEIXZ		; glm::detail::tvec3<float>::length
EXTRN	__imp___wassert:PROC
;	COMDAT ??_C@_1CG@KOFHLCJL@?$AAi?$AA?5?$AA?$DM?$AA?5?$AAt?$AAh?$AAi?$AAs?$AA?9?$AA?$DO?$AAl?$AAe?$AAn?$AAg?$AAt?$AAh?$AA?$CI?$AA?$CJ?$AA?$AA@
; File c:\opengl\glm-0.9.3.1\glm\core\type_vec3.inl
CONST	SEGMENT
??_C@_1CG@KOFHLCJL@?$AAi?$AA?5?$AA?$DM?$AA?5?$AAt?$AAh?$AAi?$AAs?$AA?9?$AA?$DO?$AAl?$AAe?$AAn?$AAg?$AAt?$AAh?$AA?$CI?$AA?$CJ?$AA?$AA@ DB 'i'
	DB	00H, ' ', 00H, '<', 00H, ' ', 00H, 't', 00H, 'h', 00H, 'i', 00H
	DB	's', 00H, '-', 00H, '>', 00H, 'l', 00H, 'e', 00H, 'n', 00H, 'g'
	DB	00H, 't', 00H, 'h', 00H, '(', 00H, ')', 00H, 00H, 00H ; `string'
CONST	ENDS
;	COMDAT ??_C@_1FK@IBGOADNM@?$AAc?$AA?3?$AA?2?$AAo?$AAp?$AAe?$AAn?$AAg?$AAl?$AA?2?$AAg?$AAl?$AAm?$AA?9?$AA0?$AA?4?$AA9?$AA?4?$AA3?$AA?4?$AA1?$AA?2?$AAg?$AAl?$AAm?$AA?2?$AAc?$AAo?$AAr?$AAe?$AA?2?$AAt@
CONST	SEGMENT
??_C@_1FK@IBGOADNM@?$AAc?$AA?3?$AA?2?$AAo?$AAp?$AAe?$AAn?$AAg?$AAl?$AA?2?$AAg?$AAl?$AAm?$AA?9?$AA0?$AA?4?$AA9?$AA?4?$AA3?$AA?4?$AA1?$AA?2?$AAg?$AAl?$AAm?$AA?2?$AAc?$AAo?$AAr?$AAe?$AA?2?$AAt@ DB 'c'
	DB	00H, ':', 00H, '\', 00H, 'o', 00H, 'p', 00H, 'e', 00H, 'n', 00H
	DB	'g', 00H, 'l', 00H, '\', 00H, 'g', 00H, 'l', 00H, 'm', 00H, '-'
	DB	00H, '0', 00H, '.', 00H, '9', 00H, '.', 00H, '3', 00H, '.', 00H
	DB	'1', 00H, '\', 00H, 'g', 00H, 'l', 00H, 'm', 00H, '\', 00H, 'c'
	DB	00H, 'o', 00H, 'r', 00H, 'e', 00H, '\', 00H, 't', 00H, 'y', 00H
	DB	'p', 00H, 'e', 00H, '_', 00H, 'v', 00H, 'e', 00H, 'c', 00H, '3'
	DB	00H, '.', 00H, 'i', 00H, 'n', 00H, 'l', 00H, 00H, 00H ; `string'
; Function compile flags: /Odtp /RTCsu /ZI
CONST	ENDS
;	COMDAT ??A?$tvec3@M@detail@glm@@QBEABMI@Z
_TEXT	SEGMENT
_this$ = -8						; size = 4
_i$ = 8							; size = 4
??A?$tvec3@M@detail@glm@@QBEABMI@Z PROC			; glm::detail::tvec3<float>::operator[], COMDAT
; _this$ = ecx

; 58   : 	{

	push	ebp
	mov	ebp, esp
	sub	esp, 204				; 000000ccH
	push	ebx
	push	esi
	push	edi
	push	ecx
	lea	edi, DWORD PTR [ebp-204]
	mov	ecx, 51					; 00000033H
	mov	eax, -858993460				; ccccccccH
	rep stosd
	pop	ecx
	mov	DWORD PTR _this$[ebp], ecx

; 59   : 		assert(i < this->length());

	mov	ecx, DWORD PTR _this$[ebp]
	call	?length@?$tvec3@M@detail@glm@@QBEIXZ	; glm::detail::tvec3<float>::length
	cmp	DWORD PTR _i$[ebp], eax
	jb	SHORT $LN3@operator
	mov	esi, esp
	push	59					; 0000003bH
	push	OFFSET ??_C@_1FK@IBGOADNM@?$AAc?$AA?3?$AA?2?$AAo?$AAp?$AAe?$AAn?$AAg?$AAl?$AA?2?$AAg?$AAl?$AAm?$AA?9?$AA0?$AA?4?$AA9?$AA?4?$AA3?$AA?4?$AA1?$AA?2?$AAg?$AAl?$AAm?$AA?2?$AAc?$AAo?$AAr?$AAe?$AA?2?$AAt@
	push	OFFSET ??_C@_1CG@KOFHLCJL@?$AAi?$AA?5?$AA?$DM?$AA?5?$AAt?$AAh?$AAi?$AAs?$AA?9?$AA?$DO?$AAl?$AAe?$AAn?$AAg?$AAt?$AAh?$AA?$CI?$AA?$CJ?$AA?$AA@
	call	DWORD PTR __imp___wassert
	add	esp, 12					; 0000000cH
	cmp	esi, esp
	call	__RTC_CheckEsp
$LN3@operator:

; 60   : 		return (&x)[i];

	mov	eax, DWORD PTR _i$[ebp]
	mov	ecx, DWORD PTR _this$[ebp]
	lea	eax, DWORD PTR [ecx+eax*4]

; 61   : 	}

	pop	edi
	pop	esi
	pop	ebx
	add	esp, 204				; 000000ccH
	cmp	ebp, esp
	call	__RTC_CheckEsp
	mov	esp, ebp
	pop	ebp
	ret	4
??A?$tvec3@M@detail@glm@@QBEABMI@Z ENDP			; glm::detail::tvec3<float>::operator[]
_TEXT	ENDS
PUBLIC	??_C@_1FO@DLHICMNA@?$AAc?$AA?3?$AA?2?$AAo?$AAp?$AAe?$AAn?$AAg?$AAl?$AA?2?$AAg?$AAl?$AAm?$AA?9?$AA0?$AA?4?$AA9?$AA?4?$AA3?$AA?4?$AA1?$AA?2?$AAg?$AAl?$AAm?$AA?2?$AAc?$AAo?$AAr?$AAe?$AA?2?$AAt@ ; `string'
PUBLIC	?length@?$tmat3x3@M@detail@glm@@QBEIXZ		; glm::detail::tmat3x3<float>::length
;	COMDAT ??_C@_1FO@DLHICMNA@?$AAc?$AA?3?$AA?2?$AAo?$AAp?$AAe?$AAn?$AAg?$AAl?$AA?2?$AAg?$AAl?$AAm?$AA?9?$AA0?$AA?4?$AA9?$AA?4?$AA3?$AA?4?$AA1?$AA?2?$AAg?$AAl?$AAm?$AA?2?$AAc?$AAo?$AAr?$AAe?$AA?2?$AAt@
; File c:\opengl\glm-0.9.3.1\glm\core\type_mat3x3.inl
CONST	SEGMENT
??_C@_1FO@DLHICMNA@?$AAc?$AA?3?$AA?2?$AAo?$AAp?$AAe?$AAn?$AAg?$AAl?$AA?2?$AAg?$AAl?$AAm?$AA?9?$AA0?$AA?4?$AA9?$AA?4?$AA3?$AA?4?$AA1?$AA?2?$AAg?$AAl?$AAm?$AA?2?$AAc?$AAo?$AAr?$AAe?$AA?2?$AAt@ DB 'c'
	DB	00H, ':', 00H, '\', 00H, 'o', 00H, 'p', 00H, 'e', 00H, 'n', 00H
	DB	'g', 00H, 'l', 00H, '\', 00H, 'g', 00H, 'l', 00H, 'm', 00H, '-'
	DB	00H, '0', 00H, '.', 00H, '9', 00H, '.', 00H, '3', 00H, '.', 00H
	DB	'1', 00H, '\', 00H, 'g', 00H, 'l', 00H, 'm', 00H, '\', 00H, 'c'
	DB	00H, 'o', 00H, 'r', 00H, 'e', 00H, '\', 00H, 't', 00H, 'y', 00H
	DB	'p', 00H, 'e', 00H, '_', 00H, 'm', 00H, 'a', 00H, 't', 00H, '3'
	DB	00H, 'x', 00H, '3', 00H, '.', 00H, 'i', 00H, 'n', 00H, 'l', 00H
	DB	00H, 00H					; `string'
; Function compile flags: /Odtp /RTCsu /ZI
CONST	ENDS
;	COMDAT ??A?$tmat3x3@M@detail@glm@@QBEABU?$tvec3@M@12@I@Z
_TEXT	SEGMENT
_this$ = -8						; size = 4
_i$ = 8							; size = 4
??A?$tmat3x3@M@detail@glm@@QBEABU?$tvec3@M@12@I@Z PROC	; glm::detail::tmat3x3<float>::operator[], COMDAT
; _this$ = ecx

; 70   : 	{

	push	ebp
	mov	ebp, esp
	sub	esp, 204				; 000000ccH
	push	ebx
	push	esi
	push	edi
	push	ecx
	lea	edi, DWORD PTR [ebp-204]
	mov	ecx, 51					; 00000033H
	mov	eax, -858993460				; ccccccccH
	rep stosd
	pop	ecx
	mov	DWORD PTR _this$[ebp], ecx

; 71   : 		assert(i < this->length());

	mov	ecx, DWORD PTR _this$[ebp]
	call	?length@?$tmat3x3@M@detail@glm@@QBEIXZ	; glm::detail::tmat3x3<float>::length
	cmp	DWORD PTR _i$[ebp], eax
	jb	SHORT $LN3@operator@2
	mov	esi, esp
	push	71					; 00000047H
	push	OFFSET ??_C@_1FO@DLHICMNA@?$AAc?$AA?3?$AA?2?$AAo?$AAp?$AAe?$AAn?$AAg?$AAl?$AA?2?$AAg?$AAl?$AAm?$AA?9?$AA0?$AA?4?$AA9?$AA?4?$AA3?$AA?4?$AA1?$AA?2?$AAg?$AAl?$AAm?$AA?2?$AAc?$AAo?$AAr?$AAe?$AA?2?$AAt@
	push	OFFSET ??_C@_1CG@KOFHLCJL@?$AAi?$AA?5?$AA?$DM?$AA?5?$AAt?$AAh?$AAi?$AAs?$AA?9?$AA?$DO?$AAl?$AAe?$AAn?$AAg?$AAt?$AAh?$AA?$CI?$AA?$CJ?$AA?$AA@
	call	DWORD PTR __imp___wassert
	add	esp, 12					; 0000000cH
	cmp	esi, esp
	call	__RTC_CheckEsp
$LN3@operator@2:

; 72   : 		return this->value[i];

	mov	eax, DWORD PTR _i$[ebp]
	imul	eax, 12					; 0000000cH
	add	eax, DWORD PTR _this$[ebp]

; 73   : 	}

	pop	edi
	pop	esi
	pop	ebx
	add	esp, 204				; 000000ccH
	cmp	ebp, esp
	call	__RTC_CheckEsp
	mov	esp, ebp
	pop	ebp
	ret	4
??A?$tmat3x3@M@detail@glm@@QBEABU?$tvec3@M@12@I@Z ENDP	; glm::detail::tmat3x3<float>::operator[]
; Function compile flags: /Odtp /RTCsu /ZI
; File c:\opengl\glm-0.9.3.1\glm\core\type_vec3.inl
_TEXT	ENDS
;	COMDAT ?length@?$tvec3@M@detail@glm@@QBEIXZ
_TEXT	SEGMENT
_this$ = -8						; size = 4
?length@?$tvec3@M@detail@glm@@QBEIXZ PROC		; glm::detail::tvec3<float>::length, COMDAT
; _this$ = ecx

; 34   : 	{

	push	ebp
	mov	ebp, esp
	sub	esp, 204				; 000000ccH
	push	ebx
	push	esi
	push	edi
	push	ecx
	lea	edi, DWORD PTR [ebp-204]
	mov	ecx, 51					; 00000033H
	mov	eax, -858993460				; ccccccccH
	rep stosd
	pop	ecx
	mov	DWORD PTR _this$[ebp], ecx

; 35   : 		return 3;

	mov	eax, 3

; 36   : 	}

	pop	edi
	pop	esi
	pop	ebx
	mov	esp, ebp
	pop	ebp
	ret	0
?length@?$tvec3@M@detail@glm@@QBEIXZ ENDP		; glm::detail::tvec3<float>::length
; Function compile flags: /Odtp /RTCsu /ZI
; File c:\opengl\glm-0.9.3.1\glm\core\type_mat3x3.inl
_TEXT	ENDS
;	COMDAT ?length@?$tmat3x3@M@detail@glm@@QBEIXZ
_TEXT	SEGMENT
_this$ = -8						; size = 4
?length@?$tmat3x3@M@detail@glm@@QBEIXZ PROC		; glm::detail::tmat3x3<float>::length, COMDAT
; _this$ = ecx

; 34   :     {

	push	ebp
	mov	ebp, esp
	sub	esp, 204				; 000000ccH
	push	ebx
	push	esi
	push	edi
	push	ecx
	lea	edi, DWORD PTR [ebp-204]
	mov	ecx, 51					; 00000033H
	mov	eax, -858993460				; ccccccccH
	rep stosd
	pop	ecx
	mov	DWORD PTR _this$[ebp], ecx

; 35   :         return 3;

	mov	eax, 3

; 36   :     }

	pop	edi
	pop	esi
	pop	ebx
	mov	esp, ebp
	pop	ebp
	ret	0
?length@?$tmat3x3@M@detail@glm@@QBEIXZ ENDP		; glm::detail::tmat3x3<float>::length
_TEXT	ENDS
END
